(ialicized_models
CommandMatchingModel
p0
(dp1
S'loss'
p2
S'modified_huber'
p3
sS'grammar'
p4
NsS'name'
p5
S'EXIT_ALICE.model'
p6
sS'n_iter'
p7
I5
sS'penalty'
p8
S'none'
p9
sS'trained'
p10
I01
sS'alpha'
p11
F0.001
sS'data'
p12
(lp13
(S'please spotify previous'
p14
S'False'
p15
tp16
a(S'close window'
p17
g15
tp18
a(S'is it rainy this week'
p19
g15
tp20
a(S'will you open inbox please'
p21
g15
tp22
a(S'what is new in new gmail'
p23
g15
tp24
a(S'can you check my gmail please'
p25
g15
tp26
a(S'please make new event'
p27
g15
tp28
a(S"how's the weather this week"
p29
g15
tp30
a(S'can you add a new event'
p31
g15
tp32
a(S"aren't there any events on next"
p33
g15
tp34
a(S'alex'
p35
g15
tp36
a(S'please could you check my mail'
p37
g15
tp38
a(S'gather information on todays current events please'
p39
g15
tp40
a(S"what's today's weather"
p41
g15
tp42
a(S'check calendar on saturday'
p43
g15
tp44
a(S'start the song'
p45
g15
tp46
a(S'turn up the tune'
p47
g15
tp48
a(S'hey alex'
p49
g15
tp50
a(S'get current forecast'
p51
g15
tp52
a(S'any gmail'
p53
g15
tp54
a(S'shut my computer down'
p55
g15
tp56
a(S"don't i have any events on friday"
p57
g15
tp58
a(S'check events for this month'
p59
g15
tp60
a(S"don't i have anything on thursday"
p61
g15
tp62
a(S'could you schedule an event'
p63
g15
tp64
a(S'headlines'
p65
g15
tp66
a(S'can you please shutdown'
p67
g15
tp68
a(S'do i have anything on'
p69
g15
tp70
a(S'check the current time please'
p71
g15
tp72
a(S'please search google'
p73
g15
tp74
a(S"don't i have any events on next"
p75
g15
tp76
a(S'can you please add a new event'
p77
g15
tp78
a(S"if it's snowing today"
p79
g15
tp80
a(S"what're the headlines"
p81
g15
tp82
a(S'spotify next song '
p83
g15
tp84
a(S'can you turn the volume higher please'
p85
g15
tp86
a(S'what is new in my inbox please'
p87
g15
tp88
a(S'could you check my gmail'
p89
g15
tp90
a(S"don't i have to do anything on thursday"
p91
g15
tp92
a(S'get the current time'
p93
g15
tp94
a(S'please kill the current window'
p95
g15
tp96
a(S'check calendar'
p97
g15
tp98
a(S'check events on'
p99
g15
tp100
a(S'what events do i have on today'
p101
g15
tp102
a(S'start default browser'
p103
g15
tp104
a(S"what's this week's weather"
p105
g15
tp106
a(S'bye bye alice'
p107
S'True'
p108
tp109
a(S'am i free on saturday'
p110
g15
tp111
a(S'what is new in my gmail'
p112
g15
tp113
a(S'what is on my calendar for this month'
p114
g15
tp115
a(S"this week's temperature"
p116
g15
tp117
a(S'am i free for wednesday'
p118
g15
tp119
a(S'create an event'
p120
g15
tp121
a(S'start default browser please'
p122
g15
tp123
a(S'set the volume zero'
p124
g15
tp125
a(S'add new event please'
p126
g15
tp127
a(S'do i have any events'
p128
g15
tp129
a(S'get news feed'
p130
g15
tp131
a(S'what events do i have on tuesday'
p132
g15
tp133
a(S'please pause song'
p134
g15
tp135
a(S'please turn off'
p136
g15
tp137
a(S'any new mail'
p138
g15
tp139
a(S'find newsfeed'
p140
g15
tp141
a(S'google search'
p142
g15
tp143
a(S'could you make a new event'
p144
g15
tp145
a(S"today's headlines"
p146
g15
tp147
a(S'check calendar for thursday'
p148
g15
tp149
a(S'check my gmail please'
p150
g15
tp151
a(S'create new event'
p152
g15
tp153
a(S'do i have anything in a week'
p154
g15
tp155
a(S'check google calendar for saturday'
p156
g15
tp157
a(S'skip spotify please'
p158
g15
tp159
a(S'can you please kill this window'
p160
g15
tp161
a(S'current events today'
p162
g15
tp163
a(S"don't i have to do anything on this day"
p164
g15
tp165
a(S'what do i have on this day'
p166
g15
tp167
a(S'check my calendar on saturday'
p168
g15
tp169
a(S'can you please shut off'
p170
g15
tp171
a(S'turn the sound down please'
p172
g15
tp173
a(S'check events on'
p174
g15
tp175
a(S'what are the live news'
p176
g15
tp177
a(S'what events are on this day'
p178
g15
tp179
a(S'check google calendar for next'
p180
g15
tp181
a(S'what events do i have on sunday'
p182
g15
tp183
a(S'what do i have to do on this day'
p184
g15
tp185
a(S'turn off my computer please'
p186
g15
tp187
a(S'check events on friday'
p188
g15
tp189
a(S'check gmail please'
p190
g15
tp191
a(S"don't i have anything to do on thursday"
p192
g15
tp193
a(S'can you shut down'
p194
g15
tp195
a(S'tell me current news'
p196
g15
tp197
a(S'can you add event please'
p198
g15
tp199
a(S'is there anything to do in a month'
p200
g15
tp201
a(S'a decent problem gossips beside the shoulder'
p202
g15
tp203
a(S'open'
p204
g15
tp205
a(S'pause song please'
p206
g15
tp207
a(S'do i have to do anything'
p208
g15
tp209
a(S'what is in my mail please'
p210
g15
tp211
a(S'is there anything i have to do on friday'
p212
g15
tp213
a(S'can you check mail please'
p214
g15
tp215
a(S'live newsfeed today'
p216
g15
tp217
a(S'do i have any events on wednesday'
p218
g15
tp219
a(S'can you lock my computer please'
p220
g15
tp221
a(S'check my calendar'
p222
g15
tp223
a(S'good morning'
p224
g15
tp225
a(S'open inbox please'
p226
g15
tp227
a(S'please read the time'
p228
g15
tp229
a(S'please open mail'
p230
g15
tp231
a(S'spotify play last song please'
p232
g15
tp233
a(S'please will you check my mail'
p234
g15
tp235
a(S'could you please create new event'
p236
g15
tp237
a(S'can you check inbox please'
p238
g15
tp239
a(S'please shutdown'
p240
g15
tp241
a(S"what's this week's forecast"
p242
g15
tp243
a(S"what's if it's hot this week"
p244
g15
tp245
a(S'a releasing moderate stalls beside the material cell'
p246
g15
tp247
a(S'please check your watch'
p248
g15
tp249
a(S'what events do i have on saturday'
p250
g15
tp251
a(S'please what is in my inbox'
p252
g15
tp253
a(S"what's new in mail please"
p254
g15
tp255
a(S'retrieve what time it is please'
p256
g15
tp257
a(S'can you please close active window'
p258
g15
tp259
a(S"don't i have to do anything on friday"
p260
g15
tp261
a(S'google search please for'
p262
g15
tp263
a(S'please would you open my gmail'
p264
g15
tp265
a(S"don't i have to do anything on tuesday"
p266
g15
tp267
a(S'can you send me to the lock screen'
p268
g15
tp269
a(S'please turn it down'
p270
g15
tp271
a(S'please shut my computer down'
p272
g15
tp273
a(S'can you get information on the current events'
p274
g15
tp275
a(S"please what's new in my mail"
p276
g15
tp277
a(S'please can you make it louder'
p278
g15
tp279
a(S'please could you open mail'
p280
g15
tp281
a(S'turn yourself on'
p282
g15
tp283
a(S'find live news'
p284
g15
tp285
a(S'check google calendar for this day'
p286
g15
tp287
a(S'what do i have on sunday'
p288
g15
tp289
a(S'can you please shut down the computer'
p290
g15
tp291
a(S'please spotify start'
p292
g15
tp293
a(S'anything new in gmail'
p294
g15
tp295
a(S'is there anything to do on this day'
p296
g15
tp297
a(S'retrieve what time it is'
p298
g15
tp299
a(S'am i free on thursday'
p300
g15
tp301
a(S'what is in gmail please'
p302
g15
tp303
a(S'do i have any events in a month'
p304
g15
tp305
a(S'lock'
p306
g15
tp307
a(S"don't i have anything"
p308
g15
tp309
a(S'next'
p310
g15
tp311
a(S'give me the news please'
p312
g15
tp313
a(S"if it's foggy today"
p314
g15
tp315
a(S"what's new in new gmail"
p316
g15
tp317
a(S'could you create a new event'
p318
g15
tp319
a(S'check inbox'
p320
g15
tp321
a(S'what is on my calendar for wednesday'
p322
g15
tp323
a(S'check events on today'
p324
g15
tp325
a(S'open my inbox'
p326
g15
tp327
a(S'kill the program'
p328
g15
tp329
a(S'will it hail today'
p330
g15
tp331
a(S"aren't there any events on today"
p332
g15
tp333
a(S'get live news feed'
p334
g15
tp335
a(S'what do i have to do on saturday'
p336
g15
tp337
a(S'check the current time'
p338
g15
tp339
a(S'can you please kill current window'
p340
g15
tp341
a(S'what events are'
p342
g15
tp343
a(S'good bye'
p344
g108
tp345
a(S'check events on wednesday'
p346
g15
tp347
a(S'are there any events on today'
p348
g15
tp349
a(S'do i have any events on tuesday'
p350
g15
tp351
a(S'spotify start the song please'
p352
g15
tp353
a(S'go to dot ee dee you'
p354
g15
tp355
a(S'read the clock please'
p356
g15
tp357
a(S'check google calendar on tuesday'
p358
g15
tp359
a(S'what are the live news feed'
p360
g15
tp361
a(S'please spotify last song'
p362
g15
tp363
a(S'check my calendar for thursday'
p364
g15
tp365
a(S'will it rain this week'
p366
g15
tp367
a(S'is it raining today'
p368
g15
tp369
a(S"this week's temperature"
p370
g15
tp371
a(S'check events for wednesday'
p372
g15
tp373
a(S'open default browser please'
p374
g15
tp375
a(S'search please for'
p376
g15
tp377
a(S'will you get the headlines'
p378
g15
tp379
a(S'can you make new event'
p380
g15
tp381
a(S"if it's cold today"
p382
g15
tp383
a(S"please what's in gmail"
p384
g15
tp385
a(S'please could you open gmail'
p386
g15
tp387
a(S'could you check mail please'
p388
g15
tp389
a(S'create a new event please'
p390
g15
tp391
a(S'any events in a week'
p392
g15
tp393
a(S'check events on month'
p394
g15
tp395
a(S'find live newsfeed'
p396
g15
tp397
a(S"how's the forecast today"
p398
g15
tp399
a(S'read me the clock please'
p400
g15
tp401
a(S'find current events'
p402
g15
tp403
a(S'check google calendar on today'
p404
g15
tp405
a(S'please close current window'
p406
g15
tp407
a(S"don't i have anything on tuesday"
p408
g15
tp409
a(S"what's if it's rainy today"
p410
g15
tp411
a(S'will you open a browser'
p412
g15
tp413
a(S'open dot org'
p414
g15
tp415
a(S'please can you turn the volume higher'
p416
g15
tp417
a(S'stop song please'
p418
g15
tp419
a(S'are there any events'
p420
g15
tp421
a(S'what do i have to do on next'
p422
g15
tp423
a(S'please close the window'
p424
g15
tp425
a(S"don't i have to do anything on wednesday"
p426
g15
tp427
a(S"what's the news"
p428
g15
tp429
a(S'can you please kill the active window'
p430
g15
tp431
a(S'get current temperature'
p432
g15
tp433
a(S'do i have anything to do on tuesday'
p434
g15
tp435
a(S'please stop song'
p436
g15
tp437
a(S'can you turn the tune down'
p438
g15
tp439
a(S'what do i have on saturday'
p440
g15
tp441
a(S"don't i have anything today"
p442
g15
tp443
a(S'can you make event'
p444
g15
tp445
a(S'what are the current events'
p446
g15
tp447
a(S'get current events'
p448
g15
tp449
a(S'can you please turn off'
p450
g15
tp451
a(S'is there anything to do on monday'
p452
g15
tp453
a(S'please will you check my inbox'
p454
g15
tp455
a(S"get today's temperature"
p456
g15
tp457
a(S'am i free for'
p458
g15
tp459
a(S'do i have to do anything on tuesday'
p460
g15
tp461
a(S'can you please turn off the computer'
p462
g15
tp463
a(S"get today's forecast"
p464
g15
tp465
a(S'make an event'
p466
g15
tp467
a(S'add new event'
p468
g15
tp469
a(S'google for please'
p470
g15
tp471
a(S"what's new in my inbox please"
p472
g15
tp473
a(S'can you please create new event'
p474
g15
tp475
a(S'can you please add event'
p476
g15
tp477
a(S"get if it's snowing this week"
p478
g15
tp479
a(S'please check new mail'
p480
g15
tp481
a(S'open browser please'
p482
g15
tp483
a(S'could you please schedule event'
p484
g15
tp485
a(S'can you shutdown the computer'
p486
g15
tp487
a(S'open my mail please'
p488
g15
tp489
a(S'check my calendar for this day'
p490
g15
tp491
a(S'lower the volume'
p492
g15
tp493
a(S'please would you check gmail'
p494
g15
tp495
a(S'please will you open my gmail'
p496
g15
tp497
a(S'check my calendar for monday'
p498
g15
tp499
a(S'is there anything i have to do in a week'
p500
g15
tp501
a(S'can you schedule new event'
p502
g15
tp503
a(S"get this week's temperature"
p504
g15
tp505
a(S'would you check new mail please'
p506
g15
tp507
a(S"don't i have to do anything on saturday"
p508
g15
tp509
a(S"today's temperature"
p510
g15
tp511
a(S'do i have any events on next'
p512
g15
tp513
a(S'can you open this program'
p514
g15
tp515
a(S'turn the beat down please'
p516
g15
tp517
a(S'lock computer please'
p518
g15
tp519
a(S'tell me newsfeed'
p520
g15
tp521
a(S"don't i have to do anything on friday"
p522
g15
tp523
a(S'intel'
p524
g15
tp525
a(S"today's live news"
p526
g15
tp527
a(S'is there anything i have to do on monday'
p528
g15
tp529
a(S'what is new in new mail please'
p530
g15
tp531
a(S"what's in new gmail please"
p532
g15
tp533
a(S'what do i have on today'
p534
g15
tp535
a(S'what is newsfeed'
p536
g15
tp537
a(S'check my calendar for tuesday'
p538
g15
tp539
a(S'check google calendar on wednesday'
p540
g15
tp541
a(S'set the volume to zero'
p542
g15
tp543
a(S'schedule new event'
p544
g15
tp545
a(S'can you please shut down my computer'
p546
g15
tp547
a(S'how is the weather'
p548
g15
tp549
a(S'give me the current events'
p550
g15
tp551
a(S'what events are on'
p552
g15
tp553
a(S'could you please add new event'
p554
g15
tp555
a(S'what is current news'
p556
g15
tp557
a(S'please create a new event'
p558
g15
tp559
a(S'please read time'
p560
g15
tp561
a(S'check calendar on thursday'
p562
g15
tp563
a(S'turn up the tunez'
p564
g15
tp565
a(S'please check my gmail'
p566
g15
tp567
a(S'please search for'
p568
g15
tp569
a(S'do i have to do anything on next'
p570
g15
tp571
a(S'spotify go back'
p572
g15
tp573
a(S'please can you check new gmail'
p574
g15
tp575
a(S'please kill the active window'
p576
g15
tp577
a(S'check calendar for friday'
p578
g15
tp579
a(S'check events for next'
p580
g15
tp581
a(S'check calendar for today'
p582
g15
tp583
a(S'could you add an event'
p584
g15
tp585
a(S'any events on saturday'
p586
g15
tp587
a(S'can you schedule event'
p588
g15
tp589
a(S"please what's new in new mail"
p590
g15
tp591
a(S'send me to the lock screen'
p592
g15
tp593
a(S'get current time'
p594
g15
tp595
a(S'google please'
p596
g15
tp597
a(S'do i have any events in a week'
p598
g15
tp599
a(S'check events for friday'
p600
g15
tp601
a(S'spotify go back to the last song '
p602
g15
tp603
a(S'do i have anything on saturday'
p604
g15
tp605
a(S'sweet dreams alice'
p606
g108
tp607
a(S'bye alice'
p608
g108
tp609
a(S'get current news'
p610
g15
tp611
a(S'do i have to do anything on thursday'
p612
g15
tp613
a(S'can you check new gmail please'
p614
g15
tp615
a(S"today's temperature"
p616
g15
tp617
a(S'get time'
p618
g15
tp619
a(S'make the volume zero'
p620
g15
tp621
a(S'please could you check my gmail'
p622
g15
tp623
a(S'check calendar on monday'
p624
g15
tp625
a(S'spotify last please'
p626
g15
tp627
a(S'check calendar'
p628
g15
tp629
a(S'please sound up'
p630
g15
tp631
a(S'please shut down'
p632
g15
tp633
a(S"if it's cloudy this week"
p634
g15
tp635
a(S"how's the temperature today"
p636
g15
tp637
a(S'do i have anything'
p638
g15
tp639
a(S'find news feed'
p640
g15
tp641
a(S'check mail please'
p642
g15
tp643
a(S"get if it's raining this week"
p644
g15
tp645
a(S'retrieve the time please'
p646
g15
tp647
a(S'please give me the current events please'
p648
g15
tp649
a(S'will you check new mail'
p650
g15
tp651
a(S'do i have any events on thursday'
p652
g15
tp653
a(S'please add event'
p654
g15
tp655
a(S'will it snow today'
p656
g15
tp657
a(S'am i free for thursday'
p658
g15
tp659
a(S'can you turn up the volume'
p660
g15
tp661
a(S'could you open gmail please'
p662
g15
tp663
a(S"what's the weather"
p664
g15
tp665
a(S'create event please'
p666
g15
tp667
a(S'check your watch please'
p668
g15
tp669
a(S'train a classifier to try to predict the category of a post'
p670
g15
tp671
a(S'read the time please'
p672
g15
tp673
a(S"what's new in new gmail please"
p674
g15
tp675
a(S"please what's in my mail"
p676
g15
tp677
a(S'what is new in new mail'
p678
g15
tp679
a(S'check my calendar on thursday'
p680
g15
tp681
a(S'can you please add new event'
p682
g15
tp683
a(S'check calendar on this week'
p684
g15
tp685
a(S'can you check if i have anything in my inbox'
p686
g15
tp687
a(S'anything in inbox'
p688
g15
tp689
a(S'can you kill this window'
p690
g15
tp691
a(S'could you open my inbox'
p692
g15
tp693
a(S'please retrieve what time it is'
p694
g15
tp695
a(S'what is on my calendar for this week'
p696
g15
tp697
a(S'close this window'
p698
g15
tp699
a(S'stop'
p700
g15
tp701
a(S'could you check inbox please'
p702
g15
tp703
a(S'kill the active program'
p704
g15
tp705
a(S'extract the features using almost the same feature'
p706
g15
tp707
a(S'do i have to do anything on sunday'
p708
g15
tp709
a(S'check my inbox'
p710
g15
tp711
a(S"don't i have any events on today"
p712
g15
tp713
a(S'could you create a new event please'
p714
g15
tp715
a(S'open mail'
p716
g15
tp717
a(S'check calendar on sunday'
p718
g15
tp719
a(S'turn off please'
p720
g15
tp721
a(S"don't i have any events on wednesday"
p722
g15
tp723
a(S'shut my computer down please'
p724
g15
tp725
a(S'shut down'
p726
g15
tp727
a(S'shut down the computer'
p728
g15
tp729
a(S'open a browser please'
p730
g15
tp731
a(S'am i free on friday'
p732
g15
tp733
a(S'what are the the news'
p734
g15
tp735
a(S"what's the forecast"
p736
g15
tp737
a(S'can you check my inbox please'
p738
g15
tp739
a(S"don't i have anything to do on sunday"
p740
g15
tp741
a(S'check google calendar'
p742
g15
tp743
a(S'please start spotify'
p744
g15
tp745
a(S"what's weather"
p746
g15
tp747
a(S'send me to the lock screen please'
p748
g15
tp749
a(S'add an event'
p750
g15
tp751
a(S'search google for'
p752
g15
tp753
a(S'would you check new gmail'
p754
g15
tp755
a(S'turn up the tunes'
p756
g15
tp757
a(S"today's live news feed"
p758
g15
tp759
a(S'add a new event'
p760
g15
tp761
a(S'check my calendar for saturday'
p762
g15
tp763
a(S'turn down the volume'
p764
g15
tp765
a(S'shutdown please'
p766
g15
tp767
a(S'spotify pause please'
p768
g15
tp769
a(S'is it rainy today'
p770
g15
tp771
a(S'check new mail please'
p772
g15
tp773
a(S'make an event please'
p774
g15
tp775
a(S'schedule a new event'
p776
g15
tp777
a(S'go to dot gov'
p778
g15
tp779
a(S'good morning alice'
p780
g15
tp781
a(S'check calendar on wednesday'
p782
g15
tp783
a(S'any events on tomorrow'
p784
g15
tp785
a(S'read time please'
p786
g15
tp787
a(S'check my mail'
p788
g15
tp789
a(S'what do i have on tomorrow'
p790
g15
tp791
a(S'open inbox'
p792
g15
tp793
a(S'add event'
p794
g15
tp795
a(S'get newsfeed'
p796
g15
tp797
a(S'stop playing'
p798
g15
tp799
a(S'is there anything i have to do on tuesday'
p800
g15
tp801
a(S'stop spotify'
p802
g15
tp803
a(S'get clock please'
p804
g15
tp805
a(S'check my calendar for'
p806
g15
tp807
a(S"what's the weather this week"
p808
g15
tp809
a(S'can you create event please'
p810
g15
tp811
a(S'read the time'
p812
g15
tp813
a(S'anything new in inbox'
p814
g15
tp815
a(S'please go back'
p816
g15
tp817
a(S'can you shutdown'
p818
g15
tp819
a(S"today's newsfeed"
p820
g15
tp821
a(S'mute please'
p822
g15
tp823
a(S"what's in mail"
p824
g15
tp825
a(S"please what's new in my inbox"
p826
g15
tp827
a(S'start a default browser please'
p828
g15
tp829
a(S'can you lock computer please'
p830
g15
tp831
a(S'what is on my calendar for tuesday'
p832
g15
tp833
a(S'am i free for saturday'
p834
g15
tp835
a(S'what events do i have on friday'
p836
g15
tp837
a(S'spotify next'
p838
g15
tp839
a(S'open my mail'
p840
g15
tp841
a(S'brief me'
p842
g15
tp843
a(S'are there any events on monday'
p844
g15
tp845
a(S'get live news'
p846
g15
tp847
a(S'shutdown'
p848
g15
tp849
a(S'what events do i have on next'
p850
g15
tp851
a(S'bye'
p852
g108
tp853
a(S'could you please create event'
p854
g15
tp855
a(S'what events are on today'
p856
g15
tp857
a(S"what's in my mail"
p858
g15
tp859
a(S'am i free for this day'
p860
g15
tp861
a(S'please lock my computer'
p862
g15
tp863
a(S'can you turn yourself on please'
p864
g15
tp865
a(S'please could you check new mail'
p866
g15
tp867
a(S'check calendar on today'
p868
g15
tp869
a(S"i think i didn't answer an earlier question"
p870
g15
tp871
a(S'check my calendar for tomorrow'
p872
g15
tp873
a(S'turn the tune down'
p874
g15
tp875
a(S'am i free for next'
p876
g15
tp877
a(S'will you open mail'
p878
g15
tp879
a(S'get me the news todays'
p880
g15
tp881
a(S'do i have anything on friday'
p882
g15
tp883
a(S'check calendar for this month'
p884
g15
tp885
a(S'please can you check mail'
p886
g15
tp887
a(S'a backbone dictates above my grief'
p888
g15
tp889
a(S"what's new in inbox please"
p890
g15
tp891
a(S'what events do i have in a month'
p892
g15
tp893
a(S'increase the volume'
p894
g15
tp895
a(S'can you check my inbox'
p896
g15
tp897
a(S'please play spotify '
p898
g15
tp899
a(S"don't i have anything on wednesday"
p900
g15
tp901
a(S"what's if it's raining today"
p902
g15
tp903
a(S'please kill this window'
p904
g15
tp905
a(S'turn it down'
p906
g15
tp907
a(S'can you please close the active window'
p908
g15
tp909
a(S'stop the tunez'
p910
g15
tp911
a(S"get if it's foggy today"
p912
g15
tp913
a(S'what is on my calendar'
p914
g15
tp915
a(S'could you please make an event'
p916
g15
tp917
a(S'when is it please'
p918
g15
tp919
a(S'get weather'
p920
g15
tp921
a(S'check new mail'
p922
g15
tp923
a(S'check events on sunday'
p924
g15
tp925
a(S'can you check inbox'
p926
g15
tp927
a(S'whats going on in the world todays please'
p928
g15
tp929
a(S'please spotify pause'
p930
g15
tp931
a(S'is there anything to do on today'
p932
g15
tp933
a(S'please check new gmail'
p934
g15
tp935
a(S'current events'
p936
g15
tp937
a(S'please open my mail'
p938
g15
tp939
a(S'can you send me to the lock screen please'
p940
g15
tp941
a(S"get if it's freezing this week"
p942
g15
tp943
a(S'what events are on wednesday'
p944
g15
tp945
a(S'what is news feed'
p946
g15
tp947
a(S'check calendar for tomorrow'
p948
g15
tp949
a(S'are there any events on tomorrow'
p950
g15
tp951
a(S'could you please make new event'
p952
g15
tp953
a(S'please start browsing'
p954
g15
tp955
a(S'google'
p956
g15
tp957
a(S'please spotify pause the song'
p958
g15
tp959
a(S"don't i have anything on friday"
p960
g15
tp961
a(S'check new gmail'
p962
g15
tp963
a(S'could you schedule event please'
p964
g15
tp965
a(S'play the song before'
p966
g15
tp967
a(S"get if it's rainy this week"
p968
g15
tp969
a(S'open mail please'
p970
g15
tp971
a(S'is there anything to do on friday'
p972
g15
tp973
a(S"what's in new mail"
p974
g15
tp975
a(S'live news feed'
p976
g15
tp977
a(S'music down'
p978
g15
tp979
a(S'open my inbox please'
p980
g15
tp981
a(S"what's new in my gmail"
p982
g15
tp983
a(S'can you please turn my computer off'
p984
g15
tp985
a(S'please check the current time'
p986
g15
tp987
a(S'can you please exit'
p988
g108
tp989
a(S'what is in mail please'
p990
g15
tp991
a(S"what's this week's temperature"
p992
g15
tp993
a(S'check events for thursday'
p994
g15
tp995
a(S'turn up the volume'
p996
g15
tp997
a(S'close current window'
p998
g15
tp999
a(S"don't i have anything tomorrow"
p1000
g15
tp1001
a(S'anything in mail'
p1002
g15
tp1003
a(S'would you open inbox please'
p1004
g15
tp1005
a(S'can you add an event'
p1006
g15
tp1007
a(S'news now please'
p1008
g15
tp1009
a(S'what do i have to do on sunday'
p1010
g15
tp1011
a(S"this week's weather"
p1012
g15
tp1013
a(S'spotify play'
p1014
g15
tp1015
a(S'what is news'
p1016
g15
tp1017
a(S'open my gmail please'
p1018
g15
tp1019
a(S'please would you open my inbox'
p1020
g15
tp1021
a(S'will you check mail please'
p1022
g15
tp1023
a(S'do i have to do anything on saturday'
p1024
g15
tp1025
a(S"how's the weather today"
p1026
g15
tp1027
a(S'decrease the volume'
p1028
g15
tp1029
a(S'please schedule an event'
p1030
g15
tp1031
a(S'current time'
p1032
g15
tp1033
a(S'would you open my mail'
p1034
g15
tp1035
a(S'debrief me'
p1036
g15
tp1037
a(S'can you please turn the beat down'
p1038
g15
tp1039
a(S'get current time please'
p1040
g15
tp1041
a(S'any events on sunday'
p1042
g15
tp1043
a(S'open a default browser please'
p1044
g15
tp1045
a(S'what do i have'
p1046
g15
tp1047
a(S'start browsing please'
p1048
g15
tp1049
a(S'open dot com'
p1050
g15
tp1051
a(S'how is the forecast'
p1052
g15
tp1053
a(S'is it raining this week'
p1054
g15
tp1055
a(S'lock my computer'
p1056
g15
tp1057
a(S"what're the news feed"
p1058
g15
tp1059
a(S'what events do i have'
p1060
g15
tp1061
a(S'please open browser'
p1062
g15
tp1063
a(S'spotify go to the last song'
p1064
g15
tp1065
a(S'check my calendar on next'
p1066
g15
tp1067
a(S'shut off'
p1068
g15
tp1069
a(S'please what is new in mail'
p1070
g15
tp1071
a(S'please google search'
p1072
g15
tp1073
a(S"please what's in my inbox"
p1074
g15
tp1075
a(S"what's new in new mail"
p1076
g15
tp1077
a(S'please shut down the computer'
p1078
g15
tp1079
a(S'give me the current events please'
p1080
g15
tp1081
a(S'bye bye'
p1082
g108
tp1083
a(S'do i have to do anything tomorrow'
p1084
g15
tp1085
a(S'am i free on this day'
p1086
g15
tp1087
a(S'am i free today'
p1088
g15
tp1089
a(S'can you quit'
p1090
g108
tp1091
a(S'is there anything i have to do on tomorrow'
p1092
g15
tp1093
a(S"today's current news "
p1094
g15
tp1095
a(S"don't i have to do anything on this day"
p1096
g15
tp1097
a(S'any events on'
p1098
g15
tp1099
a(S'what events do i have on wednesday'
p1100
g15
tp1101
a(S"don't i have any events in a month"
p1102
g15
tp1103
a(S'google search please'
p1104
g15
tp1105
a(S"this week's weather"
p1106
g15
tp1107
a(S"aren't there any events on"
p1108
g15
tp1109
a(S'can you open browser please'
p1110
g15
tp1111
a(S'would you open inbox'
p1112
g15
tp1113
a(S'what is in new mail'
p1114
g15
tp1115
a(S'please start a default browser'
p1116
g15
tp1117
a(S'check my calendar on sunday'
p1118
g15
tp1119
a(S'do i have anything on monday'
p1120
g15
tp1121
a(S'am i free on tomorrow'
p1122
g15
tp1123
a(S'can you schedule an event'
p1124
g15
tp1125
a(S'schedule a new event please'
p1126
g15
tp1127
a(S"this week's forecast"
p1128
g15
tp1129
a(S'are there any events in a week'
p1130
g15
tp1131
a(S'will you check gmail please'
p1132
g15
tp1133
a(S'can you get the latest headlines'
p1134
g15
tp1135
a(S'what do i have on next'
p1136
g15
tp1137
a(S'issue commands'
p1138
g15
tp1139
a(S'lock the screen please'
p1140
g15
tp1141
a(S'song stop'
p1142
g15
tp1143
a(S'is it cloudy this week'
p1144
g15
tp1145
a(S'please get the current time'
p1146
g15
tp1147
a(S'check my calendar for next'
p1148
g15
tp1149
a(S'please read your watch'
p1150
g15
tp1151
a(S'will you open mail please'
p1152
g15
tp1153
a(S"what's new in mail"
p1154
g15
tp1155
a(S'what do i have on friday'
p1156
g15
tp1157
a(S'live newsfeed'
p1158
g15
tp1159
a(S'what is in my inbox please'
p1160
g15
tp1161
a(S'retrieve the current time please'
p1162
g15
tp1163
a(S'go to dot org'
p1164
g15
tp1165
a(S'could you open my inbox please'
p1166
g15
tp1167
a(S'what is in my gmail please'
p1168
g15
tp1169
a(S'do i have anything to do on thursday'
p1170
g15
tp1171
a(S'check events for sunday'
p1172
g15
tp1173
a(S'is it cold today'
p1174
g15
tp1175
a(S'would you check my mail'
p1176
g15
tp1177
a(S'would you check mail'
p1178
g15
tp1179
a(S'please start a browser'
p1180
g15
tp1181
a(S'any events on today'
p1182
g15
tp1183
a(S'is it hot this week'
p1184
g15
tp1185
a(S'what do i have to do'
p1186
g15
tp1187
a(S'get the clock please'
p1188
g15
tp1189
a(S'kill the music'
p1190
g15
tp1191
a(S"if it's raining this week"
p1192
g15
tp1193
a(S'please what is in new mail'
p1194
g15
tp1195
a(S'start a default browser'
p1196
g15
tp1197
a(S'will you check mail'
p1198
g15
tp1199
a(S'can you check my gmail'
p1200
g15
tp1201
a(S"today's news feed"
p1202
g15
tp1203
a(S'what is on my calendar for monday'
p1204
g15
tp1205
a(S"get if it's cloudy today"
p1206
g15
tp1207
a(S'can you unmute'
p1208
g15
tp1209
a(S'will you check new gmail'
p1210
g15
tp1211
a(S'turn up the sound'
p1212
g15
tp1213
a(S'skip'
p1214
g15
tp1215
a(S'please could you check mail'
p1216
g15
tp1217
a(S'please kill active window'
p1218
g15
tp1219
a(S'check events for this week'
p1220
g15
tp1221
a(S'please can you check inbox'
p1222
g15
tp1223
a(S'could you schedule new event'
p1224
g15
tp1225
a(S'what is going on in the world today'
p1226
g15
tp1227
a(S'get the current events'
p1228
g15
tp1229
a(S'time'
p1230
g15
tp1231
a(S'get the information'
p1232
g15
tp1233
a(S'good night alice'
p1234
g108
tp1235
a(S'please could you open my mail'
p1236
g15
tp1237
a(S'go spotify please'
p1238
g15
tp1239
a(S'is there anything i have to do tomorrow'
p1240
g15
tp1241
a(S'make the sound softer'
p1242
g15
tp1243
a(S'close current program'
p1244
g15
tp1245
a(S"what's if it's hot today"
p1246
g15
tp1247
a(S'can you create an event'
p1248
g15
tp1249
a(S'what events are on next'
p1250
g15
tp1251
a(S'please could you check inbox'
p1252
g15
tp1253
a(S'can you close the active window'
p1254
g15
tp1255
a(S'please louder'
p1256
g15
tp1257
a(S'open dot ee dee you'
p1258
g15
tp1259
a(S'put me on the lock screen please'
p1260
g15
tp1261
a(S'pause spotify please'
p1262
g15
tp1263
a(S'is there anything to do on sunday'
p1264
g15
tp1265
a(S'check events on tomorrow'
p1266
g15
tp1267
a(S'could you add a new event please'
p1268
g15
tp1269
a(S'what are the live newsfeed'
p1270
g15
tp1271
a(S'please go to'
p1272
g15
tp1273
a(S"if it's hot this week"
p1274
g15
tp1275
a(S'get clock'
p1276
g15
tp1277
a(S'make a new event'
p1278
g15
tp1279
a(S"aren't there any events on tomorrow"
p1280
g15
tp1281
a(S'create new event please'
p1282
g15
tp1283
a(S'please shutdown my computer'
p1284
g15
tp1285
a(S'do i have to do anything on wednesday'
p1286
g15
tp1287
a(S"what's if it's snowing today"
p1288
g15
tp1289
a(S'read me the clock'
p1290
g15
tp1291
a(S'search for'
p1292
g15
tp1293
a(S'what do i have to do on today'
p1294
g15
tp1295
a(S'can you make a new event please'
p1296
g15
tp1297
a(S"don't i have to do anything in a week"
p1298
g15
tp1299
a(S'can you please turn the sound down'
p1300
g15
tp1301
a(S'please what is new in inbox'
p1302
g15
tp1303
a(S"don't i have any events on this day"
p1304
g15
tp1305
a(S'check events'
p1306
g15
tp1307
a(S'please create event'
p1308
g15
tp1309
a(S"today's news"
p1310
g15
tp1311
a(S'do i have anything to do on monday'
p1312
g15
tp1313
a(S'are there any events on next'
p1314
g15
tp1315
a(S'please open a browser'
p1316
g15
tp1317
a(S'what is new in my mail'
p1318
g15
tp1319
a(S'turn my computer off'
p1320
g15
tp1321
a(S'please check mail'
p1322
g15
tp1323
a(S'turn up the beat please'
p1324
g15
tp1325
a(S'can you shut my computer down'
p1326
g15
tp1327
a(S'will you check new mail please'
p1328
g15
tp1329
a(S"don't i have to do anything on sunday"
p1330
g15
tp1331
a(S'current news'
p1332
g15
tp1333
a(S'spotify stop'
p1334
g15
tp1335
a(S"don't i have anything to do today"
p1336
g15
tp1337
a(S'please volume higher'
p1338
g15
tp1339
a(S'could you please create a new event'
p1340
g15
tp1341
a(S'can you turn off'
p1342
g15
tp1343
a(S'could you please schedule a new event'
p1344
g15
tp1345
a(S'check the clock please'
p1346
g15
tp1347
a(S'please what is new in gmail'
p1348
g15
tp1349
a(S"what're the the news"
p1350
g15
tp1351
a(S'tell me live news feed'
p1352
g15
tp1353
a(S"what's the current news"
p1354
g15
tp1355
a(S'what is in mail'
p1356
g15
tp1357
a(S'am i free'
p1358
g15
tp1359
a(S'play song'
p1360
g15
tp1361
a(S'check the clock right now'
p1362
g15
tp1363
a(S'could you please add a new event'
p1364
g15
tp1365
a(S'check events for monday'
p1366
g15
tp1367
a(S'what events are going on right now'
p1368
g15
tp1369
a(S'what is new in gmail'
p1370
g15
tp1371
a(S'close the current window'
p1372
g15
tp1373
a(S'am i free for tuesday'
p1374
g15
tp1375
a(S'can you please turn the tune down'
p1376
g15
tp1377
a(S'can you add an event please'
p1378
g15
tp1379
a(S'please what is in new gmail'
p1380
g15
tp1381
a(S'can you turn the sound down'
p1382
g15
tp1383
a(S'make event please'
p1384
g15
tp1385
a(S'check my calendar on wednesday'
p1386
g15
tp1387
a(S"what's new in my gmail please"
p1388
g15
tp1389
a(S'can you please add an event'
p1390
g15
tp1391
a(S'sound higher please'
p1392
g15
tp1393
a(S"what's new in new mail please"
p1394
g15
tp1395
a(S'can you please shutdown the computer'
p1396
g15
tp1397
a(S'can you please create an event'
p1398
g15
tp1399
a(S"what's in new mail please"
p1400
g15
tp1401
a(S'can you please turn up the tune'
p1402
g15
tp1403
a(S'could you check new mail'
p1404
g15
tp1405
a(S'shut off my computer please'
p1406
g15
tp1407
a(S'please close this window'
p1408
g15
tp1409
a(S'the news'
p1410
g15
tp1411
a(S'am i free for monday'
p1412
g15
tp1413
a(S'make the sound louder'
p1414
g15
tp1415
a(S'please what is in mail'
p1416
g15
tp1417
a(S'please would you open mail'
p1418
g15
tp1419
a(S'what are the news feed'
p1420
g15
tp1421
a(S'can you create a new event'
p1422
g15
tp1423
a(S'do i have anything to do in a month'
p1424
g15
tp1425
a(S'is there anything to do on thursday'
p1426
g15
tp1427
a(S'can you get the current events'
p1428
g15
tp1429
a(S'check my calendar for today'
p1430
g15
tp1431
a(S"what's if it's cold today"
p1432
g15
tp1433
a(S'can you lock my computer please'
p1434
g15
tp1435
a(S'turn up the beat'
p1436
g15
tp1437
a(S'do i have to do anything on this day'
p1438
g15
tp1439
a(S'exit'
p1440
g108
tp1441
a(S'what is new in new gmail please'
p1442
g15
tp1443
a(S"what's the temperature today"
p1444
g15
tp1445
a(S'kill the active window'
p1446
g15
tp1447
a(S'start'
p1448
g15
tp1449
a(S'good night'
p1450
g108
tp1451
a(S'alice'
p1452
g15
tp1453
a(S'check google calendar for tomorrow'
p1454
g15
tp1455
a(S'check calendar on month'
p1456
g15
tp1457
a(S"what's if it's cloudy today"
p1458
g15
tp1459
a(S'please open my gmail'
p1460
g15
tp1461
a(S'would you check my inbox'
p1462
g15
tp1463
a(S'is it cold this week'
p1464
g15
tp1465
a(S"aren't there any events on friday"
p1466
g15
tp1467
a(S"don't i have anything on this day"
p1468
g15
tp1469
a(S'please google'
p1470
g15
tp1471
a(S'do i have any events on this day'
p1472
g15
tp1473
a(S'would you check gmail'
p1474
g15
tp1475
a(S'turn yourself on please'
p1476
g15
tp1477
a(S'please can you check my mail'
p1478
g15
tp1479
a(S'go ahead spotify please'
p1480
g15
tp1481
a(S'turn up the the beat'
p1482
g15
tp1483
a(S'alice go ahead please'
p1484
g15
tp1485
a(S'could you make new event'
p1486
g15
tp1487
a(S'what is on my calendar for thursday'
p1488
g15
tp1489
a(S'please can you check gmail'
p1490
g15
tp1491
a(S'make new event'
p1492
g15
tp1493
a(S"aren't there any events in a month"
p1494
g15
tp1495
a(S'check calendar for sunday'
p1496
g15
tp1497
a(S'what events do i have on this day'
p1498
g15
tp1499
a(S'what is in inbox please'
p1500
g15
tp1501
a(S'is there anything i have to do on this day'
p1502
g15
tp1503
a(S'find the current events'
p1504
g15
tp1505
a(S'spotify play the song before'
p1506
g15
tp1507
a(S'check calendar for monday'
p1508
g15
tp1509
a(S'please go to dot com'
p1510
g15
tp1511
a(S'are there any events on thursday'
p1512
g15
tp1513
a(S'would you check inbox please'
p1514
g15
tp1515
a(S'is there anything to do today'
p1516
g15
tp1517
a(S'check google calendar for this week'
p1518
g15
tp1519
a(S'alice next please'
p1520
g15
tp1521
a(S'would you check gmail please'
p1522
g15
tp1523
a(S"don't i have to do anything in a month"
p1524
g15
tp1525
a(S'get live newsfeed'
p1526
g15
tp1527
a(S'turn up the sound please'
p1528
g15
tp1529
a(S'close active window'
p1530
g15
tp1531
a(S"what's if it's foggy today"
p1532
g15
tp1533
a(S'open dot net'
p1534
g15
tp1535
a(S'what is new in gmail please'
p1536
g15
tp1537
a(S'check the clock right now please'
p1538
g15
tp1539
a(S'could you please schedule an event'
p1540
g15
tp1541
a(S'can you lock the screen please'
p1542
g15
tp1543
a(S'pause spotify'
p1544
g15
tp1545
a(S'anything new in mail'
p1546
g15
tp1547
a(S'what events are on friday'
p1548
g15
tp1549
a(S'play spotify please'
p1550
g15
tp1551
a(S'can you check my mail please'
p1552
g15
tp1553
a(S'check calendar for'
p1554
g15
tp1555
a(S'please schedule a new event'
p1556
g15
tp1557
a(S'next spotify please'
p1558
g15
tp1559
a(S'start browsing'
p1560
g15
tp1561
a(S"don't i have to do anything tomorrow"
p1562
g15
tp1563
a(S'can you shut off'
p1564
g15
tp1565
a(S'do i have anything to do on next'
p1566
g15
tp1567
a(S'find headlines'
p1568
g15
tp1569
a(S'do i have to do anything on monday'
p1570
g15
tp1571
a(S'search google please for'
p1572
g15
tp1573
a(S'are there any events on friday'
p1574
g15
tp1575
a(S'could you make event please'
p1576
g15
tp1577
a(S'news feed'
p1578
g15
tp1579
a(S'will you check my gmail please'
p1580
g15
tp1581
a(S'start a browser please'
p1582
g15
tp1583
a(S"don't i have anything on saturday"
p1584
g15
tp1585
a(S'what is in my mail'
p1586
g15
tp1587
a(S"what's temperature"
p1588
g15
tp1589
a(S'please spotify play last song'
p1590
g15
tp1591
a(S"don't i have anything to do on wednesday"
p1592
g15
tp1593
a(S'make the volume lower'
p1594
g15
tp1595
a(S'can you make new event please'
p1596
g15
tp1597
a(S'any events in a month'
p1598
g15
tp1599
a(S'check google calendar on thursday'
p1600
g15
tp1601
a(S"aren't there any events"
p1602
g15
tp1603
a(S'am i free for today'
p1604
g15
tp1605
a(S'please can you check my gmail'
p1606
g15
tp1607
a(S"don't i have anything on next"
p1608
g15
tp1609
a(S'check my calendar for wednesday'
p1610
g15
tp1611
a(S'please give me current events'
p1612
g15
tp1613
a(S'check my gmail'
p1614
g15
tp1615
a(S'please what is in gmail'
p1616
g15
tp1617
a(S'could you open inbox please'
p1618
g15
tp1619
a(S'make the sound quieter'
p1620
g15
tp1621
a(S'search for please'
p1622
g15
tp1623
a(S'do i have anything on next'
p1624
g15
tp1625
a(S'am i free for friday'
p1626
g15
tp1627
a(S'could you open my gmail please'
p1628
g15
tp1629
a(S'can you add new event please'
p1630
g15
tp1631
a(S"aren't there any events on tuesday"
p1632
g15
tp1633
a(S'spotify last song please'
p1634
g15
tp1635
a(S'current news today'
p1636
g15
tp1637
a(S'please start browser'
p1638
g15
tp1639
a(S'check calendar on next'
p1640
g15
tp1641
a(S"if it's cloudy today"
p1642
g15
tp1643
a(S'get the clock'
p1644
g15
tp1645
a(S'kill the noise'
p1646
g15
tp1647
a(S'turn up the sound'
p1648
g15
tp1649
a(S'kill current window'
p1650
g15
tp1651
a(S'could you please add an event'
p1652
g15
tp1653
a(S'is there anything to do on'
p1654
g15
tp1655
a(S'make event'
p1656
g15
tp1657
a(S'pause the song please'
p1658
g15
tp1659
a(S'what is new in mail'
p1660
g15
tp1661
a(S'please turn it up'
p1662
g15
tp1663
a(S'can you make an event please'
p1664
g15
tp1665
a(S"get if it's rainy today"
p1666
g15
tp1667
a(S"what're the news"
p1668
g15
tp1669
a(S'stop the song'
p1670
g15
tp1671
a(S'am i free on tuesday'
p1672
g15
tp1673
a(S"aren't there any events on thursday"
p1674
g15
tp1675
a(S"what's the the news"
p1676
g15
tp1677
a(S"this week's forecast"
p1678
g15
tp1679
a(S'get current weather'
p1680
g15
tp1681
a(S'any events on friday'
p1682
g15
tp1683
a(S"how's the temperature this week"
p1684
g15
tp1685
a(S'can you add new event'
p1686
g15
tp1687
a(S"what's if it's foggy this week"
p1688
g15
tp1689
a(S'can you close this window'
p1690
g15
tp1691
a(S'can you please turn up the sound'
p1692
g15
tp1693
a(S'can you please turn up the beat'
p1694
g15
tp1695
a(S'check my calendar on this day'
p1696
g15
tp1697
a(S'check gmail'
p1698
g15
tp1699
a(S'go to dot net'
p1700
g15
tp1701
a(S'check google calendar on monday'
p1702
g15
tp1703
a(S'please kill the window'
p1704
g15
tp1705
a(S'make new event please'
p1706
g15
tp1707
a(S'lock the screen'
p1708
g15
tp1709
a(S'turn up the volume'
p1710
g15
tp1711
a(S'can you lock the screen'
p1712
g15
tp1713
a(S'shutdown my computer please'
p1714
g15
tp1715
a(S'check my mail please'
p1716
g15
tp1717
a(S"don't i have to do anything on monday"
p1718
g15
tp1719
a(S'open gmail'
p1720
g15
tp1721
a(S'can you create event'
p1722
g15
tp1723
a(S"don't i have anything to do"
p1724
g15
tp1725
a(S'what is headlines'
p1726
g15
tp1727
a(S'check google calendar for sunday'
p1728
g15
tp1729
a(S"don't i have anything to do on this day"
p1730
g15
tp1731
a(S'shut the fuck up'
p1732
g15
tp1733
a(S'shut up please'
p1734
g15
tp1735
a(S"how's the temperature"
p1736
g15
tp1737
a(S'what are the current news'
p1738
g15
tp1739
a(S"what's the live news feed"
p1740
g15
tp1741
a(S"how's the weather"
p1742
g15
tp1743
a(S'lock computer'
p1744
g15
tp1745
a(S'please retrieve the time'
p1746
g15
tp1747
a(S"today's live newsfeed"
p1748
g15
tp1749
a(S'would you check mail please'
p1750
g15
tp1751
a(S'could you schedule a new event'
p1752
g15
tp1753
a(S'check calendar for this week'
p1754
g15
tp1755
a(S'will you check my gmail'
p1756
g15
tp1757
a(S'any events'
p1758
g15
tp1759
a(S'could you please add event'
p1760
g15
tp1761
a(S"what's the temperature"
p1762
g15
tp1763
a(S'am i free on'
p1764
g15
tp1765
a(S"what's the weather today"
p1766
g15
tp1767
a(S'please spotify pause'
p1768
g15
tp1769
a(S'tell me current events'
p1770
g15
tp1771
a(S'could you please create an event'
p1772
g15
tp1773
a(S'check calendar for wednesday'
p1774
g15
tp1775
a(S'retrieve the time'
p1776
g15
tp1777
a(S'could you check inbox'
p1778
g15
tp1779
a(S'will you check inbox'
p1780
g15
tp1781
a(S"what's new in my mail"
p1782
g15
tp1783
a(S'what do i have to do on friday'
p1784
g15
tp1785
a(S'could you open gmail'
p1786
g15
tp1787
a(S'am i free on next'
p1788
g15
tp1789
a(S'what do i have on wednesday'
p1790
g15
tp1791
a(S'check events for this day'
p1792
g15
tp1793
a(S'please spotify play previous song'
p1794
g15
tp1795
a(S'time please'
p1796
g15
tp1797
a(S'could you create an event please'
p1798
g15
tp1799
a(S"what's in my gmail"
p1800
g15
tp1801
a(S'could you open my mail please'
p1802
g15
tp1803
a(S'can you please turn up the volume'
p1804
g15
tp1805
a(S'check events for saturday'
p1806
g15
tp1807
a(S"don't i have anything to do on"
p1808
g15
tp1809
a(S'quit'
p1810
g108
tp1811
a(S'can you open a browser please'
p1812
g15
tp1813
a(S'byebye'
p1814
g108
tp1815
a(S'check google calendar on saturday'
p1816
g15
tp1817
a(S'please check my mail'
p1818
g15
tp1819
a(S'tell me live newsfeed'
p1820
g15
tp1821
a(S'spotify go please'
p1822
g15
tp1823
a(S'are there any events on saturday'
p1824
g15
tp1825
a(S'am i free for sunday'
p1826
g15
tp1827
a(S'any events on next'
p1828
g15
tp1829
a(S'will you open my inbox please'
p1830
g15
tp1831
a(S'we stick to simple problems in this post for the sake of illustration'
p1832
g15
tp1833
a(S'what is new in inbox'
p1834
g15
tp1835
a(S'can you close the current window'
p1836
g15
tp1837
a(S'what time is it right now'
p1838
g15
tp1839
a(S"what's the live news"
p1840
g15
tp1841
a(S'will you open gmail please'
p1842
g15
tp1843
a(S'can you add a new event please'
p1844
g15
tp1845
a(S"what's new in my mail please"
p1846
g15
tp1847
a(S'todays headlines'
p1848
g15
tp1849
a(S'can you turn the beat down'
p1850
g15
tp1851
a(S'shut up'
p1852
g15
tp1853
a(S'are there any events on this day'
p1854
g15
tp1855
a(S'please could you open my gmail'
p1856
g15
tp1857
a(S"please what's in new gmail"
p1858
g15
tp1859
a(S"please what's in new mail"
p1860
g15
tp1861
a(S'tell me news'
p1862
g15
tp1863
a(S"don't i have any events on"
p1864
g15
tp1865
a(S'go back please'
p1866
g15
tp1867
a(S'please will you open mail'
p1868
g15
tp1869
a(S'what events are on tuesday'
p1870
g15
tp1871
a(S'do i have any events on monday'
p1872
g15
tp1873
a(S"what's new in my inbox"
p1874
g15
tp1875
a(S'please what is in my gmail'
p1876
g15
tp1877
a(S'what is current events'
p1878
g15
tp1879
a(S'turn it up please'
p1880
g15
tp1881
a(S'can you turn up the volume please'
p1882
g15
tp1883
a(S"what's in my inbox"
p1884
g15
tp1885
a(S'could you add event please'
p1886
g15
tp1887
a(S'go back to the last song '
p1888
g15
tp1889
a(S'is there anything to do in a week'
p1890
g15
tp1891
a(S'live news feed today'
p1892
g15
tp1893
a(S"what's the current events"
p1894
g15
tp1895
a(S"get if it's raining today"
p1896
g15
tp1897
a(S'is it hot today'
p1898
g15
tp1899
a(S'is there anything to do on wednesday'
p1900
g15
tp1901
a(S'could you please make event'
p1902
g15
tp1903
a(S"don't i have any events on sunday"
p1904
g15
tp1905
a(S'turn off the beats'
p1906
g15
tp1907
a(S"get if it's freezing today"
p1908
g15
tp1909
a(S'check my calendar for this month'
p1910
g15
tp1911
a(S"aren't there any events on this day"
p1912
g15
tp1913
a(S'will you check new gmail please'
p1914
g15
tp1915
a(S'what is in new mail please'
p1916
g15
tp1917
a(S'be quiet'
p1918
g15
tp1919
a(S'spotify start please'
p1920
g15
tp1921
a(S'find live news feed'
p1922
g15
tp1923
a(S'what do i have to do in a week'
p1924
g15
tp1925
a(S'go to dot edu'
p1926
g15
tp1927
a(S'open a browser'
p1928
g15
tp1929
a(S'give me intel on current events'
p1930
g15
tp1931
a(S'check google calendar on next'
p1932
g15
tp1933
a(S'could you schedule event'
p1934
g15
tp1935
a(S'what is in inbox'
p1936
g15
tp1937
a(S'can you shut off my computer'
p1938
g15
tp1939
a(S'check google calendar for today'
p1940
g15
tp1941
a(S'please pause the song'
p1942
g15
tp1943
a(S'am i free in a week'
p1944
g15
tp1945
a(S"what's the headlines"
p1946
g15
tp1947
a(S"don't i have anything in a week"
p1948
g15
tp1949
a(S'tell me headlines'
p1950
g15
tp1951
a(S'spotify play the song'
p1952
g15
tp1953
a(S'can you schedule event please'
p1954
g15
tp1955
a(S"what're the current news"
p1956
g15
tp1957
a(S'please will you open gmail'
p1958
g15
tp1959
a(S'check the clock'
p1960
g15
tp1961
a(S'do i have to do anything today'
p1962
g15
tp1963
a(S'am i free for a week'
p1964
g15
tp1965
a(S'check events for'
p1966
g15
tp1967
a(S'will you open my gmail'
p1968
g15
tp1969
a(S'will you open gmail'
p1970
g15
tp1971
a(S'what do i have on'
p1972
g15
tp1973
a(S'can you please make event'
p1974
g15
tp1975
a(S'would you open my mail please'
p1976
g15
tp1977
a(S'get the current time please'
p1978
g15
tp1979
a(S'please close the active window'
p1980
g15
tp1981
a(S'can you please shut off my computer'
p1982
g15
tp1983
a(S'what events do i have on'
p1984
g15
tp1985
a(S'shut off please'
p1986
g15
tp1987
a(S"what're the newsfeed"
p1988
g15
tp1989
a(S'anything in my inbox'
p1990
g15
tp1991
a(S"don't i have anything to do on next"
p1992
g15
tp1993
a(S'is there anything to do on saturday'
p1994
g15
tp1995
a(S'check calendar on'
p1996
g15
tp1997
a(S'check my calendar on this month'
p1998
g15
tp1999
a(S'are there any events on sunday'
p2000
g15
tp2001
a(S'intelligence report'
p2002
g15
tp2003
a(S'can you please make new event'
p2004
g15
tp2005
a(S'can you please schedule event'
p2006
g15
tp2007
a(S'can you unmute please'
p2008
g15
tp2009
a(S"what's if it's raining this week"
p2010
g15
tp2011
a(S"don't i have any events on monday"
p2012
g15
tp2013
a(S'check google calendar for thursday'
p2014
g15
tp2015
a(S'please would you check my inbox'
p2016
g15
tp2017
a(S'the tale pretends'
p2018
g15
tp2019
a(S"please what's new in inbox"
p2020
g15
tp2021
a(S'would you check my gmail'
p2022
g15
tp2023
a(S'is there anything to do tomorrow'
p2024
g15
tp2025
a(S'can you turn off my computer'
p2026
g15
tp2027
a(S'check events on thursday'
p2028
g15
tp2029
a(S'please check what time it is'
p2030
g15
tp2031
a(S'current weather'
p2032
g15
tp2033
a(S'sound up please'
p2034
g15
tp2035
a(S'please shutdown the computer'
p2036
g15
tp2037
a(S'please spotify previous song'
p2038
g15
tp2039
a(S'what do i have on thursday'
p2040
g15
tp2041
a(S'can you shut down my computer'
p2042
g15
tp2043
a(S'turn off'
p2044
g15
tp2045
a(S'please get me the clock'
p2046
g15
tp2047
a(S'schedule an event'
p2048
g15
tp2049
a(S"get if it's snowing today"
p2050
g15
tp2051
a(S'will you open my mail'
p2052
g15
tp2053
a(S'please add an event'
p2054
g15
tp2055
a(S'lower the tunez please'
p2056
g15
tp2057
a(S'turn down the sound'
p2058
g15
tp2059
a(S'check google calendar on this week'
p2060
g15
tp2061
a(S'create event'
p2062
g15
tp2063
a(S'spotify shut up'
p2064
g15
tp2065
a(S'current forecast'
p2066
g15
tp2067
a(S'are there any events on'
p2068
g15
tp2069
a(S"what's the live newsfeed"
p2070
g15
tp2071
a(S'tell me live news'
p2072
g15
tp2073
a(S'can you schedule a new event'
p2074
g15
tp2075
a(S'turn off my computer'
p2076
g15
tp2077
a(S'temperature'
p2078
g15
tp2079
a(S'do i have any events on saturday'
p2080
g15
tp2081
a(S'check events on tuesday'
p2082
g15
tp2083
a(S'gather information on'
p2084
g15
tp2085
a(S'tell me news feed'
p2086
g15
tp2087
a(S'is there anything to do on tomorrow'
p2088
g15
tp2089
a(S'will you open inbox'
p2090
g15
tp2091
a(S'find news'
p2092
g15
tp2093
a(S'can you please open a browser'
p2094
g15
tp2095
a(S'do i have anything on this day'
p2096
g15
tp2097
a(S'please retrieve the current time'
p2098
g15
tp2099
a(S'please go spotify '
p2100
g15
tp2101
a(S"don't i have to do anything on wednesday"
p2102
g15
tp2103
a(S"get if it's hot today"
p2104
g15
tp2105
a(S'please create new event'
p2106
g15
tp2107
a(S'could you schedule new event please'
p2108
g15
tp2109
a(S'start browser please'
p2110
g15
tp2111
a(S'check my calendar on friday'
p2112
g15
tp2113
a(S'louder please'
p2114
g15
tp2115
a(S"if it's rainy this week"
p2116
g15
tp2117
a(S'please sound higher'
p2118
g15
tp2119
a(S'will you get the news for me'
p2120
g15
tp2121
a(S"don't i have anything to do in a week"
p2122
g15
tp2123
a(S'tell me the news'
p2124
g15
tp2125
a(S'anything in gmail'
p2126
g15
tp2127
a(S'please will you open inbox'
p2128
g15
tp2129
a(S'check calendar on tomorrow'
p2130
g15
tp2131
a(S'what do i have to do on tuesday'
p2132
g15
tp2133
a(S'shutdown the computer'
p2134
g15
tp2135
a(S'please shut off'
p2136
g15
tp2137
a(S'could you check new mail please'
p2138
g15
tp2139
a(S'please would you check new gmail'
p2140
g15
tp2141
a(S"if it's cold this week"
p2142
g15
tp2143
a(S'check my calendar on today'
p2144
g15
tp2145
a(S'what is new in my inbox'
p2146
g15
tp2147
a(S'spotify go ahead'
p2148
g15
tp2149
a(S'do i have to do anything next'
p2150
g15
tp2151
a(S'please make event'
p2152
g15
tp2153
a(S"don't i have anything on monday"
p2154
g15
tp2155
a(S'clock'
p2156
g15
tp2157
a(S'please will you check inbox'
p2158
g15
tp2159
a(S'check your watch'
p2160
g15
tp2161
a(S"don't i have to do anything"
p2162
g15
tp2163
a(S'please would you check mail'
p2164
g15
tp2165
a(S'anything new in my inbox'
p2166
g15
tp2167
a(S"don't i have to do anything in a month"
p2168
g15
tp2169
a(S'check google calendar on'
p2170
g15
tp2171
a(S'please what is new in new mail'
p2172
g15
tp2173
a(S'what is in new gmail please'
p2174
g15
tp2175
a(S"if it's freezing this week"
p2176
g15
tp2177
a(S'check my calendar for this week'
p2178
g15
tp2179
a(S'is it snowing this week'
p2180
g15
tp2181
a(S'check calendar on this day'
p2182
g15
tp2183
a(S'can you please schedule a new event'
p2184
g15
tp2185
a(S'check google calendar for tuesday'
p2186
g15
tp2187
a(S'what is on my calendar for saturday'
p2188
g15
tp2189
a(S'can you please shut up'
p2190
g15
tp2191
a(S'check google calendar for this day'
p2192
g15
tp2193
a(S'would you check my inbox please'
p2194
g15
tp2195
a(S'could you schedule a new event please'
p2196
g15
tp2197
a(S"get this week's forecast"
p2198
g15
tp2199
a(S"what's if it's cloudy this week"
p2200
g15
tp2201
a(S"don't i have any events in a week"
p2202
g15
tp2203
a(S'check google calendar for'
p2204
g15
tp2205
a(S'make a new event please'
p2206
g15
tp2207
a(S'schedule event please'
p2208
g15
tp2209
a(S'search please'
p2210
g15
tp2211
a(S'give me the news'
p2212
g15
tp2213
a(S'create an event please'
p2214
g15
tp2215
a(S"don't i have to do anything in a week"
p2216
g15
tp2217
a(S'please could you check gmail'
p2218
g15
tp2219
a(S'check calendar on friday'
p2220
g15
tp2221
a(S"what're the live news"
p2222
g15
tp2223
a(S'emergency shutdown'
p2224
g108
tp2225
a(S'turn off the sound please'
p2226
g15
tp2227
a(S'what is in new gmail'
p2228
g15
tp2229
a(S"don't i have any events on tuesday"
p2230
g15
tp2231
a(S'please would you check inbox'
p2232
g15
tp2233
a(S'please will you open my inbox'
p2234
g15
tp2235
a(S'check google calendar on month'
p2236
g15
tp2237
a(S"if it's raining today"
p2238
g15
tp2239
a(S"get if it's cold today"
p2240
g15
tp2241
a(S'could you check my mail please'
p2242
g15
tp2243
a(S'what are the news'
p2244
g15
tp2245
a(S'weather'
p2246
g15
tp2247
a(S'turn off the computer'
p2248
g15
tp2249
a(S"today's current events"
p2250
g15
tp2251
a(S'shut down my computer'
p2252
g15
tp2253
a(S'can you turn yourself on'
p2254
g15
tp2255
a(S'do i have anything tomorrow'
p2256
g15
tp2257
a(S'what do i have to do on'
p2258
g15
tp2259
a(S'check my calendar on'
p2260
g15
tp2261
a(S"if it's freezing today"
p2262
g15
tp2263
a(S'can you check gmail'
p2264
g15
tp2265
a(S'can you shutdown my computer'
p2266
g15
tp2267
a(S"what's the forecast this week"
p2268
g15
tp2269
a(S"don't i have anything to do on tuesday"
p2270
g15
tp2271
a(S'is it freezing this week'
p2272
g15
tp2273
a(S'what is on my calendar for next'
p2274
g15
tp2275
a(S'what events do i have on thursday'
p2276
g15
tp2277
a(S'can you create a new event please'
p2278
g15
tp2279
a(S'please could you open inbox'
p2280
g15
tp2281
a(S'would you open my inbox please'
p2282
g15
tp2283
a(S'is it foggy this week'
p2284
g15
tp2285
a(S'turn my computer off please'
p2286
g15
tp2287
a(S'what are the latest events '
p2288
g15
tp2289
a(S"how's the forecast this week"
p2290
g15
tp2291
a(S'shut down my computer please'
p2292
g15
tp2293
a(S'what is live news'
p2294
g15
tp2295
a(S"don't i have to do anything on monday"
p2296
g15
tp2297
a(S'open my gmail'
p2298
g15
tp2299
a(S'kill the current window'
p2300
g15
tp2301
a(S'could you create new event'
p2302
g15
tp2303
a(S'check calendar for next'
p2304
g15
tp2305
a(S'how is the temperature'
p2306
g15
tp2307
a(S'get forecast'
p2308
g15
tp2309
a(S'put me on the lock screen'
p2310
g15
tp2311
a(S'spotify pause'
p2312
g15
tp2313
a(S'do i have anything to do on this day'
p2314
g15
tp2315
a(S'please start'
p2316
g15
tp2317
a(S"what's new in gmail"
p2318
g15
tp2319
a(S'can you check new gmail'
p2320
g15
tp2321
a(S"don't i have to do anything on"
p2322
g15
tp2323
a(S'please read me the clock'
p2324
g15
tp2325
a(S'do i have anything on sunday'
p2326
g15
tp2327
a(S"don't i have any events on thursday"
p2328
g15
tp2329
a(S'would you open gmail please'
p2330
g15
tp2331
a(S'please get the current events'
p2332
g15
tp2333
a(S'get the time'
p2334
g15
tp2335
a(S'check what time it is'
p2336
g15
tp2337
a(S'what do i have to do on wednesday'
p2338
g15
tp2339
a(S'please spotify start the song'
p2340
g15
tp2341
a(S'live news today'
p2342
g15
tp2343
a(S'can you create new event'
p2344
g15
tp2345
a(S'is there anything to do on tuesday'
p2346
g15
tp2347
a(S'see ya'
p2348
g108
tp2349
a(S"if it's foggy this week"
p2350
g15
tp2351
a(S'add an event please'
p2352
g15
tp2353
a(S'any new gmail'
p2354
g15
tp2355
a(S'good afternoon'
p2356
g15
tp2357
a(S'please check the clock right now'
p2358
g15
tp2359
a(S'can you create an event please'
p2360
g15
tp2361
a(S'spotify skip ahead'
p2362
g15
tp2363
a(S'can you kill the current window'
p2364
g15
tp2365
a(S'what is new in my mail please'
p2366
g15
tp2367
a(S'could you check gmail please'
p2368
g15
tp2369
a(S'what do i have in a month'
p2370
g15
tp2371
a(S'check my calendar on this week'
p2372
g15
tp2373
a(S"don't i have anything on"
p2374
g15
tp2375
a(S'could you add new event'
p2376
g15
tp2377
a(S'is it cloudy today'
p2378
g15
tp2379
a(S'check events for today'
p2380
g15
tp2381
a(S"get if it's cloudy this week"
p2382
g15
tp2383
a(S'do i have anything to do on saturday'
p2384
g15
tp2385
a(S'get temperature'
p2386
g15
tp2387
a(S"what's if it's snowing this week"
p2388
g15
tp2389
a(S"don't i have to do anything on"
p2390
g15
tp2391
a(S'check my calendar for friday'
p2392
g15
tp2393
a(S'check my calendar on monday'
p2394
g15
tp2395
a(S'please could you check new gmail'
p2396
g15
tp2397
a(S'get news now'
p2398
g15
tp2399
a(S'could you open my gmail'
p2400
g15
tp2401
a(S'please get current time'
p2402
g15
tp2403
a(S'start song'
p2404
g15
tp2405
a(S'will you check my inbox please'
p2406
g15
tp2407
a(S'please what is in inbox'
p2408
g15
tp2409
a(S'what do i have on tuesday'
p2410
g15
tp2411
a(S'please spotify go '
p2412
g15
tp2413
a(S"what's in gmail"
p2414
g15
tp2415
a(S"don't i have anything to do tomorrow"
p2416
g15
tp2417
a(S'check events for this day'
p2418
g15
tp2419
a(S'check new gmail please'
p2420
g15
tp2421
a(S'please open gmail'
p2422
g15
tp2423
a(S'open a default browser'
p2424
g15
tp2425
a(S'get the news'
p2426
g15
tp2427
a(S"what's in inbox"
p2428
g15
tp2429
a(S'any events on tuesday'
p2430
g15
tp2431
a(S'what is the news'
p2432
g15
tp2433
a(S'can you please make a new event'
p2434
g15
tp2435
a(S'do i have anything in my inbox'
p2436
g15
tp2437
a(S'please create an event'
p2438
g15
tp2439
a(S'am i free for a month'
p2440
g15
tp2441
a(S'what is on my calendar for tomorrow'
p2442
g15
tp2443
a(S'will you open my inbox'
p2444
g15
tp2445
a(S'could you make an event please'
p2446
g15
tp2447
a(S'find the news'
p2448
g15
tp2449
a(S'do i have anything on tuesday'
p2450
g15
tp2451
a(S"today's weather"
p2452
g15
tp2453
a(S'go ahead'
p2454
g15
tp2455
a(S'the news today'
p2456
g15
tp2457
a(S'could you open mail please'
p2458
g15
tp2459
a(S'shut down the computer please'
p2460
g15
tp2461
a(S'can you turn yourself off'
p2462
g108
tp2463
a(S'please close active window'
p2464
g15
tp2465
a(S'check google calendar on tomorrow'
p2466
g15
tp2467
a(S"what's in my inbox please"
p2468
g15
tp2469
a(S'can you schedule new event please'
p2470
g15
tp2471
a(S'what events are on thursday'
p2472
g15
tp2473
a(S'can you please shutdown my computer'
p2474
g15
tp2475
a(S'what do i have in a week'
p2476
g15
tp2477
a(S"aren't there any events in a week"
p2478
g15
tp2479
a(S'get time please'
p2480
g15
tp2481
a(S'next song'
p2482
g15
tp2483
a(S'go to'
p2484
g15
tp2485
a(S'check events on this day'
p2486
g15
tp2487
a(S'what events are on saturday'
p2488
g15
tp2489
a(S'please pause'
p2490
g15
tp2491
a(S'could you make event'
p2492
g15
tp2493
a(S'read your watch'
p2494
g15
tp2495
a(S'do i have any events on sunday'
p2496
g15
tp2497
a(S'what is on my calendar for this day'
p2498
g15
tp2499
a(S'add a new event please'
p2500
g15
tp2501
a(S'what is live newsfeed'
p2502
g15
tp2503
a(S"please what's in mail"
p2504
g15
tp2505
a(S"don't i have anything to do on saturday"
p2506
g15
tp2507
a(S'give me intel'
p2508
g15
tp2509
a(S'please pause spotify'
p2510
g15
tp2511
a(S'open gmail please'
p2512
g15
tp2513
a(S'could you add new event please'
p2514
g15
tp2515
a(S"today's forecast"
p2516
g15
tp2517
a(S'is there anything i have to do on thursday'
p2518
g15
tp2519
a(S"what's if it's rainy this week"
p2520
g15
tp2521
a(S"don't i have to do anything today"
p2522
g15
tp2523
a(S'do i have anything to do today'
p2524
g15
tp2525
a(S'please can you check new mail'
p2526
g15
tp2527
a(S'can you please shut my computer down'
p2528
g15
tp2529
a(S"please what's in my gmail"
p2530
g15
tp2531
a(S'please would you open gmail'
p2532
g15
tp2533
a(S'could you create event please'
p2534
g15
tp2535
a(S'check google calendar on friday'
p2536
g15
tp2537
a(S'can you shut up'
p2538
g15
tp2539
a(S'can you put me on the lock screen please'
p2540
g15
tp2541
a(S"don't i have to do anything on tuesday"
p2542
g15
tp2543
a(S'can you please schedule new event'
p2544
g15
tp2545
a(S'turn off the computer please'
p2546
g15
tp2547
a(S'check if i have anything in my inbox'
p2548
g15
tp2549
a(S'can you please create a new event'
p2550
g15
tp2551
a(S'please make a new event'
p2552
g15
tp2553
a(S'check inbox please'
p2554
g15
tp2555
a(S'what is new in my gmail please'
p2556
g15
tp2557
a(S'could you create event'
p2558
g15
tp2559
a(S"today's weather"
p2560
g15
tp2561
a(S'can you turn yourself off please'
p2562
g108
tp2563
a(S'what is the news today'
p2564
g15
tp2565
a(S'search'
p2566
g15
tp2567
a(S'go back'
p2568
g15
tp2569
a(S"what's if it's freezing today"
p2570
g15
tp2571
a(S'please lock the screen'
p2572
g15
tp2573
a(S'please send me to the lock screen'
p2574
g15
tp2575
a(S"get if it's hot this week"
p2576
g15
tp2577
a(S'can you turn off the computer'
p2578
g15
tp2579
a(S'please get the clock'
p2580
g15
tp2581
a(S'is there anything to do'
p2582
g15
tp2583
a(S'what is on my calendar for friday'
p2584
g15
tp2585
a(S"don't i have anything to do in a month"
p2586
g15
tp2587
a(S'do i have anything to do on sunday'
p2588
g15
tp2589
a(S'could you schedule an event please'
p2590
g15
tp2591
a(S'check calendar for this day'
p2592
g15
tp2593
a(S'mute'
p2594
g15
tp2595
a(S'will it hail this week'
p2596
g15
tp2597
a(S'search google'
p2598
g15
tp2599
a(S'please will you check my gmail'
p2600
g15
tp2601
a(S'please could you open my inbox'
p2602
g15
tp2603
a(S'what events do i have in a week'
p2604
g15
tp2605
a(S'check my calendar on tuesday'
p2606
g15
tp2607
a(S'anything in my mail'
p2608
g15
tp2609
a(S'open dot edu'
p2610
g15
tp2611
a(S'please get clock'
p2612
g15
tp2613
a(S'could you check my inbox please'
p2614
g15
tp2615
a(S"what's the forecast today"
p2616
g15
tp2617
a(S'lower the volume'
p2618
g15
tp2619
a(S'lock my computer please'
p2620
g15
tp2621
a(S'start spotify please'
p2622
g15
tp2623
a(S'will it rain today'
p2624
g15
tp2625
a(S'could you add a new event'
p2626
g15
tp2627
a(S"what's if it's cold this week"
p2628
g15
tp2629
a(S'check my calendar for sunday'
p2630
g15
tp2631
a(S'what is new in mail please'
p2632
g15
tp2633
a(S'am i free'
p2634
g15
tp2635
a(S'check what time it is please'
p2636
g15
tp2637
a(S'please read the clock'
p2638
g15
tp2639
a(S'can you put me on the lock screen'
p2640
g15
tp2641
a(S'please get the time'
p2642
g15
tp2643
a(S'is it freezing today'
p2644
g15
tp2645
a(S'google search for'
p2646
g15
tp2647
a(S'is there anything i have to do on today'
p2648
g15
tp2649
a(S'is there anything i have to do on wednesday'
p2650
g15
tp2651
a(S'please kill current window'
p2652
g15
tp2653
a(S'do i have any events on'
p2654
g15
tp2655
a(S'please would you check new mail'
p2656
g15
tp2657
a(S'spotify previous song please'
p2658
g15
tp2659
a(S"today's forecast"
p2660
g15
tp2661
a(S"don't i have to do anything on thursday"
p2662
g15
tp2663
a(S"don't i have to do anything on next"
p2664
g15
tp2665
a(S'kill active window'
p2666
g15
tp2667
a(S'would you open my gmail please'
p2668
g15
tp2669
a(S'what is on my calendar for'
p2670
g15
tp2671
a(S"get if it's cold this week"
p2672
g15
tp2673
a(S"if it's hot today"
p2674
g15
tp2675
a(S"don't i have to do anything on sunday"
p2676
g15
tp2677
a(S"what's in new gmail"
p2678
g15
tp2679
a(S'can you check new mail please'
p2680
g15
tp2681
a(S'check events on monday'
p2682
g15
tp2683
a(S'what events do i have on monday'
p2684
g15
tp2685
a(S'what is live news feed'
p2686
g15
tp2687
a(S'please what is new in my inbox'
p2688
g15
tp2689
a(S'please turn off my computer'
p2690
g15
tp2691
a(S'please will you check gmail'
p2692
g15
tp2693
a(S'can you lock computer'
p2694
g15
tp2695
a(S"what's the temperature this week"
p2696
g15
tp2697
a(S'news today'
p2698
g15
tp2699
a(S'would you open gmail'
p2700
g15
tp2701
a(S'spotify previous please'
p2702
g15
tp2703
a(S"what's in mail please"
p2704
g15
tp2705
a(S'can you please turn up the tunez'
p2706
g15
tp2707
a(S'turn it off'
p2708
g15
tp2709
a(S'what is in gmail'
p2710
g15
tp2711
a(S'am i free on sunday'
p2712
g15
tp2713
a(S'will you check inbox please'
p2714
g15
tp2715
a(S'okay alice'
p2716
g15
tp2717
a(S'can you decrease the sound'
p2718
g15
tp2719
a(S'what events are on monday'
p2720
g15
tp2721
a(S'what is in my inbox'
p2722
g15
tp2723
a(S'spotify skip ahead please'
p2724
g15
tp2725
a(S"aren't there any events on wednesday"
p2726
g15
tp2727
a(S'spotify pause the song please'
p2728
g15
tp2729
a(S'do i have anything on wednesday'
p2730
g15
tp2731
a(S'turn up the volume please'
p2732
g15
tp2733
a(S'anything new in my gmail'
p2734
g15
tp2735
a(S"don't i have anything in a month"
p2736
g15
tp2737
a(S'any events on monday'
p2738
g15
tp2739
a(S'volume higher please'
p2740
g15
tp2741
a(S'check google calendar for monday'
p2742
g15
tp2743
a(S'can you check new mail'
p2744
g15
tp2745
a(S'please schedule new event'
p2746
g15
tp2747
a(S'turn the beat down'
p2748
g15
tp2749
a(S'exit please'
p2750
g108
tp2751
a(S'can you please close this window'
p2752
g15
tp2753
a(S'will you check my mail please'
p2754
g15
tp2755
a(S'news feed today'
p2756
g15
tp2757
a(S'please schedule event'
p2758
g15
tp2759
a(S"don't i have to do anything today"
p2760
g15
tp2761
a(S'open default browser'
p2762
g15
tp2763
a(S'please find out the latest headlines'
p2764
g15
tp2765
a(S"what's new in gmail please"
p2766
g15
tp2767
a(S'shut off my computer'
p2768
g15
tp2769
a(S'please give me the news'
p2770
g15
tp2771
a(S'could you check my mail'
p2772
g15
tp2773
a(S'gather the latest headlines please'
p2774
g15
tp2775
a(S'anything new in my mail'
p2776
g15
tp2777
a(S'please tell me whats going on in the news please'
p2778
g15
tp2779
a(S'current events please'
p2780
g15
tp2781
a(S"what's today's forecast"
p2782
g15
tp2783
a(S"what's in gmail please"
p2784
g15
tp2785
a(S'search google for please'
p2786
g15
tp2787
a(S'can you schedule a new event please'
p2788
g15
tp2789
a(S'am i free for tomorrow'
p2790
g15
tp2791
a(S'do i have anything in a month'
p2792
g15
tp2793
a(S'get the current events'
p2794
g15
tp2795
a(S'what events are on sunday'
p2796
g15
tp2797
a(S'newsfeed'
p2798
g15
tp2799
a(S'kill this window'
p2800
g15
tp2801
a(S'please get the news'
p2802
g15
tp2803
a(S'do i have anything to do on friday'
p2804
g15
tp2805
a(S'could you check mail'
p2806
g15
tp2807
a(S"don't i have to do anything"
p2808
g15
tp2809
a(S'do i have to do anything to do'
p2810
g15
tp2811
a(S'current temperature'
p2812
g15
tp2813
a(S'is there anything i have to do'
p2814
g15
tp2815
a(S'can you turn my computer off'
p2816
g15
tp2817
a(S'would you open my inbox'
p2818
g15
tp2819
a(S"don't i have anything on sunday"
p2820
g15
tp2821
a(S'could you create new event please'
p2822
g15
tp2823
a(S'headlines today'
p2824
g15
tp2825
a(S'is there anything to do on next'
p2826
g15
tp2827
a(S"get if it's foggy this week"
p2828
g15
tp2829
a(S'please could you check my inbox'
p2830
g15
tp2831
a(S'please search google for'
p2832
g15
tp2833
a(S"what's today's temperature"
p2834
g15
tp2835
a(S'check calendar for tuesday'
p2836
g15
tp2837
a(S'get the time please'
p2838
g15
tp2839
a(S'please turn my computer off'
p2840
g15
tp2841
a(S'please open inbox'
p2842
g15
tp2843
a(S'would you open mail'
p2844
g15
tp2845
a(S'google for'
p2846
g15
tp2847
a(S'see you'
p2848
g108
tp2849
a(S'can you turn up the sound'
p2850
g15
tp2851
a(S'am i free on monday'
p2852
g15
tp2853
a(S'could you please schedule new event'
p2854
g15
tp2855
a(S'do i have anything to do next'
p2856
g15
tp2857
a(S'could you open inbox'
p2858
g15
tp2859
a(S"what's the newsfeed"
p2860
g15
tp2861
a(S"please what's in inbox"
p2862
g15
tp2863
a(S'check google calendar for wednesday'
p2864
g15
tp2865
a(S'can you add event'
p2866
g15
tp2867
a(S'check events for tomorrow'
p2868
g15
tp2869
a(S'can you please schedule an event'
p2870
g15
tp2871
a(S'can you please make an event'
p2872
g15
tp2873
a(S'what do i have to do on monday'
p2874
g15
tp2875
a(S'can you please create event'
p2876
g15
tp2877
a(S'schedule event'
p2878
g15
tp2879
a(S'please check gmail'
p2880
g15
tp2881
a(S'please check inbox'
p2882
g15
tp2883
a(S'please check my inbox'
p2884
g15
tp2885
a(S'please will you open my mail'
p2886
g15
tp2887
a(S'could you add an event please'
p2888
g15
tp2889
a(S"aren't there any events on monday"
p2890
g15
tp2891
a(S'what time is it now'
p2892
g15
tp2893
a(S'can you turn up the tunez'
p2894
g15
tp2895
a(S"please what's new in gmail"
p2896
g15
tp2897
a(S'please can you turn up the volume'
p2898
g15
tp2899
a(S'predict the outcome on a new document'
p2900
g15
tp2901
a(S'please be quiet'
p2902
g15
tp2903
a(S'what do i have to do on thursday'
p2904
g15
tp2905
a(S'can you please mute'
p2906
g15
tp2907
a(S'could you open my mail'
p2908
g15
tp2909
a(S'please spotify last'
p2910
g15
tp2911
a(S'please can you check my inbox'
p2912
g15
tp2913
a(S'please open my inbox'
p2914
g15
tp2915
a(S"don't i have any events"
p2916
g15
tp2917
a(S'do i have any events on today'
p2918
g15
tp2919
a(S'do i have any events on tomorrow'
p2920
g15
tp2921
a(S'please would you open inbox'
p2922
g15
tp2923
a(S'can you please turn off my computer'
p2924
g15
tp2925
a(S"please what's new in mail"
p2926
g15
tp2927
a(S'could you make a new event please'
p2928
g15
tp2929
a(S'is it foggy today'
p2930
g15
tp2931
a(S'get me the clock please'
p2932
g15
tp2933
a(S'will you open my mail please'
p2934
g15
tp2935
a(S'can you exit'
p2936
g108
tp2937
a(S'can you kill the window'
p2938
g15
tp2939
a(S'please when is it'
p2940
g15
tp2941
a(S'do i have anything today'
p2942
g15
tp2943
a(S'could you make new event please'
p2944
g15
tp2945
a(S'will you open my gmail please'
p2946
g15
tp2947
a(S'please what is new in my mail'
p2948
g15
tp2949
a(S'current events'
p2950
g15
tp2951
a(S'sweet dreams'
p2952
g108
tp2953
a(S"what's the news feed"
p2954
g15
tp2955
a(S"aren't there any events on saturday"
p2956
g15
tp2957
a(S"what're the live newsfeed"
p2958
g15
tp2959
a(S'please search'
p2960
g15
tp2961
a(S'could you check new gmail'
p2962
g15
tp2963
a(S'please get time'
p2964
g15
tp2965
a(S'spotify stop the song '
p2966
g15
tp2967
a(S'schedule an event please'
p2968
g15
tp2969
a(S'turn yourself off'
p2970
g108
tp2971
a(S'forecast'
p2972
g15
tp2973
a(S'could you check my gmail please'
p2974
g15
tp2975
a(S'any events on this day'
p2976
g15
tp2977
a(S'can you please kill active window'
p2978
g15
tp2979
a(S'what do i have to do in a month'
p2980
g15
tp2981
a(S'is it snowing today'
p2982
g15
tp2983
a(S'play '
p2984
g15
tp2985
a(S'get me the clock'
p2986
g15
tp2987
a(S'any mail'
p2988
g15
tp2989
a(S'are there any events on tuesday'
p2990
g15
tp2991
a(S'find current news'
p2992
g15
tp2993
a(S'go to dot com'
p2994
g15
tp2995
a(S'do i have any events on friday'
p2996
g15
tp2997
a(S'please will you check mail'
p2998
g15
tp2999
a(S'check my calendar for this day'
p3000
g15
tp3001
a(S"what's in my mail please"
p3002
g15
tp3003
a(S'check calendar for saturday'
p3004
g15
tp3005
a(S'unmute'
p3006
g15
tp3007
a(S'is there anything i have to do on'
p3008
g15
tp3009
a(S'can you mute'
p3010
g15
tp3011
a(S'read time'
p3012
g15
tp3013
a(S'get news'
p3014
g15
tp3015
a(S'do i have anything to do in a week'
p3016
g15
tp3017
a(S'turn the volume to zero'
p3018
g15
tp3019
a(S'unmute please'
p3020
g15
tp3021
a(S'shutdown the computer please'
p3022
g15
tp3023
a(S'can you turn up the tune'
p3024
g15
tp3025
a(S'could you create an event'
p3026
g15
tp3027
a(S"don't i have to do anything tomorrow"
p3028
g15
tp3029
a(S'what is in the news today'
p3030
g15
tp3031
a(S'are there any events in a month'
p3032
g15
tp3033
a(S'do i have to do anything in a month'
p3034
g15
tp3035
a(S'can you shut down the computer'
p3036
g15
tp3037
a(S'please last song'
p3038
g15
tp3039
a(S'shutdown my computer'
p3040
g15
tp3041
a(S'please make an event'
p3042
g15
tp3043
a(S'could you open mail'
p3044
g15
tp3045
a(S'will it snow this week'
p3046
g15
tp3047
a(S'start browser'
p3048
g15
tp3049
a(S'check events on this week'
p3050
g15
tp3051
a(S'check mail'
p3052
g15
tp3053
a(S'what is new in inbox please'
p3054
g15
tp3055
a(S"don't i have anything to do on friday"
p3056
g15
tp3057
a(S'what is on my calendar for today'
p3058
g15
tp3059
a(S'could you add event'
p3060
g15
tp3061
a(S'will you check my inbox'
p3062
g15
tp3063
a(S'is there anything i have to do on sunday'
p3064
g15
tp3065
a(S'last song please'
p3066
g15
tp3067
a(S"what's new in inbox"
p3068
g15
tp3069
a(S'can you check mail'
p3070
g15
tp3071
a(S'close the active window'
p3072
g15
tp3073
a(S"what're the live news feed"
p3074
g15
tp3075
a(S'do i have to do anything in a week'
p3076
g15
tp3077
a(S'please what is new in new gmail'
p3078
g15
tp3079
a(S"what's the time"
p3080
g15
tp3081
a(S'open browser'
p3082
g15
tp3083
a(S'search google please'
p3084
g15
tp3085
a(S'schedule new event please'
p3086
g15
tp3087
a(S'google search for please'
p3088
g15
tp3089
a(S'please would you check my gmail'
p3090
g15
tp3091
a(S'add event please'
p3092
g15
tp3093
a(S'turn it down'
p3094
g15
tp3095
a(S'do i have anything on thursday'
p3096
g15
tp3097
a(S"get this week's weather"
p3098
g15
tp3099
a(S'please open a browser'
p3100
g15
tp3101
a(S'please add new event'
p3102
g15
tp3103
a(S"don't i have any events on saturday"
p3104
g15
tp3105
a(S'please turn off the computer'
p3106
g15
tp3107
a(S'will you check my mail'
p3108
g15
tp3109
a(S'please would you check my mail'
p3110
g15
tp3111
a(S'briefing'
p3112
g15
tp3113
a(S'pause please'
p3114
g15
tp3115
a(S"don't i have anything to do on monday"
p3116
g15
tp3117
a(S'would you check new gmail please'
p3118
g15
tp3119
a(S'okay alex'
p3120
g15
tp3121
a(S'is there anything i have to do on next'
p3122
g15
tp3123
a(S"what's in my gmail please"
p3124
g15
tp3125
a(S'will you check gmail'
p3126
g15
tp3127
a(S'spotify play the last song'
p3128
g15
tp3129
a(S'what time is it'
p3130
g15
tp3131
a(S'check events on saturday'
p3132
g15
tp3133
a(S'check google calendar on this day'
p3134
g15
tp3135
a(S'open dot gov'
p3136
g15
tp3137
a(S'are there any events on wednesday'
p3138
g15
tp3139
a(S'spotify play previous song please'
p3140
g15
tp3141
a(S'fake news'
p3142
g15
tp3143
a(S'check my calendar on tomorrow'
p3144
g15
tp3145
a(S"please what's new in new gmail"
p3146
g15
tp3147
a(S'please would you open my mail'
p3148
g15
tp3149
a(S'will you get the current events for me'
p3150
g15
tp3151
a(S'could you make an event'
p3152
g15
tp3153
a(S'please check the clock'
p3154
g15
tp3155
a(S'any events on wednesday'
p3156
g15
tp3157
a(S'is there anything i have to do on saturday'
p3158
g15
tp3159
a(S'can you please shut down'
p3160
g15
tp3161
a(S'check google calendar for friday'
p3162
g15
tp3163
a(S'please what is in my mail'
p3164
g15
tp3165
a(S'what time is it currently'
p3166
g15
tp3167
a(S'please shut off my computer'
p3168
g15
tp3169
a(S'turn up'
p3170
g15
tp3171
a(S'please open'
p3172
g15
tp3173
a(S'what is in my gmail'
p3174
g15
tp3175
a(S'can you make an event'
p3176
g15
tp3177
a(S'google please for'
p3178
g15
tp3179
a(S'check my inbox please'
p3180
g15
tp3181
a(S'what are the current events today'
p3182
g15
tp3183
a(S'what is on my calendar for sunday'
p3184
g15
tp3185
a(S'live news'
p3186
g15
tp3187
a(S'check google calendar for this month'
p3188
g15
tp3189
a(S'can you make a new event'
p3190
g15
tp3191
a(S'can you turn up the beat'
p3192
g15
tp3193
a(S"don't i have to do anything on saturday"
p3194
g15
tp3195
a(S'what are the headlines'
p3196
g15
tp3197
a(S'retrieve the current time'
p3198
g15
tp3199
a(S'check events for tuesday'
p3200
g15
tp3201
a(S'lower the sound'
p3202
g15
tp3203
a(S'do i have anything to do tomorrow'
p3204
g15
tp3205
a(S"if it's snowing this week"
p3206
g15
tp3207
a(S'make the volume 0'
p3208
g15
tp3209
a(S'check calendar for this day'
p3210
g15
tp3211
a(S'what do i have on monday'
p3212
g15
tp3213
a(S'is there anything i have to do in a month'
p3214
g15
tp3215
a(S'will you get the current events'
p3216
g15
tp3217
a(S'can you check gmail please'
p3218
g15
tp3219
a(S'gimme the news'
p3220
g15
tp3221
a(S'please will you check new mail'
p3222
g15
tp3223
a(S'start a browser'
p3224
g15
tp3225
a(S'can you make event please'
p3226
g15
tp3227
a(S'am i free in a month'
p3228
g15
tp3229
a(S'would you open my gmail'
p3230
g15
tp3231
a(S'would you open mail please'
p3232
g15
tp3233
a(S'can you open a browser'
p3234
g15
tp3235
a(S'turn up the tunez please'
p3236
g15
tp3237
a(S'can you make it louder please'
p3238
g15
tp3239
a(S'do i have to do anything on friday'
p3240
g15
tp3241
a(S'would you check inbox'
p3242
g15
tp3243
a(S'please add a new event'
p3244
g15
tp3245
a(S'do i have anything to do'
p3246
g15
tp3247
a(S'do i have anything to do on wednesday'
p3248
g15
tp3249
a(S'what events are on tomorrow'
p3250
g15
tp3251
a(S'please will you check new gmail'
p3252
g15
tp3253
a(S'please google for'
p3254
g15
tp3255
a(S'kill window'
p3256
g15
tp3257
a(S"what's forecast"
p3258
g15
tp3259
a(S'spotify skip'
p3260
g15
tp3261
a(S'what do i have to do on tomorrow'
p3262
g15
tp3263
a(S'please shut down my computer'
p3264
g15
tp3265
a(S'hey alice'
p3266
g15
tp3267
a(S'make the volume softer'
p3268
g15
tp3269
a(S'spotify pause please'
p3270
g15
tp3271
a(S'could you check my inbox'
p3272
g15
tp3273
a(S"what's if it's freezing this week"
p3274
g15
tp3275
a(S'what events do i have on tomorrow'
p3276
g15
tp3277
a(S"get today's weather"
p3278
g15
tp3279
a(S"if it's rainy today"
p3280
g15
tp3281
a(S'please start default browser'
p3282
g15
tp3283
a(S"how's the forecast"
p3284
g15
tp3285
a(S'what events are in a month'
p3286
g15
tp3287
a(S'check calendar on tuesday'
p3288
g15
tp3289
a(S"what're the current events"
p3290
g15
tp3291
a(S'is there anything i have to do today'
p3292
g15
tp3293
a(S'could you please make a new event'
p3294
g15
tp3295
a(S'set volume 0'
p3296
g15
tp3297
a(S'get headlines'
p3298
g15
tp3299
a(S"please what's new in my gmail"
p3300
g15
tp3301
a(S'please google search for'
p3302
g15
tp3303
a(S'volume up'
p3304
g15
tp3305
a(S"what's the clock"
p3306
g15
tp3307
a(S'can you check my mail'
p3308
g15
tp3309
a(S'will you get the current headlines'
p3310
g15
tp3311
a(S"don't i have to do anything on next"
p3312
g15
tp3313
a(S'any events on thursday'
p3314
g15
tp3315
a(S'news'
p3316
g15
tp3317
a(S'i like dogs'
p3318
g15
tp3319
a(S'please lock computer'
p3320
g15
tp3321
a(S'what are the newsfeed'
p3322
g15
tp3323
a(S'could you check new gmail please'
p3324
g15
tp3325
a(S'turn yourself off please'
p3326
g108
tp3327
a(S'please close the current window'
p3328
g15
tp3329
a(S'would you check my gmail please'
p3330
g15
tp3331
a(S'would you check my mail please'
p3332
g15
tp3333
a(S'get the the latest headlines'
p3334
g15
tp3335
a(S'shut down please'
p3336
g15
tp3337
a(S'spotify stop playing'
p3338
g15
tp3339
a(S'can you please kill the current window'
p3340
g15
tp3341
a(S'see ya alice'
p3342
g108
tp3343
a(S'please open dot com'
p3344
g15
tp3345
a(S"don't i have any events on tomorrow"
p3346
g15
tp3347
a(S'what events are in a week'
p3348
g15
tp3349
a(S'am i free on wednesday'
p3350
g15
tp3351
a(S'read the clock'
p3352
g15
tp3353
a(S'can you please close current window'
p3354
g15
tp3355
a(S'read your watch please'
p3356
g15
tp3357
a(S"what's in inbox please"
p3358
g15
tp3359
a(S'check google calendar on sunday'
p3360
g15
tp3361
a(S"aren't there any events on sunday"
p3362
g15
tp3363
a(S'create a new event'
p3364
g15
tp3365
a(S'make the sound higher'
p3366
g15
tp3367
a(S'can you please kill the window'
p3368
g15
tp3369
a(S'would you check new mail'
p3370
g15
tp3371
a(S'can you please close the current window'
p3372
g15
tp3373
a(S'lower the tunes please'
p3374
g15
tp3375
a(S'can you create new event please'
p3376
g15
tp3377
a(S'can you schedule an event please'
p3378
g15
tp3379
a(S'anything in my gmail'
p3380
g15
tp3381
a(S'please what is new in my gmail'
p3382
g15
tp3383
asS'classifier'
p3384
ccopy_reg
_reconstructor
p3385
(csklearn.pipeline
Pipeline
p3386
c__builtin__
object
p3387
Ntp3388
Rp3389
(dp3390
S'_sklearn_version'
p3391
S'0.18.1'
p3392
sS'steps'
p3393
(lp3394
(S'vect'
p3395
g3385
(csklearn.feature_extraction.text
CountVectorizer
p3396
g3387
Ntp3397
Rp3398
(dp3399
S'decode_error'
p3400
Vstrict
p3401
sS'lowercase'
p3402
I01
sS'stop_words'
p3403
NsS'vocabulary'
p3404
NsS'tokenizer'
p3405
NsS'encoding'
p3406
Vutf-8
p3407
sS'token_pattern'
p3408
V(?u)\u005cb\u005cw\u005cw+\u005cb
p3409
sS'input'
p3410
Vcontent
p3411
sS'analyzer'
p3412
Vword
p3413
sS'vocabulary_'
p3414
(dp3415
Vevent
p3416
cnumpy.core.multiarray
scalar
p3417
(cnumpy
dtype
p3418
(S'i8'
p3419
I0
I1
tp3420
Rp3421
(I3
S'<'
p3422
NNNI-1
I-1
I0
tp3423
bS'@\x00\x00\x00\x00\x00\x00\x00'
p3424
tp3425
Rp3426
sVraining
p3427
g3417
(g3421
S'\xa2\x00\x00\x00\x00\x00\x00\x00'
p3428
tp3429
Rp3430
sVtodays
p3431
g3417
(g3421
S'\xcf\x00\x00\x00\x00\x00\x00\x00'
p3432
tp3433
Rp3434
sVmute
p3435
g3417
(g3421
S'\x7f\x00\x00\x00\x00\x00\x00\x00'
p3436
tp3437
Rp3438
sVskip
p3439
g3417
(g3421
S'\xb7\x00\x00\x00\x00\x00\x00\x00'
p3440
tp3441
Rp3442
sVmonth
p3443
g3417
(g3421
S'|\x00\x00\x00\x00\x00\x00\x00'
p3444
tp3445
Rp3446
sVsofter
p3447
g3417
(g3421
S'\xba\x00\x00\x00\x00\x00\x00\x00'
p3448
tp3449
Rp3450
sVkill
p3451
g3417
(g3421
S'n\x00\x00\x00\x00\x00\x00\x00'
p3452
tp3453
Rp3454
sVusing
p3455
g3417
(g3421
S'\xda\x00\x00\x00\x00\x00\x00\x00'
p3456
tp3457
Rp3458
sVgo
p3459
g3417
(g3421
S'U\x00\x00\x00\x00\x00\x00\x00'
p3460
tp3461
Rp3462
sVheadlines
p3463
g3417
(g3421
S'^\x00\x00\x00\x00\x00\x00\x00'
p3464
tp3465
Rp3466
sVfind
p3467
g3417
(g3421
S'H\x00\x00\x00\x00\x00\x00\x00'
p3468
tp3469
Rp3470
sVprevious
p3471
g3417
(g3421
S'\x98\x00\x00\x00\x00\x00\x00\x00'
p3472
tp3473
Rp3474
sVspotify
p3475
g3417
(g3421
S'\xbd\x00\x00\x00\x00\x00\x00\x00'
p3476
tp3477
Rp3478
sVpause
p3479
g3417
(g3421
S'\x91\x00\x00\x00\x00\x00\x00\x00'
p3480
tp3481
Rp3482
sVhow
p3483
g3417
(g3421
S'b\x00\x00\x00\x00\x00\x00\x00'
p3484
tp3485
Rp3486
sVsnowing
p3487
g3417
(g3421
S'\xb9\x00\x00\x00\x00\x00\x00\x00'
p3488
tp3489
Rp3490
sVwindow
p3491
g3417
(g3421
S'\xe5\x00\x00\x00\x00\x00\x00\x00'
p3492
tp3493
Rp3494
sVsunday
p3495
g3417
(g3421
S'\xc2\x00\x00\x00\x00\x00\x00\x00'
p3496
tp3497
Rp3498
sVsend
p3499
g3417
(g3421
S'\xb1\x00\x00\x00\x00\x00\x00\x00'
p3500
tp3501
Rp3502
sVaren
p3503
g3417
(g3421
S'\x0e\x00\x00\x00\x00\x00\x00\x00'
p3504
tp3505
Rp3506
sVto
p3507
g3417
(g3421
S'\xcd\x00\x00\x00\x00\x00\x00\x00'
p3508
tp3509
Rp3510
sVadd
p3511
g3417
(g3421
S'\x02\x00\x00\x00\x00\x00\x00\x00'
p3512
tp3513
Rp3514
sVprogram
p3515
g3417
(g3421
S'\x9b\x00\x00\x00\x00\x00\x00\x00'
p3516
tp3517
Rp3518
sVmail
p3519
g3417
(g3421
S'v\x00\x00\x00\x00\x00\x00\x00'
p3520
tp3521
Rp3522
sVbye
p3523
g3417
(g3421
S'\x1a\x00\x00\x00\x00\x00\x00\x00'
p3524
tp3525
Rp3526
sVdo
p3527
g3417
(g3421
S'5\x00\x00\x00\x00\x00\x00\x00'
p3528
tp3529
Rp3530
sVpredict
p3531
g3417
(g3421
S'\x96\x00\x00\x00\x00\x00\x00\x00'
p3532
tp3533
Rp3534
sVgood
p3535
g3417
(g3421
S'W\x00\x00\x00\x00\x00\x00\x00'
p3536
tp3537
Rp3538
sVemergency
p3539
g3417
(g3421
S'?\x00\x00\x00\x00\x00\x00\x00'
p3540
tp3541
Rp3542
sVget
p3543
g3417
(g3421
S'Q\x00\x00\x00\x00\x00\x00\x00'
p3544
tp3545
Rp3546
sVread
p3547
g3417
(g3421
S'\xa5\x00\x00\x00\x00\x00\x00\x00'
p3548
tp3549
Rp3550
sVmaterial
p3551
g3417
(g3421
S'x\x00\x00\x00\x00\x00\x00\x00'
p3552
tp3553
Rp3554
sVwatch
p3555
g3417
(g3421
S'\xdc\x00\x00\x00\x00\x00\x00\x00'
p3556
tp3557
Rp3558
sVanswer
p3559
g3417
(g3421
S'\n\x00\x00\x00\x00\x00\x00\x00'
p3560
tp3561
Rp3562
sVreport
p3563
g3417
(g3421
S'\xa7\x00\x00\x00\x00\x00\x00\x00'
p3564
tp3565
Rp3566
sVworld
p3567
g3417
(g3421
S'\xe6\x00\x00\x00\x00\x00\x00\x00'
p3568
tp3569
Rp3570
sVnow
p3571
g3417
(g3421
S'\x88\x00\x00\x00\x00\x00\x00\x00'
p3572
tp3573
Rp3574
sVday
p3575
g3417
(g3421
S'-\x00\x00\x00\x00\x00\x00\x00'
p3576
tp3577
Rp3578
sVdreams
p3579
g3417
(g3421
S';\x00\x00\x00\x00\x00\x00\x00'
p3580
tp3581
Rp3582
sVintel
p3583
g3417
(g3421
S'i\x00\x00\x00\x00\x00\x00\x00'
p3584
tp3585
Rp3586
sVshoulder
p3587
g3417
(g3421
S'\xb3\x00\x00\x00\x00\x00\x00\x00'
p3588
tp3589
Rp3590
sVmoderate
p3591
g3417
(g3421
S'z\x00\x00\x00\x00\x00\x00\x00'
p3592
tp3593
Rp3594
sValex
p3595
g3417
(g3421
S'\x05\x00\x00\x00\x00\x00\x00\x00'
p3596
tp3597
Rp3598
sVlike
p3599
g3417
(g3421
S'q\x00\x00\x00\x00\x00\x00\x00'
p3600
tp3601
Rp3602
sVgossips
p3603
g3417
(g3421
S'Y\x00\x00\x00\x00\x00\x00\x00'
p3604
tp3605
Rp3606
sVdidn
p3607
g3417
(g3421
S'4\x00\x00\x00\x00\x00\x00\x00'
p3608
tp3609
Rp3610
sVwednesday
p3611
g3417
(g3421
S'\xdf\x00\x00\x00\x00\x00\x00\x00'
p3612
tp3613
Rp3614
sVcloudy
p3615
g3417
(g3421
S'$\x00\x00\x00\x00\x00\x00\x00'
p3616
tp3617
Rp3618
sVmorning
p3619
g3417
(g3421
S'}\x00\x00\x00\x00\x00\x00\x00'
p3620
tp3621
Rp3622
sVtry
p3623
g3417
(g3421
S'\xd2\x00\x00\x00\x00\x00\x00\x00'
p3624
tp3625
Rp3626
sVunmute
p3627
g3417
(g3421
S'\xd8\x00\x00\x00\x00\x00\x00\x00'
p3628
tp3629
Rp3630
sVgimme
p3631
g3417
(g3421
S'R\x00\x00\x00\x00\x00\x00\x00'
p3632
tp3633
Rp3634
sVweather
p3635
g3417
(g3421
S'\xde\x00\x00\x00\x00\x00\x00\x00'
p3636
tp3637
Rp3638
sVnight
p3639
g3417
(g3421
S'\x86\x00\x00\x00\x00\x00\x00\x00'
p3640
tp3641
Rp3642
sVtunes
p3643
g3417
(g3421
S'\xd5\x00\x00\x00\x00\x00\x00\x00'
p3644
tp3645
Rp3646
sVout
p3647
g3417
(g3421
S'\x8f\x00\x00\x00\x00\x00\x00\x00'
p3648
tp3649
Rp3650
sVclassifier
p3651
g3417
(g3421
S'!\x00\x00\x00\x00\x00\x00\x00'
p3652
tp3653
Rp3654
sVinbox
p3655
g3417
(g3421
S'f\x00\x00\x00\x00\x00\x00\x00'
p3656
tp3657
Rp3658
sVset
p3659
g3417
(g3421
S'\xb2\x00\x00\x00\x00\x00\x00\x00'
p3660
tp3661
Rp3662
sVretrieve
p3663
g3417
(g3421
S'\xa8\x00\x00\x00\x00\x00\x00\x00'
p3664
tp3665
Rp3666
sVee
p3667
g3417
(g3421
S'>\x00\x00\x00\x00\x00\x00\x00'
p3668
tp3669
Rp3670
sVintelligence
p3671
g3417
(g3421
S'j\x00\x00\x00\x00\x00\x00\x00'
p3672
tp3673
Rp3674
sVedu
p3675
g3417
(g3421
S'=\x00\x00\x00\x00\x00\x00\x00'
p3676
tp3677
Rp3678
sVback
p3679
g3417
(g3421
S'\x0f\x00\x00\x00\x00\x00\x00\x00'
p3680
tp3681
Rp3682
sVhail
p3683
g3417
(g3421
S'\\\x00\x00\x00\x00\x00\x00\x00'
p3684
tp3685
Rp3686
sValice
p3687
g3417
(g3421
S'\x06\x00\x00\x00\x00\x00\x00\x00'
p3688
tp3689
Rp3690
sVzero
p3691
g3417
(g3421
S'\xec\x00\x00\x00\x00\x00\x00\x00'
p3692
tp3693
Rp3694
sVcomputer
p3695
g3417
(g3421
S'(\x00\x00\x00\x00\x00\x00\x00'
p3696
tp3697
Rp3698
sVare
p3699
g3417
(g3421
S'\r\x00\x00\x00\x00\x00\x00\x00'
p3700
tp3701
Rp3702
sVclose
p3703
g3417
(g3421
S'#\x00\x00\x00\x00\x00\x00\x00'
p3704
tp3705
Rp3706
sVcalendar
p3707
g3417
(g3421
S'\x1c\x00\x00\x00\x00\x00\x00\x00'
p3708
tp3709
Rp3710
sVextract
p3711
g3417
(g3421
S'C\x00\x00\x00\x00\x00\x00\x00'
p3712
tp3713
Rp3714
sVcold
p3715
g3417
(g3421
S'%\x00\x00\x00\x00\x00\x00\x00'
p3716
tp3717
Rp3718
sVgmail
p3719
g3417
(g3421
S'T\x00\x00\x00\x00\x00\x00\x00'
p3720
tp3721
Rp3722
sVcategory
p3723
g3417
(g3421
S'\x1e\x00\x00\x00\x00\x00\x00\x00'
p3724
tp3725
Rp3726
sVwhat
p3727
g3417
(g3421
S'\xe1\x00\x00\x00\x00\x00\x00\x00'
p3728
tp3729
Rp3730
sVmonday
p3731
g3417
(g3421
S'{\x00\x00\x00\x00\x00\x00\x00'
p3732
tp3733
Rp3734
sVfor
p3735
g3417
(g3421
S'J\x00\x00\x00\x00\x00\x00\x00'
p3736
tp3737
Rp3738
sVclock
p3739
g3417
(g3421
S'"\x00\x00\x00\x00\x00\x00\x00'
p3740
tp3741
Rp3742
sVdebrief
p3743
g3417
(g3421
S'.\x00\x00\x00\x00\x00\x00\x00'
p3744
tp3745
Rp3746
sVcurrently
p3747
g3417
(g3421
S',\x00\x00\x00\x00\x00\x00\x00'
p3748
tp3749
Rp3750
sVplease
p3751
g3417
(g3421
S'\x94\x00\x00\x00\x00\x00\x00\x00'
p3752
tp3753
Rp3754
sVbrief
p3755
g3417
(g3421
S'\x16\x00\x00\x00\x00\x00\x00\x00'
p3756
tp3757
Rp3758
sVforecast
p3759
g3417
(g3421
S'K\x00\x00\x00\x00\x00\x00\x00'
p3760
tp3761
Rp3762
sVcell
p3763
g3417
(g3421
S'\x1f\x00\x00\x00\x00\x00\x00\x00'
p3764
tp3765
Rp3766
sVre
p3767
g3417
(g3421
S'\xa4\x00\x00\x00\x00\x00\x00\x00'
p3768
tp3769
Rp3770
sVexit
p3771
g3417
(g3421
S'B\x00\x00\x00\x00\x00\x00\x00'
p3772
tp3773
Rp3774
sVabove
p3775
g3417
(g3421
S'\x00\x00\x00\x00\x00\x00\x00\x00'
p3776
tp3777
Rp3778
sVnew
p3779
g3417
(g3421
S'\x82\x00\x00\x00\x00\x00\x00\x00'
p3780
tp3781
Rp3782
sVnet
p3783
g3417
(g3421
S'\x81\x00\x00\x00\x00\x00\x00\x00'
p3784
tp3785
Rp3786
sVgov
p3787
g3417
(g3421
S'Z\x00\x00\x00\x00\x00\x00\x00'
p3788
tp3789
Rp3790
sVissue
p3791
g3417
(g3421
S'l\x00\x00\x00\x00\x00\x00\x00'
p3792
tp3793
Rp3794
sVbe
p3795
g3417
(g3421
S'\x11\x00\x00\x00\x00\x00\x00\x00'
p3796
tp3797
Rp3798
sVshut
p3799
g3417
(g3421
S'\xb4\x00\x00\x00\x00\x00\x00\x00'
p3800
tp3801
Rp3802
sVfriday
p3803
g3417
(g3421
S'N\x00\x00\x00\x00\x00\x00\x00'
p3804
tp3805
Rp3806
sVschedule
p3807
g3417
(g3421
S'\xad\x00\x00\x00\x00\x00\x00\x00'
p3808
tp3809
Rp3810
sVscreen
p3811
g3417
(g3421
S'\xae\x00\x00\x00\x00\x00\x00\x00'
p3812
tp3813
Rp3814
sVdictates
p3815
g3417
(g3421
S'3\x00\x00\x00\x00\x00\x00\x00'
p3816
tp3817
Rp3818
sVfree
p3819
g3417
(g3421
S'L\x00\x00\x00\x00\x00\x00\x00'
p3820
tp3821
Rp3822
sVillustration
p3823
g3417
(g3421
S'd\x00\x00\x00\x00\x00\x00\x00'
p3824
tp3825
Rp3826
sVactive
p3827
g3417
(g3421
S'\x01\x00\x00\x00\x00\x00\x00\x00'
p3828
tp3829
Rp3830
sVnews
p3831
g3417
(g3421
S'\x83\x00\x00\x00\x00\x00\x00\x00'
p3832
tp3833
Rp3834
sVpost
p3835
g3417
(g3421
S'\x95\x00\x00\x00\x00\x00\x00\x00'
p3836
tp3837
Rp3838
sVdon
p3839
g3417
(g3421
S'8\x00\x00\x00\x00\x00\x00\x00'
p3840
tp3841
Rp3842
sVearlier
p3843
g3417
(g3421
S'<\x00\x00\x00\x00\x00\x00\x00'
p3844
tp3845
Rp3846
sVon
p3847
g3417
(g3421
S'\x8c\x00\x00\x00\x00\x00\x00\x00'
p3848
tp3849
Rp3850
sVsearch
p3851
g3417
(g3421
S'\xaf\x00\x00\x00\x00\x00\x00\x00'
p3852
tp3853
Rp3854
sVlast
p3855
g3417
(g3421
S'o\x00\x00\x00\x00\x00\x00\x00'
p3856
tp3857
Rp3858
sVanything
p3859
g3417
(g3421
S'\x0c\x00\x00\x00\x00\x00\x00\x00'
p3860
tp3861
Rp3862
sVof
p3863
g3417
(g3421
S'\x89\x00\x00\x00\x00\x00\x00\x00'
p3864
tp3865
Rp3866
sVcould
p3867
g3417
(g3421
S')\x00\x00\x00\x00\x00\x00\x00'
p3868
tp3869
Rp3870
sVcurrent
p3871
g3417
(g3421
S'+\x00\x00\x00\x00\x00\x00\x00'
p3872
tp3873
Rp3874
sVquiet
p3875
g3417
(g3421
S'\x9e\x00\x00\x00\x00\x00\x00\x00'
p3876
tp3877
Rp3878
sVturn
p3879
g3417
(g3421
S'\xd7\x00\x00\x00\x00\x00\x00\x00'
p3880
tp3881
Rp3882
sVafternoon
p3883
g3417
(g3421
S'\x03\x00\x00\x00\x00\x00\x00\x00'
p3884
tp3885
Rp3886
sVbrowsing
p3887
g3417
(g3421
S'\x19\x00\x00\x00\x00\x00\x00\x00'
p3888
tp3889
Rp3890
sVcom
p3891
g3417
(g3421
S'&\x00\x00\x00\x00\x00\x00\x00'
p3892
tp3893
Rp3894
sVthink
p3895
g3417
(g3421
S'\xc9\x00\x00\x00\x00\x00\x00\x00'
p3896
tp3897
Rp3898
sVfeed
p3899
g3417
(g3421
S'G\x00\x00\x00\x00\x00\x00\x00'
p3900
tp3901
Rp3902
sVwhats
p3903
g3417
(g3421
S'\xe2\x00\x00\x00\x00\x00\x00\x00'
p3904
tp3905
Rp3906
sVfeatures
p3907
g3417
(g3421
S'F\x00\x00\x00\x00\x00\x00\x00'
p3908
tp3909
Rp3910
sVsimple
p3911
g3417
(g3421
S'\xb6\x00\x00\x00\x00\x00\x00\x00'
p3912
tp3913
Rp3914
sVsweet
p3915
g3417
(g3421
S'\xc3\x00\x00\x00\x00\x00\x00\x00'
p3916
tp3917
Rp3918
sVtuesday
p3919
g3417
(g3421
S'\xd3\x00\x00\x00\x00\x00\x00\x00'
p3920
tp3921
Rp3922
sVyourself
p3923
g3417
(g3421
S'\xeb\x00\x00\x00\x00\x00\x00\x00'
p3924
tp3925
Rp3926
sVdown
p3927
g3417
(g3421
S':\x00\x00\x00\x00\x00\x00\x00'
p3928
tp3929
Rp3930
sVput
p3931
g3417
(g3421
S'\x9c\x00\x00\x00\x00\x00\x00\x00'
p3932
tp3933
Rp3934
sVgoogle
p3935
g3417
(g3421
S'X\x00\x00\x00\x00\x00\x00\x00'
p3936
tp3937
Rp3938
sVdecrease
p3939
g3417
(g3421
S'0\x00\x00\x00\x00\x00\x00\x00'
p3940
tp3941
Rp3942
sVthursday
p3943
g3417
(g3421
S'\xcb\x00\x00\x00\x00\x00\x00\x00'
p3944
tp3945
Rp3946
sVshutdown
p3947
g3417
(g3421
S'\xb5\x00\x00\x00\x00\x00\x00\x00'
p3948
tp3949
Rp3950
sVorg
p3951
g3417
(g3421
S'\x8e\x00\x00\x00\x00\x00\x00\x00'
p3952
tp3953
Rp3954
sVopen
p3955
g3417
(g3421
S'\x8d\x00\x00\x00\x00\x00\x00\x00'
p3956
tp3957
Rp3958
sVtomorrow
p3959
g3417
(g3421
S'\xd0\x00\x00\x00\x00\x00\x00\x00'
p3960
tp3961
Rp3962
sVbeats
p3963
g3417
(g3421
S'\x13\x00\x00\x00\x00\x00\x00\x00'
p3964
tp3965
Rp3966
sVquit
p3967
g3417
(g3421
S'\xa0\x00\x00\x00\x00\x00\x00\x00'
p3968
tp3969
Rp3970
sVtemperature
p3971
g3417
(g3421
S'\xc6\x00\x00\x00\x00\x00\x00\x00'
p3972
tp3973
Rp3974
sVwould
p3975
g3417
(g3421
S'\xe7\x00\x00\x00\x00\x00\x00\x00'
p3976
tp3977
Rp3978
sVtunez
p3979
g3417
(g3421
S'\xd6\x00\x00\x00\x00\x00\x00\x00'
p3980
tp3981
Rp3982
sVsake
p3983
g3417
(g3421
S'\xaa\x00\x00\x00\x00\x00\x00\x00'
p3984
tp3985
Rp3986
sVdecent
p3987
g3417
(g3421
S'/\x00\x00\x00\x00\x00\x00\x00'
p3988
tp3989
Rp3990
sVcreate
p3991
g3417
(g3421
S'*\x00\x00\x00\x00\x00\x00\x00'
p3992
tp3993
Rp3994
sVthere
p3995
g3417
(g3421
S'\xc8\x00\x00\x00\x00\x00\x00\x00'
p3996
tp3997
Rp3998
sVquestion
p3999
g3417
(g3421
S'\x9d\x00\x00\x00\x00\x00\x00\x00'
p4000
tp4001
Rp4002
sVhey
p4003
g3417
(g3421
S'_\x00\x00\x00\x00\x00\x00\x00'
p4004
tp4005
Rp4006
sVnext
p4007
g3417
(g3421
S'\x85\x00\x00\x00\x00\x00\x00\x00'
p4008
tp4009
Rp4010
sVstart
p4011
g3417
(g3421
S'\xbf\x00\x00\x00\x00\x00\x00\x00'
p4012
tp4013
Rp4014
sVlive
p4015
g3417
(g3421
S'r\x00\x00\x00\x00\x00\x00\x00'
p4016
tp4017
Rp4018
sVgoing
p4019
g3417
(g3421
S'V\x00\x00\x00\x00\x00\x00\x00'
p4020
tp4021
Rp4022
sVmusic
p4023
g3417
(g3421
S'~\x00\x00\x00\x00\x00\x00\x00'
p4024
tp4025
Rp4026
sVtell
p4027
g3417
(g3421
S'\xc5\x00\x00\x00\x00\x00\x00\x00'
p4028
tp4029
Rp4030
sVtoday
p4031
g3417
(g3421
S'\xce\x00\x00\x00\x00\x00\x00\x00'
p4032
tp4033
Rp4034
sVpretends
p4035
g3417
(g3421
S'\x97\x00\x00\x00\x00\x00\x00\x00'
p4036
tp4037
Rp4038
sVfake
p4039
g3417
(g3421
S'D\x00\x00\x00\x00\x00\x00\x00'
p4040
tp4041
Rp4042
sVsound
p4043
g3417
(g3421
S'\xbc\x00\x00\x00\x00\x00\x00\x00'
p4044
tp4045
Rp4046
sVreleasing
p4047
g3417
(g3421
S'\xa6\x00\x00\x00\x00\x00\x00\x00'
p4048
tp4049
Rp4050
sVcommands
p4051
g3417
(g3421
S"'\x00\x00\x00\x00\x00\x00\x00"
p4052
tp4053
Rp4054
sVit
p4055
g3417
(g3421
S'm\x00\x00\x00\x00\x00\x00\x00'
p4056
tp4057
Rp4058
sVvolume
p4059
g3417
(g3421
S'\xdb\x00\x00\x00\x00\x00\x00\x00'
p4060
tp4061
Rp4062
sVtrain
p4063
g3417
(g3421
S'\xd1\x00\x00\x00\x00\x00\x00\x00'
p4064
tp4065
Rp4066
sVstick
p4067
g3417
(g3421
S'\xc0\x00\x00\x00\x00\x00\x00\x00'
p4068
tp4069
Rp4070
sVbeat
p4071
g3417
(g3421
S'\x12\x00\x00\x00\x00\x00\x00\x00'
p4072
tp4073
Rp4074
sVfoggy
p4075
g3417
(g3421
S'I\x00\x00\x00\x00\x00\x00\x00'
p4076
tp4077
Rp4078
sVme
p4079
g3417
(g3421
S'y\x00\x00\x00\x00\x00\x00\x00'
p4080
tp4081
Rp4082
sVahead
p4083
g3417
(g3421
S'\x04\x00\x00\x00\x00\x00\x00\x00'
p4084
tp4085
Rp4086
sVthis
p4087
g3417
(g3421
S'\xca\x00\x00\x00\x00\x00\x00\x00'
p4088
tp4089
Rp4090
sVsnow
p4091
g3417
(g3421
S'\xb8\x00\x00\x00\x00\x00\x00\x00'
p4092
tp4093
Rp4094
sVup
p4095
g3417
(g3421
S'\xd9\x00\x00\x00\x00\x00\x00\x00'
p4096
tp4097
Rp4098
sVdogs
p4099
g3417
(g3421
S'7\x00\x00\x00\x00\x00\x00\x00'
p4100
tp4101
Rp4102
sVwill
p4103
g3417
(g3421
S'\xe4\x00\x00\x00\x00\x00\x00\x00'
p4104
tp4105
Rp4106
sVlouder
p4107
g3417
(g3421
S't\x00\x00\x00\x00\x00\x00\x00'
p4108
tp4109
Rp4110
sVcan
p4111
g3417
(g3421
S'\x1d\x00\x00\x00\x00\x00\x00\x00'
p4112
tp4113
Rp4114
sVbriefing
p4115
g3417
(g3421
S'\x17\x00\x00\x00\x00\x00\x00\x00'
p4116
tp4117
Rp4118
sVproblem
p4119
g3417
(g3421
S'\x99\x00\x00\x00\x00\x00\x00\x00'
p4120
tp4121
Rp4122
sVoutcome
p4123
g3417
(g3421
S'\x90\x00\x00\x00\x00\x00\x00\x00'
p4124
tp4125
Rp4126
sVmy
p4127
g3417
(g3421
S'\x80\x00\x00\x00\x00\x00\x00\x00'
p4128
tp4129
Rp4130
sVdee
p4131
g3417
(g3421
S'1\x00\x00\x00\x00\x00\x00\x00'
p4132
tp4133
Rp4134
sVbrowser
p4135
g3417
(g3421
S'\x18\x00\x00\x00\x00\x00\x00\x00'
p4136
tp4137
Rp4138
sVgive
p4139
g3417
(g3421
S'S\x00\x00\x00\x00\x00\x00\x00'
p4140
tp4141
Rp4142
sValmost
p4143
g3417
(g3421
S'\x07\x00\x00\x00\x00\x00\x00\x00'
p4144
tp4145
Rp4146
sVlock
p4147
g3417
(g3421
S's\x00\x00\x00\x00\x00\x00\x00'
p4148
tp4149
Rp4150
sVis
p4151
g3417
(g3421
S'k\x00\x00\x00\x00\x00\x00\x00'
p4152
tp4153
Rp4154
sVin
p4155
g3417
(g3421
S'e\x00\x00\x00\x00\x00\x00\x00'
p4156
tp4157
Rp4158
sVam
p4159
g3417
(g3421
S'\x08\x00\x00\x00\x00\x00\x00\x00'
p4160
tp4161
Rp4162
sVfuck
p4163
g3417
(g3421
S'O\x00\x00\x00\x00\x00\x00\x00'
p4164
tp4165
Rp4166
sVan
p4167
g3417
(g3421
S'\t\x00\x00\x00\x00\x00\x00\x00'
p4168
tp4169
Rp4170
sVdefault
p4171
g3417
(g3421
S'2\x00\x00\x00\x00\x00\x00\x00'
p4172
tp4173
Rp4174
sVright
p4175
g3417
(g3421
S'\xa9\x00\x00\x00\x00\x00\x00\x00'
p4176
tp4177
Rp4178
sVhave
p4179
g3417
(g3421
S']\x00\x00\x00\x00\x00\x00\x00'
p4180
tp4181
Rp4182
sVstalls
p4183
g3417
(g3421
S'\xbe\x00\x00\x00\x00\x00\x00\x00'
p4184
tp4185
Rp4186
sVcheck
p4187
g3417
(g3421
S' \x00\x00\x00\x00\x00\x00\x00'
p4188
tp4189
Rp4190
sVif
p4191
g3417
(g3421
S'c\x00\x00\x00\x00\x00\x00\x00'
p4192
tp4193
Rp4194
sVinformation
p4195
g3417
(g3421
S'h\x00\x00\x00\x00\x00\x00\x00'
p4196
tp4197
Rp4198
sVrainy
p4199
g3417
(g3421
S'\xa3\x00\x00\x00\x00\x00\x00\x00'
p4200
tp4201
Rp4202
sVnoise
p4203
g3417
(g3421
S'\x87\x00\x00\x00\x00\x00\x00\x00'
p4204
tp4205
Rp4206
sVmake
p4207
g3417
(g3421
S'w\x00\x00\x00\x00\x00\x00\x00'
p4208
tp4209
Rp4210
sVsong
p4211
g3417
(g3421
S'\xbb\x00\x00\x00\x00\x00\x00\x00'
p4212
tp4213
Rp4214
sVwhen
p4215
g3417
(g3421
S'\xe3\x00\x00\x00\x00\x00\x00\x00'
p4216
tp4217
Rp4218
sVfeature
p4219
g3417
(g3421
S'E\x00\x00\x00\x00\x00\x00\x00'
p4220
tp4221
Rp4222
sVsame
p4223
g3417
(g3421
S'\xab\x00\x00\x00\x00\x00\x00\x00'
p4224
tp4225
Rp4226
sVsaturday
p4227
g3417
(g3421
S'\xac\x00\x00\x00\x00\x00\x00\x00'
p4228
tp4229
Rp4230
sVbeside
p4231
g3417
(g3421
S'\x15\x00\x00\x00\x00\x00\x00\x00'
p4232
tp4233
Rp4234
sVya
p4235
g3417
(g3421
S'\xe8\x00\x00\x00\x00\x00\x00\x00'
p4236
tp4237
Rp4238
sVhot
p4239
g3417
(g3421
S'a\x00\x00\x00\x00\x00\x00\x00'
p4240
tp4241
Rp4242
sVbefore
p4243
g3417
(g3421
S'\x14\x00\x00\x00\x00\x00\x00\x00'
p4244
tp4245
Rp4246
sVyou
p4247
g3417
(g3421
S'\xe9\x00\x00\x00\x00\x00\x00\x00'
p4248
tp4249
Rp4250
sVdocument
p4251
g3417
(g3421
S'6\x00\x00\x00\x00\x00\x00\x00'
p4252
tp4253
Rp4254
sVevents
p4255
g3417
(g3421
S'A\x00\x00\x00\x00\x00\x00\x00'
p4256
tp4257
Rp4258
sVhigher
p4259
g3417
(g3421
S'`\x00\x00\x00\x00\x00\x00\x00'
p4260
tp4261
Rp4262
sVweek
p4263
g3417
(g3421
S'\xe0\x00\x00\x00\x00\x00\x00\x00'
p4264
tp4265
Rp4266
sVplay
p4267
g3417
(g3421
S'\x92\x00\x00\x00\x00\x00\x00\x00'
p4268
tp4269
Rp4270
sVokay
p4271
g3417
(g3421
S'\x8b\x00\x00\x00\x00\x00\x00\x00'
p4272
tp4273
Rp4274
sVsee
p4275
g3417
(g3421
S'\xb0\x00\x00\x00\x00\x00\x00\x00'
p4276
tp4277
Rp4278
sVany
p4279
g3417
(g3421
S'\x0b\x00\x00\x00\x00\x00\x00\x00'
p4280
tp4281
Rp4282
sVstop
p4283
g3417
(g3421
S'\xc1\x00\x00\x00\x00\x00\x00\x00'
p4284
tp4285
Rp4286
sVbackbone
p4287
g3417
(g3421
S'\x10\x00\x00\x00\x00\x00\x00\x00'
p4288
tp4289
Rp4290
sVproblems
p4291
g3417
(g3421
S'\x9a\x00\x00\x00\x00\x00\x00\x00'
p4292
tp4293
Rp4294
sVquieter
p4295
g3417
(g3421
S'\x9f\x00\x00\x00\x00\x00\x00\x00'
p4296
tp4297
Rp4298
sVrain
p4299
g3417
(g3421
S'\xa1\x00\x00\x00\x00\x00\x00\x00'
p4300
tp4301
Rp4302
sVfreezing
p4303
g3417
(g3421
S'M\x00\x00\x00\x00\x00\x00\x00'
p4304
tp4305
Rp4306
sVbyebye
p4307
g3417
(g3421
S'\x1b\x00\x00\x00\x00\x00\x00\x00'
p4308
tp4309
Rp4310
sVtune
p4311
g3417
(g3421
S'\xd4\x00\x00\x00\x00\x00\x00\x00'
p4312
tp4313
Rp4314
sVyour
p4315
g3417
(g3421
S'\xea\x00\x00\x00\x00\x00\x00\x00'
p4316
tp4317
Rp4318
sVgrief
p4319
g3417
(g3421
S'[\x00\x00\x00\x00\x00\x00\x00'
p4320
tp4321
Rp4322
sVlower
p4323
g3417
(g3421
S'u\x00\x00\x00\x00\x00\x00\x00'
p4324
tp4325
Rp4326
sVoff
p4327
g3417
(g3421
S'\x8a\x00\x00\x00\x00\x00\x00\x00'
p4328
tp4329
Rp4330
sVwe
p4331
g3417
(g3421
S'\xdd\x00\x00\x00\x00\x00\x00\x00'
p4332
tp4333
Rp4334
sVgather
p4335
g3417
(g3421
S'P\x00\x00\x00\x00\x00\x00\x00'
p4336
tp4337
Rp4338
sVtale
p4339
g3417
(g3421
S'\xc4\x00\x00\x00\x00\x00\x00\x00'
p4340
tp4341
Rp4342
sVtime
p4343
g3417
(g3421
S'\xcc\x00\x00\x00\x00\x00\x00\x00'
p4344
tp4345
Rp4346
sVnewsfeed
p4347
g3417
(g3421
S'\x84\x00\x00\x00\x00\x00\x00\x00'
p4348
tp4349
Rp4350
sVthe
p4351
g3417
(g3421
S'\xc7\x00\x00\x00\x00\x00\x00\x00'
p4352
tp4353
Rp4354
sVincrease
p4355
g3417
(g3421
S'g\x00\x00\x00\x00\x00\x00\x00'
p4356
tp4357
Rp4358
sVplaying
p4359
g3417
(g3421
S'\x93\x00\x00\x00\x00\x00\x00\x00'
p4360
tp4361
Rp4362
sVdot
p4363
g3417
(g3421
S'9\x00\x00\x00\x00\x00\x00\x00'
p4364
tp4365
Rp4366
sVlatest
p4367
g3417
(g3421
S'p\x00\x00\x00\x00\x00\x00\x00'
p4368
tp4369
Rp4370
ssS'binary'
p4371
I00
sS'ngram_range'
p4372
(I1
I1
tp4373
sg3391
g3392
sS'max_df'
p4374
F1.0
sS'min_df'
p4375
I1
sS'max_features'
p4376
NsS'fixed_vocabulary_'
p4377
I00
sS'strip_accents'
p4378
NsS'dtype'
p4379
cnumpy
int64
p4380
sS'stop_words_'
p4381
c__builtin__
set
p4382
((lp4383
tp4384
Rp4385
sS'preprocessor'
p4386
Nsbtp4387
a(S'tfidf'
p4388
g3385
(csklearn.feature_extraction.text
TfidfTransformer
p4389
g3387
Ntp4390
Rp4391
(dp4392
S'smooth_idf'
p4393
I01
sg3391
g3392
sS'_idf_diag'
p4394
g3385
(cscipy.sparse.csr
csr_matrix
p4395
g3387
Ntp4396
Rp4397
(dp4398
S'indices'
p4399
cnumpy.core.multiarray
_reconstruct
p4400
(cnumpy
ndarray
p4401
(I0
tp4402
S'b'
p4403
tp4404
Rp4405
(I1
(I237
tp4406
g3418
(S'i4'
p4407
I0
I1
tp4408
Rp4409
(I3
S'<'
p4410
NNNI-1
I-1
I0
tp4411
bI00
S'\x00\x00\x00\x00\x01\x00\x00\x00\x02\x00\x00\x00\x03\x00\x00\x00\x04\x00\x00\x00\x05\x00\x00\x00\x06\x00\x00\x00\x07\x00\x00\x00\x08\x00\x00\x00\t\x00\x00\x00\n\x00\x00\x00\x0b\x00\x00\x00\x0c\x00\x00\x00\r\x00\x00\x00\x0e\x00\x00\x00\x0f\x00\x00\x00\x10\x00\x00\x00\x11\x00\x00\x00\x12\x00\x00\x00\x13\x00\x00\x00\x14\x00\x00\x00\x15\x00\x00\x00\x16\x00\x00\x00\x17\x00\x00\x00\x18\x00\x00\x00\x19\x00\x00\x00\x1a\x00\x00\x00\x1b\x00\x00\x00\x1c\x00\x00\x00\x1d\x00\x00\x00\x1e\x00\x00\x00\x1f\x00\x00\x00 \x00\x00\x00!\x00\x00\x00"\x00\x00\x00#\x00\x00\x00$\x00\x00\x00%\x00\x00\x00&\x00\x00\x00\'\x00\x00\x00(\x00\x00\x00)\x00\x00\x00*\x00\x00\x00+\x00\x00\x00,\x00\x00\x00-\x00\x00\x00.\x00\x00\x00/\x00\x00\x000\x00\x00\x001\x00\x00\x002\x00\x00\x003\x00\x00\x004\x00\x00\x005\x00\x00\x006\x00\x00\x007\x00\x00\x008\x00\x00\x009\x00\x00\x00:\x00\x00\x00;\x00\x00\x00<\x00\x00\x00=\x00\x00\x00>\x00\x00\x00?\x00\x00\x00@\x00\x00\x00A\x00\x00\x00B\x00\x00\x00C\x00\x00\x00D\x00\x00\x00E\x00\x00\x00F\x00\x00\x00G\x00\x00\x00H\x00\x00\x00I\x00\x00\x00J\x00\x00\x00K\x00\x00\x00L\x00\x00\x00M\x00\x00\x00N\x00\x00\x00O\x00\x00\x00P\x00\x00\x00Q\x00\x00\x00R\x00\x00\x00S\x00\x00\x00T\x00\x00\x00U\x00\x00\x00V\x00\x00\x00W\x00\x00\x00X\x00\x00\x00Y\x00\x00\x00Z\x00\x00\x00[\x00\x00\x00\\\x00\x00\x00]\x00\x00\x00^\x00\x00\x00_\x00\x00\x00`\x00\x00\x00a\x00\x00\x00b\x00\x00\x00c\x00\x00\x00d\x00\x00\x00e\x00\x00\x00f\x00\x00\x00g\x00\x00\x00h\x00\x00\x00i\x00\x00\x00j\x00\x00\x00k\x00\x00\x00l\x00\x00\x00m\x00\x00\x00n\x00\x00\x00o\x00\x00\x00p\x00\x00\x00q\x00\x00\x00r\x00\x00\x00s\x00\x00\x00t\x00\x00\x00u\x00\x00\x00v\x00\x00\x00w\x00\x00\x00x\x00\x00\x00y\x00\x00\x00z\x00\x00\x00{\x00\x00\x00|\x00\x00\x00}\x00\x00\x00~\x00\x00\x00\x7f\x00\x00\x00\x80\x00\x00\x00\x81\x00\x00\x00\x82\x00\x00\x00\x83\x00\x00\x00\x84\x00\x00\x00\x85\x00\x00\x00\x86\x00\x00\x00\x87\x00\x00\x00\x88\x00\x00\x00\x89\x00\x00\x00\x8a\x00\x00\x00\x8b\x00\x00\x00\x8c\x00\x00\x00\x8d\x00\x00\x00\x8e\x00\x00\x00\x8f\x00\x00\x00\x90\x00\x00\x00\x91\x00\x00\x00\x92\x00\x00\x00\x93\x00\x00\x00\x94\x00\x00\x00\x95\x00\x00\x00\x96\x00\x00\x00\x97\x00\x00\x00\x98\x00\x00\x00\x99\x00\x00\x00\x9a\x00\x00\x00\x9b\x00\x00\x00\x9c\x00\x00\x00\x9d\x00\x00\x00\x9e\x00\x00\x00\x9f\x00\x00\x00\xa0\x00\x00\x00\xa1\x00\x00\x00\xa2\x00\x00\x00\xa3\x00\x00\x00\xa4\x00\x00\x00\xa5\x00\x00\x00\xa6\x00\x00\x00\xa7\x00\x00\x00\xa8\x00\x00\x00\xa9\x00\x00\x00\xaa\x00\x00\x00\xab\x00\x00\x00\xac\x00\x00\x00\xad\x00\x00\x00\xae\x00\x00\x00\xaf\x00\x00\x00\xb0\x00\x00\x00\xb1\x00\x00\x00\xb2\x00\x00\x00\xb3\x00\x00\x00\xb4\x00\x00\x00\xb5\x00\x00\x00\xb6\x00\x00\x00\xb7\x00\x00\x00\xb8\x00\x00\x00\xb9\x00\x00\x00\xba\x00\x00\x00\xbb\x00\x00\x00\xbc\x00\x00\x00\xbd\x00\x00\x00\xbe\x00\x00\x00\xbf\x00\x00\x00\xc0\x00\x00\x00\xc1\x00\x00\x00\xc2\x00\x00\x00\xc3\x00\x00\x00\xc4\x00\x00\x00\xc5\x00\x00\x00\xc6\x00\x00\x00\xc7\x00\x00\x00\xc8\x00\x00\x00\xc9\x00\x00\x00\xca\x00\x00\x00\xcb\x00\x00\x00\xcc\x00\x00\x00\xcd\x00\x00\x00\xce\x00\x00\x00\xcf\x00\x00\x00\xd0\x00\x00\x00\xd1\x00\x00\x00\xd2\x00\x00\x00\xd3\x00\x00\x00\xd4\x00\x00\x00\xd5\x00\x00\x00\xd6\x00\x00\x00\xd7\x00\x00\x00\xd8\x00\x00\x00\xd9\x00\x00\x00\xda\x00\x00\x00\xdb\x00\x00\x00\xdc\x00\x00\x00\xdd\x00\x00\x00\xde\x00\x00\x00\xdf\x00\x00\x00\xe0\x00\x00\x00\xe1\x00\x00\x00\xe2\x00\x00\x00\xe3\x00\x00\x00\xe4\x00\x00\x00\xe5\x00\x00\x00\xe6\x00\x00\x00\xe7\x00\x00\x00\xe8\x00\x00\x00\xe9\x00\x00\x00\xea\x00\x00\x00\xeb\x00\x00\x00\xec\x00\x00\x00'
p4412
tp4413
bsS'indptr'
p4414
g4400
(g4401
(I0
tp4415
g4403
tp4416
Rp4417
(I1
(I238
tp4418
g4409
I00
S'\x00\x00\x00\x00\x01\x00\x00\x00\x02\x00\x00\x00\x03\x00\x00\x00\x04\x00\x00\x00\x05\x00\x00\x00\x06\x00\x00\x00\x07\x00\x00\x00\x08\x00\x00\x00\t\x00\x00\x00\n\x00\x00\x00\x0b\x00\x00\x00\x0c\x00\x00\x00\r\x00\x00\x00\x0e\x00\x00\x00\x0f\x00\x00\x00\x10\x00\x00\x00\x11\x00\x00\x00\x12\x00\x00\x00\x13\x00\x00\x00\x14\x00\x00\x00\x15\x00\x00\x00\x16\x00\x00\x00\x17\x00\x00\x00\x18\x00\x00\x00\x19\x00\x00\x00\x1a\x00\x00\x00\x1b\x00\x00\x00\x1c\x00\x00\x00\x1d\x00\x00\x00\x1e\x00\x00\x00\x1f\x00\x00\x00 \x00\x00\x00!\x00\x00\x00"\x00\x00\x00#\x00\x00\x00$\x00\x00\x00%\x00\x00\x00&\x00\x00\x00\'\x00\x00\x00(\x00\x00\x00)\x00\x00\x00*\x00\x00\x00+\x00\x00\x00,\x00\x00\x00-\x00\x00\x00.\x00\x00\x00/\x00\x00\x000\x00\x00\x001\x00\x00\x002\x00\x00\x003\x00\x00\x004\x00\x00\x005\x00\x00\x006\x00\x00\x007\x00\x00\x008\x00\x00\x009\x00\x00\x00:\x00\x00\x00;\x00\x00\x00<\x00\x00\x00=\x00\x00\x00>\x00\x00\x00?\x00\x00\x00@\x00\x00\x00A\x00\x00\x00B\x00\x00\x00C\x00\x00\x00D\x00\x00\x00E\x00\x00\x00F\x00\x00\x00G\x00\x00\x00H\x00\x00\x00I\x00\x00\x00J\x00\x00\x00K\x00\x00\x00L\x00\x00\x00M\x00\x00\x00N\x00\x00\x00O\x00\x00\x00P\x00\x00\x00Q\x00\x00\x00R\x00\x00\x00S\x00\x00\x00T\x00\x00\x00U\x00\x00\x00V\x00\x00\x00W\x00\x00\x00X\x00\x00\x00Y\x00\x00\x00Z\x00\x00\x00[\x00\x00\x00\\\x00\x00\x00]\x00\x00\x00^\x00\x00\x00_\x00\x00\x00`\x00\x00\x00a\x00\x00\x00b\x00\x00\x00c\x00\x00\x00d\x00\x00\x00e\x00\x00\x00f\x00\x00\x00g\x00\x00\x00h\x00\x00\x00i\x00\x00\x00j\x00\x00\x00k\x00\x00\x00l\x00\x00\x00m\x00\x00\x00n\x00\x00\x00o\x00\x00\x00p\x00\x00\x00q\x00\x00\x00r\x00\x00\x00s\x00\x00\x00t\x00\x00\x00u\x00\x00\x00v\x00\x00\x00w\x00\x00\x00x\x00\x00\x00y\x00\x00\x00z\x00\x00\x00{\x00\x00\x00|\x00\x00\x00}\x00\x00\x00~\x00\x00\x00\x7f\x00\x00\x00\x80\x00\x00\x00\x81\x00\x00\x00\x82\x00\x00\x00\x83\x00\x00\x00\x84\x00\x00\x00\x85\x00\x00\x00\x86\x00\x00\x00\x87\x00\x00\x00\x88\x00\x00\x00\x89\x00\x00\x00\x8a\x00\x00\x00\x8b\x00\x00\x00\x8c\x00\x00\x00\x8d\x00\x00\x00\x8e\x00\x00\x00\x8f\x00\x00\x00\x90\x00\x00\x00\x91\x00\x00\x00\x92\x00\x00\x00\x93\x00\x00\x00\x94\x00\x00\x00\x95\x00\x00\x00\x96\x00\x00\x00\x97\x00\x00\x00\x98\x00\x00\x00\x99\x00\x00\x00\x9a\x00\x00\x00\x9b\x00\x00\x00\x9c\x00\x00\x00\x9d\x00\x00\x00\x9e\x00\x00\x00\x9f\x00\x00\x00\xa0\x00\x00\x00\xa1\x00\x00\x00\xa2\x00\x00\x00\xa3\x00\x00\x00\xa4\x00\x00\x00\xa5\x00\x00\x00\xa6\x00\x00\x00\xa7\x00\x00\x00\xa8\x00\x00\x00\xa9\x00\x00\x00\xaa\x00\x00\x00\xab\x00\x00\x00\xac\x00\x00\x00\xad\x00\x00\x00\xae\x00\x00\x00\xaf\x00\x00\x00\xb0\x00\x00\x00\xb1\x00\x00\x00\xb2\x00\x00\x00\xb3\x00\x00\x00\xb4\x00\x00\x00\xb5\x00\x00\x00\xb6\x00\x00\x00\xb7\x00\x00\x00\xb8\x00\x00\x00\xb9\x00\x00\x00\xba\x00\x00\x00\xbb\x00\x00\x00\xbc\x00\x00\x00\xbd\x00\x00\x00\xbe\x00\x00\x00\xbf\x00\x00\x00\xc0\x00\x00\x00\xc1\x00\x00\x00\xc2\x00\x00\x00\xc3\x00\x00\x00\xc4\x00\x00\x00\xc5\x00\x00\x00\xc6\x00\x00\x00\xc7\x00\x00\x00\xc8\x00\x00\x00\xc9\x00\x00\x00\xca\x00\x00\x00\xcb\x00\x00\x00\xcc\x00\x00\x00\xcd\x00\x00\x00\xce\x00\x00\x00\xcf\x00\x00\x00\xd0\x00\x00\x00\xd1\x00\x00\x00\xd2\x00\x00\x00\xd3\x00\x00\x00\xd4\x00\x00\x00\xd5\x00\x00\x00\xd6\x00\x00\x00\xd7\x00\x00\x00\xd8\x00\x00\x00\xd9\x00\x00\x00\xda\x00\x00\x00\xdb\x00\x00\x00\xdc\x00\x00\x00\xdd\x00\x00\x00\xde\x00\x00\x00\xdf\x00\x00\x00\xe0\x00\x00\x00\xe1\x00\x00\x00\xe2\x00\x00\x00\xe3\x00\x00\x00\xe4\x00\x00\x00\xe5\x00\x00\x00\xe6\x00\x00\x00\xe7\x00\x00\x00\xe8\x00\x00\x00\xe9\x00\x00\x00\xea\x00\x00\x00\xeb\x00\x00\x00\xec\x00\x00\x00\xed\x00\x00\x00'
p4419
tp4420
bsS'maxprint'
p4421
I50
sS'_shape'
p4422
(I237
I237
tp4423
sg12
g4400
(g4401
(I0
tp4424
g4403
tp4425
Rp4426
(I1
(I237
tp4427
g3418
(S'f8'
p4428
I0
I1
tp4429
Rp4430
(I3
S'<'
p4431
NNNI-1
I-1
I0
tp4432
bI00
S"5\x98\xf3\xef\x0b\xf2\x1e@c;,3\xc9\xe2\x16@\x94{\xb5\xd8?F\x13@5\x98\xf3\xef\x0b\xf2\x1e@\xddHF\xa47\xef\x19@\xf7P\x14\x90C,\x1c@5\x10i\xf1H\xc7\x17@5\x98\xf3\xef\x0b\xf2\x1e@\xc6I\x8a+m\xfb\x13@\x9f>\xf1\xec\xf0*\x13@5\x98\xf3\xef\x0b\xf2\x1e@._ZR\xa20\x10@\x18\x94\xa0\xb7\x8d\t\x0b@R\xb5T\xb4\xd1\x94\x12@{\xc2U\xd0\xb2\xa0\x16@\xddHF\xa47\xef\x19@5\x98\xf3\xef\x0b\xf2\x1e@\xb0\x9e'\xb1\xd9R\x1d@\xe84\xf8q\xfb\x81\x18@5\x98\xf3\xef\x0b\xf2\x1e@\xb0\x9e'\xb1\xd9R\x1d@\xb0\x9e'\xb1\xd9R\x1d@5\x98\xf3\xef\x0b\xf2\x1e@5\x98\xf3\xef\x0b\xf2\x1e@d\xe0\xeb\xe9\xb7?\x14@\xf7P\x14\x90C,\x1c@rWHQ\x11\x8d\x1a@5\x98\xf3\xef\x0b\xf2\x1e@/0'\x8a\xb4\r\x0e@\xaf\x08\xf4\x1e\x88M\n@5\x98\xf3\xef\x0b\xf2\x1e@5\x98\xf3\xef\x0b\xf2\x1e@\xd4\xc2{\x8c2\x03\x07@5\x98\xf3\xef\x0b\xf2\x1e@\xf7\xc8\x89\x91\x80\x01\x15@\x8f\xfc3\x14\x9aZ\x15@\xee]|\x12\xdf\xed\x18@\xee]|\x12\xdf\xed\x18@&|\xd7\xd1\xc3G\x1b@5\x98\xf3\xef\x0b\xf2\x1e@$s\xa8\x84\xde\x9d\x11@\xc6fCi\x0cp\x0f@\x94{\xb5\xd8?F\x13@\x8d\xaf\xb0\x1cf\x8e\x10@5\x98\xf3\xef\x0b\xf2\x1e@xX\xf6\x0e\xd6\x9c\x13@5\x98\xf3\xef\x0b\xf2\x1e@5\x98\xf3\xef\x0b\xf2\x1e@\xb0\x9e'\xb1\xd9R\x1d@\xb0\x9e'\xb1\xd9R\x1d@\xcdC\x13tb \x18@5\x98\xf3\xef\x0b\xf2\x1e@5\x98\xf3\xef\x0b\xf2\x1e@ \x08,&Y\x96\t@5\x98\xf3\xef\x0b\xf2\x1e@5\x98\xf3\xef\x0b\xf2\x1e@a\xf7\x11\x8d(e\x10@c;,3\xc9\xe2\x16@\x94{\xb5\xd8?F\x13@\xb0\x9e'\xb1\xd9R\x1d@5\x98\xf3\xef\x0b\xf2\x1e@\xb0\x9e'\xb1\xd9R\x1d@\xb0\x9e'\xb1\xd9R\x1d@5\x98\xf3\xef\x0b\xf2\x1e@.\xfa\xe0\xd7N\x9f\x0b@{?\xd9\xae\xae\x96\n@&|\xd7\xd1\xc3G\x1b@5\x98\xf3\xef\x0b\xf2\x1e@5\x98\xf3\xef\x0b\xf2\x1e@5\x98\xf3\xef\x0b\xf2\x1e@5\x98\xf3\xef\x0b\xf2\x1e@\x1b\x08\x9b\x05=\x8a\x15@K\x19::Ru\x17@\xee]|\x12\xdf\xed\x18@^\x1d%h\xa7\xfa\r@\x1b\x08\x9b\x05=\x8a\x15@\xc6I\x8a+m\xfb\x13@\xee]|\x12\xdf\xed\x18@&\xf4L\xd3\x00\x1d\x14@5\x98\xf3\xef\x0b\xf2\x1e@\xf7P\x14\x90C,\x1c@a\xf7\x11\x8d(e\x10@5\x98\xf3\xef\x0b\xf2\x1e@\xe84\xf8q\xfb\x81\x18@\xa4u\x14t\x8a\xc2\r@\xd9\x18\xdcS\xb3\xd7\x14@&|\xd7\xd1\xc3G\x1b@\xddHF\xa47\xef\x19@\xce\x8a{z\xc1\xe9\x11@5\x98\xf3\xef\x0b\xf2\x1e@\xb0\x9e'\xb1\xd9R\x1d@5\x98\xf3\xef\x0b\xf2\x1e@\xb0\x9e'\xb1\xd9R\x1d@\t\xbc\xaf\x91S\xf8\x08@\xb0\x16\x9d\xb2\x16(\x16@\xb0\x9e'\xb1\xd9R\x1d@\xb9\t50{f\x19@\xee]|\x12\xdf\xed\x18@K\x19::Ru\x17@\xf4^*\xd0\xa3\xfd\x11@5\x98\xf3\xef\x0b\xf2\x1e@\xf2\xcc\x1d[\xb9\x16\x0b@YD\xd2\xc9'\xcd\x0f@5\x98\xf3\xef\x0b\xf2\x1e@&|\xd7\xd1\xc3G\x1b@\xf7P\x14\x90C,\x1c@5\x98\xf3\xef\x0b\xf2\x1e@\xd8\x82\x9d\xf7\x1f\xca\x0b@5\x98\xf3\xef\x0b\xf2\x1e@j\x05[\x1dkY\x0f@\r\xd2Z\xda\x89\xaf\x14@K\x19::Ru\x17@rWHQ\x11\x8d\x1a@5\x98\xf3\xef\x0b\xf2\x1e@\xc6I\x8a+m\xfb\x13@\r\xd2Z\xda\x89\xaf\x14@rWHQ\x11\x8d\x1a@\xddHF\xa47\xef\x19@\xcbW\x92I,\xb0\r@\x18g\n8GQ\x12@5\x98\xf3\xef\x0b\xf2\x1e@L\x89\x0b\xad!\xdd\x12@5\x98\xf3\xef\x0b\xf2\x1e@&\xf4L\xd3\x00\x1d\x14@&\xf4L\xd3\x00\x1d\x14@\xb0\x9e'\xb1\xd9R\x1d@\xb0\x9e'\xb1\xd9R\x1d@&|\xd7\xd1\xc3G\x1b@\xa6\xf8yua\xbc\x08@\xb0\x9e'\xb1\xd9R\x1d@\xdd\xb5\x13\n\x97A\n@\x8d\xaf\xb0\x1cf\x8e\x10@\xaa\xed\x18\x123\xbc\x15@\x94{\xb5\xd8?F\x13@\xb0\x9e'\xb1\xd9R\x1d@5\x98\xf3\xef\x0b\xf2\x1e@\xee]|\x12\xdf\xed\x18@\xb0\x9e'\xb1\xd9R\x1d@\x9f>\xf1\xec\xf0*\x13@\xb0\x9e'\xb1\xd9R\x1d@6\x93\xe4\xeaO\xce\x05@\x90\x84ym\xda\xac\x0e@\xb0\x9e'\xb1\xd9R\x1d@5\x98\xf3\xef\x0b\xf2\x1e@5\x98\xf3\xef\x0b\xf2\x1e@\xb6\x9f\xd5n\x9eb\x16@\x9f\x01gDo)\x17@\xb0\x9e'\xb1\xd9R\x1d@\x95\xf1G\xef\xd6\xbd\x00@\xb0\x9e'\xb1\xd9R\x1d@\xb0\x9e'\xb1\xd9R\x1d@5\x98\xf3\xef\x0b\xf2\x1e@\xddHF\xa47\xef\x19@5\x98\xf3\xef\x0b\xf2\x1e@5\x98\xf3\xef\x0b\xf2\x1e@&|\xd7\xd1\xc3G\x1b@&|\xd7\xd1\xc3G\x1b@5\x98\xf3\xef\x0b\xf2\x1e@\xb0\x9e'\xb1\xd9R\x1d@5\x98\xf3\xef\x0b\xf2\x1e@\xb0\x9e'\xb1\xd9R\x1d@\xb0\x9e'\xb1\xd9R\x1d@\xee]|\x12\xdf\xed\x18@\xee]|\x12\xdf\xed\x18@\xcdC\x13tb \x18@{\xc2U\xd0\xb2\xa0\x16@5\x98\xf3\xef\x0b\xf2\x1e@5\x98\xf3\xef\x0b\xf2\x1e@\xe84\xf8q\xfb\x81\x18@rWHQ\x11\x8d\x1a@5\x98\xf3\xef\x0b\xf2\x1e@5\x98\xf3\xef\x0b\xf2\x1e@&\xf4L\xd3\x00\x1d\x14@\x94{\xb5\xd8?F\x13@c;,3\xc9\xe2\x16@\x8f\xfc3\x14\x9aZ\x15@\xf7P\x14\x90C,\x1c@rWHQ\x11\x8d\x1a@\xf7P\x14\x90C,\x1c@5\x98\xf3\xef\x0b\xf2\x1e@\x94{\xb5\xd8?F\x13@\xb6\x9f\xd5n\x9eb\x16@5\x98\xf3\xef\x0b\xf2\x1e@rWHQ\x11\x8d\x1a@\xb0\x9e'\xb1\xd9R\x1d@\xee]|\x12\xdf\xed\x18@\xb0\x9e'\xb1\xd9R\x1d@r\xcf\xbdRNb\x13@\x1b\x08\x9b\x05=\x8a\x15@$s\xa8\x84\xde\x9d\x11@5\x98\xf3\xef\x0b\xf2\x1e@\r\xd2Z\xda\x89\xaf\x14@5\x98\xf3\xef\x0b\xf2\x1e@5\x10i\xf1H\xc7\x17@&\xf4L\xd3\x00\x1d\x14@\xb0\x9e'\xb1\xd9R\x1d@5\x98\xf3\xef\x0b\xf2\x1e@5\x10i\xf1H\xc7\x17@\x1b\x08\x9b\x05=\x8a\x15@\xa2\xbb\x8c;_\xcc\x06@\xfe\xb5>\xbcA\x05\x11@5\x98\xf3\xef\x0b\xf2\x1e@\xcbW\x92I,\xb0\r@&\xf4L\xd3\x00\x1d\x14@\xdc\xc0\xbb\xa5t\xc4\x12@\t\xe3\x1c\xb4@\x83\x0b@/0'\x8a\xb4\r\x0e@&|\xd7\xd1\xc3G\x1b@>{vp\xea\xda\x13@5\x98\xf3\xef\x0b\xf2\x1e@5\x98\xf3\xef\x0b\xf2\x1e@&\xf4L\xd3\x00\x1d\x14@\xddHF\xa47\xef\x19@\xb0\x9e'\xb1\xd9R\x1d@\xddHF\xa47\xef\x19@J\x91\xaf;\x8fJ\x10@&|\xd7\xd1\xc3G\x1b@\x9f>\xf1\xec\xf0*\x13@5\x98\xf3\xef\x0b\xf2\x1e@\r\xd2Z\xda\x89\xaf\x14@\xddHF\xa47\xef\x19@5\x98\xf3\xef\x0b\xf2\x1e@\x1b\x08\x9b\x05=\x8a\x15@&\xf4L\xd3\x00\x1d\x14@\xf2\xfao\xc2\xef\n\x10@\xa2Z\x94k\x1d\xd4\x06@\xb0\x9e'\xb1\xd9R\x1d@\xb0\x9e'\xb1\xd9R\x1d@\x80\xe0\x17\xf6Q\xb0\x11@\xdc\xc0\xbb\xa5t\xc4\x12@\xb0\x9e'\xb1\xd9R\x1d@ji\xc8D\\\xac\x12@\xb0\x9e'\xb1\xd9R\x1d@\xceI\xa9\xd1!\x81\x04@\xddHF\xa47\xef\x19@\xee]|\x12\xdf\xed\x18@&|\xd7\xd1\xc3G\x1b@"
p4433
tp4434
bsbsS'use_idf'
p4435
I01
sS'sublinear_tf'
p4436
I00
sS'norm'
p4437
Vl2
p4438
sbtp4439
a(S'clsfr'
p4440
g3385
(csklearn.linear_model.stochastic_gradient
SGDClassifier
p4441
g3387
Ntp4442
Rp4443
(dp4444
S't_'
p4445
F8421.0
sS'n_jobs'
p4446
I1
sS'shuffle'
p4447
I01
sS'verbose'
p4448
I0
sS'classes_'
p4449
g4400
(g4401
(I0
tp4450
g4403
tp4451
Rp4452
(I1
(I2
tp4453
g3418
(S'S5'
p4454
I0
I1
tp4455
Rp4456
(I3
S'|'
p4457
NNNI5
I1
I0
tp4458
bI00
S'FalseTrue\x00'
p4459
tp4460
bsS'class_weight'
p4461
NsS'fit_intercept'
p4462
I01
sg8
g9
sS'random_state'
p4463
I769
sg3391
g3392
sS'loss_function'
p4464
csklearn.linear_model.sgd_fast
ModifiedHuber
p4465
(tRp4466
sS'C'
p4467
F1.0
sg7
I5
sS'epsilon'
p4468
F0.1
sS'learning_rate'
p4469
S'optimal'
p4470
sS'coef_'
p4471
g4400
(g4401
(I0
tp4472
g4403
tp4473
Rp4474
(I1
(I1
I237
tp4475
g4430
I00
S'\xf8=b\xbe\xc5\xaf\xde\xbf\x00\x00\x00\x00\x00\x00\x00\x00\xcc\xd1\x18\xb9\x15A\x18\xc0\x19Q7n\x13\x88\x0b\xc0\xe3\x1d\xb0^%R\xf6\xbf\x99N\xc7\xce\xfc\xbf\x07\xc0+6\x07\x8b\xff\xa9\t\xc0\x00\x00\x00\x00\x00\x00\x00\x00\xd9:3\xaa\xe9\x16\xf3\xbfT\x7f\x82\x96\x9a\xf9\xe8\xbfy\xe30$\x97X\xb9\xbf\x86\xcbAj\xc8\xef\xe2\xbf\xe0\x96\xee\xd7\xec\xbc\r\xc08\x81\x8a\x1b\x011\xe7\xbf\x00\x00\x00\x00\x00\x00\x00\x00w\xf1/\xb6/\xca\xd8\xbf\xf8=b\xbe\xc5\xaf\xde\xbf@\x99\xe2\x19\x94\xd3\xe6\xbf\x00\x00\x00\x00\x00\x00\x00\x00\x00\x00\x00\x00\x00\x00\x00\x00\x00\x00\x00\x00\x00\x00\x00\x00\xa4P\x00=j\xb9\xd6\xbf\xd5L\xa3\xa7\xebd\xb5\xbf\xe8\xab\xb4\xc4\xde\xc0\xd3\xbf9?\x96\xbb[\xd5\x08\xc0\x00\x00\x00\x00\x00\x00\x00\x00\xad\x80R\xdc\x9a@\x15@\x9d\\\x94\xfb\xc19\x11@\xd7\xefd\xbc\xe8\'\x05\xc0\xf0\xe9\xa7\xecU\x00w\xbf\x00\x00\x00\x00\x00\x00\x00\x00\xa6\xc3e\x99+\xfb\xd7\xbf\xde\xb7\xa0\x116\xa7\x0b\xc0\x00\x00\x00\x00\x00\x00\x00\x00T\x908\tz\x02\xd8\xbfs:D\x0355\xea\xbf\x00\x00\x00\x00\x00\x00\x00\x00\x00\x00\x00\x00\x00\x00\x00\x00\x00\x00\x00\x00\x00\x00\x00\x002\x9aP\xa7\xc7V\xea\xbf\xb0f\x02\x11M\x18\x18\xc0#0\x91\x91\xb0\xc7\x13\xc0\x00\x00\x00\x00\x00\x00\x00\x00\xdfk\xf6\xb4\xd2Q\xe4\xbf\x00\x00\x00\x00\x00\x00\x00\x00\xa2P\xcc\xde\xbc\x9c\x0b\xc0\xd4\xbfR\x9f@B\xd0\xbf\x00\x00\x00\x00\x00\x00\x00\x00\x00\x00\x00\x00\x00\x00\x00\x00\x00\x00\x00\x00\x00\x00\x00\x00\x00\x00\x00\x00\x00\x00\x00\x00\xf8=b\xbe\xc5\xaf\xde\xbfy\xe30$\x97X\xb9\xbf\xab4\xde-\xa4$\x1c\xc0\x00\x00\x00\x00\x00\x00\x00\x00\x87\'\x11\xa9\xf2\'\xe1\xbf\x00\x00\x00\x00\x00\x00\x00\x00\x00\x00\x00\x00\x00\x00\x00\x00\xa0&(I\xec\x8f\xdd\xbf\xa9\x1a\x83\xab^\xa7\x1d@y\xe30$\x97X\xb9\xbf\x00\x00\x00\x00\x00\x00\x00\x00\x00\x00\x00\x00\x00\x00\x00\x00\x96\x9f\xd6\xc5\x1eP\x1b@\xa4Vu"\xc0s\x13\xc0\xa7(\xcd\x82t\x19\xdf\xbf\x19,\xfdT\x1d\xdf\x16@\x00\x00\x00\x00\x00\x00\x00\x00\x00\x00\x00\x00\x00\x00\x00\x00\x00\x00\x00\x00\x00\x00\x00\x00\x00\x00\x00\x00\x00\x00\x00\x00^\xcf\xcc\x0e\xb2K\r\xc0\xfb$\xab\x17\xd1q\x0f\xc0\x9a\x90U2\xa2\x1e\x16\xc0>\xd4\x8c\x86\x7f\x1a\x05\xc0\x10\x1aai\x85\x92\xd8\xbf\xd9:3\xaa\xe9\x16\xf3\xbf\x00\x00\x00\x00\x00\x00\x00\x00\x00\x00\x00\x00\x00\x00\x00\x00\x00\x00\x00\x00\x00\x00\x00\x00\x00\x00\x00\x00\x00\x00\x00\x00\xe7+^J\x87x\xfc\xbf\x00\x00\x00\x00\x00\x00\x00\x00\x00\x00\x00\x00\x00\x00\x00\x00k\x12\xd3\xa9_\xbc\xfa\xbfE\x97 \xb83\xec\xd3\xbf\x00\x00\x00\x00\x00\x00\x00\x00\x8c\x00\x91\x1e\x15\x8a\xf7?MHVP28\t\xc0\x00\x00\x00\x00\x00\x00\x00\x00\x00\x00\x00\x00\x00\x00\x00\x00\xf8=b\xbe\xc5\xaf\xde\xbf\x00\x00\x00\x00\x00\x00\x00\x00%Il\xd2\xd5v\x0b\xc0\xfc-\xc9\xcbi\x0e\xdb\xbfV]wnS\xb8\x08\xc0\x00\x00\x00\x00\x00\x00\x00\x00\x00\x00\x00\x00\x00\x00\x00\x00\x00\x00\x00\x00\x00\x00\x00\x00\xde\x0eN\xd2*\xed\x0f\xc0\x00\x00\x00\x00\x00\x00\x00\x00\x0c\x0c\x97\x8b\xf0\xe0\xe9\xbf\xa4}P\x84\x0b\xb1\xc8\xbf\x00\x00\x00\x00\x00\x00\x00\x00\x00\x00\x00\x00\x00\x00\x00\x00r\xf8t\x87\xf2\x8b\xdd\xbf\xcf2>\xc4\xf2\x95\xd9\xbf\x00\x00\x00\x00\x00\x00\x00\x002\x9aP\xa7\xc7V\xea\xbf\xa0N=\xe0\xf3\xd0\x0b\xc0\x14\x03\x16\xc55\xeb\xd5\xbf\x00\x00\x00\x00\x00\x00\x00\x00\x00\x00\x00\x00\x00\x00\x00\x00\x87\'\x11\xa9\xf2\'\xe1\xbf\x80\xb9q\x90I-\x0b\xc0Y\xf8#R0\xe3\x00\xc0\x00\x00\x00\x00\x00\x00\x00\x00\x00\x00\x00\x00\x00\x00\x00\x00\x00\x00\x00\x00\x00\x00\x00\x00H8\x96\xf8\xe5\xfd\xe5\xbf\xa6\xc3e\x99+\xfb\xd7\xbf\xe4\x06Z.a\xe9\xe0\xbf\xa6\xc3e\x99+\xfb\xd7\xbf\x00\x00\x00\x00\x00\x00\x00\x00\x00\x00\x00\x00\x00\x00\x00\x00\xa4\xb6a9\xef*\x12\xc0(\xba%\x10W\x12\xdf\xbf\x99;SG\x0c\xc6\xff\xbfr`\xd9\xe3\x07\xde\xd5\xbf\x00\x00\x00\x00\x00\x00\x00\x00{\xdb\rM\x91\x96\xf7\xbfW`T\'z\x84\x06\xc0\xcfS\x84T:\xd2\xee\xbf\x10:9\x98\x1d3\x15\xc0%\xdbcH\xd6\xee"@\x00\x00\x00\x00\x00\x00\x00\x00\x00\x00\x00\x00\x00\x00\x00\x00\x00\x00\x00\x00\x00\x00\x00\x00\t\xe3y\xf9\x9c\'\xf6?\x00\x00\x00\x00\x00\x00\x00\x00\xf6\x8d\xed\xc4\xd4\x08\x10\xc0\xff*Of\xac\xfe\x17\xc0\x00\x00\x00\x00\x00\x00\x00\x00\x00\x00\x00\x00\x00\x00\x00\x00\x00\x00\x00\x00\x00\x00\x00\x00\x00\x00\x00\x00\x00\x00\x00\x00\xf6I\x9f(\x10\x95\xe5\xbf\x00\x00\x00\x00\x00\x00\x00\x00\xcb\xd8\x10\x85$B\x0f\xc0\x00\x00\x00\x00\x00\x00\x00\x00\x00\x00\x00\x00\x00\x00\x00\x00\xb7\xa09\x80?\xed\xce\xbf\x00\x00\x00\x00\x00\x00\x00\x00\x00\x00\x00\x00\x00\x00\x00\x00\x00\x00\x00\x00\x00\x00\x00\x00\x00\x00\x00\x00\x00\x00\x00\x00\x00\x00\x00\x00\x00\x00\x00\x00y\xe30$\x97X\xb9\xbf@\x99\xe2\x19\x94\xd3\xe6\xbf\x00\x00\x00\x00\x00\x00\x00\x00v\x1bP[\x04\x1c\x16@\x00\x00\x00\x00\x00\x00\x00\x00\x00\x00\x00\x00\x00\x00\x00\x00\x00\x00\x00\x00\x00\x00\x00\x00\x00\x00\x00\x00\x00\x00\x00\x00\x9e"\x1e\x87o@\xfc\xbf\xa6\xc3e\x99+\xfb\xd7\xbf\xcf2>\xc4\xf2\x95\xd9\xbf\x00\x00\x00\x00\x00\x00\x00\x00\x00\x00\x00\x00\x00\x00\x00\x00\x00\x00\x00\x00\x00\x00\x00\x00\x00\x00\x00\x00\x00\x00\x00\x00\x00\x00\x00\x00\x00\x00\x00\x00\x00\x00\x00\x00\x00\x00\x00\x00\x00\x00\x00\x00\x00\x00\x00\x00\xfb\xd7\xa1\x86!\xc7\xdc\xbf\x95\xb05\xcdsb @\x00\x00\x00\x00\x00\x00\x00\x00pe\x83$\xc5\x80\xed\xbf\x00\x00\x00\x00\x00\x00\x00\x00\xdfBCn\xd9X\xfd\xbf\x9e6\xd8\x0b\x0f\xb8\x05\xc0\x00\x00\x00\x00\x00\x00\x00\x00\x96\xb8s\x96\x00\xda\xf6\xbf\x00\x00\x00\x00\x00\x00\x00\x00\x00\x00\x00\x00\x00\x00\x00\x00\x00\x00\x00\x00\x00\x00\x00\x00|:I\xb6i\x91\xf6\xbf\x00\x00\x00\x00\x00\x00\x00\x00v:\x9c\x83\xfaR\xee\xbf\xa6\xc3e\x99+\xfb\xd7\xbf\t]\xc8\xd6~^\t\xc0\x00\x00\x00\x00\x00\x00\x00\x00\xb5\xa3`?.\xaf\xfb\xbf\x00\x00\x00\x00\x00\x00\x00\x00\xa9\x1a\x83\xab^\xa7\x1d@\xb7\xa09\x80?\xed\xce\xbf\x7f\xf2\x15\xebG\x08\xda\xbf^\x15\xcd/\xd8\xb3\x02\xc0xo0\xa5\x1f\'\x17\xc0\xe9\x1bSEz\xe8\xe3\xbfy\xe30$\x97X\xb9\xbf\xe7)ti\x11\xe6\x04\xc0\x00\x00\x00\x00\x00\x00\x00\x0028\x03[G\xeb\xe0\xbfc\xef\xed\xcc\xc7B\x0e\xc0\xd2;\xdd\xa2\x9f\xaa\n\xc0Y\xbd8|W\x93\xab\xbf\x00\x00\x00\x00\x00\x00\x00\x00\x00\x00\x00\x00\x00\x00\x00\x00\x00\x00\x00\x00\x00\x00\x00\x00\x00\x00\x00\x00\x00\x00\x00\x00\x00\x00\x00\x00\x00\x00\x00\x00]\xfe\tT\xf7\xc5\r\xc0\x00\x00\x00\x00\x00\x00\x00\x00\x04ce\x1d\xe8\xda\xf3\xbf\xcf\x9d\x1eb\x0b\x17\xf0\xbfX\xcf\xa9\x190v\x03\xc0\x00\x00\x00\x00\x00\x00\x00\x00_6\xd1P\x8d\xa9\xe5\xbf5?\xad\xf4\xac0\x00\xc0\x00\x00\x00\x00\x00\x00\x00\x00\x82\x118\x91cw\x0f\xc0\x00\x00\x00\x00\x00\x00\x00\x00\xc7\xfe\xcc|\xf2\xa6\xee\xbf\ru\xb3\xbe\xcaz\x04\xc0\x00\x00\x00\x00\x00\x00\x00\x00\x00\x00\x00\x00\x00\x00\x00\x00\x00\x00\x00\x00\x00\x00\x00\x00\x18\xa3n\xa4\x8c\x08\xe7\xbf\x00\x00\x00\x00\x00\x00\x00\x00\x00\x00\x00\x00\x00\x00\x00\x00\x00\x00\x00\x00\x00\x00\x00\x00\x18\x00;-\x9e\xcc\xcf\xbf5?\xad\xf4\xac0\x00\xc0\x84\x1d\xaf_bR\x06@\x00\x00\x00\x00\x00\x00\x00\x00'
p4476
tp4477
bsg11
F0.001
sS'intercept_'
p4478
g4400
(g4401
(I0
tp4479
g4403
tp4480
Rp4481
(I1
(I1
tp4482
g4430
I00
S'@\x9c\x1e\xa2\xb2\xe9\xe6\xbf'
p4483
tp4484
bsS'_expanded_class_weight'
p4485
g4400
(g4401
(I0
tp4486
g4403
tp4487
Rp4488
(I1
(I2
tp4489
g4430
I00
S'\x00\x00\x00\x00\x00\x00\xf0?\x00\x00\x00\x00\x00\x00\xf0?'
p4490
tp4491
bsS'warm_start'
p4492
I00
sg2
g3
sS'eta0'
p4493
F0.0
sS'l1_ratio'
p4494
F0.15
sS'average'
p4495
I00
sS'power_t'
p4496
F0.5
sbtp4497
asbsb.