(ialicized_models
CommandMatchingModel
p0
(dp1
S'loss'
p2
S'hinge'
p3
sS'grammar'
p4
NsS'name'
p5
S'EXIT_ALICE.model'
p6
sS'n_iter'
p7
I5
sS'penalty'
p8
S'none'
p9
sS'trained'
p10
I01
sS'alpha'
p11
F0.001
sS'data'
p12
(lp13
(S'do i have to do anything on tuesday'
p14
S'False'
p15
tp16
a(S'make a new event please'
p17
g15
tp18
a(S'check gmail'
p19
g15
tp20
a(S"don't i have to do anything on tuesday"
p21
g15
tp22
a(S'anything new in inbox'
p23
g15
tp24
a(S'turn the beat down please'
p25
g15
tp26
a(S'please create new event'
p27
g15
tp28
a(S'get the the latest headlines'
p29
g15
tp30
a(S'check events'
p31
g15
tp32
a(S'can you shut off my computer'
p33
g15
tp34
a(S'turn yourself on'
p35
g15
tp36
a(S'tell me current events'
p37
g15
tp38
a(S"today's live news"
p39
g15
tp40
a(S"don't i have anything today"
p41
g15
tp42
a(S'can you please shutdown my computer'
p43
g15
tp44
a(S'could you open inbox please'
p45
g15
tp46
a(S'what is current news'
p47
g15
tp48
a(S'please could you open my gmail'
p49
g15
tp50
a(S'sound up please'
p51
g15
tp52
a(S"what's today's forecast"
p53
g15
tp54
a(S'do i have any events on'
p55
g15
tp56
a(S'make the sound higher'
p57
g15
tp58
a(S'check google calendar on thursday'
p59
g15
tp60
a(S'can you lock the screen'
p61
g15
tp62
a(S'would you open gmail please'
p63
g15
tp64
a(S'please what is new in new gmail'
p65
g15
tp66
a(S'add a new event please'
p67
g15
tp68
a(S'what do i have to do on tomorrow'
p69
g15
tp70
a(S'what events do i have on tomorrow'
p71
g15
tp72
a(S'please give me current events'
p73
g15
tp74
a(S"if it's foggy this week"
p75
g15
tp76
a(S'check google calendar for this week'
p77
g15
tp78
a(S'what is new in my mail please'
p79
g15
tp80
a(S'could you make new event please'
p81
g15
tp82
a(S'could you please make event'
p83
g15
tp84
a(S'do i have anything on this day'
p85
g15
tp86
a(S'please shut down'
p87
g15
tp88
a(S"what's if it's foggy today"
p89
g15
tp90
a(S"get if it's rainy today"
p91
g15
tp92
a(S"aren't there any events on today"
p93
g15
tp94
a(S'could you please make a new event'
p95
g15
tp96
a(S'could you check my mail please'
p97
g15
tp98
a(S"don't i have any events on"
p99
g15
tp100
a(S'schedule new event'
p101
g15
tp102
a(S'close the active window'
p103
g15
tp104
a(S'check calendar on month'
p105
g15
tp106
a(S'please play spotify '
p107
g15
tp108
a(S'can you mute'
p109
g15
tp110
a(S'can you open this program'
p111
g15
tp112
a(S"don't i have any events on today"
p113
g15
tp114
a(S'sound higher please'
p115
g15
tp116
a(S'read time please'
p117
g15
tp118
a(S'please what is in my gmail'
p119
g15
tp120
a(S"don't i have anything on next"
p121
g15
tp122
a(S"today's current events"
p123
g15
tp124
a(S'please make event'
p125
g15
tp126
a(S'good afternoon'
p127
g15
tp128
a(S'open browser'
p129
g15
tp130
a(S"what's the temperature today"
p131
g15
tp132
a(S'lower the tunez please'
p133
g15
tp134
a(S'will you open my inbox please'
p135
g15
tp136
a(S'could you check mail please'
p137
g15
tp138
a(S'check my calendar for tuesday'
p139
g15
tp140
a(S'start a default browser please'
p141
g15
tp142
a(S'what is new in new gmail please'
p143
g15
tp144
a(S'anything new in my inbox'
p145
g15
tp146
a(S'could you schedule an event'
p147
g15
tp148
a(S'are there any events'
p149
g15
tp150
a(S'please sound higher'
p151
g15
tp152
a(S'any events on tomorrow'
p153
g15
tp154
a(S'are there any events on tomorrow'
p155
g15
tp156
a(S'open mail'
p157
g15
tp158
a(S'get the time please'
p159
g15
tp160
a(S'please open inbox'
p161
g15
tp162
a(S'can you put me on the lock screen please'
p163
g15
tp164
a(S'search for please'
p165
g15
tp166
a(S'check google calendar on friday'
p167
g15
tp168
a(S"what're the live news"
p169
g15
tp170
a(S'will it hail this week'
p171
g15
tp172
a(S"if it's foggy today"
p173
g15
tp174
a(S"what're the current news"
p175
g15
tp176
a(S'current forecast'
p177
g15
tp178
a(S'time please'
p179
g15
tp180
a(S'can you schedule event'
p181
g15
tp182
a(S'check calendar for today'
p183
g15
tp184
a(S'can you please shut down my computer'
p185
g15
tp186
a(S'check the current time please'
p187
g15
tp188
a(S'please get time'
p189
g15
tp190
a(S'start default browser'
p191
g15
tp192
a(S"don't i have to do anything on tuesday"
p193
g15
tp194
a(S'shutdown my computer please'
p195
g15
tp196
a(S'spotify pause the song please'
p197
g15
tp198
a(S'newsfeed'
p199
g15
tp200
a(S'can you turn the sound down'
p201
g15
tp202
a(S'can you make a new event'
p203
g15
tp204
a(S'close the current window'
p205
g15
tp206
a(S"if it's raining this week"
p207
g15
tp208
a(S'will you check new mail'
p209
g15
tp210
a(S'is it raining today'
p211
g15
tp212
a(S'do i have anything on friday'
p213
g15
tp214
a(S"what's temperature"
p215
g15
tp216
a(S'please close the window'
p217
g15
tp218
a(S'make the volume softer'
p219
g15
tp220
a(S"don't i have anything on saturday"
p221
g15
tp222
a(S'check my calendar on thursday'
p223
g15
tp224
a(S'am i free on monday'
p225
g15
tp226
a(S"what're the current events"
p227
g15
tp228
a(S'what are the the news'
p229
g15
tp230
a(S'check google calendar on next'
p231
g15
tp232
a(S'do i have anything to do on sunday'
p233
g15
tp234
a(S'could you make an event please'
p235
g15
tp236
a(S'is there anything to do on tuesday'
p237
g15
tp238
a(S'what do i have on monday'
p239
g15
tp240
a(S'is it cold today'
p241
g15
tp242
a(S'any events on sunday'
p243
g15
tp244
a(S'please open browser'
p245
g15
tp246
a(S'please check your watch'
p247
g15
tp248
a(S'please go to dot com'
p249
g15
tp250
a(S'any events on saturday'
p251
g15
tp252
a(S'please what is in mail'
p253
g15
tp254
a(S'do i have anything to do tomorrow'
p255
g15
tp256
a(S"what's in mail please"
p257
g15
tp258
a(S'exit please'
p259
S'True'
p260
tp261
a(S'can you shut down'
p262
g15
tp263
a(S'any new mail'
p264
g15
tp265
a(S"how's the forecast this week"
p266
g15
tp267
a(S'check calendar on sunday'
p268
g15
tp269
a(S'can you please create a new event'
p270
g15
tp271
a(S'can you check my gmail please'
p272
g15
tp273
a(S'can you please create event'
p274
g15
tp275
a(S'would you check my inbox'
p276
g15
tp277
a(S'get current forecast'
p278
g15
tp279
a(S'shut down my computer'
p280
g15
tp281
a(S'create a new event'
p282
g15
tp283
a(S'what is in gmail'
p284
g15
tp285
a(S'do i have to do anything on next'
p286
g15
tp287
a(S'am i free on'
p288
g15
tp289
a(S'check events on'
p290
g15
tp291
a(S'check google calendar for tomorrow'
p292
g15
tp293
a(S'what events are on'
p294
g15
tp295
a(S'please schedule event'
p296
g15
tp297
a(S'is there anything to do on friday'
p298
g15
tp299
a(S'can you send me to the lock screen'
p300
g15
tp301
a(S'can you turn up the sound'
p302
g15
tp303
a(S'google please'
p304
g15
tp305
a(S'could you please schedule an event'
p306
g15
tp307
a(S'search google'
p308
g15
tp309
a(S'please what is new in mail'
p310
g15
tp311
a(S'please check mail'
p312
g15
tp313
a(S"don't i have anything to do on friday"
p314
g15
tp315
a(S'please will you check my gmail'
p316
g15
tp317
a(S'are there any events in a week'
p318
g15
tp319
a(S'can you shut up'
p320
g15
tp321
a(S"aren't there any events on next"
p322
g15
tp323
a(S'could you schedule a new event'
p324
g15
tp325
a(S'turn up the sound please'
p326
g15
tp327
a(S'turn up the volume'
p328
g15
tp329
a(S'please could you check my mail'
p330
g15
tp331
a(S'check calendar on tuesday'
p332
g15
tp333
a(S'do i have any events on tuesday'
p334
g15
tp335
a(S"what're the newsfeed"
p336
g15
tp337
a(S"get if it's raining this week"
p338
g15
tp339
a(S'turn it down'
p340
g15
tp341
a(S'check calendar on monday'
p342
g15
tp343
a(S'check what time it is please'
p344
g15
tp345
a(S'close current program'
p346
g15
tp347
a(S"get if it's cold this week"
p348
g15
tp349
a(S'could you open my gmail please'
p350
g15
tp351
a(S"what's in inbox please"
p352
g15
tp353
a(S'louder please'
p354
g15
tp355
a(S'check calendar for'
p356
g15
tp357
a(S"what's if it's raining this week"
p358
g15
tp359
a(S'is there anything i have to do on this day'
p360
g15
tp361
a(S'check calendar on today'
p362
g15
tp363
a(S'check events on sunday'
p364
g15
tp365
a(S'can you make event'
p366
g15
tp367
a(S'what do i have on thursday'
p368
g15
tp369
a(S"if it's hot today"
p370
g15
tp371
a(S'gather information on'
p372
g15
tp373
a(S'can you turn off my computer'
p374
g15
tp375
a(S'can you please add event'
p376
g15
tp377
a(S'live news'
p378
g15
tp379
a(S"don't i have any events on monday"
p380
g15
tp381
a(S'do i have to do anything on this day'
p382
g15
tp383
a(S'can you schedule a new event please'
p384
g15
tp385
a(S'can you turn up the tunez'
p386
g15
tp387
a(S'what do i have to do on tuesday'
p388
g15
tp389
a(S'is it snowing today'
p390
g15
tp391
a(S'would you check mail please'
p392
g15
tp393
a(S"don't i have anything to do on sunday"
p394
g15
tp395
a(S'is there anything i have to do on today'
p396
g15
tp397
a(S'please could you open my mail'
p398
g15
tp399
a(S'the news'
p400
g15
tp401
a(S"don't i have anything on this day"
p402
g15
tp403
a(S'byebye'
p404
g260
tp405
a(S'get current events'
p406
g15
tp407
a(S'am i free on wednesday'
p408
g15
tp409
a(S"don't i have to do anything today"
p410
g15
tp411
a(S'can you create new event please'
p412
g15
tp413
a(S"don't i have anything on thursday"
p414
g15
tp415
a(S'go spotify please'
p416
g15
tp417
a(S'check google calendar on this day'
p418
g15
tp419
a(S'do i have anything to do in a week'
p420
g15
tp421
a(S'please retrieve the time'
p422
g15
tp423
a(S'a releasing moderate stalls beside the material cell'
p424
g15
tp425
a(S'please could you open inbox'
p426
g15
tp427
a(S"don't i have anything on sunday"
p428
g15
tp429
a(S'would you check my mail please'
p430
g15
tp431
a(S'please check the clock right now'
p432
g15
tp433
a(S'shut up'
p434
g15
tp435
a(S"what's new in inbox please"
p436
g15
tp437
a(S'can you please kill the current window'
p438
g15
tp439
a(S'can you create event please'
p440
g15
tp441
a(S'please open a browser'
p442
g15
tp443
a(S'please what is in new mail'
p444
g15
tp445
a(S'make an event please'
p446
g15
tp447
a(S'could you please schedule a new event'
p448
g15
tp449
a(S'check events for friday'
p450
g15
tp451
a(S'spotify pause'
p452
g15
tp453
a(S'find newsfeed'
p454
g15
tp455
a(S"what's new in my gmail please"
p456
g15
tp457
a(S'decrease the volume'
p458
g15
tp459
a(S'tell me newsfeed'
p460
g15
tp461
a(S'alice'
p462
g15
tp463
a(S'find news feed'
p464
g15
tp465
a(S"how's the temperature"
p466
g15
tp467
a(S'please could you check my inbox'
p468
g15
tp469
a(S'is there anything i have to do on tomorrow'
p470
g15
tp471
a(S'am i free for today'
p472
g15
tp473
a(S"don't i have anything tomorrow"
p474
g15
tp475
a(S'check google calendar on sunday'
p476
g15
tp477
a(S'could you please schedule new event'
p478
g15
tp479
a(S'am i free on tomorrow'
p480
g15
tp481
a(S'can you check mail'
p482
g15
tp483
a(S'could you add new event'
p484
g15
tp485
a(S'could you schedule event please'
p486
g15
tp487
a(S'please create an event'
p488
g15
tp489
a(S'can you please schedule a new event'
p490
g15
tp491
a(S'get weather'
p492
g15
tp493
a(S'shut my computer down please'
p494
g15
tp495
a(S'please can you check gmail'
p496
g15
tp497
a(S'check inbox please'
p498
g15
tp499
a(S'please spotify pause'
p500
g15
tp501
a(S"don't i have anything to do on this day"
p502
g15
tp503
a(S'can you turn yourself off please'
p504
g260
tp505
a(S'will it rain today'
p506
g15
tp507
a(S"don't i have anything on tuesday"
p508
g15
tp509
a(S'would you open mail please'
p510
g15
tp511
a(S'open my inbox'
p512
g15
tp513
a(S'check calendar on next'
p514
g15
tp515
a(S'can you check my gmail'
p516
g15
tp517
a(S'please what is new in new mail'
p518
g15
tp519
a(S"please what's in inbox"
p520
g15
tp521
a(S'get me the clock'
p522
g15
tp523
a(S'please spotify go '
p524
g15
tp525
a(S'can you lock my computer please'
p526
g15
tp527
a(S'please will you open inbox'
p528
g15
tp529
a(S'can you lock computer please'
p530
g15
tp531
a(S'check my gmail please'
p532
g15
tp533
a(S'i like dogs'
p534
g15
tp535
a(S'please spotify pause'
p536
g15
tp537
a(S'spotify shut up'
p538
g15
tp539
a(S'open dot gov'
p540
g15
tp541
a(S'can you unmute'
p542
g15
tp543
a(S'please get the current events'
p544
g15
tp545
a(S'current weather'
p546
g15
tp547
a(S'go to dot net'
p548
g15
tp549
a(S'do i have to do anything tomorrow'
p550
g15
tp551
a(S'anything in inbox'
p552
g15
tp553
a(S'check calendar on this day'
p554
g15
tp555
a(S'read time'
p556
g15
tp557
a(S'spotify go back'
p558
g15
tp559
a(S'could you check inbox please'
p560
g15
tp561
a(S'could you create new event'
p562
g15
tp563
a(S'lock computer'
p564
g15
tp565
a(S'is there anything i have to do'
p566
g15
tp567
a(S'anything new in my mail'
p568
g15
tp569
a(S'could you open mail'
p570
g15
tp571
a(S'can you create new event'
p572
g15
tp573
a(S"don't i have to do anything on"
p574
g15
tp575
a(S'search for'
p576
g15
tp577
a(S'turn up the volume'
p578
g15
tp579
a(S'please make new event'
p580
g15
tp581
a(S'turn off the sound please'
p582
g15
tp583
a(S'can you please kill the active window'
p584
g15
tp585
a(S"get if it's foggy this week"
p586
g15
tp587
a(S"what's the the news"
p588
g15
tp589
a(S'mute'
p590
g15
tp591
a(S"don't i have to do anything in a week"
p592
g15
tp593
a(S'find the current events'
p594
g15
tp595
a(S'retrieve what time it is please'
p596
g15
tp597
a(S'what do i have to do on this day'
p598
g15
tp599
a(S'check my calendar for wednesday'
p600
g15
tp601
a(S'do i have any events on wednesday'
p602
g15
tp603
a(S'add new event please'
p604
g15
tp605
a(S'check google calendar for today'
p606
g15
tp607
a(S'check events on month'
p608
g15
tp609
a(S"what's this week's temperature"
p610
g15
tp611
a(S"don't i have to do anything on thursday"
p612
g15
tp613
a(S'can you create event'
p614
g15
tp615
a(S"don't i have anything to do today"
p616
g15
tp617
a(S'can you check new gmail'
p618
g15
tp619
a(S'please volume higher'
p620
g15
tp621
a(S'can you turn up the volume please'
p622
g15
tp623
a(S'kill the current window'
p624
g15
tp625
a(S'brief me'
p626
g15
tp627
a(S'lock the screen'
p628
g15
tp629
a(S'gimme the news'
p630
g15
tp631
a(S'turn up the beat'
p632
g15
tp633
a(S'would you open my gmail please'
p634
g15
tp635
a(S'check google calendar on tomorrow'
p636
g15
tp637
a(S'what do i have in a week'
p638
g15
tp639
a(S'can you kill this window'
p640
g15
tp641
a(S'open my mail please'
p642
g15
tp643
a(S'can you make an event'
p644
g15
tp645
a(S'create an event please'
p646
g15
tp647
a(S'could you schedule event'
p648
g15
tp649
a(S'search please'
p650
g15
tp651
a(S'tell me the news'
p652
g15
tp653
a(S'what is in new gmail please'
p654
g15
tp655
a(S'what is in gmail please'
p656
g15
tp657
a(S"what's in gmail"
p658
g15
tp659
a(S"what's if it's freezing this week"
p660
g15
tp661
a(S'how is the weather'
p662
g15
tp663
a(S'spotify start please'
p664
g15
tp665
a(S'can you please shut off'
p666
g15
tp667
a(S'what is live newsfeed'
p668
g15
tp669
a(S'could you add an event please'
p670
g15
tp671
a(S'will you open mail'
p672
g15
tp673
a(S'please close this window'
p674
g15
tp675
a(S'can you please close active window'
p676
g15
tp677
a(S'can you get the latest headlines'
p678
g15
tp679
a(S'would you open inbox please'
p680
g15
tp681
a(S'turn yourself off please'
p682
g260
tp683
a(S'lower the volume'
p684
g15
tp685
a(S'add a new event'
p686
g15
tp687
a(S'what is headlines'
p688
g15
tp689
a(S'google search please for'
p690
g15
tp691
a(S"aren't there any events on sunday"
p692
g15
tp693
a(S'close this window'
p694
g15
tp695
a(S'will you check mail'
p696
g15
tp697
a(S'check my mail please'
p698
g15
tp699
a(S"what's new in new gmail"
p700
g15
tp701
a(S'could you check new gmail'
p702
g15
tp703
a(S'could you create event'
p704
g15
tp705
a(S'is it hot today'
p706
g15
tp707
a(S'will you open mail please'
p708
g15
tp709
a(S"what's the forecast today"
p710
g15
tp711
a(S'is there anything to do on thursday'
p712
g15
tp713
a(S'check google calendar on saturday'
p714
g15
tp715
a(S"don't i have anything to do in a week"
p716
g15
tp717
a(S'am i free for next'
p718
g15
tp719
a(S"what's today's temperature"
p720
g15
tp721
a(S'is it rainy this week'
p722
g15
tp723
a(S'turn up the the beat'
p724
g15
tp725
a(S'could you please create an event'
p726
g15
tp727
a(S'please find out the latest headlines'
p728
g15
tp729
a(S'live news feed'
p730
g15
tp731
a(S'check the current time'
p732
g15
tp733
a(S'do i have anything on wednesday'
p734
g15
tp735
a(S'could you please make new event'
p736
g15
tp737
a(S'am i free in a month'
p738
g15
tp739
a(S'turn up the tunes'
p740
g15
tp741
a(S'will you open gmail'
p742
g15
tp743
a(S'create event please'
p744
g15
tp745
a(S"get if it's rainy this week"
p746
g15
tp747
a(S'please will you check gmail'
p748
g15
tp749
a(S'add event'
p750
g15
tp751
a(S"if it's cloudy today"
p752
g15
tp753
a(S'find live news'
p754
g15
tp755
a(S'any gmail'
p756
g15
tp757
a(S"don't i have to do anything on wednesday"
p758
g15
tp759
a(S'google'
p760
g15
tp761
a(S'please can you check new mail'
p762
g15
tp763
a(S'could you make new event'
p764
g15
tp765
a(S'what are the live news'
p766
g15
tp767
a(S'can you please make a new event'
p768
g15
tp769
a(S'do i have to do anything on monday'
p770
g15
tp771
a(S'shutdown please'
p772
g15
tp773
a(S'am i free for sunday'
p774
g15
tp775
a(S'can you shutdown the computer'
p776
g15
tp777
a(S'what do i have to do in a week'
p778
g15
tp779
a(S'are there any events on thursday'
p780
g15
tp781
a(S"what're the news feed"
p782
g15
tp783
a(S'tell me live news'
p784
g15
tp785
a(S'pause please'
p786
g15
tp787
a(S'current news today'
p788
g15
tp789
a(S'what time is it currently'
p790
g15
tp791
a(S'could you add a new event please'
p792
g15
tp793
a(S'check events for saturday'
p794
g15
tp795
a(S'what events are on tomorrow'
p796
g15
tp797
a(S'check calendar'
p798
g15
tp799
a(S'spotify pause please'
p800
g15
tp801
a(S'spotify previous song please'
p802
g15
tp803
a(S'please search google'
p804
g15
tp805
a(S'will it hail today'
p806
g15
tp807
a(S'check google calendar for this day'
p808
g15
tp809
a(S"get this week's temperature"
p810
g15
tp811
a(S'read the time please'
p812
g15
tp813
a(S'turn off the computer please'
p814
g15
tp815
a(S'give me the current events please'
p816
g15
tp817
a(S'what events do i have on next'
p818
g15
tp819
a(S'please what is in new gmail'
p820
g15
tp821
a(S'can you please add new event'
p822
g15
tp823
a(S'any events in a month'
p824
g15
tp825
a(S"don't i have to do anything on friday"
p826
g15
tp827
a(S'can you check my mail'
p828
g15
tp829
a(S'check the clock'
p830
g15
tp831
a(S'retrieve the current time'
p832
g15
tp833
a(S'what is going on in the world today'
p834
g15
tp835
a(S'please check gmail'
p836
g15
tp837
a(S'check calendar on thursday'
p838
g15
tp839
a(S'please check the clock'
p840
g15
tp841
a(S'can you shutdown'
p842
g15
tp843
a(S'what is in my inbox'
p844
g15
tp845
a(S'what are the news'
p846
g15
tp847
a(S'do i have anything today'
p848
g15
tp849
a(S'can you open a browser'
p850
g15
tp851
a(S'please start default browser'
p852
g15
tp853
a(S'will you open gmail please'
p854
g15
tp855
a(S'can you please create an event'
p856
g15
tp857
a(S'can you open browser please'
p858
g15
tp859
a(S'check my calendar for this week'
p860
g15
tp861
a(S'is there anything to do on saturday'
p862
g15
tp863
a(S'what is new in new mail please'
p864
g15
tp865
a(S'go to dot gov'
p866
g15
tp867
a(S'will you open inbox'
p868
g15
tp869
a(S'time'
p870
g15
tp871
a(S'would you check my mail'
p872
g15
tp873
a(S'what do i have to do on monday'
p874
g15
tp875
a(S'are there any events on friday'
p876
g15
tp877
a(S'increase the volume'
p878
g15
tp879
a(S"this week's forecast"
p880
g15
tp881
a(S"what's in my gmail"
p882
g15
tp883
a(S'shutdown the computer please'
p884
g15
tp885
a(S"aren't there any events in a week"
p886
g15
tp887
a(S"don't i have anything"
p888
g15
tp889
a(S'please lock the screen'
p890
g15
tp891
a(S'do i have to do anything on wednesday'
p892
g15
tp893
a(S'can you check my inbox'
p894
g15
tp895
a(S'turn the tune down'
p896
g15
tp897
a(S"what's if it's freezing today"
p898
g15
tp899
a(S'do i have any events on next'
p900
g15
tp901
a(S'make the volume zero'
p902
g15
tp903
a(S"don't i have to do anything on next"
p904
g15
tp905
a(S'am i free'
p906
g15
tp907
a(S'please read time'
p908
g15
tp909
a(S'start browser'
p910
g15
tp911
a(S"don't i have any events on friday"
p912
g15
tp913
a(S'please what is new in my gmail'
p914
g15
tp915
a(S'forecast'
p916
g15
tp917
a(S"don't i have anything to do on tuesday"
p918
g15
tp919
a(S"what's in new mail please"
p920
g15
tp921
a(S'get temperature'
p922
g15
tp923
a(S'put me on the lock screen please'
p924
g15
tp925
a(S'play the song before'
p926
g15
tp927
a(S"don't i have to do anything tomorrow"
p928
g15
tp929
a(S'do i have anything on'
p930
g15
tp931
a(S"don't i have to do anything"
p932
g15
tp933
a(S'news today'
p934
g15
tp935
a(S'anything new in my gmail'
p936
g15
tp937
a(S'are there any events on monday'
p938
g15
tp939
a(S'what is in my inbox please'
p940
g15
tp941
a(S'could you open gmail'
p942
g15
tp943
a(S'do i have any events on thursday'
p944
g15
tp945
a(S'go to dot com'
p946
g15
tp947
a(S'go ahead'
p948
g15
tp949
a(S"how's the forecast today"
p950
g15
tp951
a(S'check my calendar on tuesday'
p952
g15
tp953
a(S'can you make new event please'
p954
g15
tp955
a(S"don't i have anything on"
p956
g15
tp957
a(S"i think i didn't answer an earlier question"
p958
g15
tp959
a(S'please tell me whats going on in the news please'
p960
g15
tp961
a(S'create an event'
p962
g15
tp963
a(S'would you check inbox'
p964
g15
tp965
a(S'please add an event'
p966
g15
tp967
a(S'get the news'
p968
g15
tp969
a(S'stop'
p970
g15
tp971
a(S'tell me news'
p972
g15
tp973
a(S'what events do i have in a week'
p974
g15
tp975
a(S'any events on thursday'
p976
g15
tp977
a(S'do i have any events on monday'
p978
g15
tp979
a(S'could you add event please'
p980
g15
tp981
a(S'what events do i have on wednesday'
p982
g15
tp983
a(S"what's forecast"
p984
g15
tp985
a(S'would you check my gmail please'
p986
g15
tp987
a(S'alex'
p988
g15
tp989
a(S"don't i have any events on wednesday"
p990
g15
tp991
a(S'please could you check inbox'
p992
g15
tp993
a(S'what are the current news'
p994
g15
tp995
a(S'shutdown the computer'
p996
g15
tp997
a(S"please what's new in mail"
p998
g15
tp999
a(S'open dot edu'
p1000
g15
tp1001
a(S"if it's rainy today"
p1002
g15
tp1003
a(S'schedule a new event please'
p1004
g15
tp1005
a(S"today's news feed"
p1006
g15
tp1007
a(S'what is new in gmail please'
p1008
g15
tp1009
a(S'can you create a new event please'
p1010
g15
tp1011
a(S"what's new in gmail please"
p1012
g15
tp1013
a(S"if it's freezing this week"
p1014
g15
tp1015
a(S"if it's hot this week"
p1016
g15
tp1017
a(S'please would you open my gmail'
p1018
g15
tp1019
a(S"don't i have any events in a week"
p1020
g15
tp1021
a(S"get this week's forecast"
p1022
g15
tp1023
a(S'please spotify play last song'
p1024
g15
tp1025
a(S'song stop'
p1026
g15
tp1027
a(S'any events in a week'
p1028
g15
tp1029
a(S'do i have anything to do in a month'
p1030
g15
tp1031
a(S'good bye'
p1032
g260
tp1033
a(S'is there anything i have to do on saturday'
p1034
g15
tp1035
a(S'make the volume 0'
p1036
g15
tp1037
a(S"what's in inbox"
p1038
g15
tp1039
a(S'what is on my calendar for next'
p1040
g15
tp1041
a(S'check google calendar for tuesday'
p1042
g15
tp1043
a(S'what is in my gmail please'
p1044
g15
tp1045
a(S'can you check my mail please'
p1046
g15
tp1047
a(S"what's in gmail please"
p1048
g15
tp1049
a(S'kill this window'
p1050
g15
tp1051
a(S'check events on monday'
p1052
g15
tp1053
a(S'check google calendar for monday'
p1054
g15
tp1055
a(S'please spotify pause the song'
p1056
g15
tp1057
a(S'check calendar on wednesday'
p1058
g15
tp1059
a(S'are there any events on sunday'
p1060
g15
tp1061
a(S"today's headlines"
p1062
g15
tp1063
a(S'what is new in new mail'
p1064
g15
tp1065
a(S'will you get the news for me'
p1066
g15
tp1067
a(S'turn the volume to zero'
p1068
g15
tp1069
a(S'am i free on thursday'
p1070
g15
tp1071
a(S"what're the live news feed"
p1072
g15
tp1073
a(S"what's the temperature"
p1074
g15
tp1075
a(S'is there anything i have to do on sunday'
p1076
g15
tp1077
a(S"don't i have anything in a week"
p1078
g15
tp1079
a(S'can you please turn off the computer'
p1080
g15
tp1081
a(S'kill the music'
p1082
g15
tp1083
a(S'is there anything to do on this day'
p1084
g15
tp1085
a(S'do i have any events on sunday'
p1086
g15
tp1087
a(S'please turn my computer off'
p1088
g15
tp1089
a(S'can you turn yourself off'
p1090
g260
tp1091
a(S"don't i have to do anything tomorrow"
p1092
g15
tp1093
a(S'what is new in inbox'
p1094
g15
tp1095
a(S'please schedule an event'
p1096
g15
tp1097
a(S'how is the temperature'
p1098
g15
tp1099
a(S"what's the weather"
p1100
g15
tp1101
a(S'please create event'
p1102
g15
tp1103
a(S"what's the forecast this week"
p1104
g15
tp1105
a(S'check my calendar for saturday'
p1106
g15
tp1107
a(S'check my calendar for this day'
p1108
g15
tp1109
a(S'any events on monday'
p1110
g15
tp1111
a(S'google for'
p1112
g15
tp1113
a(S'please what is new in my inbox'
p1114
g15
tp1115
a(S"what's in mail"
p1116
g15
tp1117
a(S'please spotify previous song'
p1118
g15
tp1119
a(S'search google for'
p1120
g15
tp1121
a(S'train a classifier to try to predict the category of a post'
p1122
g15
tp1123
a(S'find live newsfeed'
p1124
g15
tp1125
a(S"get today's weather"
p1126
g15
tp1127
a(S'can you please close the current window'
p1128
g15
tp1129
a(S'what is in new gmail'
p1130
g15
tp1131
a(S"don't i have anything to do"
p1132
g15
tp1133
a(S"what's new in new mail"
p1134
g15
tp1135
a(S'clock'
p1136
g15
tp1137
a(S"get if it's raining today"
p1138
g15
tp1139
a(S'do i have anything'
p1140
g15
tp1141
a(S'start a browser'
p1142
g15
tp1143
a(S'check google calendar for'
p1144
g15
tp1145
a(S'can you make a new event please'
p1146
g15
tp1147
a(S'get newsfeed'
p1148
g15
tp1149
a(S'what is in my mail'
p1150
g15
tp1151
a(S'check your watch please'
p1152
g15
tp1153
a(S'get clock please'
p1154
g15
tp1155
a(S'lock my computer please'
p1156
g15
tp1157
a(S'spotify start the song please'
p1158
g15
tp1159
a(S'skip spotify please'
p1160
g15
tp1161
a(S'do i have any events on friday'
p1162
g15
tp1163
a(S'please would you open my mail'
p1164
g15
tp1165
a(S'we stick to simple problems in this post for the sake of illustration'
p1166
g15
tp1167
a(S'what events are on saturday'
p1168
g15
tp1169
a(S"aren't there any events on tuesday"
p1170
g15
tp1171
a(S'could you check my gmail please'
p1172
g15
tp1173
a(S'check new mail'
p1174
g15
tp1175
a(S'check new gmail please'
p1176
g15
tp1177
a(S'is there anything to do on monday'
p1178
g15
tp1179
a(S'find current events'
p1180
g15
tp1181
a(S'please could you check mail'
p1182
g15
tp1183
a(S'a backbone dictates above my grief'
p1184
g15
tp1185
a(S"what're the news"
p1186
g15
tp1187
a(S'could you create an event please'
p1188
g15
tp1189
a(S"what's new in gmail"
p1190
g15
tp1191
a(S'any events'
p1192
g15
tp1193
a(S'headlines'
p1194
g15
tp1195
a(S'is there anything i have to do today'
p1196
g15
tp1197
a(S'please can you check new gmail'
p1198
g15
tp1199
a(S'check events on'
p1200
g15
tp1201
a(S'open my gmail'
p1202
g15
tp1203
a(S'please would you open inbox'
p1204
g15
tp1205
a(S'please open'
p1206
g15
tp1207
a(S'create new event please'
p1208
g15
tp1209
a(S'please spotify last song'
p1210
g15
tp1211
a(S'do i have to do anything on sunday'
p1212
g15
tp1213
a(S'can you get information on the current events'
p1214
g15
tp1215
a(S'would you open gmail'
p1216
g15
tp1217
a(S'play spotify please'
p1218
g15
tp1219
a(S'can you please close this window'
p1220
g15
tp1221
a(S'kill active window'
p1222
g15
tp1223
a(S'please can you turn up the volume'
p1224
g15
tp1225
a(S'get clock'
p1226
g15
tp1227
a(S'shutdown my computer'
p1228
g15
tp1229
a(S'open a default browser please'
p1230
g15
tp1231
a(S'can you shutdown my computer'
p1232
g15
tp1233
a(S'do i have to do anything today'
p1234
g15
tp1235
a(S'turn up the sound'
p1236
g15
tp1237
a(S'turn off the computer'
p1238
g15
tp1239
a(S'check events for this week'
p1240
g15
tp1241
a(S'can you please close the active window'
p1242
g15
tp1243
a(S'what is new in my inbox'
p1244
g15
tp1245
a(S"what's in my inbox"
p1246
g15
tp1247
a(S'please shut down the computer'
p1248
g15
tp1249
a(S'do i have to do anything to do'
p1250
g15
tp1251
a(S"today's temperature"
p1252
g15
tp1253
a(S'please google search'
p1254
g15
tp1255
a(S'check events for next'
p1256
g15
tp1257
a(S'do i have anything to do on thursday'
p1258
g15
tp1259
a(S'can you add a new event'
p1260
g15
tp1261
a(S'are there any events on saturday'
p1262
g15
tp1263
a(S'spotify play previous song please'
p1264
g15
tp1265
a(S'check my calendar for today'
p1266
g15
tp1267
a(S'get current time'
p1268
g15
tp1269
a(S'please check my inbox'
p1270
g15
tp1271
a(S"don't i have to do anything on this day"
p1272
g15
tp1273
a(S"what're the the news"
p1274
g15
tp1275
a(S'am i free for wednesday'
p1276
g15
tp1277
a(S"please what's new in my inbox"
p1278
g15
tp1279
a(S'make a new event'
p1280
g15
tp1281
a(S'please add event'
p1282
g15
tp1283
a(S'can you check new mail'
p1284
g15
tp1285
a(S'do i have anything to do on wednesday'
p1286
g15
tp1287
a(S'hey alice'
p1288
g15
tp1289
a(S'can you turn yourself on please'
p1290
g15
tp1291
a(S'what do i have to do on friday'
p1292
g15
tp1293
a(S'can you add event please'
p1294
g15
tp1295
a(S'is there anything to do on today'
p1296
g15
tp1297
a(S'what time is it'
p1298
g15
tp1299
a(S'do i have to do anything in a week'
p1300
g15
tp1301
a(S'can you check gmail'
p1302
g15
tp1303
a(S'the news today'
p1304
g15
tp1305
a(S'news now please'
p1306
g15
tp1307
a(S'current events'
p1308
g15
tp1309
a(S"what's if it's raining today"
p1310
g15
tp1311
a(S'shut down the computer please'
p1312
g15
tp1313
a(S'check events for this month'
p1314
g15
tp1315
a(S"what's if it's cold this week"
p1316
g15
tp1317
a(S'please will you check new mail'
p1318
g15
tp1319
a(S'give me the news please'
p1320
g15
tp1321
a(S'what events do i have on sunday'
p1322
g15
tp1323
a(S'please check my mail'
p1324
g15
tp1325
a(S'whats going on in the world todays please'
p1326
g15
tp1327
a(S"get this week's weather"
p1328
g15
tp1329
a(S'is it cold this week'
p1330
g15
tp1331
a(S'search google please'
p1332
g15
tp1333
a(S'stop spotify'
p1334
g15
tp1335
a(S'what are the live news feed'
p1336
g15
tp1337
a(S'are there any events on this day'
p1338
g15
tp1339
a(S'check calendar on'
p1340
g15
tp1341
a(S'can you kill the current window'
p1342
g15
tp1343
a(S'can you please schedule new event'
p1344
g15
tp1345
a(S'anything new in mail'
p1346
g15
tp1347
a(S'read your watch please'
p1348
g15
tp1349
a(S'open default browser'
p1350
g15
tp1351
a(S"get if it's cold today"
p1352
g15
tp1353
a(S'could you check my gmail'
p1354
g15
tp1355
a(S'check google calendar on'
p1356
g15
tp1357
a(S'please kill the window'
p1358
g15
tp1359
a(S'would you check inbox please'
p1360
g15
tp1361
a(S'can you unmute please'
p1362
g15
tp1363
a(S'make the sound louder'
p1364
g15
tp1365
a(S'bye'
p1366
g260
tp1367
a(S'good morning alice'
p1368
g15
tp1369
a(S'could you schedule an event please'
p1370
g15
tp1371
a(S'can you shut down my computer'
p1372
g15
tp1373
a(S'can you please kill this window'
p1374
g15
tp1375
a(S'am i free on saturday'
p1376
g15
tp1377
a(S'can you schedule an event'
p1378
g15
tp1379
a(S"don't i have to do anything on this day"
p1380
g15
tp1381
a(S'will you get the current events for me'
p1382
g15
tp1383
a(S"what's today's weather"
p1384
g15
tp1385
a(S'can you please add an event'
p1386
g15
tp1387
a(S'close current window'
p1388
g15
tp1389
a(S'what is in inbox'
p1390
g15
tp1391
a(S'turn up the sound'
p1392
g15
tp1393
a(S'check google calendar for this day'
p1394
g15
tp1395
a(S'check events for'
p1396
g15
tp1397
a(S'check my calendar on this month'
p1398
g15
tp1399
a(S'what is on my calendar for'
p1400
g15
tp1401
a(S'check mail please'
p1402
g15
tp1403
a(S"don't i have to do anything on saturday"
p1404
g15
tp1405
a(S'check my calendar on this day'
p1406
g15
tp1407
a(S'next spotify please'
p1408
g15
tp1409
a(S"please what's new in new mail"
p1410
g15
tp1411
a(S'is it hot this week'
p1412
g15
tp1413
a(S'pause the song please'
p1414
g15
tp1415
a(S'will it snow this week'
p1416
g15
tp1417
a(S'spotify previous please'
p1418
g15
tp1419
a(S'is there anything to do in a week'
p1420
g15
tp1421
a(S'please will you open my inbox'
p1422
g15
tp1423
a(S'would you check new gmail'
p1424
g15
tp1425
a(S'sweet dreams'
p1426
g260
tp1427
a(S"what's in my inbox please"
p1428
g15
tp1429
a(S'can you please add a new event'
p1430
g15
tp1431
a(S'what events do i have on tuesday'
p1432
g15
tp1433
a(S'can you send me to the lock screen please'
p1434
g15
tp1435
a(S'can you add new event please'
p1436
g15
tp1437
a(S"don't i have anything on friday"
p1438
g15
tp1439
a(S'please pause'
p1440
g15
tp1441
a(S'what is news'
p1442
g15
tp1443
a(S'please shutdown the computer'
p1444
g15
tp1445
a(S'could you make event'
p1446
g15
tp1447
a(S'check google calendar for this month'
p1448
g15
tp1449
a(S'please get current time'
p1450
g15
tp1451
a(S'google search for'
p1452
g15
tp1453
a(S'will you check new mail please'
p1454
g15
tp1455
a(S'any events on this day'
p1456
g15
tp1457
a(S"get if it's snowing this week"
p1458
g15
tp1459
a(S"what's new in new mail please"
p1460
g15
tp1461
a(S'get headlines'
p1462
g15
tp1463
a(S'will it snow today'
p1464
g15
tp1465
a(S'can you check gmail please'
p1466
g15
tp1467
a(S'please retrieve what time it is'
p1468
g15
tp1469
a(S'could you create new event please'
p1470
g15
tp1471
a(S'could you open gmail please'
p1472
g15
tp1473
a(S'am i free on tuesday'
p1474
g15
tp1475
a(S'google search for please'
p1476
g15
tp1477
a(S'tell me headlines'
p1478
g15
tp1479
a(S'search please for'
p1480
g15
tp1481
a(S'will you open my gmail'
p1482
g15
tp1483
a(S'start browsing please'
p1484
g15
tp1485
a(S'is there anything i have to do on'
p1486
g15
tp1487
a(S'could you please add event'
p1488
g15
tp1489
a(S"get if it's cloudy this week"
p1490
g15
tp1491
a(S'please close current window'
p1492
g15
tp1493
a(S'what do i have on this day'
p1494
g15
tp1495
a(S'get me the clock please'
p1496
g15
tp1497
a(S'see ya alice'
p1498
g260
tp1499
a(S'please what is in inbox'
p1500
g15
tp1501
a(S'please would you open gmail'
p1502
g15
tp1503
a(S'go to dot org'
p1504
g15
tp1505
a(S"please what's new in my gmail"
p1506
g15
tp1507
a(S'please last song'
p1508
g15
tp1509
a(S'check calendar for sunday'
p1510
g15
tp1511
a(S'do i have anything on next'
p1512
g15
tp1513
a(S'please read your watch'
p1514
g15
tp1515
a(S'what do i have on tuesday'
p1516
g15
tp1517
a(S'can you check inbox please'
p1518
g15
tp1519
a(S'please turn off the computer'
p1520
g15
tp1521
a(S"don't i have anything on wednesday"
p1522
g15
tp1523
a(S'can you create a new event'
p1524
g15
tp1525
a(S'intel'
p1526
g15
tp1527
a(S'please search for'
p1528
g15
tp1529
a(S'could you schedule new event'
p1530
g15
tp1531
a(S'is it raining this week'
p1532
g15
tp1533
a(S'is it cloudy this week'
p1534
g15
tp1535
a(S'can you lock the screen please'
p1536
g15
tp1537
a(S"don't i have to do anything on monday"
p1538
g15
tp1539
a(S'what events are on friday'
p1540
g15
tp1541
a(S'current events'
p1542
g15
tp1543
a(S'please open mail'
p1544
g15
tp1545
a(S'please check the current time'
p1546
g15
tp1547
a(S'shut up please'
p1548
g15
tp1549
a(S'what events do i have on today'
p1550
g15
tp1551
a(S'can you turn my computer off'
p1552
g15
tp1553
a(S'please check inbox'
p1554
g15
tp1555
a(S"today's newsfeed"
p1556
g15
tp1557
a(S'check inbox'
p1558
g15
tp1559
a(S'please will you check my mail'
p1560
g15
tp1561
a(S'live news today'
p1562
g15
tp1563
a(S"what's the news feed"
p1564
g15
tp1565
a(S'could you add event'
p1566
g15
tp1567
a(S'read me the clock please'
p1568
g15
tp1569
a(S'pause spotify please'
p1570
g15
tp1571
a(S"what're the live newsfeed"
p1572
g15
tp1573
a(S"don't i have to do anything today"
p1574
g15
tp1575
a(S'would you check new gmail please'
p1576
g15
tp1577
a(S'go to'
p1578
g15
tp1579
a(S'check events on wednesday'
p1580
g15
tp1581
a(S'can you please shut down the computer'
p1582
g15
tp1583
a(S'please what is new in gmail'
p1584
g15
tp1585
a(S'do i have anything to do today'
p1586
g15
tp1587
a(S'is there anything to do on tomorrow'
p1588
g15
tp1589
a(S'check google calendar for thursday'
p1590
g15
tp1591
a(S'please will you open my gmail'
p1592
g15
tp1593
a(S'find current news'
p1594
g15
tp1595
a(S'turn yourself on please'
p1596
g15
tp1597
a(S"what's new in inbox"
p1598
g15
tp1599
a(S'check my calendar for'
p1600
g15
tp1601
a(S'check events on tomorrow'
p1602
g15
tp1603
a(S'check events on this day'
p1604
g15
tp1605
a(S'please shut down my computer'
p1606
g15
tp1607
a(S'what are the news feed'
p1608
g15
tp1609
a(S'what is the news today'
p1610
g15
tp1611
a(S'what is on my calendar for saturday'
p1612
g15
tp1613
a(S'bye bye'
p1614
g260
tp1615
a(S'what events do i have on this day'
p1616
g15
tp1617
a(S'check google calendar on tuesday'
p1618
g15
tp1619
a(S'open my gmail please'
p1620
g15
tp1621
a(S'get news feed'
p1622
g15
tp1623
a(S'please get the clock'
p1624
g15
tp1625
a(S"if it's raining today"
p1626
g15
tp1627
a(S'what do i have to do on next'
p1628
g15
tp1629
a(S'what do i have to do on saturday'
p1630
g15
tp1631
a(S'will you check my inbox please'
p1632
g15
tp1633
a(S'add event please'
p1634
g15
tp1635
a(S'check my gmail'
p1636
g15
tp1637
a(S'will it rain this week'
p1638
g15
tp1639
a(S'can you turn up the tune'
p1640
g15
tp1641
a(S'okay alice'
p1642
g15
tp1643
a(S'any events on'
p1644
g15
tp1645
a(S'do i have to do anything on saturday'
p1646
g15
tp1647
a(S"don't i have any events on sunday"
p1648
g15
tp1649
a(S"what's the newsfeed"
p1650
g15
tp1651
a(S"don't i have to do anything on thursday"
p1652
g15
tp1653
a(S'can you lock computer'
p1654
g15
tp1655
a(S'is there anything to do today'
p1656
g15
tp1657
a(S'what are the current events today'
p1658
g15
tp1659
a(S'can you please make new event'
p1660
g15
tp1661
a(S'please open my inbox'
p1662
g15
tp1663
a(S'spotify play'
p1664
g15
tp1665
a(S'can you please turn up the beat'
p1666
g15
tp1667
a(S'read your watch'
p1668
g15
tp1669
a(S"don't i have anything to do on saturday"
p1670
g15
tp1671
a(S'please open gmail'
p1672
g15
tp1673
a(S'start'
p1674
g15
tp1675
a(S'check events on today'
p1676
g15
tp1677
a(S"don't i have any events on thursday"
p1678
g15
tp1679
a(S'please add a new event'
p1680
g15
tp1681
a(S'stop the song'
p1682
g15
tp1683
a(S'google for please'
p1684
g15
tp1685
a(S'please pause the song'
p1686
g15
tp1687
a(S"what's if it's hot this week"
p1688
g15
tp1689
a(S'do i have any events'
p1690
g15
tp1691
a(S'turn up'
p1692
g15
tp1693
a(S"don't i have anything on monday"
p1694
g15
tp1695
a(S'do i have anything to do'
p1696
g15
tp1697
a(S'check my calendar for sunday'
p1698
g15
tp1699
a(S'please can you make it louder'
p1700
g15
tp1701
a(S'please spotify start the song'
p1702
g15
tp1703
a(S'issue commands'
p1704
g15
tp1705
a(S"if it's cloudy this week"
p1706
g15
tp1707
a(S'lower the sound'
p1708
g15
tp1709
a(S'what events are on tuesday'
p1710
g15
tp1711
a(S'find headlines'
p1712
g15
tp1713
a(S'please schedule a new event'
p1714
g15
tp1715
a(S'what is on my calendar for wednesday'
p1716
g15
tp1717
a(S'please spotify play previous song'
p1718
g15
tp1719
a(S'please could you check new mail'
p1720
g15
tp1721
a(S"what's if it's cloudy this week"
p1722
g15
tp1723
a(S'emergency shutdown'
p1724
g260
tp1725
a(S'what is on my calendar for tuesday'
p1726
g15
tp1727
a(S'what is on my calendar for sunday'
p1728
g15
tp1729
a(S'is there anything to do'
p1730
g15
tp1731
a(S"what's new in my inbox please"
p1732
g15
tp1733
a(S"what's new in mail please"
p1734
g15
tp1735
a(S'any events on next'
p1736
g15
tp1737
a(S'check the clock please'
p1738
g15
tp1739
a(S'will you get the headlines'
p1740
g15
tp1741
a(S'get current news'
p1742
g15
tp1743
a(S'would you open my mail please'
p1744
g15
tp1745
a(S'can you please open a browser'
p1746
g15
tp1747
a(S'is there anything to do tomorrow'
p1748
g15
tp1749
a(S'check my calendar for thursday'
p1750
g15
tp1751
a(S'am i free for tomorrow'
p1752
g15
tp1753
a(S"what's new in my inbox"
p1754
g15
tp1755
a(S"how's the weather"
p1756
g15
tp1757
a(S"aren't there any events on friday"
p1758
g15
tp1759
a(S'please get clock'
p1760
g15
tp1761
a(S'please search google for'
p1762
g15
tp1763
a(S'get live newsfeed'
p1764
g15
tp1765
a(S'please what is in my mail'
p1766
g15
tp1767
a(S'check events for thursday'
p1768
g15
tp1769
a(S"don't i have to do anything on monday"
p1770
g15
tp1771
a(S'what are the newsfeed'
p1772
g15
tp1773
a(S'will you check my gmail'
p1774
g15
tp1775
a(S'start the song'
p1776
g15
tp1777
a(S'any events on friday'
p1778
g15
tp1779
a(S'spotify stop'
p1780
g15
tp1781
a(S'what is on my calendar for tomorrow'
p1782
g15
tp1783
a(S'will you open my inbox'
p1784
g15
tp1785
a(S'check google calendar on month'
p1786
g15
tp1787
a(S'would you check my gmail'
p1788
g15
tp1789
a(S'can you add new event'
p1790
g15
tp1791
a(S'can you lock my computer please'
p1792
g15
tp1793
a(S'do i have anything in a week'
p1794
g15
tp1795
a(S'am i free for'
p1796
g15
tp1797
a(S'gather the latest headlines please'
p1798
g15
tp1799
a(S'please start a browser'
p1800
g15
tp1801
a(S'is there anything to do on'
p1802
g15
tp1803
a(S'could you please add a new event'
p1804
g15
tp1805
a(S'what events are on thursday'
p1806
g15
tp1807
a(S"please what's new in new gmail"
p1808
g15
tp1809
a(S'go back'
p1810
g15
tp1811
a(S"aren't there any events on saturday"
p1812
g15
tp1813
a(S'is there anything i have to do on tuesday'
p1814
g15
tp1815
a(S'tell me current news'
p1816
g15
tp1817
a(S"aren't there any events on wednesday"
p1818
g15
tp1819
a(S'please get the time'
p1820
g15
tp1821
a(S'could you check new mail'
p1822
g15
tp1823
a(S'do i have anything to do on this day'
p1824
g15
tp1825
a(S'could you open my inbox please'
p1826
g15
tp1827
a(S'open a default browser'
p1828
g15
tp1829
a(S'do i have to do anything on thursday'
p1830
g15
tp1831
a(S'could you schedule new event please'
p1832
g15
tp1833
a(S'am i free for monday'
p1834
g15
tp1835
a(S"don't i have anything to do on thursday"
p1836
g15
tp1837
a(S'turn off please'
p1838
g15
tp1839
a(S'am i free on next'
p1840
g15
tp1841
a(S"aren't there any events on thursday"
p1842
g15
tp1843
a(S'shut down please'
p1844
g15
tp1845
a(S'please pause song'
p1846
g15
tp1847
a(S"what's this week's weather"
p1848
g15
tp1849
a(S"this week's temperature"
p1850
g15
tp1851
a(S'please schedule new event'
p1852
g15
tp1853
a(S'what is current events'
p1854
g15
tp1855
a(S'could you open my mail please'
p1856
g15
tp1857
a(S"what's if it's snowing this week"
p1858
g15
tp1859
a(S'what is on my calendar for today'
p1860
g15
tp1861
a(S'will you open my mail please'
p1862
g15
tp1863
a(S'open my mail'
p1864
g15
tp1865
a(S'can you please close current window'
p1866
g15
tp1867
a(S"please what's in my gmail"
p1868
g15
tp1869
a(S"if it's cold this week"
p1870
g15
tp1871
a(S'please kill the active window'
p1872
g15
tp1873
a(S'am i free today'
p1874
g15
tp1875
a(S'is it rainy today'
p1876
g15
tp1877
a(S'please pause spotify'
p1878
g15
tp1879
a(S'check my calendar on sunday'
p1880
g15
tp1881
a(S'what do i have to do on thursday'
p1882
g15
tp1883
a(S'get forecast'
p1884
g15
tp1885
a(S'check events for monday'
p1886
g15
tp1887
a(S'can you put me on the lock screen'
p1888
g15
tp1889
a(S'stop song please'
p1890
g15
tp1891
a(S'is it freezing this week'
p1892
g15
tp1893
a(S'last song please'
p1894
g15
tp1895
a(S'check events for sunday'
p1896
g15
tp1897
a(S"aren't there any events on tomorrow"
p1898
g15
tp1899
a(S'pause spotify'
p1900
g15
tp1901
a(S'check google calendar for next'
p1902
g15
tp1903
a(S'get current temperature'
p1904
g15
tp1905
a(S'check events for tomorrow'
p1906
g15
tp1907
a(S'please turn it down'
p1908
g15
tp1909
a(S"don't i have to do anything in a week"
p1910
g15
tp1911
a(S'read me the clock'
p1912
g15
tp1913
a(S'please be quiet'
p1914
g15
tp1915
a(S'what is new in my inbox please'
p1916
g15
tp1917
a(S'can you please turn up the tune'
p1918
g15
tp1919
a(S'set volume 0'
p1920
g15
tp1921
a(S'could you make a new event'
p1922
g15
tp1923
a(S"don't i have anything to do on"
p1924
g15
tp1925
a(S'would you open mail'
p1926
g15
tp1927
a(S"what's new in new gmail please"
p1928
g15
tp1929
a(S'please lock my computer'
p1930
g15
tp1931
a(S'can you please create new event'
p1932
g15
tp1933
a(S'current news'
p1934
g15
tp1935
a(S"please what's in my mail"
p1936
g15
tp1937
a(S'read the clock please'
p1938
g15
tp1939
a(S'make event'
p1940
g15
tp1941
a(S'check calendar for saturday'
p1942
g15
tp1943
a(S'intelligence report'
p1944
g15
tp1945
a(S'get live news'
p1946
g15
tp1947
a(S'check mail'
p1948
g15
tp1949
a(S'are there any events on'
p1950
g15
tp1951
a(S'what events do i have on thursday'
p1952
g15
tp1953
a(S'please kill this window'
p1954
g15
tp1955
a(S'what is new in mail please'
p1956
g15
tp1957
a(S'what is live news'
p1958
g15
tp1959
a(S'is there anything i have to do on next'
p1960
g15
tp1961
a(S'what is in mail'
p1962
g15
tp1963
a(S'what do i have in a month'
p1964
g15
tp1965
a(S"don't i have anything to do tomorrow"
p1966
g15
tp1967
a(S"what's the live news feed"
p1968
g15
tp1969
a(S'todays headlines'
p1970
g15
tp1971
a(S'what do i have'
p1972
g15
tp1973
a(S'add an event please'
p1974
g15
tp1975
a(S'get time please'
p1976
g15
tp1977
a(S'check my calendar'
p1978
g15
tp1979
a(S'is it foggy today'
p1980
g15
tp1981
a(S'turn down the sound'
p1982
g15
tp1983
a(S'please get the current time'
p1984
g15
tp1985
a(S'check my calendar on next'
p1986
g15
tp1987
a(S'please will you open gmail'
p1988
g15
tp1989
a(S'give me the current events'
p1990
g15
tp1991
a(S"what's in new gmail"
p1992
g15
tp1993
a(S'can you close the current window'
p1994
g15
tp1995
a(S'schedule an event please'
p1996
g15
tp1997
a(S'can you exit'
p1998
g260
tp1999
a(S'will you check my mail please'
p2000
g15
tp2001
a(S'set the volume to zero'
p2002
g15
tp2003
a(S'what events do i have'
p2004
g15
tp2005
a(S'do i have to do anything next'
p2006
g15
tp2007
a(S'any events on wednesday'
p2008
g15
tp2009
a(S'see ya'
p2010
g260
tp2011
a(S'shut off'
p2012
g15
tp2013
a(S'what do i have to do on wednesday'
p2014
g15
tp2015
a(S'is there anything to do on next'
p2016
g15
tp2017
a(S"how's the weather today"
p2018
g15
tp2019
a(S'can you please shut up'
p2020
g15
tp2021
a(S"today's temperature"
p2022
g15
tp2023
a(S'am i free for friday'
p2024
g15
tp2025
a(S'set the volume zero'
p2026
g15
tp2027
a(S'could you make an event'
p2028
g15
tp2029
a(S'can you please turn my computer off'
p2030
g15
tp2031
a(S'can you check inbox'
p2032
g15
tp2033
a(S'volume higher please'
p2034
g15
tp2035
a(S'next song'
p2036
g15
tp2037
a(S'check events on friday'
p2038
g15
tp2039
a(S'do i have anything on tuesday'
p2040
g15
tp2041
a(S'check gmail please'
p2042
g15
tp2043
a(S"get if it's cloudy today"
p2044
g15
tp2045
a(S'am i free for a month'
p2046
g15
tp2047
a(S'can you add a new event please'
p2048
g15
tp2049
a(S'can you please turn the beat down'
p2050
g15
tp2051
a(S'can you turn up the beat'
p2052
g15
tp2053
a(S'do i have to do anything'
p2054
g15
tp2055
a(S'check google calendar for wednesday'
p2056
g15
tp2057
a(S'what is on my calendar for this month'
p2058
g15
tp2059
a(S'am i free for thursday'
p2060
g15
tp2061
a(S'could you please add an event'
p2062
g15
tp2063
a(S"what's if it's cloudy today"
p2064
g15
tp2065
a(S'do i have any events on today'
p2066
g15
tp2067
a(S"how's the forecast"
p2068
g15
tp2069
a(S'google please for'
p2070
g15
tp2071
a(S'search google please for'
p2072
g15
tp2073
a(S'could you please add new event'
p2074
g15
tp2075
a(S'retrieve the current time please'
p2076
g15
tp2077
a(S"aren't there any events"
p2078
g15
tp2079
a(S"what's new in my mail"
p2080
g15
tp2081
a(S'can you turn the tune down'
p2082
g15
tp2083
a(S'could you check my inbox'
p2084
g15
tp2085
a(S"aren't there any events on this day"
p2086
g15
tp2087
a(S'will you check inbox please'
p2088
g15
tp2089
a(S'could you make event please'
p2090
g15
tp2091
a(S'could you add a new event'
p2092
g15
tp2093
a(S'please would you check new mail'
p2094
g15
tp2095
a(S'could you add an event'
p2096
g15
tp2097
a(S'search'
p2098
g15
tp2099
a(S'close active window'
p2100
g15
tp2101
a(S'what do i have to do on today'
p2102
g15
tp2103
a(S'please what is new in my mail'
p2104
g15
tp2105
a(S'turn up the tunez'
p2106
g15
tp2107
a(S'please open dot com'
p2108
g15
tp2109
a(S'do i have anything to do on tuesday'
p2110
g15
tp2111
a(S'please could you check my gmail'
p2112
g15
tp2113
a(S"today's forecast"
p2114
g15
tp2115
a(S"what's the live newsfeed"
p2116
g15
tp2117
a(S"don't i have anything in a month"
p2118
g15
tp2119
a(S'put me on the lock screen'
p2120
g15
tp2121
a(S'please retrieve the current time'
p2122
g15
tp2123
a(S'any mail'
p2124
g15
tp2125
a(S'what time is it right now'
p2126
g15
tp2127
a(S'please stop song'
p2128
g15
tp2129
a(S'what events are going on right now'
p2130
g15
tp2131
a(S'check calendar on friday'
p2132
g15
tp2133
a(S"don't i have any events on tuesday"
p2134
g15
tp2135
a(S"don't i have anything to do on monday"
p2136
g15
tp2137
a(S'please give me the current events please'
p2138
g15
tp2139
a(S'check my inbox please'
p2140
g15
tp2141
a(S'check events for wednesday'
p2142
g15
tp2143
a(S'please check new mail'
p2144
g15
tp2145
a(S'news'
p2146
g15
tp2147
a(S'please spotify start'
p2148
g15
tp2149
a(S"what's if it's rainy this week"
p2150
g15
tp2151
a(S'current events please'
p2152
g15
tp2153
a(S'go back to the last song '
p2154
g15
tp2155
a(S'make an event'
p2156
g15
tp2157
a(S'weather'
p2158
g15
tp2159
a(S'check calendar for this month'
p2160
g15
tp2161
a(S'can you turn the beat down'
p2162
g15
tp2163
a(S'am i free'
p2164
g15
tp2165
a(S'check my calendar on tomorrow'
p2166
g15
tp2167
a(S'shut off my computer please'
p2168
g15
tp2169
a(S'schedule event please'
p2170
g15
tp2171
a(S'can you check my inbox please'
p2172
g15
tp2173
a(S'is there anything to do on sunday'
p2174
g15
tp2175
a(S'please close the current window'
p2176
g15
tp2177
a(S'any events on tuesday'
p2178
g15
tp2179
a(S'open inbox'
p2180
g15
tp2181
a(S'lower the volume'
p2182
g15
tp2183
a(S'make new event'
p2184
g15
tp2185
a(S'check new mail please'
p2186
g15
tp2187
a(S'please could you open mail'
p2188
g15
tp2189
a(S'turn it up please'
p2190
g15
tp2191
a(S'can you shut off'
p2192
g15
tp2193
a(S'what is new in mail'
p2194
g15
tp2195
a(S'do i have anything on thursday'
p2196
g15
tp2197
a(S"this week's weather"
p2198
g15
tp2199
a(S'tell me live news feed'
p2200
g15
tp2201
a(S'stop playing'
p2202
g15
tp2203
a(S"today's news"
p2204
g15
tp2205
a(S'play '
p2206
g15
tp2207
a(S'can you please kill the window'
p2208
g15
tp2209
a(S'start default browser please'
p2210
g15
tp2211
a(S'what is in the news today'
p2212
g15
tp2213
a(S'can you please shutdown'
p2214
g15
tp2215
a(S'check google calendar for friday'
p2216
g15
tp2217
a(S'spotify play the last song'
p2218
g15
tp2219
a(S'would you check mail'
p2220
g15
tp2221
a(S'send me to the lock screen'
p2222
g15
tp2223
a(S'anything in my mail'
p2224
g15
tp2225
a(S"get if it's foggy today"
p2226
g15
tp2227
a(S'check my calendar on'
p2228
g15
tp2229
a(S'please go spotify '
p2230
g15
tp2231
a(S'hey alex'
p2232
g15
tp2233
a(S'are there any events in a month'
p2234
g15
tp2235
a(S'can you please make an event'
p2236
g15
tp2237
a(S'please can you check my gmail'
p2238
g15
tp2239
a(S'can you check new mail please'
p2240
g15
tp2241
a(S'alice next please'
p2242
g15
tp2243
a(S'could you create a new event'
p2244
g15
tp2245
a(S'shut the fuck up'
p2246
g15
tp2247
a(S'check the clock right now please'
p2248
g15
tp2249
a(S'please read me the clock'
p2250
g15
tp2251
a(S'please can you check mail'
p2252
g15
tp2253
a(S"how's the temperature today"
p2254
g15
tp2255
a(S"what's in my mail"
p2256
g15
tp2257
a(S'please will you check my inbox'
p2258
g15
tp2259
a(S'spotify play last song please'
p2260
g15
tp2261
a(S"aren't there any events on"
p2262
g15
tp2263
a(S'get the time'
p2264
g15
tp2265
a(S'please will you check inbox'
p2266
g15
tp2267
a(S'do i have anything to do on friday'
p2268
g15
tp2269
a(S'check calendar for next'
p2270
g15
tp2271
a(S'find the news'
p2272
g15
tp2273
a(S"today's current news "
p2274
g15
tp2275
a(S'check calendar on saturday'
p2276
g15
tp2277
a(S'turn up the volume please'
p2278
g15
tp2279
a(S'could you create event please'
p2280
g15
tp2281
a(S'please will you check new gmail'
p2282
g15
tp2283
a(S'check events for this day'
p2284
g15
tp2285
a(S'will you get the current events'
p2286
g15
tp2287
a(S'turn it down'
p2288
g15
tp2289
a(S'please shut my computer down'
p2290
g15
tp2291
a(S'can you add an event please'
p2292
g15
tp2293
a(S'please google for'
p2294
g15
tp2295
a(S'can you decrease the sound'
p2296
g15
tp2297
a(S"get if it's hot this week"
p2298
g15
tp2299
a(S'check google calendar on monday'
p2300
g15
tp2301
a(S'what is new in my gmail'
p2302
g15
tp2303
a(S'anything in gmail'
p2304
g15
tp2305
a(S'please would you open mail'
p2306
g15
tp2307
a(S'pause song please'
p2308
g15
tp2309
a(S'lower the tunes please'
p2310
g15
tp2311
a(S'what are the latest events '
p2312
g15
tp2313
a(S'what events are on sunday'
p2314
g15
tp2315
a(S'please create a new event'
p2316
g15
tp2317
a(S'would you open my inbox'
p2318
g15
tp2319
a(S"don't i have to do anything on wednesday"
p2320
g15
tp2321
a(S'what events do i have on friday'
p2322
g15
tp2323
a(S'start a browser please'
p2324
g15
tp2325
a(S'a decent problem gossips beside the shoulder'
p2326
g15
tp2327
a(S'will you open my mail'
p2328
g15
tp2329
a(S'please would you check gmail'
p2330
g15
tp2331
a(S'anything in mail'
p2332
g15
tp2333
a(S'check google calendar on today'
p2334
g15
tp2335
a(S'please read the clock'
p2336
g15
tp2337
a(S'can you turn yourself on'
p2338
g15
tp2339
a(S'am i free on friday'
p2340
g15
tp2341
a(S"aren't there any events on monday"
p2342
g15
tp2343
a(S'lock computer please'
p2344
g15
tp2345
a(S'please lock computer'
p2346
g15
tp2347
a(S'please sound up'
p2348
g15
tp2349
a(S'could you check gmail please'
p2350
g15
tp2351
a(S'what events do i have on saturday'
p2352
g15
tp2353
a(S'please could you open gmail'
p2354
g15
tp2355
a(S'good morning'
p2356
g15
tp2357
a(S'would you open my inbox please'
p2358
g15
tp2359
a(S'open my inbox please'
p2360
g15
tp2361
a(S'can you create an event please'
p2362
g15
tp2363
a(S'check events for this day'
p2364
g15
tp2365
a(S"what's if it's foggy this week"
p2366
g15
tp2367
a(S'current time'
p2368
g15
tp2369
a(S"what's the live news"
p2370
g15
tp2371
a(S'read the clock'
p2372
g15
tp2373
a(S"what's the current news"
p2374
g15
tp2375
a(S"get today's temperature"
p2376
g15
tp2377
a(S'please could you check gmail'
p2378
g15
tp2379
a(S'can you please turn up the sound'
p2380
g15
tp2381
a(S'is there anything i have to do in a month'
p2382
g15
tp2383
a(S"what's the clock"
p2384
g15
tp2385
a(S'do i have anything on monday'
p2386
g15
tp2387
a(S'check my calendar on wednesday'
p2388
g15
tp2389
a(S'news feed'
p2390
g15
tp2391
a(S"don't i have any events on saturday"
p2392
g15
tp2393
a(S'can you add event'
p2394
g15
tp2395
a(S'would you open my gmail'
p2396
g15
tp2397
a(S'make the volume lower'
p2398
g15
tp2399
a(S"what's in my gmail please"
p2400
g15
tp2401
a(S'create new event'
p2402
g15
tp2403
a(S'can you turn off the computer'
p2404
g15
tp2405
a(S'please get the news'
p2406
g15
tp2407
a(S'will you check gmail'
p2408
g15
tp2409
a(S'can you make event please'
p2410
g15
tp2411
a(S"what's if it's rainy today"
p2412
g15
tp2413
a(S'get current weather'
p2414
g15
tp2415
a(S'will you check my gmail please'
p2416
g15
tp2417
a(S'can you shut down the computer'
p2418
g15
tp2419
a(S'temperature'
p2420
g15
tp2421
a(S'please louder'
p2422
g15
tp2423
a(S'please would you check mail'
p2424
g15
tp2425
a(S"what's if it's cold today"
p2426
g15
tp2427
a(S'can you make new event'
p2428
g15
tp2429
a(S'shut my computer down'
p2430
g15
tp2431
a(S'turn the beat down'
p2432
g15
tp2433
a(S'music down'
p2434
g15
tp2435
a(S'what do i have on sunday'
p2436
g15
tp2437
a(S'check my calendar for friday'
p2438
g15
tp2439
a(S'please would you open my inbox'
p2440
g15
tp2441
a(S'please what is new in inbox'
p2442
g15
tp2443
a(S"what's weather"
p2444
g15
tp2445
a(S'what is in mail please'
p2446
g15
tp2447
a(S'can you close this window'
p2448
g15
tp2449
a(S'kill current window'
p2450
g15
tp2451
a(S'what is in my gmail'
p2452
g15
tp2453
a(S'go to dot ee dee you'
p2454
g15
tp2455
a(S'be quiet'
p2456
g15
tp2457
a(S'please make an event'
p2458
g15
tp2459
a(S"what's the temperature this week"
p2460
g15
tp2461
a(S'please what is in my inbox'
p2462
g15
tp2463
a(S"what's the time"
p2464
g15
tp2465
a(S'search google for please'
p2466
g15
tp2467
a(S'what is on my calendar for monday'
p2468
g15
tp2469
a(S'please check my gmail'
p2470
g15
tp2471
a(S'make the sound softer'
p2472
g15
tp2473
a(S'what are the live newsfeed'
p2474
g15
tp2475
a(S"this week's forecast"
p2476
g15
tp2477
a(S'tell me news feed'
p2478
g15
tp2479
a(S'turn my computer off please'
p2480
g15
tp2481
a(S'do i have any events in a week'
p2482
g15
tp2483
a(S'kill the noise'
p2484
g15
tp2485
a(S'briefing'
p2486
g15
tp2487
a(S"today's live news feed"
p2488
g15
tp2489
a(S'check calendar for friday'
p2490
g15
tp2491
a(S'check events on thursday'
p2492
g15
tp2493
a(S"get if it's freezing this week"
p2494
g15
tp2495
a(S'please get me the clock'
p2496
g15
tp2497
a(S"don't i have to do anything in a month"
p2498
g15
tp2499
a(S'turn off'
p2500
g15
tp2501
a(S'what is live news feed'
p2502
g15
tp2503
a(S'please turn off'
p2504
g15
tp2505
a(S'give me the news'
p2506
g15
tp2507
a(S'is there anything to do in a month'
p2508
g15
tp2509
a(S'will you open a browser'
p2510
g15
tp2511
a(S'get me the news todays'
p2512
g15
tp2513
a(S'can you make an event please'
p2514
g15
tp2515
a(S'do i have anything to do next'
p2516
g15
tp2517
a(S"please what's new in gmail"
p2518
g15
tp2519
a(S'could you check new gmail please'
p2520
g15
tp2521
a(S'check google calendar for sunday'
p2522
g15
tp2523
a(S'could you check inbox'
p2524
g15
tp2525
a(S"don't i have anything to do on wednesday"
p2526
g15
tp2527
a(S'shut off please'
p2528
g15
tp2529
a(S'please send me to the lock screen'
p2530
g15
tp2531
a(S'can you please shut off my computer'
p2532
g15
tp2533
a(S'can you please turn off'
p2534
g15
tp2535
a(S'could you please schedule event'
p2536
g15
tp2537
a(S'can you shut my computer down'
p2538
g15
tp2539
a(S'spotify skip ahead'
p2540
g15
tp2541
a(S'do i have any events on saturday'
p2542
g15
tp2543
a(S'please read the time'
p2544
g15
tp2545
a(S'please would you check new gmail'
p2546
g15
tp2547
a(S'please kill the current window'
p2548
g15
tp2549
a(S'what do i have on today'
p2550
g15
tp2551
a(S'check events on this week'
p2552
g15
tp2553
a(S'get news'
p2554
g15
tp2555
a(S'get the clock please'
p2556
g15
tp2557
a(S'what is new in gmail'
p2558
g15
tp2559
a(S'please check what time it is'
p2560
g15
tp2561
a(S"what're the headlines"
p2562
g15
tp2563
a(S'am i free for this day'
p2564
g15
tp2565
a(S'volume up'
p2566
g15
tp2567
a(S'what is news feed'
p2568
g15
tp2569
a(S'could you check mail'
p2570
g15
tp2571
a(S'could you please create event'
p2572
g15
tp2573
a(S'can you kill the window'
p2574
g15
tp2575
a(S'check events on saturday'
p2576
g15
tp2577
a(S'find live news feed'
p2578
g15
tp2579
a(S'can you get the current events'
p2580
g15
tp2581
a(S'please start spotify'
p2582
g15
tp2583
a(S'could you please create a new event'
p2584
g15
tp2585
a(S'what events are in a week'
p2586
g15
tp2587
a(S'check google calendar'
p2588
g15
tp2589
a(S'please start browsing'
p2590
g15
tp2591
a(S'make new event please'
p2592
g15
tp2593
a(S'please turn off my computer'
p2594
g15
tp2595
a(S'would you open inbox'
p2596
g15
tp2597
a(S'what is new in inbox please'
p2598
g15
tp2599
a(S'turn off my computer please'
p2600
g15
tp2601
a(S'good night alice'
p2602
g260
tp2603
a(S'start spotify please'
p2604
g15
tp2605
a(S'skip'
p2606
g15
tp2607
a(S'check my mail'
p2608
g15
tp2609
a(S"what's the headlines"
p2610
g15
tp2611
a(S'is it snowing this week'
p2612
g15
tp2613
a(S'is it foggy this week'
p2614
g15
tp2615
a(S'what is new in new gmail'
p2616
g15
tp2617
a(S'create event'
p2618
g15
tp2619
a(S'okay alex'
p2620
g15
tp2621
a(S'headlines today'
p2622
g15
tp2623
a(S"what's the forecast"
p2624
g15
tp2625
a(S'can you turn off'
p2626
g15
tp2627
a(S'retrieve the time'
p2628
g15
tp2629
a(S'check my calendar on this week'
p2630
g15
tp2631
a(S'stop the tunez'
p2632
g15
tp2633
a(S'live newsfeed'
p2634
g15
tp2635
a(S'turn off the beats'
p2636
g15
tp2637
a(S'could you open my inbox'
p2638
g15
tp2639
a(S"don't i have any events"
p2640
g15
tp2641
a(S'what do i have on saturday'
p2642
g15
tp2643
a(S'please can you check my mail'
p2644
g15
tp2645
a(S"what's if it's snowing today"
p2646
g15
tp2647
a(S'could you create an event'
p2648
g15
tp2649
a(S'spotify next song '
p2650
g15
tp2651
a(S'find news'
p2652
g15
tp2653
a(S'start browser please'
p2654
g15
tp2655
a(S"don't i have to do anything on friday"
p2656
g15
tp2657
a(S'google search'
p2658
g15
tp2659
a(S'turn up the tune'
p2660
g15
tp2661
a(S'can you turn up the volume'
p2662
g15
tp2663
a(S'what events are'
p2664
g15
tp2665
a(S"what's new in my mail please"
p2666
g15
tp2667
a(S'can you please kill current window'
p2668
g15
tp2669
a(S'retrieve what time it is'
p2670
g15
tp2671
a(S'mute please'
p2672
g15
tp2673
a(S'please go to'
p2674
g15
tp2675
a(S'please open my gmail'
p2676
g15
tp2677
a(S'what is new in my mail'
p2678
g15
tp2679
a(S'what events do i have on monday'
p2680
g15
tp2681
a(S'the tale pretends'
p2682
g15
tp2683
a(S'can you schedule an event please'
p2684
g15
tp2685
a(S'please can you check inbox'
p2686
g15
tp2687
a(S'open gmail'
p2688
g15
tp2689
a(S'can you please exit'
p2690
g260
tp2691
a(S"what's the news"
p2692
g15
tp2693
a(S'can you turn the volume higher please'
p2694
g15
tp2695
a(S'is there anything i have to do on friday'
p2696
g15
tp2697
a(S'tell me live newsfeed'
p2698
g15
tp2699
a(S'please can you check my inbox'
p2700
g15
tp2701
a(S'live newsfeed today'
p2702
g15
tp2703
a(S'do i have any events on this day'
p2704
g15
tp2705
a(S'can you please shut my computer down'
p2706
g15
tp2707
a(S'anything in my inbox'
p2708
g15
tp2709
a(S'go back please'
p2710
g15
tp2711
a(S'turn off my computer'
p2712
g15
tp2713
a(S'could you make a new event please'
p2714
g15
tp2715
a(S'am i free on sunday'
p2716
g15
tp2717
a(S'please spotify previous'
p2718
g15
tp2719
a(S'please close active window'
p2720
g15
tp2721
a(S'what events are on monday'
p2722
g15
tp2723
a(S'turn up the tunez please'
p2724
g15
tp2725
a(S"this week's weather"
p2726
g15
tp2727
a(S'can you please schedule an event'
p2728
g15
tp2729
a(S'shut off my computer'
p2730
g15
tp2731
a(S'do i have any events in a month'
p2732
g15
tp2733
a(S'am i free for tuesday'
p2734
g15
tp2735
a(S'turn it off'
p2736
g15
tp2737
a(S'predict the outcome on a new document'
p2738
g15
tp2739
a(S'will you check mail please'
p2740
g15
tp2741
a(S'would you check gmail'
p2742
g15
tp2743
a(S"don't i have any events on next"
p2744
g15
tp2745
a(S"what's the weather this week"
p2746
g15
tp2747
a(S'will you open inbox please'
p2748
g15
tp2749
a(S'can you please shut down'
p2750
g15
tp2751
a(S'do i have anything tomorrow'
p2752
g15
tp2753
a(S'get the clock'
p2754
g15
tp2755
a(S'please would you check my gmail'
p2756
g15
tp2757
a(S"what's the weather today"
p2758
g15
tp2759
a(S'news feed today'
p2760
g15
tp2761
a(S'do i have anything to do on monday'
p2762
g15
tp2763
a(S'make the sound quieter'
p2764
g15
tp2765
a(S'please google'
p2766
g15
tp2767
a(S'can you create an event'
p2768
g15
tp2769
a(S'are there any events on tuesday'
p2770
g15
tp2771
a(S'could you open my mail'
p2772
g15
tp2773
a(S'extract the features using almost the same feature'
p2774
g15
tp2775
a(S'what events are on this day'
p2776
g15
tp2777
a(S'please start a default browser'
p2778
g15
tp2779
a(S'please could you open my inbox'
p2780
g15
tp2781
a(S"get if it's snowing today"
p2782
g15
tp2783
a(S'what are the current events'
p2784
g15
tp2785
a(S'get time'
p2786
g15
tp2787
a(S'can you close the active window'
p2788
g15
tp2789
a(S'go ahead spotify please'
p2790
g15
tp2791
a(S'can you please turn up the tunez'
p2792
g15
tp2793
a(S'could you please create new event'
p2794
g15
tp2795
a(S'please will you open mail'
p2796
g15
tp2797
a(S"please what's new in my mail"
p2798
g15
tp2799
a(S'is it freezing today'
p2800
g15
tp2801
a(S'get current time please'
p2802
g15
tp2803
a(S'please google search for'
p2804
g15
tp2805
a(S'exit'
p2806
g260
tp2807
a(S'check calendar for this day'
p2808
g15
tp2809
a(S'are there any events on next'
p2810
g15
tp2811
a(S'would you check new mail please'
p2812
g15
tp2813
a(S'check google calendar for saturday'
p2814
g15
tp2815
a(S'will you check new gmail'
p2816
g15
tp2817
a(S'could you open my gmail'
p2818
g15
tp2819
a(S'do i have anything on sunday'
p2820
g15
tp2821
a(S'anything new in gmail'
p2822
g15
tp2823
a(S'shut down'
p2824
g15
tp2825
a(S'what is on my calendar for this week'
p2826
g15
tp2827
a(S"don't i have to do anything on sunday"
p2828
g15
tp2829
a(S'check events for tuesday'
p2830
g15
tp2831
a(S'check events for today'
p2832
g15
tp2833
a(S'turn yourself off'
p2834
g260
tp2835
a(S'anything in my gmail'
p2836
g15
tp2837
a(S'please would you check my inbox'
p2838
g15
tp2839
a(S'could you please make an event'
p2840
g15
tp2841
a(S"don't i have any events in a month"
p2842
g15
tp2843
a(S'start browsing'
p2844
g15
tp2845
a(S'lock'
p2846
g15
tp2847
a(S'spotify go back to the last song '
p2848
g15
tp2849
a(S'spotify stop playing'
p2850
g15
tp2851
a(S'please will you open my mail'
p2852
g15
tp2853
a(S'am i free in a week'
p2854
g15
tp2855
a(S"if it's rainy this week"
p2856
g15
tp2857
a(S"please what's in gmail"
p2858
g15
tp2859
a(S'check the clock right now'
p2860
g15
tp2861
a(S'can you add an event'
p2862
g15
tp2863
a(S'check my calendar for tomorrow'
p2864
g15
tp2865
a(S'check google calendar on wednesday'
p2866
g15
tp2867
a(S'next'
p2868
g15
tp2869
a(S"don't i have to do anything in a month"
p2870
g15
tp2871
a(S"please what's in new gmail"
p2872
g15
tp2873
a(S'alice go ahead please'
p2874
g15
tp2875
a(S'am i free for a week'
p2876
g15
tp2877
a(S'current events today'
p2878
g15
tp2879
a(S'open dot org'
p2880
g15
tp2881
a(S'spotify skip'
p2882
g15
tp2883
a(S'open default browser please'
p2884
g15
tp2885
a(S'google search please'
p2886
g15
tp2887
a(S'what is the news'
p2888
g15
tp2889
a(S'can you please kill active window'
p2890
g15
tp2891
a(S'check my calendar for this day'
p2892
g15
tp2893
a(S"today's weather"
p2894
g15
tp2895
a(S'check my calendar on saturday'
p2896
g15
tp2897
a(S'spotify play the song before'
p2898
g15
tp2899
a(S"don't i have to do anything"
p2900
g15
tp2901
a(S'will you check inbox'
p2902
g15
tp2903
a(S'bye bye alice'
p2904
g260
tp2905
a(S"please what's in my inbox"
p2906
g15
tp2907
a(S'could you check my inbox please'
p2908
g15
tp2909
a(S'what do i have on tomorrow'
p2910
g15
tp2911
a(S'please could you check new gmail'
p2912
g15
tp2913
a(S'check calendar for thursday'
p2914
g15
tp2915
a(S"what's the current events"
p2916
g15
tp2917
a(S'please kill current window'
p2918
g15
tp2919
a(S'open dot ee dee you'
p2920
g15
tp2921
a(S'spotify go ahead'
p2922
g15
tp2923
a(S'lock the screen please'
p2924
g15
tp2925
a(S'could you open mail please'
p2926
g15
tp2927
a(S'will you check my inbox'
p2928
g15
tp2929
a(S"how's the weather this week"
p2930
g15
tp2931
a(S'can you make it louder please'
p2932
g15
tp2933
a(S'send me to the lock screen please'
p2934
g15
tp2935
a(S'can you please make event'
p2936
g15
tp2937
a(S'read the time'
p2938
g15
tp2939
a(S'do i have anything to do on next'
p2940
g15
tp2941
a(S'kill the active program'
p2942
g15
tp2943
a(S'can you please turn the tune down'
p2944
g15
tp2945
a(S"this week's temperature"
p2946
g15
tp2947
a(S"don't i have to do anything on next"
p2948
g15
tp2949
a(S"don't i have to do anything on sunday"
p2950
g15
tp2951
a(S'can you schedule event please'
p2952
g15
tp2953
a(S'spotify next'
p2954
g15
tp2955
a(S'start song'
p2956
g15
tp2957
a(S'would you open my mail'
p2958
g15
tp2959
a(S'can you schedule a new event'
p2960
g15
tp2961
a(S'open gmail please'
p2962
g15
tp2963
a(S'are there any events on today'
p2964
g15
tp2965
a(S'what events are on next'
p2966
g15
tp2967
a(S'can you check new gmail please'
p2968
g15
tp2969
a(S"don't i have to do anything on"
p2970
g15
tp2971
a(S'what do i have on wednesday'
p2972
g15
tp2973
a(S'what do i have to do on'
p2974
g15
tp2975
a(S"if it's cold today"
p2976
g15
tp2977
a(S'will you check new gmail please'
p2978
g15
tp2979
a(S'please what is in gmail'
p2980
g15
tp2981
a(S'what is on my calendar for this day'
p2982
g15
tp2983
a(S'what events are on today'
p2984
g15
tp2985
a(S'check calendar on this week'
p2986
g15
tp2987
a(S'turn my computer off'
p2988
g15
tp2989
a(S'how is the forecast'
p2990
g15
tp2991
a(S"if it's snowing this week"
p2992
g15
tp2993
a(S'would you check gmail please'
p2994
g15
tp2995
a(S'what is in new mail please'
p2996
g15
tp2997
a(S'can you check mail please'
p2998
g15
tp2999
a(S'what time is it now'
p3000
g15
tp3001
a(S'make event please'
p3002
g15
tp3003
a(S'schedule an event'
p3004
g15
tp3005
a(S'spotify last song please'
p3006
g15
tp3007
a(S'is there anything to do on wednesday'
p3008
g15
tp3009
a(S"get if it's freezing today"
p3010
g15
tp3011
a(S'open mail please'
p3012
g15
tp3013
a(S'could you add new event please'
p3014
g15
tp3015
a(S'check calendar for this week'
p3016
g15
tp3017
a(S'get the current events'
p3018
g15
tp3019
a(S'do i have anything on saturday'
p3020
g15
tp3021
a(S'please kill active window'
p3022
g15
tp3023
a(S'please open a browser'
p3024
g15
tp3025
a(S'lock my computer'
p3026
g15
tp3027
a(S"don't i have to do anything on saturday"
p3028
g15
tp3029
a(S'please can you turn the volume higher'
p3030
g15
tp3031
a(S'spotify go to the last song'
p3032
g15
tp3033
a(S'please turn it up'
p3034
g15
tp3035
a(S'what events do i have on'
p3036
g15
tp3037
a(S'check my calendar for next'
p3038
g15
tp3039
a(S'can you open a browser please'
p3040
g15
tp3041
a(S'please shut off my computer'
p3042
g15
tp3043
a(S'please search'
p3044
g15
tp3045
a(S"please what's new in inbox"
p3046
g15
tp3047
a(S"what's new in my gmail"
p3048
g15
tp3049
a(S'open dot com'
p3050
g15
tp3051
a(S'shutdown'
p3052
g15
tp3053
a(S'can you please schedule event'
p3054
g15
tp3055
a(S'is there anything i have to do on wednesday'
p3056
g15
tp3057
a(S'please would you check my mail'
p3058
g15
tp3059
a(S'will you check my mail'
p3060
g15
tp3061
a(S'check my calendar for monday'
p3062
g15
tp3063
a(S'get the information'
p3064
g15
tp3065
a(S'shut down the computer'
p3066
g15
tp3067
a(S'what is on my calendar for friday'
p3068
g15
tp3069
a(S"please what's in mail"
p3070
g15
tp3071
a(S'could you check new mail please'
p3072
g15
tp3073
a(S'unmute please'
p3074
g15
tp3075
a(S'would you check new mail'
p3076
g15
tp3077
a(S'current temperature'
p3078
g15
tp3079
a(S'will you get the current headlines'
p3080
g15
tp3081
a(S"today's live newsfeed"
p3082
g15
tp3083
a(S"aren't there any events in a month"
p3084
g15
tp3085
a(S'is there anything i have to do on monday'
p3086
g15
tp3087
a(S'when is it please'
p3088
g15
tp3089
a(S'please spotify last'
p3090
g15
tp3091
a(S'please check new gmail'
p3092
g15
tp3093
a(S'will you open my gmail please'
p3094
g15
tp3095
a(S'check calendar for tuesday'
p3096
g15
tp3097
a(S'check calendar for monday'
p3098
g15
tp3099
a(S'open a browser'
p3100
g15
tp3101
a(S'get the current time'
p3102
g15
tp3103
a(S'can you please shutdown the computer'
p3104
g15
tp3105
a(S'check your watch'
p3106
g15
tp3107
a(S'check calendar on tomorrow'
p3108
g15
tp3109
a(S'what is on my calendar for thursday'
p3110
g15
tp3111
a(S'check events on tuesday'
p3112
g15
tp3113
a(S'can you schedule new event please'
p3114
g15
tp3115
a(S'any new gmail'
p3116
g15
tp3117
a(S'kill the active window'
p3118
g15
tp3119
a(S'can you please turn the sound down'
p3120
g15
tp3121
a(S'see you'
p3122
g260
tp3123
a(S"get if it's hot today"
p3124
g15
tp3125
a(S'what do i have to do in a month'
p3126
g15
tp3127
a(S'please shut off'
p3128
g15
tp3129
a(S'please close the active window'
p3130
g15
tp3131
a(S'schedule event'
p3132
g15
tp3133
a(S'do i have to do anything on friday'
p3134
g15
tp3135
a(S'am i free for saturday'
p3136
g15
tp3137
a(S'create a new event please'
p3138
g15
tp3139
a(S'add an event'
p3140
g15
tp3141
a(S'live news feed today'
p3142
g15
tp3143
a(S'what do i have to do on sunday'
p3144
g15
tp3145
a(S'please shutdown my computer'
p3146
g15
tp3147
a(S'check calendar for tomorrow'
p3148
g15
tp3149
a(S'what events do i have in a month'
p3150
g15
tp3151
a(S'schedule new event please'
p3152
g15
tp3153
a(S"today's forecast"
p3154
g15
tp3155
a(S'what is new in my gmail please'
p3156
g15
tp3157
a(S'what events are on wednesday'
p3158
g15
tp3159
a(S'sweet dreams alice'
p3160
g260
tp3161
a(S'open inbox please'
p3162
g15
tp3163
a(S'do i have any events on tomorrow'
p3164
g15
tp3165
a(S'get the current time please'
p3166
g15
tp3167
a(S'fake news'
p3168
g15
tp3169
a(S'check new gmail'
p3170
g15
tp3171
a(S'do i have to do anything in a month'
p3172
g15
tp3173
a(S'retrieve the time please'
p3174
g15
tp3175
a(S"today's weather"
p3176
g15
tp3177
a(S'start a default browser'
p3178
g15
tp3179
a(S'check google calendar on this week'
p3180
g15
tp3181
a(S'would you check my inbox please'
p3182
g15
tp3183
a(S'please start browser'
p3184
g15
tp3185
a(S'can you please turn off my computer'
p3186
g15
tp3187
a(S'good night'
p3188
g260
tp3189
a(S'check what time it is'
p3190
g15
tp3191
a(S"what's new in mail"
p3192
g15
tp3193
a(S'get news now'
p3194
g15
tp3195
a(S'turn the sound down please'
p3196
g15
tp3197
a(S'spotify skip ahead please'
p3198
g15
tp3199
a(S'please start'
p3200
g15
tp3201
a(S'close window'
p3202
g15
tp3203
a(S'can you please mute'
p3204
g15
tp3205
a(S'check my calendar for this month'
p3206
g15
tp3207
a(S"don't i have any events on this day"
p3208
g15
tp3209
a(S'add new event'
p3210
g15
tp3211
a(S'check calendar for this day'
p3212
g15
tp3213
a(S'give me intel on current events'
p3214
g15
tp3215
a(S'is there anything i have to do tomorrow'
p3216
g15
tp3217
a(S'could you check my mail'
p3218
g15
tp3219
a(S'open a browser please'
p3220
g15
tp3221
a(S"what's if it's hot today"
p3222
g15
tp3223
a(S'open browser please'
p3224
g15
tp3225
a(S'kill window'
p3226
g15
tp3227
a(S'give me intel'
p3228
g15
tp3229
a(S'check calendar for wednesday'
p3230
g15
tp3231
a(S'could you schedule a new event please'
p3232
g15
tp3233
a(S'can you schedule new event'
p3234
g15
tp3235
a(S'please go back'
p3236
g15
tp3237
a(S'please add new event'
p3238
g15
tp3239
a(S'unmute'
p3240
g15
tp3241
a(S'turn up the beat please'
p3242
g15
tp3243
a(S'get the current events'
p3244
g15
tp3245
a(S'debrief me'
p3246
g15
tp3247
a(S"what's in new mail"
p3248
g15
tp3249
a(S'check calendar'
p3250
g15
tp3251
a(S'could you create a new event please'
p3252
g15
tp3253
a(S'shut down my computer please'
p3254
g15
tp3255
a(S'what is in inbox please'
p3256
g15
tp3257
a(S'check my calendar on friday'
p3258
g15
tp3259
a(S'what is in new mail'
p3260
g15
tp3261
a(S"what's this week's forecast"
p3262
g15
tp3263
a(S'what is newsfeed'
p3264
g15
tp3265
a(S'check my calendar on monday'
p3266
g15
tp3267
a(S'do i have anything to do on saturday'
p3268
g15
tp3269
a(S"please what's in new mail"
p3270
g15
tp3271
a(S"what's in new gmail please"
p3272
g15
tp3273
a(S"how's the temperature this week"
p3274
g15
tp3275
a(S'what is on my calendar'
p3276
g15
tp3277
a(S'get live news feed'
p3278
g15
tp3279
a(S'spotify pause please'
p3280
g15
tp3281
a(S"what's in my mail please"
p3282
g15
tp3283
a(S'any events on today'
p3284
g15
tp3285
a(S'am i free on this day'
p3286
g15
tp3287
a(S'is there anything i have to do in a week'
p3288
g15
tp3289
a(S'please make a new event'
p3290
g15
tp3291
a(S'gather information on todays current events please'
p3292
g15
tp3293
a(S'please would you check inbox'
p3294
g15
tp3295
a(S'check my calendar on today'
p3296
g15
tp3297
a(S'turn down the volume'
p3298
g15
tp3299
a(S'are there any events on wednesday'
p3300
g15
tp3301
a(S'is it cloudy today'
p3302
g15
tp3303
a(S'please will you check mail'
p3304
g15
tp3305
a(S'bye alice'
p3306
g260
tp3307
a(S'do i have anything in a month'
p3308
g15
tp3309
a(S'spotify play the song'
p3310
g15
tp3311
a(S'please give me the news'
p3312
g15
tp3313
a(S"if it's snowing today"
p3314
g15
tp3315
a(S'go to dot edu'
p3316
g15
tp3317
a(S'spotify last please'
p3318
g15
tp3319
a(S'is there anything i have to do on thursday'
p3320
g15
tp3321
a(S'what are the headlines'
p3322
g15
tp3323
a(S'play song'
p3324
g15
tp3325
a(S"get today's forecast"
p3326
g15
tp3327
a(S'spotify stop the song '
p3328
g15
tp3329
a(S'open dot net'
p3330
g15
tp3331
a(S'what events are in a month'
p3332
g15
tp3333
a(S'what do i have on'
p3334
g15
tp3335
a(S'open'
p3336
g15
tp3337
a(S'what do i have to do'
p3338
g15
tp3339
a(S'please open my mail'
p3340
g15
tp3341
a(S"if it's freezing today"
p3342
g15
tp3343
a(S"don't i have any events on tomorrow"
p3344
g15
tp3345
a(S'kill the program'
p3346
g15
tp3347
a(S'will you check gmail please'
p3348
g15
tp3349
a(S'can you please turn up the volume'
p3350
g15
tp3351
a(S'check my inbox'
p3352
g15
tp3353
a(S'please when is it'
p3354
g15
tp3355
a(S'what do i have on friday'
p3356
g15
tp3357
a(S'please shutdown'
p3358
g15
tp3359
a(S'schedule a new event'
p3360
g15
tp3361
a(S'what is in my mail please'
p3362
g15
tp3363
a(S'could you open inbox'
p3364
g15
tp3365
a(S"don't i have anything to do in a month"
p3366
g15
tp3367
a(S'spotify go please'
p3368
g15
tp3369
a(S"don't i have anything to do on next"
p3370
g15
tp3371
a(S'what do i have on next'
p3372
g15
tp3373
asS'classifier'
p3374
ccopy_reg
_reconstructor
p3375
(csklearn.pipeline
Pipeline
p3376
c__builtin__
object
p3377
Ntp3378
Rp3379
(dp3380
S'_sklearn_version'
p3381
S'0.18.1'
p3382
sS'steps'
p3383
(lp3384
(S'vect'
p3385
g3375
(csklearn.feature_extraction.text
CountVectorizer
p3386
g3377
Ntp3387
Rp3388
(dp3389
S'decode_error'
p3390
Vstrict
p3391
sS'lowercase'
p3392
I01
sS'stop_words'
p3393
NsS'vocabulary'
p3394
NsS'tokenizer'
p3395
NsS'encoding'
p3396
Vutf-8
p3397
sS'token_pattern'
p3398
V(?u)\u005cb\u005cw\u005cw+\u005cb
p3399
sS'input'
p3400
Vcontent
p3401
sS'analyzer'
p3402
Vword
p3403
sS'vocabulary_'
p3404
(dp3405
Vraining
p3406
cnumpy.core.multiarray
scalar
p3407
(cnumpy
dtype
p3408
(S'i8'
p3409
I0
I1
tp3410
Rp3411
(I3
S'<'
p3412
NNNI-1
I-1
I0
tp3413
bS'\xa1\x00\x00\x00\x00\x00\x00\x00'
p3414
tp3415
Rp3416
sVtodays
p3417
g3407
(g3411
S'\xce\x00\x00\x00\x00\x00\x00\x00'
p3418
tp3419
Rp3420
sVmute
p3421
g3407
(g3411
S'\x7f\x00\x00\x00\x00\x00\x00\x00'
p3422
tp3423
Rp3424
sVbyebye
p3425
g3407
(g3411
S'\x1b\x00\x00\x00\x00\x00\x00\x00'
p3426
tp3427
Rp3428
sVskip
p3429
g3407
(g3411
S'\xb6\x00\x00\x00\x00\x00\x00\x00'
p3430
tp3431
Rp3432
sVmonth
p3433
g3407
(g3411
S'|\x00\x00\x00\x00\x00\x00\x00'
p3434
tp3435
Rp3436
sVsofter
p3437
g3407
(g3411
S'\xb9\x00\x00\x00\x00\x00\x00\x00'
p3438
tp3439
Rp3440
sVkill
p3441
g3407
(g3411
S'n\x00\x00\x00\x00\x00\x00\x00'
p3442
tp3443
Rp3444
sVedu
p3445
g3407
(g3411
S'=\x00\x00\x00\x00\x00\x00\x00'
p3446
tp3447
Rp3448
sVgo
p3449
g3407
(g3411
S'U\x00\x00\x00\x00\x00\x00\x00'
p3450
tp3451
Rp3452
sVheadlines
p3453
g3407
(g3411
S'^\x00\x00\x00\x00\x00\x00\x00'
p3454
tp3455
Rp3456
sVfind
p3457
g3407
(g3411
S'H\x00\x00\x00\x00\x00\x00\x00'
p3458
tp3459
Rp3460
sVprevious
p3461
g3407
(g3411
S'\x98\x00\x00\x00\x00\x00\x00\x00'
p3462
tp3463
Rp3464
sVspotify
p3465
g3407
(g3411
S'\xbc\x00\x00\x00\x00\x00\x00\x00'
p3466
tp3467
Rp3468
sVpause
p3469
g3407
(g3411
S'\x91\x00\x00\x00\x00\x00\x00\x00'
p3470
tp3471
Rp3472
sVsnowing
p3473
g3407
(g3411
S'\xb8\x00\x00\x00\x00\x00\x00\x00'
p3474
tp3475
Rp3476
sVsunday
p3477
g3407
(g3411
S'\xc1\x00\x00\x00\x00\x00\x00\x00'
p3478
tp3479
Rp3480
sVsend
p3481
g3407
(g3411
S'\xb0\x00\x00\x00\x00\x00\x00\x00'
p3482
tp3483
Rp3484
sVaren
p3485
g3407
(g3411
S'\x0e\x00\x00\x00\x00\x00\x00\x00'
p3486
tp3487
Rp3488
sVto
p3489
g3407
(g3411
S'\xcc\x00\x00\x00\x00\x00\x00\x00'
p3490
tp3491
Rp3492
sVadd
p3493
g3407
(g3411
S'\x02\x00\x00\x00\x00\x00\x00\x00'
p3494
tp3495
Rp3496
sVprogram
p3497
g3407
(g3411
S'\x9b\x00\x00\x00\x00\x00\x00\x00'
p3498
tp3499
Rp3500
sVmail
p3501
g3407
(g3411
S'v\x00\x00\x00\x00\x00\x00\x00'
p3502
tp3503
Rp3504
sVbye
p3505
g3407
(g3411
S'\x1a\x00\x00\x00\x00\x00\x00\x00'
p3506
tp3507
Rp3508
sVdo
p3509
g3407
(g3411
S'5\x00\x00\x00\x00\x00\x00\x00'
p3510
tp3511
Rp3512
sVpredict
p3513
g3407
(g3411
S'\x96\x00\x00\x00\x00\x00\x00\x00'
p3514
tp3515
Rp3516
sVgood
p3517
g3407
(g3411
S'W\x00\x00\x00\x00\x00\x00\x00'
p3518
tp3519
Rp3520
sVemergency
p3521
g3407
(g3411
S'?\x00\x00\x00\x00\x00\x00\x00'
p3522
tp3523
Rp3524
sVget
p3525
g3407
(g3411
S'Q\x00\x00\x00\x00\x00\x00\x00'
p3526
tp3527
Rp3528
sVya
p3529
g3407
(g3411
S'\xe7\x00\x00\x00\x00\x00\x00\x00'
p3530
tp3531
Rp3532
sVmaterial
p3533
g3407
(g3411
S'x\x00\x00\x00\x00\x00\x00\x00'
p3534
tp3535
Rp3536
sVwatch
p3537
g3407
(g3411
S'\xdb\x00\x00\x00\x00\x00\x00\x00'
p3538
tp3539
Rp3540
sVreport
p3541
g3407
(g3411
S'\xa6\x00\x00\x00\x00\x00\x00\x00'
p3542
tp3543
Rp3544
sVworld
p3545
g3407
(g3411
S'\xe5\x00\x00\x00\x00\x00\x00\x00'
p3546
tp3547
Rp3548
sVnow
p3549
g3407
(g3411
S'\x88\x00\x00\x00\x00\x00\x00\x00'
p3550
tp3551
Rp3552
sVday
p3553
g3407
(g3411
S'-\x00\x00\x00\x00\x00\x00\x00'
p3554
tp3555
Rp3556
sVdreams
p3557
g3407
(g3411
S';\x00\x00\x00\x00\x00\x00\x00'
p3558
tp3559
Rp3560
sVlike
p3561
g3407
(g3411
S'q\x00\x00\x00\x00\x00\x00\x00'
p3562
tp3563
Rp3564
sVshoulder
p3565
g3407
(g3411
S'\xb2\x00\x00\x00\x00\x00\x00\x00'
p3566
tp3567
Rp3568
sVmoderate
p3569
g3407
(g3411
S'z\x00\x00\x00\x00\x00\x00\x00'
p3570
tp3571
Rp3572
sValex
p3573
g3407
(g3411
S'\x05\x00\x00\x00\x00\x00\x00\x00'
p3574
tp3575
Rp3576
sVintel
p3577
g3407
(g3411
S'i\x00\x00\x00\x00\x00\x00\x00'
p3578
tp3579
Rp3580
sVgossips
p3581
g3407
(g3411
S'Y\x00\x00\x00\x00\x00\x00\x00'
p3582
tp3583
Rp3584
sVdidn
p3585
g3407
(g3411
S'4\x00\x00\x00\x00\x00\x00\x00'
p3586
tp3587
Rp3588
sVwednesday
p3589
g3407
(g3411
S'\xde\x00\x00\x00\x00\x00\x00\x00'
p3590
tp3591
Rp3592
sVcloudy
p3593
g3407
(g3411
S'$\x00\x00\x00\x00\x00\x00\x00'
p3594
tp3595
Rp3596
sVmorning
p3597
g3407
(g3411
S'}\x00\x00\x00\x00\x00\x00\x00'
p3598
tp3599
Rp3600
sVtry
p3601
g3407
(g3411
S'\xd1\x00\x00\x00\x00\x00\x00\x00'
p3602
tp3603
Rp3604
sVtunez
p3605
g3407
(g3411
S'\xd5\x00\x00\x00\x00\x00\x00\x00'
p3606
tp3607
Rp3608
sVgimme
p3609
g3407
(g3411
S'R\x00\x00\x00\x00\x00\x00\x00'
p3610
tp3611
Rp3612
sVnight
p3613
g3407
(g3411
S'\x86\x00\x00\x00\x00\x00\x00\x00'
p3614
tp3615
Rp3616
sVtunes
p3617
g3407
(g3411
S'\xd4\x00\x00\x00\x00\x00\x00\x00'
p3618
tp3619
Rp3620
sVout
p3621
g3407
(g3411
S'\x8f\x00\x00\x00\x00\x00\x00\x00'
p3622
tp3623
Rp3624
sVclassifier
p3625
g3407
(g3411
S'!\x00\x00\x00\x00\x00\x00\x00'
p3626
tp3627
Rp3628
sVinbox
p3629
g3407
(g3411
S'f\x00\x00\x00\x00\x00\x00\x00'
p3630
tp3631
Rp3632
sVset
p3633
g3407
(g3411
S'\xb1\x00\x00\x00\x00\x00\x00\x00'
p3634
tp3635
Rp3636
sVretrieve
p3637
g3407
(g3411
S'\xa7\x00\x00\x00\x00\x00\x00\x00'
p3638
tp3639
Rp3640
sVee
p3641
g3407
(g3411
S'>\x00\x00\x00\x00\x00\x00\x00'
p3642
tp3643
Rp3644
sVintelligence
p3645
g3407
(g3411
S'j\x00\x00\x00\x00\x00\x00\x00'
p3646
tp3647
Rp3648
sVfake
p3649
g3407
(g3411
S'D\x00\x00\x00\x00\x00\x00\x00'
p3650
tp3651
Rp3652
sVback
p3653
g3407
(g3411
S'\x0f\x00\x00\x00\x00\x00\x00\x00'
p3654
tp3655
Rp3656
sVhail
p3657
g3407
(g3411
S'\\\x00\x00\x00\x00\x00\x00\x00'
p3658
tp3659
Rp3660
sValice
p3661
g3407
(g3411
S'\x06\x00\x00\x00\x00\x00\x00\x00'
p3662
tp3663
Rp3664
sVzero
p3665
g3407
(g3411
S'\xeb\x00\x00\x00\x00\x00\x00\x00'
p3666
tp3667
Rp3668
sVcomputer
p3669
g3407
(g3411
S'(\x00\x00\x00\x00\x00\x00\x00'
p3670
tp3671
Rp3672
sVare
p3673
g3407
(g3411
S'\r\x00\x00\x00\x00\x00\x00\x00'
p3674
tp3675
Rp3676
sVclose
p3677
g3407
(g3411
S'#\x00\x00\x00\x00\x00\x00\x00'
p3678
tp3679
Rp3680
sVcalendar
p3681
g3407
(g3411
S'\x1c\x00\x00\x00\x00\x00\x00\x00'
p3682
tp3683
Rp3684
sVextract
p3685
g3407
(g3411
S'C\x00\x00\x00\x00\x00\x00\x00'
p3686
tp3687
Rp3688
sVcold
p3689
g3407
(g3411
S'%\x00\x00\x00\x00\x00\x00\x00'
p3690
tp3691
Rp3692
sVgmail
p3693
g3407
(g3411
S'T\x00\x00\x00\x00\x00\x00\x00'
p3694
tp3695
Rp3696
sVcategory
p3697
g3407
(g3411
S'\x1e\x00\x00\x00\x00\x00\x00\x00'
p3698
tp3699
Rp3700
sVwhat
p3701
g3407
(g3411
S'\xe0\x00\x00\x00\x00\x00\x00\x00'
p3702
tp3703
Rp3704
sVmonday
p3705
g3407
(g3411
S'{\x00\x00\x00\x00\x00\x00\x00'
p3706
tp3707
Rp3708
sVfor
p3709
g3407
(g3411
S'J\x00\x00\x00\x00\x00\x00\x00'
p3710
tp3711
Rp3712
sVclock
p3713
g3407
(g3411
S'"\x00\x00\x00\x00\x00\x00\x00'
p3714
tp3715
Rp3716
sVdebrief
p3717
g3407
(g3411
S'.\x00\x00\x00\x00\x00\x00\x00'
p3718
tp3719
Rp3720
sVcurrently
p3721
g3407
(g3411
S',\x00\x00\x00\x00\x00\x00\x00'
p3722
tp3723
Rp3724
sVplease
p3725
g3407
(g3411
S'\x94\x00\x00\x00\x00\x00\x00\x00'
p3726
tp3727
Rp3728
sVbrief
p3729
g3407
(g3411
S'\x16\x00\x00\x00\x00\x00\x00\x00'
p3730
tp3731
Rp3732
sVforecast
p3733
g3407
(g3411
S'K\x00\x00\x00\x00\x00\x00\x00'
p3734
tp3735
Rp3736
sVcell
p3737
g3407
(g3411
S'\x1f\x00\x00\x00\x00\x00\x00\x00'
p3738
tp3739
Rp3740
sVre
p3741
g3407
(g3411
S'\xa3\x00\x00\x00\x00\x00\x00\x00'
p3742
tp3743
Rp3744
sVexit
p3745
g3407
(g3411
S'B\x00\x00\x00\x00\x00\x00\x00'
p3746
tp3747
Rp3748
sVabove
p3749
g3407
(g3411
S'\x00\x00\x00\x00\x00\x00\x00\x00'
p3750
tp3751
Rp3752
sVnew
p3753
g3407
(g3411
S'\x82\x00\x00\x00\x00\x00\x00\x00'
p3754
tp3755
Rp3756
sVnet
p3757
g3407
(g3411
S'\x81\x00\x00\x00\x00\x00\x00\x00'
p3758
tp3759
Rp3760
sVgov
p3761
g3407
(g3411
S'Z\x00\x00\x00\x00\x00\x00\x00'
p3762
tp3763
Rp3764
sVissue
p3765
g3407
(g3411
S'l\x00\x00\x00\x00\x00\x00\x00'
p3766
tp3767
Rp3768
sVbe
p3769
g3407
(g3411
S'\x11\x00\x00\x00\x00\x00\x00\x00'
p3770
tp3771
Rp3772
sVshut
p3773
g3407
(g3411
S'\xb3\x00\x00\x00\x00\x00\x00\x00'
p3774
tp3775
Rp3776
sVfriday
p3777
g3407
(g3411
S'N\x00\x00\x00\x00\x00\x00\x00'
p3778
tp3779
Rp3780
sVtomorrow
p3781
g3407
(g3411
S'\xcf\x00\x00\x00\x00\x00\x00\x00'
p3782
tp3783
Rp3784
sVschedule
p3785
g3407
(g3411
S'\xac\x00\x00\x00\x00\x00\x00\x00'
p3786
tp3787
Rp3788
sVscreen
p3789
g3407
(g3411
S'\xad\x00\x00\x00\x00\x00\x00\x00'
p3790
tp3791
Rp3792
sVdictates
p3793
g3407
(g3411
S'3\x00\x00\x00\x00\x00\x00\x00'
p3794
tp3795
Rp3796
sVfree
p3797
g3407
(g3411
S'L\x00\x00\x00\x00\x00\x00\x00'
p3798
tp3799
Rp3800
sVwe
p3801
g3407
(g3411
S'\xdc\x00\x00\x00\x00\x00\x00\x00'
p3802
tp3803
Rp3804
sVillustration
p3805
g3407
(g3411
S'd\x00\x00\x00\x00\x00\x00\x00'
p3806
tp3807
Rp3808
sVactive
p3809
g3407
(g3411
S'\x01\x00\x00\x00\x00\x00\x00\x00'
p3810
tp3811
Rp3812
sVnews
p3813
g3407
(g3411
S'\x83\x00\x00\x00\x00\x00\x00\x00'
p3814
tp3815
Rp3816
sVpost
p3817
g3407
(g3411
S'\x95\x00\x00\x00\x00\x00\x00\x00'
p3818
tp3819
Rp3820
sVearlier
p3821
g3407
(g3411
S'<\x00\x00\x00\x00\x00\x00\x00'
p3822
tp3823
Rp3824
sVon
p3825
g3407
(g3411
S'\x8c\x00\x00\x00\x00\x00\x00\x00'
p3826
tp3827
Rp3828
sVsearch
p3829
g3407
(g3411
S'\xae\x00\x00\x00\x00\x00\x00\x00'
p3830
tp3831
Rp3832
sVlast
p3833
g3407
(g3411
S'o\x00\x00\x00\x00\x00\x00\x00'
p3834
tp3835
Rp3836
sVanything
p3837
g3407
(g3411
S'\x0c\x00\x00\x00\x00\x00\x00\x00'
p3838
tp3839
Rp3840
sVof
p3841
g3407
(g3411
S'\x89\x00\x00\x00\x00\x00\x00\x00'
p3842
tp3843
Rp3844
sVcould
p3845
g3407
(g3411
S')\x00\x00\x00\x00\x00\x00\x00'
p3846
tp3847
Rp3848
sVcurrent
p3849
g3407
(g3411
S'+\x00\x00\x00\x00\x00\x00\x00'
p3850
tp3851
Rp3852
sVquiet
p3853
g3407
(g3411
S'\x9e\x00\x00\x00\x00\x00\x00\x00'
p3854
tp3855
Rp3856
sVturn
p3857
g3407
(g3411
S'\xd6\x00\x00\x00\x00\x00\x00\x00'
p3858
tp3859
Rp3860
sVafternoon
p3861
g3407
(g3411
S'\x03\x00\x00\x00\x00\x00\x00\x00'
p3862
tp3863
Rp3864
sVbrowsing
p3865
g3407
(g3411
S'\x19\x00\x00\x00\x00\x00\x00\x00'
p3866
tp3867
Rp3868
sVcom
p3869
g3407
(g3411
S'&\x00\x00\x00\x00\x00\x00\x00'
p3870
tp3871
Rp3872
sVthink
p3873
g3407
(g3411
S'\xc8\x00\x00\x00\x00\x00\x00\x00'
p3874
tp3875
Rp3876
sVfeed
p3877
g3407
(g3411
S'G\x00\x00\x00\x00\x00\x00\x00'
p3878
tp3879
Rp3880
sVthis
p3881
g3407
(g3411
S'\xc9\x00\x00\x00\x00\x00\x00\x00'
p3882
tp3883
Rp3884
sVwhats
p3885
g3407
(g3411
S'\xe1\x00\x00\x00\x00\x00\x00\x00'
p3886
tp3887
Rp3888
sVfeatures
p3889
g3407
(g3411
S'F\x00\x00\x00\x00\x00\x00\x00'
p3890
tp3891
Rp3892
sVsimple
p3893
g3407
(g3411
S'\xb5\x00\x00\x00\x00\x00\x00\x00'
p3894
tp3895
Rp3896
sVsweet
p3897
g3407
(g3411
S'\xc2\x00\x00\x00\x00\x00\x00\x00'
p3898
tp3899
Rp3900
sVtuesday
p3901
g3407
(g3411
S'\xd2\x00\x00\x00\x00\x00\x00\x00'
p3902
tp3903
Rp3904
sVunmute
p3905
g3407
(g3411
S'\xd7\x00\x00\x00\x00\x00\x00\x00'
p3906
tp3907
Rp3908
sVyourself
p3909
g3407
(g3411
S'\xea\x00\x00\x00\x00\x00\x00\x00'
p3910
tp3911
Rp3912
sVdown
p3913
g3407
(g3411
S':\x00\x00\x00\x00\x00\x00\x00'
p3914
tp3915
Rp3916
sVput
p3917
g3407
(g3411
S'\x9c\x00\x00\x00\x00\x00\x00\x00'
p3918
tp3919
Rp3920
sVweather
p3921
g3407
(g3411
S'\xdd\x00\x00\x00\x00\x00\x00\x00'
p3922
tp3923
Rp3924
sVdecrease
p3925
g3407
(g3411
S'0\x00\x00\x00\x00\x00\x00\x00'
p3926
tp3927
Rp3928
sVthursday
p3929
g3407
(g3411
S'\xca\x00\x00\x00\x00\x00\x00\x00'
p3930
tp3931
Rp3932
sVshutdown
p3933
g3407
(g3411
S'\xb4\x00\x00\x00\x00\x00\x00\x00'
p3934
tp3935
Rp3936
sVorg
p3937
g3407
(g3411
S'\x8e\x00\x00\x00\x00\x00\x00\x00'
p3938
tp3939
Rp3940
sVopen
p3941
g3407
(g3411
S'\x8d\x00\x00\x00\x00\x00\x00\x00'
p3942
tp3943
Rp3944
sVyour
p3945
g3407
(g3411
S'\xe9\x00\x00\x00\x00\x00\x00\x00'
p3946
tp3947
Rp3948
sVtemperature
p3949
g3407
(g3411
S'\xc5\x00\x00\x00\x00\x00\x00\x00'
p3950
tp3951
Rp3952
sVwould
p3953
g3407
(g3411
S'\xe6\x00\x00\x00\x00\x00\x00\x00'
p3954
tp3955
Rp3956
sVsake
p3957
g3407
(g3411
S'\xa9\x00\x00\x00\x00\x00\x00\x00'
p3958
tp3959
Rp3960
sVdecent
p3961
g3407
(g3411
S'/\x00\x00\x00\x00\x00\x00\x00'
p3962
tp3963
Rp3964
sVcreate
p3965
g3407
(g3411
S'*\x00\x00\x00\x00\x00\x00\x00'
p3966
tp3967
Rp3968
sVthere
p3969
g3407
(g3411
S'\xc7\x00\x00\x00\x00\x00\x00\x00'
p3970
tp3971
Rp3972
sVquestion
p3973
g3407
(g3411
S'\x9d\x00\x00\x00\x00\x00\x00\x00'
p3974
tp3975
Rp3976
sVwindow
p3977
g3407
(g3411
S'\xe4\x00\x00\x00\x00\x00\x00\x00'
p3978
tp3979
Rp3980
sVnext
p3981
g3407
(g3411
S'\x85\x00\x00\x00\x00\x00\x00\x00'
p3982
tp3983
Rp3984
sVstart
p3985
g3407
(g3411
S'\xbe\x00\x00\x00\x00\x00\x00\x00'
p3986
tp3987
Rp3988
sVlive
p3989
g3407
(g3411
S'r\x00\x00\x00\x00\x00\x00\x00'
p3990
tp3991
Rp3992
sVgoing
p3993
g3407
(g3411
S'V\x00\x00\x00\x00\x00\x00\x00'
p3994
tp3995
Rp3996
sVmusic
p3997
g3407
(g3411
S'~\x00\x00\x00\x00\x00\x00\x00'
p3998
tp3999
Rp4000
sVtell
p4001
g3407
(g3411
S'\xc4\x00\x00\x00\x00\x00\x00\x00'
p4002
tp4003
Rp4004
sVtoday
p4005
g3407
(g3411
S'\xcd\x00\x00\x00\x00\x00\x00\x00'
p4006
tp4007
Rp4008
sVpretends
p4009
g3407
(g3411
S'\x97\x00\x00\x00\x00\x00\x00\x00'
p4010
tp4011
Rp4012
sVsound
p4013
g3407
(g3411
S'\xbb\x00\x00\x00\x00\x00\x00\x00'
p4014
tp4015
Rp4016
sVreleasing
p4017
g3407
(g3411
S'\xa5\x00\x00\x00\x00\x00\x00\x00'
p4018
tp4019
Rp4020
sVcommands
p4021
g3407
(g3411
S"'\x00\x00\x00\x00\x00\x00\x00"
p4022
tp4023
Rp4024
sVit
p4025
g3407
(g3411
S'm\x00\x00\x00\x00\x00\x00\x00'
p4026
tp4027
Rp4028
sVvolume
p4029
g3407
(g3411
S'\xda\x00\x00\x00\x00\x00\x00\x00'
p4030
tp4031
Rp4032
sVtrain
p4033
g3407
(g3411
S'\xd0\x00\x00\x00\x00\x00\x00\x00'
p4034
tp4035
Rp4036
sVstick
p4037
g3407
(g3411
S'\xbf\x00\x00\x00\x00\x00\x00\x00'
p4038
tp4039
Rp4040
sVbeat
p4041
g3407
(g3411
S'\x12\x00\x00\x00\x00\x00\x00\x00'
p4042
tp4043
Rp4044
sVfoggy
p4045
g3407
(g3411
S'I\x00\x00\x00\x00\x00\x00\x00'
p4046
tp4047
Rp4048
sVgoogle
p4049
g3407
(g3411
S'X\x00\x00\x00\x00\x00\x00\x00'
p4050
tp4051
Rp4052
sVme
p4053
g3407
(g3411
S'y\x00\x00\x00\x00\x00\x00\x00'
p4054
tp4055
Rp4056
sVahead
p4057
g3407
(g3411
S'\x04\x00\x00\x00\x00\x00\x00\x00'
p4058
tp4059
Rp4060
sVdefault
p4061
g3407
(g3411
S'2\x00\x00\x00\x00\x00\x00\x00'
p4062
tp4063
Rp4064
sVsnow
p4065
g3407
(g3411
S'\xb7\x00\x00\x00\x00\x00\x00\x00'
p4066
tp4067
Rp4068
sVup
p4069
g3407
(g3411
S'\xd8\x00\x00\x00\x00\x00\x00\x00'
p4070
tp4071
Rp4072
sVdogs
p4073
g3407
(g3411
S'7\x00\x00\x00\x00\x00\x00\x00'
p4074
tp4075
Rp4076
sVwill
p4077
g3407
(g3411
S'\xe3\x00\x00\x00\x00\x00\x00\x00'
p4078
tp4079
Rp4080
sVlouder
p4081
g3407
(g3411
S't\x00\x00\x00\x00\x00\x00\x00'
p4082
tp4083
Rp4084
sVcan
p4085
g3407
(g3411
S'\x1d\x00\x00\x00\x00\x00\x00\x00'
p4086
tp4087
Rp4088
sVbriefing
p4089
g3407
(g3411
S'\x17\x00\x00\x00\x00\x00\x00\x00'
p4090
tp4091
Rp4092
sVproblem
p4093
g3407
(g3411
S'\x99\x00\x00\x00\x00\x00\x00\x00'
p4094
tp4095
Rp4096
sVoutcome
p4097
g3407
(g3411
S'\x90\x00\x00\x00\x00\x00\x00\x00'
p4098
tp4099
Rp4100
sVmy
p4101
g3407
(g3411
S'\x80\x00\x00\x00\x00\x00\x00\x00'
p4102
tp4103
Rp4104
sVdee
p4105
g3407
(g3411
S'1\x00\x00\x00\x00\x00\x00\x00'
p4106
tp4107
Rp4108
sVbrowser
p4109
g3407
(g3411
S'\x18\x00\x00\x00\x00\x00\x00\x00'
p4110
tp4111
Rp4112
sVsaturday
p4113
g3407
(g3411
S'\xab\x00\x00\x00\x00\x00\x00\x00'
p4114
tp4115
Rp4116
sVbefore
p4117
g3407
(g3411
S'\x14\x00\x00\x00\x00\x00\x00\x00'
p4118
tp4119
Rp4120
sVgive
p4121
g3407
(g3411
S'S\x00\x00\x00\x00\x00\x00\x00'
p4122
tp4123
Rp4124
sValmost
p4125
g3407
(g3411
S'\x07\x00\x00\x00\x00\x00\x00\x00'
p4126
tp4127
Rp4128
sVlock
p4129
g3407
(g3411
S's\x00\x00\x00\x00\x00\x00\x00'
p4130
tp4131
Rp4132
sVis
p4133
g3407
(g3411
S'k\x00\x00\x00\x00\x00\x00\x00'
p4134
tp4135
Rp4136
sVin
p4137
g3407
(g3411
S'e\x00\x00\x00\x00\x00\x00\x00'
p4138
tp4139
Rp4140
sVam
p4141
g3407
(g3411
S'\x08\x00\x00\x00\x00\x00\x00\x00'
p4142
tp4143
Rp4144
sVfuck
p4145
g3407
(g3411
S'O\x00\x00\x00\x00\x00\x00\x00'
p4146
tp4147
Rp4148
sVan
p4149
g3407
(g3411
S'\t\x00\x00\x00\x00\x00\x00\x00'
p4150
tp4151
Rp4152
sVbeats
p4153
g3407
(g3411
S'\x13\x00\x00\x00\x00\x00\x00\x00'
p4154
tp4155
Rp4156
sVright
p4157
g3407
(g3411
S'\xa8\x00\x00\x00\x00\x00\x00\x00'
p4158
tp4159
Rp4160
sVhave
p4161
g3407
(g3411
S']\x00\x00\x00\x00\x00\x00\x00'
p4162
tp4163
Rp4164
sVstalls
p4165
g3407
(g3411
S'\xbd\x00\x00\x00\x00\x00\x00\x00'
p4166
tp4167
Rp4168
sVcheck
p4169
g3407
(g3411
S' \x00\x00\x00\x00\x00\x00\x00'
p4170
tp4171
Rp4172
sVif
p4173
g3407
(g3411
S'c\x00\x00\x00\x00\x00\x00\x00'
p4174
tp4175
Rp4176
sVinformation
p4177
g3407
(g3411
S'h\x00\x00\x00\x00\x00\x00\x00'
p4178
tp4179
Rp4180
sVrainy
p4181
g3407
(g3411
S'\xa2\x00\x00\x00\x00\x00\x00\x00'
p4182
tp4183
Rp4184
sVmake
p4185
g3407
(g3411
S'w\x00\x00\x00\x00\x00\x00\x00'
p4186
tp4187
Rp4188
sVsong
p4189
g3407
(g3411
S'\xba\x00\x00\x00\x00\x00\x00\x00'
p4190
tp4191
Rp4192
sVwhen
p4193
g3407
(g3411
S'\xe2\x00\x00\x00\x00\x00\x00\x00'
p4194
tp4195
Rp4196
sVfeature
p4197
g3407
(g3411
S'E\x00\x00\x00\x00\x00\x00\x00'
p4198
tp4199
Rp4200
sVsame
p4201
g3407
(g3411
S'\xaa\x00\x00\x00\x00\x00\x00\x00'
p4202
tp4203
Rp4204
sVevent
p4205
g3407
(g3411
S'@\x00\x00\x00\x00\x00\x00\x00'
p4206
tp4207
Rp4208
sVbeside
p4209
g3407
(g3411
S'\x15\x00\x00\x00\x00\x00\x00\x00'
p4210
tp4211
Rp4212
sVhow
p4213
g3407
(g3411
S'b\x00\x00\x00\x00\x00\x00\x00'
p4214
tp4215
Rp4216
sVhot
p4217
g3407
(g3411
S'a\x00\x00\x00\x00\x00\x00\x00'
p4218
tp4219
Rp4220
sVanswer
p4221
g3407
(g3411
S'\n\x00\x00\x00\x00\x00\x00\x00'
p4222
tp4223
Rp4224
sVyou
p4225
g3407
(g3411
S'\xe8\x00\x00\x00\x00\x00\x00\x00'
p4226
tp4227
Rp4228
sVdocument
p4229
g3407
(g3411
S'6\x00\x00\x00\x00\x00\x00\x00'
p4230
tp4231
Rp4232
sVevents
p4233
g3407
(g3411
S'A\x00\x00\x00\x00\x00\x00\x00'
p4234
tp4235
Rp4236
sVhigher
p4237
g3407
(g3411
S'`\x00\x00\x00\x00\x00\x00\x00'
p4238
tp4239
Rp4240
sVweek
p4241
g3407
(g3411
S'\xdf\x00\x00\x00\x00\x00\x00\x00'
p4242
tp4243
Rp4244
sVplay
p4245
g3407
(g3411
S'\x92\x00\x00\x00\x00\x00\x00\x00'
p4246
tp4247
Rp4248
sVokay
p4249
g3407
(g3411
S'\x8b\x00\x00\x00\x00\x00\x00\x00'
p4250
tp4251
Rp4252
sVhey
p4253
g3407
(g3411
S'_\x00\x00\x00\x00\x00\x00\x00'
p4254
tp4255
Rp4256
sVsee
p4257
g3407
(g3411
S'\xaf\x00\x00\x00\x00\x00\x00\x00'
p4258
tp4259
Rp4260
sVany
p4261
g3407
(g3411
S'\x0b\x00\x00\x00\x00\x00\x00\x00'
p4262
tp4263
Rp4264
sVstop
p4265
g3407
(g3411
S'\xc0\x00\x00\x00\x00\x00\x00\x00'
p4266
tp4267
Rp4268
sVbackbone
p4269
g3407
(g3411
S'\x10\x00\x00\x00\x00\x00\x00\x00'
p4270
tp4271
Rp4272
sVproblems
p4273
g3407
(g3411
S'\x9a\x00\x00\x00\x00\x00\x00\x00'
p4274
tp4275
Rp4276
sVquieter
p4277
g3407
(g3411
S'\x9f\x00\x00\x00\x00\x00\x00\x00'
p4278
tp4279
Rp4280
sVrain
p4281
g3407
(g3411
S'\xa0\x00\x00\x00\x00\x00\x00\x00'
p4282
tp4283
Rp4284
sVfreezing
p4285
g3407
(g3411
S'M\x00\x00\x00\x00\x00\x00\x00'
p4286
tp4287
Rp4288
sVnoise
p4289
g3407
(g3411
S'\x87\x00\x00\x00\x00\x00\x00\x00'
p4290
tp4291
Rp4292
sVtune
p4293
g3407
(g3411
S'\xd3\x00\x00\x00\x00\x00\x00\x00'
p4294
tp4295
Rp4296
sVgrief
p4297
g3407
(g3411
S'[\x00\x00\x00\x00\x00\x00\x00'
p4298
tp4299
Rp4300
sVlower
p4301
g3407
(g3411
S'u\x00\x00\x00\x00\x00\x00\x00'
p4302
tp4303
Rp4304
sVdon
p4305
g3407
(g3411
S'8\x00\x00\x00\x00\x00\x00\x00'
p4306
tp4307
Rp4308
sVusing
p4309
g3407
(g3411
S'\xd9\x00\x00\x00\x00\x00\x00\x00'
p4310
tp4311
Rp4312
sVread
p4313
g3407
(g3411
S'\xa4\x00\x00\x00\x00\x00\x00\x00'
p4314
tp4315
Rp4316
sVgather
p4317
g3407
(g3411
S'P\x00\x00\x00\x00\x00\x00\x00'
p4318
tp4319
Rp4320
sVtale
p4321
g3407
(g3411
S'\xc3\x00\x00\x00\x00\x00\x00\x00'
p4322
tp4323
Rp4324
sVoff
p4325
g3407
(g3411
S'\x8a\x00\x00\x00\x00\x00\x00\x00'
p4326
tp4327
Rp4328
sVtime
p4329
g3407
(g3411
S'\xcb\x00\x00\x00\x00\x00\x00\x00'
p4330
tp4331
Rp4332
sVnewsfeed
p4333
g3407
(g3411
S'\x84\x00\x00\x00\x00\x00\x00\x00'
p4334
tp4335
Rp4336
sVthe
p4337
g3407
(g3411
S'\xc6\x00\x00\x00\x00\x00\x00\x00'
p4338
tp4339
Rp4340
sVincrease
p4341
g3407
(g3411
S'g\x00\x00\x00\x00\x00\x00\x00'
p4342
tp4343
Rp4344
sVplaying
p4345
g3407
(g3411
S'\x93\x00\x00\x00\x00\x00\x00\x00'
p4346
tp4347
Rp4348
sVdot
p4349
g3407
(g3411
S'9\x00\x00\x00\x00\x00\x00\x00'
p4350
tp4351
Rp4352
sVlatest
p4353
g3407
(g3411
S'p\x00\x00\x00\x00\x00\x00\x00'
p4354
tp4355
Rp4356
ssS'binary'
p4357
I00
sS'ngram_range'
p4358
(I1
I1
tp4359
sg3381
g3382
sS'max_df'
p4360
F1.0
sS'min_df'
p4361
I1
sS'max_features'
p4362
NsS'fixed_vocabulary_'
p4363
I00
sS'strip_accents'
p4364
NsS'dtype'
p4365
cnumpy
int64
p4366
sS'stop_words_'
p4367
c__builtin__
set
p4368
((lp4369
tp4370
Rp4371
sS'preprocessor'
p4372
Nsbtp4373
a(S'tfidf'
p4374
g3375
(csklearn.feature_extraction.text
TfidfTransformer
p4375
g3377
Ntp4376
Rp4377
(dp4378
S'smooth_idf'
p4379
I01
sg3381
g3382
sS'_idf_diag'
p4380
g3375
(cscipy.sparse.csr
csr_matrix
p4381
g3377
Ntp4382
Rp4383
(dp4384
S'indices'
p4385
cnumpy.core.multiarray
_reconstruct
p4386
(cnumpy
ndarray
p4387
(I0
tp4388
S'b'
p4389
tp4390
Rp4391
(I1
(I236
tp4392
g3408
(S'i4'
p4393
I0
I1
tp4394
Rp4395
(I3
S'<'
p4396
NNNI-1
I-1
I0
tp4397
bI00
S'\x00\x00\x00\x00\x01\x00\x00\x00\x02\x00\x00\x00\x03\x00\x00\x00\x04\x00\x00\x00\x05\x00\x00\x00\x06\x00\x00\x00\x07\x00\x00\x00\x08\x00\x00\x00\t\x00\x00\x00\n\x00\x00\x00\x0b\x00\x00\x00\x0c\x00\x00\x00\r\x00\x00\x00\x0e\x00\x00\x00\x0f\x00\x00\x00\x10\x00\x00\x00\x11\x00\x00\x00\x12\x00\x00\x00\x13\x00\x00\x00\x14\x00\x00\x00\x15\x00\x00\x00\x16\x00\x00\x00\x17\x00\x00\x00\x18\x00\x00\x00\x19\x00\x00\x00\x1a\x00\x00\x00\x1b\x00\x00\x00\x1c\x00\x00\x00\x1d\x00\x00\x00\x1e\x00\x00\x00\x1f\x00\x00\x00 \x00\x00\x00!\x00\x00\x00"\x00\x00\x00#\x00\x00\x00$\x00\x00\x00%\x00\x00\x00&\x00\x00\x00\'\x00\x00\x00(\x00\x00\x00)\x00\x00\x00*\x00\x00\x00+\x00\x00\x00,\x00\x00\x00-\x00\x00\x00.\x00\x00\x00/\x00\x00\x000\x00\x00\x001\x00\x00\x002\x00\x00\x003\x00\x00\x004\x00\x00\x005\x00\x00\x006\x00\x00\x007\x00\x00\x008\x00\x00\x009\x00\x00\x00:\x00\x00\x00;\x00\x00\x00<\x00\x00\x00=\x00\x00\x00>\x00\x00\x00?\x00\x00\x00@\x00\x00\x00A\x00\x00\x00B\x00\x00\x00C\x00\x00\x00D\x00\x00\x00E\x00\x00\x00F\x00\x00\x00G\x00\x00\x00H\x00\x00\x00I\x00\x00\x00J\x00\x00\x00K\x00\x00\x00L\x00\x00\x00M\x00\x00\x00N\x00\x00\x00O\x00\x00\x00P\x00\x00\x00Q\x00\x00\x00R\x00\x00\x00S\x00\x00\x00T\x00\x00\x00U\x00\x00\x00V\x00\x00\x00W\x00\x00\x00X\x00\x00\x00Y\x00\x00\x00Z\x00\x00\x00[\x00\x00\x00\\\x00\x00\x00]\x00\x00\x00^\x00\x00\x00_\x00\x00\x00`\x00\x00\x00a\x00\x00\x00b\x00\x00\x00c\x00\x00\x00d\x00\x00\x00e\x00\x00\x00f\x00\x00\x00g\x00\x00\x00h\x00\x00\x00i\x00\x00\x00j\x00\x00\x00k\x00\x00\x00l\x00\x00\x00m\x00\x00\x00n\x00\x00\x00o\x00\x00\x00p\x00\x00\x00q\x00\x00\x00r\x00\x00\x00s\x00\x00\x00t\x00\x00\x00u\x00\x00\x00v\x00\x00\x00w\x00\x00\x00x\x00\x00\x00y\x00\x00\x00z\x00\x00\x00{\x00\x00\x00|\x00\x00\x00}\x00\x00\x00~\x00\x00\x00\x7f\x00\x00\x00\x80\x00\x00\x00\x81\x00\x00\x00\x82\x00\x00\x00\x83\x00\x00\x00\x84\x00\x00\x00\x85\x00\x00\x00\x86\x00\x00\x00\x87\x00\x00\x00\x88\x00\x00\x00\x89\x00\x00\x00\x8a\x00\x00\x00\x8b\x00\x00\x00\x8c\x00\x00\x00\x8d\x00\x00\x00\x8e\x00\x00\x00\x8f\x00\x00\x00\x90\x00\x00\x00\x91\x00\x00\x00\x92\x00\x00\x00\x93\x00\x00\x00\x94\x00\x00\x00\x95\x00\x00\x00\x96\x00\x00\x00\x97\x00\x00\x00\x98\x00\x00\x00\x99\x00\x00\x00\x9a\x00\x00\x00\x9b\x00\x00\x00\x9c\x00\x00\x00\x9d\x00\x00\x00\x9e\x00\x00\x00\x9f\x00\x00\x00\xa0\x00\x00\x00\xa1\x00\x00\x00\xa2\x00\x00\x00\xa3\x00\x00\x00\xa4\x00\x00\x00\xa5\x00\x00\x00\xa6\x00\x00\x00\xa7\x00\x00\x00\xa8\x00\x00\x00\xa9\x00\x00\x00\xaa\x00\x00\x00\xab\x00\x00\x00\xac\x00\x00\x00\xad\x00\x00\x00\xae\x00\x00\x00\xaf\x00\x00\x00\xb0\x00\x00\x00\xb1\x00\x00\x00\xb2\x00\x00\x00\xb3\x00\x00\x00\xb4\x00\x00\x00\xb5\x00\x00\x00\xb6\x00\x00\x00\xb7\x00\x00\x00\xb8\x00\x00\x00\xb9\x00\x00\x00\xba\x00\x00\x00\xbb\x00\x00\x00\xbc\x00\x00\x00\xbd\x00\x00\x00\xbe\x00\x00\x00\xbf\x00\x00\x00\xc0\x00\x00\x00\xc1\x00\x00\x00\xc2\x00\x00\x00\xc3\x00\x00\x00\xc4\x00\x00\x00\xc5\x00\x00\x00\xc6\x00\x00\x00\xc7\x00\x00\x00\xc8\x00\x00\x00\xc9\x00\x00\x00\xca\x00\x00\x00\xcb\x00\x00\x00\xcc\x00\x00\x00\xcd\x00\x00\x00\xce\x00\x00\x00\xcf\x00\x00\x00\xd0\x00\x00\x00\xd1\x00\x00\x00\xd2\x00\x00\x00\xd3\x00\x00\x00\xd4\x00\x00\x00\xd5\x00\x00\x00\xd6\x00\x00\x00\xd7\x00\x00\x00\xd8\x00\x00\x00\xd9\x00\x00\x00\xda\x00\x00\x00\xdb\x00\x00\x00\xdc\x00\x00\x00\xdd\x00\x00\x00\xde\x00\x00\x00\xdf\x00\x00\x00\xe0\x00\x00\x00\xe1\x00\x00\x00\xe2\x00\x00\x00\xe3\x00\x00\x00\xe4\x00\x00\x00\xe5\x00\x00\x00\xe6\x00\x00\x00\xe7\x00\x00\x00\xe8\x00\x00\x00\xe9\x00\x00\x00\xea\x00\x00\x00\xeb\x00\x00\x00'
p4398
tp4399
bsS'indptr'
p4400
g4386
(g4387
(I0
tp4401
g4389
tp4402
Rp4403
(I1
(I237
tp4404
g4395
I00
S'\x00\x00\x00\x00\x01\x00\x00\x00\x02\x00\x00\x00\x03\x00\x00\x00\x04\x00\x00\x00\x05\x00\x00\x00\x06\x00\x00\x00\x07\x00\x00\x00\x08\x00\x00\x00\t\x00\x00\x00\n\x00\x00\x00\x0b\x00\x00\x00\x0c\x00\x00\x00\r\x00\x00\x00\x0e\x00\x00\x00\x0f\x00\x00\x00\x10\x00\x00\x00\x11\x00\x00\x00\x12\x00\x00\x00\x13\x00\x00\x00\x14\x00\x00\x00\x15\x00\x00\x00\x16\x00\x00\x00\x17\x00\x00\x00\x18\x00\x00\x00\x19\x00\x00\x00\x1a\x00\x00\x00\x1b\x00\x00\x00\x1c\x00\x00\x00\x1d\x00\x00\x00\x1e\x00\x00\x00\x1f\x00\x00\x00 \x00\x00\x00!\x00\x00\x00"\x00\x00\x00#\x00\x00\x00$\x00\x00\x00%\x00\x00\x00&\x00\x00\x00\'\x00\x00\x00(\x00\x00\x00)\x00\x00\x00*\x00\x00\x00+\x00\x00\x00,\x00\x00\x00-\x00\x00\x00.\x00\x00\x00/\x00\x00\x000\x00\x00\x001\x00\x00\x002\x00\x00\x003\x00\x00\x004\x00\x00\x005\x00\x00\x006\x00\x00\x007\x00\x00\x008\x00\x00\x009\x00\x00\x00:\x00\x00\x00;\x00\x00\x00<\x00\x00\x00=\x00\x00\x00>\x00\x00\x00?\x00\x00\x00@\x00\x00\x00A\x00\x00\x00B\x00\x00\x00C\x00\x00\x00D\x00\x00\x00E\x00\x00\x00F\x00\x00\x00G\x00\x00\x00H\x00\x00\x00I\x00\x00\x00J\x00\x00\x00K\x00\x00\x00L\x00\x00\x00M\x00\x00\x00N\x00\x00\x00O\x00\x00\x00P\x00\x00\x00Q\x00\x00\x00R\x00\x00\x00S\x00\x00\x00T\x00\x00\x00U\x00\x00\x00V\x00\x00\x00W\x00\x00\x00X\x00\x00\x00Y\x00\x00\x00Z\x00\x00\x00[\x00\x00\x00\\\x00\x00\x00]\x00\x00\x00^\x00\x00\x00_\x00\x00\x00`\x00\x00\x00a\x00\x00\x00b\x00\x00\x00c\x00\x00\x00d\x00\x00\x00e\x00\x00\x00f\x00\x00\x00g\x00\x00\x00h\x00\x00\x00i\x00\x00\x00j\x00\x00\x00k\x00\x00\x00l\x00\x00\x00m\x00\x00\x00n\x00\x00\x00o\x00\x00\x00p\x00\x00\x00q\x00\x00\x00r\x00\x00\x00s\x00\x00\x00t\x00\x00\x00u\x00\x00\x00v\x00\x00\x00w\x00\x00\x00x\x00\x00\x00y\x00\x00\x00z\x00\x00\x00{\x00\x00\x00|\x00\x00\x00}\x00\x00\x00~\x00\x00\x00\x7f\x00\x00\x00\x80\x00\x00\x00\x81\x00\x00\x00\x82\x00\x00\x00\x83\x00\x00\x00\x84\x00\x00\x00\x85\x00\x00\x00\x86\x00\x00\x00\x87\x00\x00\x00\x88\x00\x00\x00\x89\x00\x00\x00\x8a\x00\x00\x00\x8b\x00\x00\x00\x8c\x00\x00\x00\x8d\x00\x00\x00\x8e\x00\x00\x00\x8f\x00\x00\x00\x90\x00\x00\x00\x91\x00\x00\x00\x92\x00\x00\x00\x93\x00\x00\x00\x94\x00\x00\x00\x95\x00\x00\x00\x96\x00\x00\x00\x97\x00\x00\x00\x98\x00\x00\x00\x99\x00\x00\x00\x9a\x00\x00\x00\x9b\x00\x00\x00\x9c\x00\x00\x00\x9d\x00\x00\x00\x9e\x00\x00\x00\x9f\x00\x00\x00\xa0\x00\x00\x00\xa1\x00\x00\x00\xa2\x00\x00\x00\xa3\x00\x00\x00\xa4\x00\x00\x00\xa5\x00\x00\x00\xa6\x00\x00\x00\xa7\x00\x00\x00\xa8\x00\x00\x00\xa9\x00\x00\x00\xaa\x00\x00\x00\xab\x00\x00\x00\xac\x00\x00\x00\xad\x00\x00\x00\xae\x00\x00\x00\xaf\x00\x00\x00\xb0\x00\x00\x00\xb1\x00\x00\x00\xb2\x00\x00\x00\xb3\x00\x00\x00\xb4\x00\x00\x00\xb5\x00\x00\x00\xb6\x00\x00\x00\xb7\x00\x00\x00\xb8\x00\x00\x00\xb9\x00\x00\x00\xba\x00\x00\x00\xbb\x00\x00\x00\xbc\x00\x00\x00\xbd\x00\x00\x00\xbe\x00\x00\x00\xbf\x00\x00\x00\xc0\x00\x00\x00\xc1\x00\x00\x00\xc2\x00\x00\x00\xc3\x00\x00\x00\xc4\x00\x00\x00\xc5\x00\x00\x00\xc6\x00\x00\x00\xc7\x00\x00\x00\xc8\x00\x00\x00\xc9\x00\x00\x00\xca\x00\x00\x00\xcb\x00\x00\x00\xcc\x00\x00\x00\xcd\x00\x00\x00\xce\x00\x00\x00\xcf\x00\x00\x00\xd0\x00\x00\x00\xd1\x00\x00\x00\xd2\x00\x00\x00\xd3\x00\x00\x00\xd4\x00\x00\x00\xd5\x00\x00\x00\xd6\x00\x00\x00\xd7\x00\x00\x00\xd8\x00\x00\x00\xd9\x00\x00\x00\xda\x00\x00\x00\xdb\x00\x00\x00\xdc\x00\x00\x00\xdd\x00\x00\x00\xde\x00\x00\x00\xdf\x00\x00\x00\xe0\x00\x00\x00\xe1\x00\x00\x00\xe2\x00\x00\x00\xe3\x00\x00\x00\xe4\x00\x00\x00\xe5\x00\x00\x00\xe6\x00\x00\x00\xe7\x00\x00\x00\xe8\x00\x00\x00\xe9\x00\x00\x00\xea\x00\x00\x00\xeb\x00\x00\x00\xec\x00\x00\x00'
p4405
tp4406
bsS'maxprint'
p4407
I50
sS'_shape'
p4408
(I236
I236
tp4409
sg12
g4386
(g4387
(I0
tp4410
g4389
tp4411
Rp4412
(I1
(I236
tp4413
g3408
(S'f8'
p4414
I0
I1
tp4415
Rp4416
(I3
S'<'
p4417
NNNI-1
I-1
I0
tp4418
bI00
S"_\x10\xd1\xe7\x00\xef\x1e@\x8d\xb3\t+\xbe\xdf\x16@\xbe\xf3\x92\xd04C\x13@_\x10\xd1\xe7\x00\xef\x1e@\x07\xc1#\x9c,\xec\x19@!\xc9\xf1\x878)\x1c@^\x88F\xe9=\xc4\x17@_\x10\xd1\xe7\x00\xef\x1e@\xf0\xc1g#b\xf8\x13@\xc9\xb6\xce\xe4\xe5'\x13@_\x10\xd1\xe7\x00\xef\x1e@X\xd77J\x97-\x10@\xb5,\xb9R<+\x0b@{-2\xac\xc6\x91\x12@\xa5:3\xc8\xa7\x9d\x16@\x07\xc1#\x9c,\xec\x19@_\x10\xd1\xe7\x00\xef\x1e@\xda\x16\x05\xa9\xceO\x1d@\x12\xad\xd5i\xf0~\x18@_\x10\xd1\xe7\x00\xef\x1e@\xda\x16\x05\xa9\xceO\x1d@\xda\x16\x05\xa9\xceO\x1d@_\x10\xd1\xe7\x00\xef\x1e@_\x10\xd1\xe7\x00\xef\x1e@\x8eX\xc9\xe1\xac<\x14@!\xc9\xf1\x878)\x1c@\x9c\xcf%I\x06\x8a\x1a@_\x10\xd1\xe7\x00\xef\x1e@\x83 \xe2y\x9e\x07\x0e@\x98\x96\xfd8\x8a_\n@_\x10\xd1\xe7\x00\xef\x1e@_\x10\xd1\xe7\x00\xef\x1e@\\;l\x91\x0c\r\x07@_\x10\xd1\xe7\x00\xef\x1e@!Ag\x89u\xfe\x14@\xb9t\x11\x0c\x8fW\x15@\x18\xd6Y\n\xd4\xea\x18@\x18\xd6Y\n\xd4\xea\x18@P\xf4\xb4\xc9\xb8D\x1b@_\x10\xd1\xe7\x00\xef\x1e@N\xeb\x85|\xd3\x9a\x11@\x1aW\xfeX\xf6i\x0f@\xbe\xf3\x92\xd04C\x13@\xb6'\x8e\x14[\x8b\x10@_\x10\xd1\xe7\x00\xef\x1e@\xa2\xd0\xd3\x06\xcb\x99\x13@_\x10\xd1\xe7\x00\xef\x1e@_\x10\xd1\xe7\x00\xef\x1e@\xda\x16\x05\xa9\xceO\x1d@\xda\x16\x05\xa9\xceO\x1d@\xf7\xbb\xf0kW\x1d\x18@_\x10\xd1\xe7\x00\xef\x1e@_\x10\xd1\xe7\x00\xef\x1e@\xdfs\xbaI>\x9b\t@_\x10\xd1\xe7\x00\xef\x1e@_\x10\xd1\xe7\x00\xef\x1e@\x8bo\xef\x84\x1db\x10@\x8d\xb3\t+\xbe\xdf\x16@\xbe\xf3\x92\xd04C\x13@\xda\x16\x05\xa9\xceO\x1d@_\x10\xd1\xe7\x00\xef\x1e@\xda\x16\x05\xa9\xceO\x1d@\xda\x16\x05\xa9\xceO\x1d@_\x10\xd1\xe7\x00\xef\x1e@\x81\xea\x9b\xc78\x99\x0b@\xcf/\x94\x9e\x98\x90\n@P\xf4\xb4\xc9\xb8D\x1b@_\x10\xd1\xe7\x00\xef\x1e@_\x10\xd1\xe7\x00\xef\x1e@_\x10\xd1\xe7\x00\xef\x1e@_\x10\xd1\xe7\x00\xef\x1e@D\x80x\xfd1\x87\x15@t\x91\x172Gr\x17@\x18\xd6Y\n\xd4\xea\x18@\xb2\r\xe0W\x91\xf4\r@D\x80x\xfd1\x87\x15@\xf0\xc1g#b\xf8\x13@\x18\xd6Y\n\xd4\xea\x18@Pl*\xcb\xf5\x19\x14@_\x10\xd1\xe7\x00\xef\x1e@!\xc9\xf1\x878)\x1c@\x8bo\xef\x84\x1db\x10@_\x10\xd1\xe7\x00\xef\x1e@\x12\xad\xd5i\xf0~\x18@\xf7e\xcfct\xbc\r@\x03\x91\xb9K\xa8\xd4\x14@P\xf4\xb4\xc9\xb8D\x1b@\x07\xc1#\x9c,\xec\x19@\xf8\x02Yr\xb6\xe6\x11@_\x10\xd1\xe7\x00\xef\x1e@\xda\x16\x05\xa9\xceO\x1d@_\x10\xd1\xe7\x00\xef\x1e@\xda\x16\x05\xa9\xceO\x1d@-\x141\\\xe2\x10\t@\xda\x8ez\xaa\x0b%\x16@\xda\x16\x05\xa9\xceO\x1d@\xe3\x81\x12(pc\x19@\x18\xd6Y\n\xd4\xea\x18@t\x91\x172Gr\x17@q*\x97\xf0\x8f#\x12@_\x10\xd1\xe7\x00\xef\x1e@\x9aP J\xaa8\x0b@\x1csM\xba\xe4\x07\x10@_\x10\xd1\xe7\x00\xef\x1e@P\xf4\xb4\xc9\xb8D\x1b@!\xc9\xf1\x878)\x1c@_\x10\xd1\xe7\x00\xef\x1e@,sX\xe7\t\xc4\x0b@_\x10\xd1\xe7\x00\xef\x1e@\xbd\xf5\x15\rUS\x0f@7J8\xd2~\xac\x14@t\x91\x172Gr\x17@\x9c\xcf%I\x06\x8a\x1a@_\x10\xd1\xe7\x00\xef\x1e@\xf0\xc1g#b\xf8\x13@7J8\xd2~\xac\x14@\x9c\xcf%I\x06\x8a\x1a@\x07\xc1#\x9c,\xec\x19@\x1fHM9\x16\xaa\r@B\xdf\xe7/<N\x12@_\x10\xd1\xe7\x00\xef\x1e@v\x01\xe9\xa4\x16\xda\x12@_\x10\xd1\xe7\x00\xef\x1e@Pl*\xcb\xf5\x19\x14@Pl*\xcb\xf5\x19\x14@\xda\x16\x05\xa9\xceO\x1d@\xda\x16\x05\xa9\xceO\x1d@P\xf4\xb4\xc9\xb8D\x1b@S<\xdbM\x0c\xd4\x08@\xda\x16\x05\xa9\xceO\x1d@1\xa6\xce\xf9\x80;\n@\xb6'\x8e\x14[\x8b\x10@\xd4e\xf6\t(\xb9\x15@\xbe\xf3\x92\xd04C\x13@\xda\x16\x05\xa9\xceO\x1d@_\x10\xd1\xe7\x00\xef\x1e@\x18\xd6Y\n\xd4\xea\x18@\xda\x16\x05\xa9\xceO\x1d@\xc9\xb6\xce\xe4\xe5'\x13@\xda\x16\x05\xa9\xceO\x1d@\x8a\x83\x9f\xda9\xc8\x05@\xe3t4]\xc4\xa6\x0e@\xda\x16\x05\xa9\xceO\x1d@_\x10\xd1\xe7\x00\xef\x1e@_\x10\xd1\xe7\x00\xef\x1e@\xe0\x17\xb3f\x93_\x16@\xc9yD<d&\x17@\xda\x16\x05\xa9\xceO\x1d@\xe9\xe1\x02\xdf\xc0\xb7\x00@\xda\x16\x05\xa9\xceO\x1d@\xda\x16\x05\xa9\xceO\x1d@_\x10\xd1\xe7\x00\xef\x1e@\x07\xc1#\x9c,\xec\x19@_\x10\xd1\xe7\x00\xef\x1e@_\x10\xd1\xe7\x00\xef\x1e@P\xf4\xb4\xc9\xb8D\x1b@P\xf4\xb4\xc9\xb8D\x1b@_\x10\xd1\xe7\x00\xef\x1e@\xda\x16\x05\xa9\xceO\x1d@_\x10\xd1\xe7\x00\xef\x1e@\xda\x16\x05\xa9\xceO\x1d@\x18\xd6Y\n\xd4\xea\x18@\x18\xd6Y\n\xd4\xea\x18@\xf7\xbb\xf0kW\x1d\x18@\xa5:3\xc8\xa7\x9d\x16@_\x10\xd1\xe7\x00\xef\x1e@_\x10\xd1\xe7\x00\xef\x1e@\x12\xad\xd5i\xf0~\x18@\x9c\xcf%I\x06\x8a\x1a@_\x10\xd1\xe7\x00\xef\x1e@_\x10\xd1\xe7\x00\xef\x1e@Pl*\xcb\xf5\x19\x14@\xbe\xf3\x92\xd04C\x13@\x8d\xb3\t+\xbe\xdf\x16@\xb9t\x11\x0c\x8fW\x15@!\xc9\xf1\x878)\x1c@\x9c\xcf%I\x06\x8a\x1a@!\xc9\xf1\x878)\x1c@_\x10\xd1\xe7\x00\xef\x1e@\xbe\xf3\x92\xd04C\x13@\xe0\x17\xb3f\x93_\x16@_\x10\xd1\xe7\x00\xef\x1e@\x9c\xcf%I\x06\x8a\x1a@\xda\x16\x05\xa9\xceO\x1d@\x18\xd6Y\n\xd4\xea\x18@\xda\x16\x05\xa9\xceO\x1d@\x9cG\x9bJC_\x13@D\x80x\xfd1\x87\x15@N\xeb\x85|\xd3\x9a\x11@_\x10\xd1\xe7\x00\xef\x1e@7J8\xd2~\xac\x14@_\x10\xd1\xe7\x00\xef\x1e@^\x88F\xe9=\xc4\x17@Pl*\xcb\xf5\x19\x14@\xda\x16\x05\xa9\xceO\x1d@_\x10\xd1\xe7\x00\xef\x1e@^\x88F\xe9=\xc4\x17@D\x80x\xfd1\x87\x15@\xf6\xabG+I\xc6\x06@(.\x1c\xb46\x02\x11@_\x10\xd1\xe7\x00\xef\x1e@\x1fHM9\x16\xaa\r@Pl*\xcb\xf5\x19\x14@\x069\x99\x9di\xc1\x12@]\xd3\xd7\xa3*}\x0b@\x83 \xe2y\x9e\x07\x0e@P\xf4\xb4\xc9\xb8D\x1b@h\xf3Sh\xdf\xd7\x13@_\x10\xd1\xe7\x00\xef\x1e@_\x10\xd1\xe7\x00\xef\x1e@Pl*\xcb\xf5\x19\x14@\x07\xc1#\x9c,\xec\x19@\xda\x16\x05\xa9\xceO\x1d@\x07\xc1#\x9c,\xec\x19@t\t\x8d3\x84G\x10@P\xf4\xb4\xc9\xb8D\x1b@\xc9\xb6\xce\xe4\xe5'\x13@_\x10\xd1\xe7\x00\xef\x1e@7J8\xd2~\xac\x14@\x07\xc1#\x9c,\xec\x19@_\x10\xd1\xe7\x00\xef\x1e@D\x80x\xfd1\x87\x15@Pl*\xcb\xf5\x19\x14@\x1csM\xba\xe4\x07\x10@\xf6JO[\x07\xce\x06@\xda\x16\x05\xa9\xceO\x1d@\xda\x16\x05\xa9\xceO\x1d@\xaaX\xf5\xedF\xad\x11@\x069\x99\x9di\xc1\x12@\xda\x16\x05\xa9\xceO\x1d@\x94\xe1\xa5<Q\xa9\x12@\xda\x16\x05\xa9\xceO\x1d@Y\x9e+\xac\xae\x86\x04@\x07\xc1#\x9c,\xec\x19@\x18\xd6Y\n\xd4\xea\x18@P\xf4\xb4\xc9\xb8D\x1b@"
p4419
tp4420
bsbsS'use_idf'
p4421
I01
sS'sublinear_tf'
p4422
I00
sS'norm'
p4423
Vl2
p4424
sbtp4425
a(S'clsfr'
p4426
g3375
(csklearn.linear_model.stochastic_gradient
SGDClassifier
p4427
g3377
Ntp4428
Rp4429
(dp4430
S't_'
p4431
F8396.0
sS'n_jobs'
p4432
I1
sS'shuffle'
p4433
I01
sS'verbose'
p4434
I0
sS'classes_'
p4435
g4386
(g4387
(I0
tp4436
g4389
tp4437
Rp4438
(I1
(I2
tp4439
g3408
(S'S5'
p4440
I0
I1
tp4441
Rp4442
(I3
S'|'
p4443
NNNI5
I1
I0
tp4444
bI00
S'FalseTrue\x00'
p4445
tp4446
bsS'class_weight'
p4447
NsS'fit_intercept'
p4448
I01
sg8
g9
sS'random_state'
p4449
I42
sg3381
g3382
sS'loss_function'
p4450
csklearn.linear_model.sgd_fast
Hinge
p4451
(F1.0
tp4452
Rp4453
sS'C'
p4454
F1.0
sg7
I5
sS'epsilon'
p4455
F0.1
sS'learning_rate'
p4456
S'optimal'
p4457
sS'coef_'
p4458
g4386
(g4387
(I0
tp4459
g4389
tp4460
Rp4461
(I1
(I1
I236
tp4462
g4416
I00
S'\x00\x00\x00\x00\x00\x00\x00\x00\x00\x00\x00\x00\x00\x00\x00\x00\x00\x00\x00\x00\x00\x00\x00\x00\xcf`\xddP\x13\xb0\xeb\xbf\x00\x00\x00\x00\x00\x00\x00\x00h\xc2s\xd1\x00\xe3\xf7\xbfz\xa2\xc7\xc5\xc4\x07\xa3\xbf\x00\x00\x00\x00\x00\x00\x00\x00\x8a"\t\x8em\xe6\x08\xc0`\xc0f#k\x86\xe0\xbf\xde\xbaR_q\xaf\xea\xbf\xcb_"M\x97L\x00\xc0x\x16q\xb34v\x03\xc0\x95\xa4\xcf\xbc[\xb5\x02\xc0\x00\x00\x00\x00\x00\x00\x00\x00\x00\x00\x00\x00\x00\x00\x00\x00\x00\x00\x00\x00\x00\x00\x00\x00`J\xc7TF\x8a\xec\xbf\x00\x00\x00\x00\x00\x00\x00\x00\x00\x00\x00\x00\x00\x00\x00\x00\x00\x00\x00\x00\x00\x00\x00\x00\x00\x00\x00\x00\x00\x00\x00\x00\xda\xde\x07\x906\x1a\x04\xc0\xba\x0c\xab\xc7.6\xf3\xbf\xb70\x08+\xcf\xed\x05\xc0\x00\x00\x00\x00\x00\x00\x00\x00\x11\x9e\xfe\xb0h\xd0\x05@]Z\xc6I&\xe0\x02@\x00\x00\x00\x00\x00\x00\x00\x00\xf0\xa8<\xfd\xf4V\xf8?\x00\x00\x00\x00\x00\x00\x00\x00\x00\x00\x00\x00\x00\x00\x00\x00\xf3:\x83sL\x81\x01\xc0\x00\x00\x00\x00\x00\x00\x00\x00\x14\x89.B\xea\x0f\x05\xc0\x00\x00\x00\x00\x00\x00\x00\x00\x00\x00\x00\x00\x00\x00\x00\x00\x00\x00\x00\x00\x00\x00\x00\x00&lNg{\x05\x03\xc0\xdc\xb2r\xcd\x84\x8b\xf6\xbf\x00\x00\x00\x00\x00\x00\x00\x003\x9d6\xbd\xbe\xfd\x06\xc0\x00\x00\x00\x00\x00\x00\x00\x00,#\xcaTs\x11\xf3\xbf\x00\x00\x00\x00\x00\x00\x00\x00\x00\x00\x00\x00\x00\x00\x00\x00\x00\x00\x00\x00\x00\x00\x00\x00\x00\x00\x00\x00\x00\x00\x00\x00\x00\x00\x00\x00\x00\x00\x00\x00\x00\x00\x00\x00\x00\x00\x00\x00\x00\x00\x00\x00\x00\x00\x00\x00\x00\x00\x00\x00\x00\x00\x00\x00\xde\xbaR_q\xaf\xea\xbf\x00\x00\x00\x00\x00\x00\x00\x00\x00\x00\x00\x00\x00\x00\x00\x00\xd6\xea\xba\x88o\xa1\xe9\xbf\x00\x00\x00\x00\x00\x00\x00\x00@\xadU\xf3z\xe9\xff\xbf\xac\x1a\xd2\x1eR\xe6\xf9\xbf\n=\xfb!\xd4\xce\xfa?\xde\xbaR_q\xaf\xea\xbf\x00\x00\x00\x00\x00\x00\x00\x00\x00\x00\x00\x00\x00\x00\x00\x00l\x92w\xa2\xdb\xff\xf3?\xab\x85\x9e\x95\xe32\x04\xc0\xc73\xc0\xbf\x7f\xc3\xfa\xbf\x9b\x8d.\r^*\t@\x00\x00\x00\x00\x00\x00\x00\x00\x00\x00\x00\x00\x00\x00\x00\x00\x00\x00\x00\x00\x00\x00\x00\x00\x00\x00\x00\x00\x00\x00\x00\x00\x02W5\x19T\xe0\x0b\xc0\x01t\xc3\x0eX\x87\xf7\xbf\x00\x00\x00\x00\x00\x00\x00\x00\xe4\xa8\xd1\xd3\xda\x0c\xf6\xbfE\n\xe4\xf0 \xc8\t\xc0\x8a"\t\x8em\xe6\x08\xc0\x00\x00\x00\x00\x00\x00\x00\x00\x00\x00\x00\x00\x00\x00\x00\x00\x00\x00\x00\x00\x00\x00\x00\x00\x00\x00\x00\x00\x00\x00\x00\x00YxS\xb3\xde6\x05\xc0\x00\x00\x00\x00\x00\x00\x00\x00\x00\x00\x00\x00\x00\x00\x00\x00%JF\xc2\xf3\x94\x06\xc0U\xfc|<\xb6\x0f\xfd\xbf\x00\x00\x00\x00\x00\x00\x00\x00\x16G"\xf7\x16\xc1\xeb?\x14\xfd\x02V\xd7\x1a\xf4\xbf\x00\x00\x00\x00\x00\x00\x00\x00\x00\x00\x00\x00\x00\x00\x00\x00\x00\x00\x00\x00\x00\x00\x00\x00\x00\x00\x00\x00\x00\x00\x00\x00\x00\x00\x00\x00\x00\x00\x00\x00\xab\xfd\x9d\xcd\r\x89\xf7\xbf\x86\x9f\xa8f\x0fR\xf9\xbf\x00\x00\x00\x00\x00\x00\x00\x00\x00\x00\x00\x00\x00\x00\x00\x00\x00\x00\x00\x00\x00\x00\x00\x00\x00\x00\x00\x00\x00\x00\x00\x00\x00\x00\x00\x00\x00\x00\x00\x00\xa6\t\x8ef\xd3\x7f\x03\xc0\x07fSgp\xf7\x06\xc0\x00\x00\x00\x00\x00\x00\x00\x00\x00\x00\x00\x00\x00\x00\x00\x00\xe3\xaf#\xb3A{\xf5\xbf\x1d\xb7\xfc\n\xdf\xbf\xe2\xbf\x1fM\xd8\xab\xc2\x11\xfa\xbf\xdc\xb2r\xcd\x84\x8b\xf6\xbf\xc5\x92H{`i\xfd\xbf\xfc\xc4\xa2\xc5\xda\xd3\xf7\xbf\x00\x00\x00\x00\x00\x00\x00\x00\x00\x00\x00\x00\x00\x00\x00\x00\xd6\xea\xba\x88o\xa1\xe9\xbf\x00\x00\x00\x00\x00\x00\x00\x00\xcc\xe8\xb2]\xfaz\x11\xc0\x00\x00\x00\x00\x00\x00\x00\x00\x00\x00\x00\x00\x00\x00\x00\x00\x00\x00\x00\x00\x00\x00\x00\x00\x00\x00\x00\x00\x00\x00\x00\x00\x00\x00\x00\x00\x00\x00\x00\x00LF\x13\xc9\x86\x80\xf8\xbf\x00\x00\x00\x00\x00\x00\x00\x00\xady\x06Zz@\x04\xc0\x00\x00\x00\x00\x00\x00\x00\x00\xd8\xbaX\xab\x99[\xf3\xbf\x00\x00\x00\x00\x00\x00\x00\x00\x10\xe0\xb8\xe6\xe2\xbd\xf1\xbf\xd8\x12^<\xfe\xc8\x01\xc0\x00\x00\x00\x00\x00\x00\x00\x00\x00\x00\x00\x00\x00\x00\x00\x00\x7fy\xb0uEl\x05\xc0r\xdc\x0f\x91\xac\xcc\xf5\xbf\xfe\x00\xd9\x85\x86\x04\x08\xc0$X\x9c>k\x15\x08@\x00\x00\x00\x00\x00\x00\x00\x00QxE9\x1ae\x07\xc0\x00\x00\x00\x00\x00\x00\x00\x00gMfdO\xb7\xf1?3\xc5ZO\xd7\x97\xe1\xbf\xb5\x85<\xd5\x16\x82\x10\xc0h\x88\xb6\x94f\x9b\x00\xc0\x00\x00\x00\x00\x00\x00\x00\x00\x00\x00\x00\x00\x00\x00\x00\x00\x00\x00\x00\x00\x00\x00\x00\x00\x00\x00\x00\x00\x00\x00\x00\x00\xa4r\xa7\x9c\xd6\x05\xf4\xbf\xa32\xe8\xff\xe6\xc9\x0e\xc0\x88U\xb9\n7G\xfe\xbf\x00\x00\x00\x00\x00\x00\x00\x00\x00\x00\x00\x00\x00\x00\x00\x00\x00\x00\x00\x00\x00\x00\x00\x00\x00\x00\x00\x00\x00\x00\x00\x00\x00\x00\x00\x00\x00\x00\x00\x00\x00\x00\x00\x00\x00\x00\x00\x00\x00\x00\x00\x00\x00\x00\x00\x00\x00\x00\x00\x00\x00\x00\x00\x00\xde\xbaR_q\xaf\xea\xbf`J\xc7TF\x8a\xec\xbf\x00\x00\x00\x00\x00\x00\x00\x00\x00\x00\x00\x00\x00\x00\x00\x00\x00\x00\x00\x00\x00\x00\x00\x00\x00\x00\x00\x00\x00\x00\x00\x00\x00\x00\x00\x00\x00\x00\x00\x00T\x8ag\xd8\xe4N\xe7\xbf\x00\x00\x00\x00\x00\x00\x00\x00\x1d\xb7\xfc\n\xdf\xbf\xe2\xbf\x00\x00\x00\x00\x00\x00\x00\x00R\xecFz\xee\xea\x08\xc0\x00\x00\x00\x00\x00\x00\x00\x00\x00\x00\x00\x00\x00\x00\x00\x00\x00\x00\x00\x00\x00\x00\x00\x00\x85\xad\xd4F\x182\x0c\xc0\x00\x00\x00\x00\x00\x00\x00\x00\x02P\x87\x91{k\xff\xbf\x06R:\xb8\xdb\xe1\x05@\x00\x00\x00\x00\x00\x00\x00\x00\xfd\x8e7\x86La\xea\xbf\x00\x00\x00\x00\x00\x00\x00\x00\xac\x1a\xd2\x1eR\xe6\xf9\xbf\xc9\x8fM\x8b\x83`\xb3\xbf\x00\x00\x00\x00\x00\x00\x00\x00\xf9\x9d\xe6\x80\xc1-\xe4\xbf\x00\x00\x00\x00\x00\x00\x00\x00\x00\x00\x00\x00\x00\x00\x00\x00\x00\x00\x00\x00\x00\x00\x00\x00Ez\xf4\x1eZ\xc1\xf0\xbf\x00\x00\x00\x00\x00\x00\x00\x00\x9c2V\xbf\x01\xad\n\xc0\x00\x00\x00\x00\x00\x00\x00\x00|\xde\x07\xb9\x7fS\x0f\xc0\x00\x00\x00\x00\x00\x00\x00\x00j\x8ba#\xcf\xf6\x08\xc0\x00\x00\x00\x00\x00\x00\x00\x00\n=\xfb!\xd4\xce\xfa?\x00\x00\x00\x00\x00\x00\x00\x00\x00\x00\x00\x00\x00\x00\x00\x00\xb0i\xb5U\x97\x95\x10\xc0\xc2k\xb7VDF\xfb\xbf\x971\x1e#\xce"\x01\xc0\xde\xbaR_q\xaf\xea\xbff\xabf\xefH\xc3\x01\xc0\x00\x00\x00\x00\x00\x00\x00\x00f\xaa\x90\xcd\x0f\x9c\x01\xc0\xf8\x1d\x00\x10\xdb,\xf3\xbf7\x15\xd0:7"\x07\xc0\x00\x00\x00\x00\x00\x00\x00\x00\x00\x00\x00\x00\x00\x00\x00\x00\x00\x00\x00\x00\x00\x00\x00\x00\x00\x00\x00\x00\x00\x00\x00\x00\x00\x00\x00\x00\x00\x00\x00\x00\x00\x00\x00\x00\x00\x00\x00\x00\x00\x00\x00\x00\x00\x00\x00\x00\x00\x00\x00\x00\x00\x00\x00\x00\\\xf59\x90\xbdq\xee\xbfZ\xa3/3b0\xf1\xbfE\x93X\xb9\x11j\xd7\xbf\x00\x00\x00\x00\x00\x00\x00\x006\x06]B\xca]\xe3\xbf\x15\xbe\xfb\xc5S\xb7\xea\xbf\x00\x00\x00\x00\x00\x00\x00\x00`\xac_6!\xd4\xe3\xbf\x00\x00\x00\x00\x00\x00\x00\x00b\xc8]\x9f\xc32\x03\xc0\x9cG\xff\x1eq\\\x08\xc0\x00\x00\x00\x00\x00\x00\x00\x00\x00\x00\x00\x00\x00\x00\x00\x00\x00\x00\x00\x00\x00\x00\x00\x00@\xf3\xf4\xaa\xdb\x9d\xf5\xbf\x00\x00\x00\x00\x00\x00\x00\x00r\xeb\xd1\x84\xdbW\x0c\xc0\xa1w\x04\xf5C\x08\xf3?P\xf7\xfc\x99\xe6~\x00\xc0\x15\xbe\xfb\xc5S\xb7\xea\xbf!L\x8e\xae\xa29\x06@\x00\x00\x00\x00\x00\x00\x00\x00'
p4463
tp4464
bsg11
F0.001
sS'intercept_'
p4465
g4386
(g4387
(I0
tp4466
g4389
tp4467
Rp4468
(I1
(I1
tp4469
g4416
I00
S'O\xe3\x1e\x16\x1b|\xed\xbf'
p4470
tp4471
bsS'_expanded_class_weight'
p4472
g4386
(g4387
(I0
tp4473
g4389
tp4474
Rp4475
(I1
(I2
tp4476
g4416
I00
S'\x00\x00\x00\x00\x00\x00\xf0?\x00\x00\x00\x00\x00\x00\xf0?'
p4477
tp4478
bsS'warm_start'
p4479
I00
sg2
g3
sS'eta0'
p4480
F0.0
sS'l1_ratio'
p4481
F0.15
sS'average'
p4482
I00
sS'power_t'
p4483
F0.5
sbtp4484
asbsb.