(ialicized_models
CommandMatchingModel
p0
(dp1
S'loss'
p2
S'modified_huber'
p3
sS'grammar'
p4
NsS'name'
p5
S'EXIT_ALICE.model'
p6
sS'n_iter'
p7
I5
sS'penalty'
p8
S'none'
p9
sS'trained'
p10
I01
sS'alpha'
p11
F0.001
sS'data'
p12
(lp13
(S'briefing'
p14
S'False'
p15
tp16
a(S'hey alex'
p17
g15
tp18
a(S"don't i have to do anything today"
p19
g15
tp20
a(S'what is on my calendar for sunday'
p21
g15
tp22
a(S'can you shutdown'
p23
g15
tp24
a(S'stop spotify'
p25
g15
tp26
a(S'what events are on today'
p27
g15
tp28
a(S"what's new in new mail please"
p29
g15
tp30
a(S'is there anything to do tomorrow'
p31
g15
tp32
a(S'can you turn off the computer'
p33
g15
tp34
a(S'can you add a new event'
p35
g15
tp36
a(S'can you mute'
p37
g15
tp38
a(S'skip spotify please'
p39
g15
tp40
a(S'will you check new mail please'
p41
g15
tp42
a(S'do i have any events on wednesday'
p43
g15
tp44
a(S'can you please kill the active window'
p45
g15
tp46
a(S'what events do i have on sunday'
p47
g15
tp48
a(S'will it rain this week'
p49
g15
tp50
a(S'is there anything to do on friday'
p51
g15
tp52
a(S"aren't there any events on friday"
p53
g15
tp54
a(S"don't i have anything to do on next"
p55
g15
tp56
a(S'check calendar on next'
p57
g15
tp58
a(S'close current window'
p59
g15
tp60
a(S'can you make an event'
p61
g15
tp62
a(S"don't i have to do anything in a week"
p63
g15
tp64
a(S'please could you open my gmail'
p65
g15
tp66
a(S'can you please schedule an event'
p67
g15
tp68
a(S"don't i have to do anything on next"
p69
g15
tp70
a(S'check calendar for this week'
p71
g15
tp72
a(S'find live news'
p73
g15
tp74
a(S'mute'
p75
g15
tp76
a(S'can you make a new event please'
p77
g15
tp78
a(S'what is on my calendar for saturday'
p79
g15
tp80
a(S'kill the music'
p81
g15
tp82
a(S'is it cloudy this week'
p83
g15
tp84
a(S'what is going on in the world today'
p85
g15
tp86
a(S'check my calendar on friday'
p87
g15
tp88
a(S'please create new event'
p89
g15
tp90
a(S'do i have to do anything on thursday'
p91
g15
tp92
a(S'would you check my mail'
p93
g15
tp94
a(S'spotify stop playing'
p95
g15
tp96
a(S"today's temperature"
p97
g15
tp98
a(S"don't i have to do anything on thursday"
p99
g15
tp100
a(S'what is new in my inbox please'
p101
g15
tp102
a(S'search please'
p103
g15
tp104
a(S'what is on my calendar for this month'
p105
g15
tp106
a(S'would you check my inbox please'
p107
g15
tp108
a(S'please would you check gmail'
p109
g15
tp110
a(S"don't i have any events in a week"
p111
g15
tp112
a(S'turn my computer off please'
p113
g15
tp114
a(S'can you check my gmail'
p115
g15
tp116
a(S'do i have anything on tuesday'
p117
g15
tp118
a(S'could you please make event'
p119
g15
tp120
a(S'can you please kill this window'
p121
g15
tp122
a(S'google search'
p123
g15
tp124
a(S"what're the current news"
p125
g15
tp126
a(S'check new mail'
p127
g15
tp128
a(S'any events on today'
p129
g15
tp130
a(S'check google calendar on tuesday'
p131
g15
tp132
a(S'check events for thursday'
p133
g15
tp134
a(S"don't i have any events on wednesday"
p135
g15
tp136
a(S'kill active window'
p137
g15
tp138
a(S"get if it's rainy this week"
p139
g15
tp140
a(S'can you please shut off my computer'
p141
g15
tp142
a(S'is there anything to do on sunday'
p143
g15
tp144
a(S'can you please open a browser'
p145
g15
tp146
a(S'check the clock right now please'
p147
g15
tp148
a(S'do i have any events on next'
p149
g15
tp150
a(S'turn up the volume'
p151
g15
tp152
a(S'check new gmail please'
p153
g15
tp154
a(S'check events for saturday'
p155
g15
tp156
a(S'turn the sound down please'
p157
g15
tp158
a(S'can you get the latest headlines'
p159
g15
tp160
a(S'please check my inbox'
p161
g15
tp162
a(S'would you open my mail please'
p163
g15
tp164
a(S'can you please turn up the volume'
p165
g15
tp166
a(S'emergency shutdown'
p167
S'True'
p168
tp169
a(S'can you decrease the sound'
p170
g15
tp171
a(S'can you check mail please'
p172
g15
tp173
a(S'what events are on wednesday'
p174
g15
tp175
a(S'shut the fuck up'
p176
g15
tp177
a(S"what's in new gmail"
p178
g15
tp179
a(S'check the current time'
p180
g15
tp181
a(S'check my calendar on thursday'
p182
g15
tp183
a(S'please would you check my gmail'
p184
g15
tp185
a(S'google'
p186
g15
tp187
a(S'can you please kill the current window'
p188
g15
tp189
a(S'give me the news please'
p190
g15
tp191
a(S'is it foggy this week'
p192
g15
tp193
a(S'current events'
p194
g15
tp195
a(S'search google'
p196
g15
tp197
a(S'could you check new gmail'
p198
g15
tp199
a(S'is there anything to do on'
p200
g15
tp201
a(S'spotify skip ahead please'
p202
g15
tp203
a(S'what do i have on tuesday'
p204
g15
tp205
a(S'decrease the volume'
p206
g15
tp207
a(S'spotify play last song please'
p208
g15
tp209
a(S"this week's forecast"
p210
g15
tp211
a(S'read your watch please'
p212
g15
tp213
a(S'anything in my inbox'
p214
g15
tp215
a(S'am i free for sunday'
p216
g15
tp217
a(S'please will you check inbox'
p218
g15
tp219
a(S'any events on friday'
p220
g15
tp221
a(S'please check the clock'
p222
g15
tp223
a(S'do i have any events in a month'
p224
g15
tp225
a(S'whats going on in the world todays please'
p226
g15
tp227
a(S"this week's weather"
p228
g15
tp229
a(S'please make new event'
p230
g15
tp231
a(S'good morning alice'
p232
g15
tp233
a(S'do i have any events in a week'
p234
g15
tp235
a(S'check google calendar on month'
p236
g15
tp237
a(S'do i have anything in a week'
p238
g15
tp239
a(S'go ahead spotify please'
p240
g15
tp241
a(S'what is current events'
p242
g15
tp243
a(S"don't i have any events on today"
p244
g15
tp245
a(S'find current news'
p246
g15
tp247
a(S'what is the news'
p248
g15
tp249
a(S'gather the latest headlines please'
p250
g15
tp251
a(S'any events'
p252
g15
tp253
a(S'add an event'
p254
g15
tp255
a(S'check new gmail'
p256
g15
tp257
a(S"what's the forecast today"
p258
g15
tp259
a(S'good afternoon'
p260
g15
tp261
a(S'please check your watch'
p262
g15
tp263
a(S'can you please turn off'
p264
g15
tp265
a(S'turn up the sound please'
p266
g15
tp267
a(S'what are the current events'
p268
g15
tp269
a(S'shutdown my computer'
p270
g15
tp271
a(S'is it raining today'
p272
g15
tp273
a(S'check calendar for sunday'
p274
g15
tp275
a(S'could you please add a new event'
p276
g15
tp277
a(S'please can you check my inbox'
p278
g15
tp279
a(S'check calendar for thursday'
p280
g15
tp281
a(S"today's current news "
p282
g15
tp283
a(S'can you please turn the tune down'
p284
g15
tp285
a(S'can you please close the current window'
p286
g15
tp287
a(S'would you check my mail please'
p288
g15
tp289
a(S'do i have any events on today'
p290
g15
tp291
a(S'can you close this window'
p292
g15
tp293
a(S"what's if it's cold today"
p294
g15
tp295
a(S'lower the volume'
p296
g15
tp297
a(S'search'
p298
g15
tp299
a(S"don't i have to do anything on sunday"
p300
g15
tp301
a(S"don't i have to do anything on monday"
p302
g15
tp303
a(S'check calendar for'
p304
g15
tp305
a(S'can you schedule an event'
p306
g15
tp307
a(S'check events on'
p308
g15
tp309
a(S'am i free for tomorrow'
p310
g15
tp311
a(S"what's in new mail please"
p312
g15
tp313
a(S'turn yourself off'
p314
g168
tp315
a(S'am i free for wednesday'
p316
g15
tp317
a(S'can you please add an event'
p318
g15
tp319
a(S'good night'
p320
g168
tp321
a(S"aren't there any events on tuesday"
p322
g15
tp323
a(S'can you unmute'
p324
g15
tp325
a(S"please what's in new gmail"
p326
g15
tp327
a(S'is it cloudy today'
p328
g15
tp329
a(S'will you open a browser'
p330
g15
tp331
a(S'please spotify go '
p332
g15
tp333
a(S'what is on my calendar for today'
p334
g15
tp335
a(S'google for'
p336
g15
tp337
a(S"don't i have anything to do on sunday"
p338
g15
tp339
a(S"what're the the news"
p340
g15
tp341
a(S"please what's new in new mail"
p342
g15
tp343
a(S'anything new in my gmail'
p344
g15
tp345
a(S'what is in mail'
p346
g15
tp347
a(S'check my calendar for wednesday'
p348
g15
tp349
a(S'what are the live news'
p350
g15
tp351
a(S"don't i have anything to do on"
p352
g15
tp353
a(S'please can you check my gmail'
p354
g15
tp355
a(S'check your watch'
p356
g15
tp357
a(S'check mail please'
p358
g15
tp359
a(S'please turn my computer off'
p360
g15
tp361
a(S'is it cold today'
p362
g15
tp363
a(S'shut my computer down please'
p364
g15
tp365
a(S"today's news"
p366
g15
tp367
a(S'am i free for'
p368
g15
tp369
a(S'increase the volume'
p370
g15
tp371
a(S"don't i have to do anything in a week"
p372
g15
tp373
a(S'what is in new gmail please'
p374
g15
tp375
a(S'can you check gmail please'
p376
g15
tp377
a(S'please will you check new gmail'
p378
g15
tp379
a(S'can you please close current window'
p380
g15
tp381
a(S'please will you open my inbox'
p382
g15
tp383
a(S'is it freezing today'
p384
g15
tp385
a(S'is it hot this week'
p386
g15
tp387
a(S'do i have anything to do on tuesday'
p388
g15
tp389
a(S'spotify start please'
p390
g15
tp391
a(S"please what's in mail"
p392
g15
tp393
a(S'check google calendar on this day'
p394
g15
tp395
a(S'get me the news todays'
p396
g15
tp397
a(S'can you turn the tune down'
p398
g15
tp399
a(S'can you check my inbox please'
p400
g15
tp401
a(S"what's if it's snowing today"
p402
g15
tp403
a(S'check my mail please'
p404
g15
tp405
a(S'do i have any events on friday'
p406
g15
tp407
a(S'turn up the sound'
p408
g15
tp409
a(S'what do i have to do on next'
p410
g15
tp411
a(S'can you create new event'
p412
g15
tp413
a(S'intel'
p414
g15
tp415
a(S'what do i have to do on thursday'
p416
g15
tp417
a(S'check my calendar on tuesday'
p418
g15
tp419
a(S"what's in mail"
p420
g15
tp421
a(S"if it's snowing this week"
p422
g15
tp423
a(S'can you please add event'
p424
g15
tp425
a(S'could you check my mail please'
p426
g15
tp427
a(S'can you schedule new event please'
p428
g15
tp429
a(S'can you turn my computer off'
p430
g15
tp431
a(S'spotify pause please'
p432
g15
tp433
a(S'search google please for'
p434
g15
tp435
a(S'please check new gmail'
p436
g15
tp437
a(S'spotify go back to the last song '
p438
g15
tp439
a(S'please could you check new gmail'
p440
g15
tp441
a(S'newsfeed'
p442
g15
tp443
a(S'train a classifier to try to predict the category of a post'
p444
g15
tp445
a(S'what is on my calendar for'
p446
g15
tp447
a(S'create a new event'
p448
g15
tp449
a(S'create a new event please'
p450
g15
tp451
a(S'start a browser please'
p452
g15
tp453
a(S'please kill the window'
p454
g15
tp455
a(S"what's the forecast this week"
p456
g15
tp457
a(S'check my calendar for thursday'
p458
g15
tp459
a(S'turn off please'
p460
g15
tp461
a(S"please what's new in my gmail"
p462
g15
tp463
a(S"don't i have anything to do on friday"
p464
g15
tp465
a(S'check my calendar for today'
p466
g15
tp467
a(S'will it snow this week'
p468
g15
tp469
a(S'will you open mail'
p470
g15
tp471
a(S'can you create event'
p472
g15
tp473
a(S'sound up please'
p474
g15
tp475
a(S'can you please turn the beat down'
p476
g15
tp477
a(S'please close the current window'
p478
g15
tp479
a(S'please make event'
p480
g15
tp481
a(S'turn yourself on please'
p482
g15
tp483
a(S'could you schedule an event'
p484
g15
tp485
a(S'go to dot edu'
p486
g15
tp487
a(S'what do i have to do in a month'
p488
g15
tp489
a(S'is it foggy today'
p490
g15
tp491
a(S'what events do i have on next'
p492
g15
tp493
a(S'do i have anything on next'
p494
g15
tp495
a(S"what's the the news"
p496
g15
tp497
a(S"what's the news"
p498
g15
tp499
a(S'please what is in gmail'
p500
g15
tp501
a(S"don't i have anything to do on saturday"
p502
g15
tp503
a(S'will you open my gmail'
p504
g15
tp505
a(S'please start'
p506
g15
tp507
a(S'check my calendar for this day'
p508
g15
tp509
a(S"this week's weather"
p510
g15
tp511
a(S'can you check inbox'
p512
g15
tp513
a(S'retrieve the time'
p514
g15
tp515
a(S'schedule an event please'
p516
g15
tp517
a(S'will you get the current events'
p518
g15
tp519
a(S'please schedule new event'
p520
g15
tp521
a(S"if it's rainy today"
p522
g15
tp523
a(S'kill window'
p524
g15
tp525
a(S'would you open my inbox'
p526
g15
tp527
a(S'can you schedule event please'
p528
g15
tp529
a(S'any events on this day'
p530
g15
tp531
a(S'can you please turn up the beat'
p532
g15
tp533
a(S'can you please add new event'
p534
g15
tp535
a(S'can you check my gmail please'
p536
g15
tp537
a(S"please what's new in gmail"
p538
g15
tp539
a(S'spotify previous please'
p540
g15
tp541
a(S'open dot org'
p542
g15
tp543
a(S'do i have anything today'
p544
g15
tp545
a(S'open browser'
p546
g15
tp547
a(S'what events do i have on'
p548
g15
tp549
a(S'spotify go please'
p550
g15
tp551
a(S'read time please'
p552
g15
tp553
a(S'do i have anything in a month'
p554
g15
tp555
a(S'please would you check my inbox'
p556
g15
tp557
a(S'lock the screen'
p558
g15
tp559
a(S'please spotify previous'
p560
g15
tp561
a(S'can you close the current window'
p562
g15
tp563
a(S'what do i have to do on monday'
p564
g15
tp565
a(S"what's the current events"
p566
g15
tp567
a(S'what are the latest events '
p568
g15
tp569
a(S'get live newsfeed'
p570
g15
tp571
a(S"get if it's freezing this week"
p572
g15
tp573
a(S'please retrieve the time'
p574
g15
tp575
a(S'create event'
p576
g15
tp577
a(S'spotify next song '
p578
g15
tp579
a(S'could you make a new event'
p580
g15
tp581
a(S'turn up the tunez please'
p582
g15
tp583
a(S"don't i have to do anything on next"
p584
g15
tp585
a(S'lock computer'
p586
g15
tp587
a(S"if it's freezing this week"
p588
g15
tp589
a(S'could you check mail please'
p590
g15
tp591
a(S'check calendar for tomorrow'
p592
g15
tp593
a(S'get me the clock please'
p594
g15
tp595
a(S'anything in mail'
p596
g15
tp597
a(S"get if it's cloudy today"
p598
g15
tp599
a(S"what's weather"
p600
g15
tp601
a(S'kill the active program'
p602
g15
tp603
a(S'what is headlines'
p604
g15
tp605
a(S'turn off my computer'
p606
g15
tp607
a(S'headlines'
p608
g15
tp609
a(S'check events for this day'
p610
g15
tp611
a(S'good bye'
p612
g168
tp613
a(S'could you check new mail'
p614
g15
tp615
a(S'could you open gmail please'
p616
g15
tp617
a(S'can you make new event'
p618
g15
tp619
a(S'please google for'
p620
g15
tp621
a(S'am i free for this day'
p622
g15
tp623
a(S'will you open mail please'
p624
g15
tp625
a(S'could you please make an event'
p626
g15
tp627
a(S'check calendar on friday'
p628
g15
tp629
a(S'add a new event'
p630
g15
tp631
a(S'please open a browser'
p632
g15
tp633
a(S'please sound up'
p634
g15
tp635
a(S'please search'
p636
g15
tp637
a(S'turn up the volume please'
p638
g15
tp639
a(S'would you check new gmail'
p640
g15
tp641
a(S'could you open inbox'
p642
g15
tp643
a(S'will you check mail'
p644
g15
tp645
a(S'check calendar'
p646
g15
tp647
a(S'please could you check inbox'
p648
g15
tp649
a(S"get if it's freezing today"
p650
g15
tp651
a(S'could you make an event'
p652
g15
tp653
a(S'please check my mail'
p654
g15
tp655
a(S'are there any events on today'
p656
g15
tp657
a(S'live news'
p658
g15
tp659
a(S'what do i have on tomorrow'
p660
g15
tp661
a(S'find news'
p662
g15
tp663
a(S'can you make event'
p664
g15
tp665
a(S"don't i have to do anything on thursday"
p666
g15
tp667
a(S'add an event please'
p668
g15
tp669
a(S'anything in inbox'
p670
g15
tp671
a(S'can you check mail'
p672
g15
tp673
a(S"get if it's foggy this week"
p674
g15
tp675
a(S'is there anything to do on saturday'
p676
g15
tp677
a(S'please kill this window'
p678
g15
tp679
a(S'do i have to do anything on tuesday'
p680
g15
tp681
a(S'current temperature'
p682
g15
tp683
a(S'send me to the lock screen please'
p684
g15
tp685
a(S'could you open my gmail please'
p686
g15
tp687
a(S'is there anything to do today'
p688
g15
tp689
a(S'can you please schedule new event'
p690
g15
tp691
a(S'can you please make new event'
p692
g15
tp693
a(S'get the news'
p694
g15
tp695
a(S"what's the weather today"
p696
g15
tp697
a(S'what do i have on this day'
p698
g15
tp699
a(S'turn my computer off'
p700
g15
tp701
a(S'please what is in mail'
p702
g15
tp703
a(S'check my calendar for'
p704
g15
tp705
a(S'will you open my inbox'
p706
g15
tp707
a(S'check events for sunday'
p708
g15
tp709
a(S'could you please add new event'
p710
g15
tp711
a(S'lock the screen please'
p712
g15
tp713
a(S"if it's cloudy today"
p714
g15
tp715
a(S'predict the outcome on a new document'
p716
g15
tp717
a(S'can you please make a new event'
p718
g15
tp719
a(S'check google calendar on'
p720
g15
tp721
a(S'are there any events on monday'
p722
g15
tp723
a(S'start browsing please'
p724
g15
tp725
a(S'will you open gmail please'
p726
g15
tp727
a(S'spotify pause please'
p728
g15
tp729
a(S"what're the live newsfeed"
p730
g15
tp731
a(S'what do i have in a month'
p732
g15
tp733
a(S'the news'
p734
g15
tp735
a(S'tell me live news feed'
p736
g15
tp737
a(S'any events on next'
p738
g15
tp739
a(S'go back to the last song '
p740
g15
tp741
a(S'please check what time it is'
p742
g15
tp743
a(S'can you kill this window'
p744
g15
tp745
a(S'what is new in my gmail'
p746
g15
tp747
a(S'could you please schedule event'
p748
g15
tp749
a(S'what do i have to do on tomorrow'
p750
g15
tp751
a(S'could you please create event'
p752
g15
tp753
a(S'can you turn yourself on'
p754
g15
tp755
a(S"don't i have to do anything on friday"
p756
g15
tp757
a(S'make an event please'
p758
g15
tp759
a(S'check events on tomorrow'
p760
g15
tp761
a(S"don't i have anything on this day"
p762
g15
tp763
a(S'please will you check new mail'
p764
g15
tp765
a(S"this week's temperature"
p766
g15
tp767
a(S'are there any events on thursday'
p768
g15
tp769
a(S'kill the active window'
p770
g15
tp771
a(S'what is live news'
p772
g15
tp773
a(S"what's in my mail"
p774
g15
tp775
a(S'could you open my inbox please'
p776
g15
tp777
a(S'go to dot ee dee you'
p778
g15
tp779
a(S'can you please turn off my computer'
p780
g15
tp781
a(S'give me intel on current events'
p782
g15
tp783
a(S'check events for monday'
p784
g15
tp785
a(S'live news today'
p786
g15
tp787
a(S"how's the weather"
p788
g15
tp789
a(S'can you add an event please'
p790
g15
tp791
a(S'headlines today'
p792
g15
tp793
a(S'start a default browser'
p794
g15
tp795
a(S'can you schedule an event please'
p796
g15
tp797
a(S'is there anything to do on today'
p798
g15
tp799
a(S'shut down my computer please'
p800
g15
tp801
a(S'will you check gmail'
p802
g15
tp803
a(S'get newsfeed'
p804
g15
tp805
a(S'search for please'
p806
g15
tp807
a(S'please kill the active window'
p808
g15
tp809
a(S'could you check my inbox please'
p810
g15
tp811
a(S'anything new in mail'
p812
g15
tp813
a(S'can you turn up the volume'
p814
g15
tp815
a(S'do i have anything to do on thursday'
p816
g15
tp817
a(S"today's weather"
p818
g15
tp819
a(S'can you shut down my computer'
p820
g15
tp821
a(S'do i have any events on thursday'
p822
g15
tp823
a(S"what's this week's forecast"
p824
g15
tp825
a(S"get if it's snowing this week"
p826
g15
tp827
a(S'okay alex'
p828
g15
tp829
a(S"if it's raining this week"
p830
g15
tp831
a(S'louder please'
p832
g15
tp833
a(S'current events today'
p834
g15
tp835
a(S'bye bye'
p836
g168
tp837
a(S'please be quiet'
p838
g15
tp839
a(S'make a new event please'
p840
g15
tp841
a(S'what is in inbox please'
p842
g15
tp843
a(S'what do i have to do on tuesday'
p844
g15
tp845
a(S'add a new event please'
p846
g15
tp847
a(S'turn it down'
p848
g15
tp849
a(S'shutdown the computer'
p850
g15
tp851
a(S'please start a default browser'
p852
g15
tp853
a(S'could you schedule a new event please'
p854
g15
tp855
a(S'do i have to do anything on wednesday'
p856
g15
tp857
a(S'please read the clock'
p858
g15
tp859
a(S'can you turn the beat down'
p860
g15
tp861
a(S'find newsfeed'
p862
g15
tp863
a(S'please start spotify'
p864
g15
tp865
a(S'please would you open mail'
p866
g15
tp867
a(S'what are the live news feed'
p868
g15
tp869
a(S'make the sound softer'
p870
g15
tp871
a(S'start browser please'
p872
g15
tp873
a(S'go to'
p874
g15
tp875
a(S'alice next please'
p876
g15
tp877
a(S'bye bye alice'
p878
g168
tp879
a(S"what's in my inbox"
p880
g15
tp881
a(S"please what's in my gmail"
p882
g15
tp883
a(S'will you check inbox'
p884
g15
tp885
a(S'please search google'
p886
g15
tp887
a(S"don't i have anything on"
p888
g15
tp889
a(S"get today's weather"
p890
g15
tp891
a(S'will you get the news for me'
p892
g15
tp893
a(S'please last song'
p894
g15
tp895
a(S'go back'
p896
g15
tp897
a(S'please spotify pause'
p898
g15
tp899
a(S'can you kill the window'
p900
g15
tp901
a(S'can you lock the screen'
p902
g15
tp903
a(S'would you open inbox'
p904
g15
tp905
a(S"what's new in my mail"
p906
g15
tp907
a(S'turn the beat down please'
p908
g15
tp909
a(S'please get time'
p910
g15
tp911
a(S"get today's forecast"
p912
g15
tp913
a(S'please google search'
p914
g15
tp915
a(S'read the time please'
p916
g15
tp917
a(S'check my calendar on tomorrow'
p918
g15
tp919
a(S'can you shut off'
p920
g15
tp921
a(S'good morning'
p922
g15
tp923
a(S'check calendar on this week'
p924
g15
tp925
a(S'could you schedule a new event'
p926
g15
tp927
a(S'start a default browser please'
p928
g15
tp929
a(S'is there anything to do on next'
p930
g15
tp931
a(S'get news feed'
p932
g15
tp933
a(S'make event'
p934
g15
tp935
a(S'is there anything i have to do on tomorrow'
p936
g15
tp937
a(S'could you please create a new event'
p938
g15
tp939
a(S'is there anything i have to do on tuesday'
p940
g15
tp941
a(S'read me the clock'
p942
g15
tp943
a(S'do i have any events on'
p944
g15
tp945
a(S'check calendar on today'
p946
g15
tp947
a(S'what is in my mail please'
p948
g15
tp949
a(S'please could you open inbox'
p950
g15
tp951
a(S'check calendar on this day'
p952
g15
tp953
a(S'spotify play'
p954
g15
tp955
a(S'start the song'
p956
g15
tp957
a(S'check google calendar on today'
p958
g15
tp959
a(S'can you please kill current window'
p960
g15
tp961
a(S'please check mail'
p962
g15
tp963
a(S"don't i have anything to do"
p964
g15
tp965
a(S'lower the tunes please'
p966
g15
tp967
a(S'turn it off'
p968
g15
tp969
a(S'please close the active window'
p970
g15
tp971
a(S'forecast'
p972
g15
tp973
a(S'am i free for next'
p974
g15
tp975
a(S'check events for this day'
p976
g15
tp977
a(S'check events on this week'
p978
g15
tp979
a(S"this week's forecast"
p980
g15
tp981
a(S'any events on'
p982
g15
tp983
a(S'do i have anything to do on wednesday'
p984
g15
tp985
a(S'do i have anything'
p986
g15
tp987
a(S'do i have to do anything'
p988
g15
tp989
a(S'shut up'
p990
g15
tp991
a(S'what are the current news'
p992
g15
tp993
a(S'please what is new in new mail'
p994
g15
tp995
a(S'please check new mail'
p996
g15
tp997
a(S'okay alice'
p998
g15
tp999
a(S'check events on saturday'
p1000
g15
tp1001
a(S'what is new in new mail please'
p1002
g15
tp1003
a(S"how's the temperature today"
p1004
g15
tp1005
a(S"don't i have to do anything on wednesday"
p1006
g15
tp1007
a(S'do i have anything on friday'
p1008
g15
tp1009
a(S'can you shut down the computer'
p1010
g15
tp1011
a(S"don't i have anything"
p1012
g15
tp1013
a(S'what is on my calendar for friday'
p1014
g15
tp1015
a(S'can you please create new event'
p1016
g15
tp1017
a(S'make new event'
p1018
g15
tp1019
a(S'turn up the tunez'
p1020
g15
tp1021
a(S'please will you open my gmail'
p1022
g15
tp1023
a(S'please spotify pause'
p1024
g15
tp1025
a(S'please find out the latest headlines'
p1026
g15
tp1027
a(S'what do i have on monday'
p1028
g15
tp1029
a(S'what is the news today'
p1030
g15
tp1031
a(S'am i free in a week'
p1032
g15
tp1033
a(S'what is new in my mail'
p1034
g15
tp1035
a(S'what events do i have on friday'
p1036
g15
tp1037
a(S'please close current window'
p1038
g15
tp1039
a(S"don't i have anything on thursday"
p1040
g15
tp1041
a(S'check my calendar for this week'
p1042
g15
tp1043
a(S'would you check my gmail please'
p1044
g15
tp1045
a(S'am i free in a month'
p1046
g15
tp1047
a(S'can you please create a new event'
p1048
g15
tp1049
a(S'please open dot com'
p1050
g15
tp1051
a(S'can you please shut down'
p1052
g15
tp1053
a(S'get weather'
p1054
g15
tp1055
a(S'can you turn up the volume please'
p1056
g15
tp1057
a(S'check events for tomorrow'
p1058
g15
tp1059
a(S'can you shut up'
p1060
g15
tp1061
a(S'shut up please'
p1062
g15
tp1063
a(S'tell me news feed'
p1064
g15
tp1065
a(S'turn off the computer please'
p1066
g15
tp1067
a(S'do i have to do anything in a week'
p1068
g15
tp1069
a(S'spotify pause the song please'
p1070
g15
tp1071
a(S"how's the forecast today"
p1072
g15
tp1073
a(S'what are the the news'
p1074
g15
tp1075
a(S'give me intel'
p1076
g15
tp1077
a(S'please go to'
p1078
g15
tp1079
a(S'find headlines'
p1080
g15
tp1081
a(S'what events are on next'
p1082
g15
tp1083
a(S'what is new in my inbox'
p1084
g15
tp1085
a(S'could you make event please'
p1086
g15
tp1087
a(S'could you open my gmail'
p1088
g15
tp1089
a(S'open default browser'
p1090
g15
tp1091
a(S'is there anything to do in a week'
p1092
g15
tp1093
a(S'please kill active window'
p1094
g15
tp1095
a(S'play spotify please'
p1096
g15
tp1097
a(S'please shut down my computer'
p1098
g15
tp1099
a(S"aren't there any events on wednesday"
p1100
g15
tp1101
a(S'is there anything to do'
p1102
g15
tp1103
a(S"what's in gmail please"
p1104
g15
tp1105
a(S'check calendar for next'
p1106
g15
tp1107
a(S'please give me current events'
p1108
g15
tp1109
a(S'get the time'
p1110
g15
tp1111
a(S'what are the headlines'
p1112
g15
tp1113
a(S'can you create a new event please'
p1114
g15
tp1115
a(S'check events for next'
p1116
g15
tp1117
a(S'google search please'
p1118
g15
tp1119
a(S"don't i have to do anything today"
p1120
g15
tp1121
a(S'get clock'
p1122
g15
tp1123
a(S'can you make an event please'
p1124
g15
tp1125
a(S'get news now'
p1126
g15
tp1127
a(S'could you make event'
p1128
g15
tp1129
a(S'check my calendar on this month'
p1130
g15
tp1131
a(S'what is on my calendar for tuesday'
p1132
g15
tp1133
a(S'any events on monday'
p1134
g15
tp1135
a(S'tell me newsfeed'
p1136
g15
tp1137
a(S"what's the newsfeed"
p1138
g15
tp1139
a(S'open inbox please'
p1140
g15
tp1141
a(S'please would you open my gmail'
p1142
g15
tp1143
a(S'am i free on this day'
p1144
g15
tp1145
a(S'can you please shutdown'
p1146
g15
tp1147
a(S'what events do i have on today'
p1148
g15
tp1149
a(S'bye alice'
p1150
g168
tp1151
a(S'create event please'
p1152
g15
tp1153
a(S'could you check my gmail'
p1154
g15
tp1155
a(S'please spotify last song'
p1156
g15
tp1157
a(S"don't i have anything to do today"
p1158
g15
tp1159
a(S'check calendar on monday'
p1160
g15
tp1161
a(S"how's the temperature"
p1162
g15
tp1163
a(S'check the clock'
p1164
g15
tp1165
a(S'please what is new in new gmail'
p1166
g15
tp1167
a(S'play the song before'
p1168
g15
tp1169
a(S'we stick to simple problems in this post for the sake of illustration'
p1170
g15
tp1171
a(S"what's new in my gmail please"
p1172
g15
tp1173
a(S'would you open my mail'
p1174
g15
tp1175
a(S'go back please'
p1176
g15
tp1177
a(S'what events are on tomorrow'
p1178
g15
tp1179
a(S'open my mail'
p1180
g15
tp1181
a(S'check my inbox please'
p1182
g15
tp1183
a(S'open browser please'
p1184
g15
tp1185
a(S'check calendar for saturday'
p1186
g15
tp1187
a(S'can you turn yourself off please'
p1188
g168
tp1189
a(S'what is new in my mail please'
p1190
g15
tp1191
a(S'what is on my calendar for this week'
p1192
g15
tp1193
a(S'do i have anything on monday'
p1194
g15
tp1195
a(S'can you turn up the tunez'
p1196
g15
tp1197
a(S'check calendar on sunday'
p1198
g15
tp1199
a(S'schedule new event please'
p1200
g15
tp1201
a(S'would you check mail'
p1202
g15
tp1203
a(S"if it's foggy this week"
p1204
g15
tp1205
a(S'can you check my mail'
p1206
g15
tp1207
a(S'do i have to do anything on friday'
p1208
g15
tp1209
a(S'can you please turn my computer off'
p1210
g15
tp1211
a(S'can you create a new event'
p1212
g15
tp1213
a(S'can you please schedule a new event'
p1214
g15
tp1215
a(S'lock'
p1216
g15
tp1217
a(S'please search google for'
p1218
g15
tp1219
a(S'can you check new mail'
p1220
g15
tp1221
a(S'can you unmute please'
p1222
g15
tp1223
a(S'check your watch please'
p1224
g15
tp1225
a(S"today's current events"
p1226
g15
tp1227
a(S'please what is in my gmail'
p1228
g15
tp1229
a(S'weather'
p1230
g15
tp1231
a(S'could you check gmail please'
p1232
g15
tp1233
a(S'what is on my calendar for this day'
p1234
g15
tp1235
a(S'would you open mail'
p1236
g15
tp1237
a(S'exit please'
p1238
g168
tp1239
a(S'can you please shut down my computer'
p1240
g15
tp1241
a(S'do i have to do anything tomorrow'
p1242
g15
tp1243
a(S'read your watch'
p1244
g15
tp1245
a(S'what is on my calendar for tomorrow'
p1246
g15
tp1247
a(S'can you turn up the tune'
p1248
g15
tp1249
a(S'what is current news'
p1250
g15
tp1251
a(S'tell me live news'
p1252
g15
tp1253
a(S'please lock the screen'
p1254
g15
tp1255
a(S'can you turn up the beat'
p1256
g15
tp1257
a(S'anything in my mail'
p1258
g15
tp1259
a(S'pause song please'
p1260
g15
tp1261
a(S'do i have anything to do'
p1262
g15
tp1263
a(S'read the time'
p1264
g15
tp1265
a(S'what events are on sunday'
p1266
g15
tp1267
a(S'am i free for thursday'
p1268
g15
tp1269
a(S'check events for this week'
p1270
g15
tp1271
a(S"aren't there any events on tomorrow"
p1272
g15
tp1273
a(S"don't i have to do anything on saturday"
p1274
g15
tp1275
a(S'will it rain today'
p1276
g15
tp1277
a(S'do i have to do anything on this day'
p1278
g15
tp1279
a(S'check my calendar for this day'
p1280
g15
tp1281
a(S'please lock my computer'
p1282
g15
tp1283
a(S"don't i have to do anything on tuesday"
p1284
g15
tp1285
a(S'check calendar on month'
p1286
g15
tp1287
a(S'please would you check my mail'
p1288
g15
tp1289
a(S'any events on sunday'
p1290
g15
tp1291
a(S'spotify go back'
p1292
g15
tp1293
a(S'please will you check gmail'
p1294
g15
tp1295
a(S'anything new in my inbox'
p1296
g15
tp1297
a(S'check my calendar on this day'
p1298
g15
tp1299
a(S'start default browser please'
p1300
g15
tp1301
a(S'please spotify start the song'
p1302
g15
tp1303
a(S'do i have anything to do today'
p1304
g15
tp1305
a(S'could you add new event'
p1306
g15
tp1307
a(S'get time please'
p1308
g15
tp1309
a(S'check google calendar for wednesday'
p1310
g15
tp1311
a(S'find the current events'
p1312
g15
tp1313
a(S'please close the window'
p1314
g15
tp1315
a(S'please open a browser'
p1316
g15
tp1317
a(S'what is in my inbox please'
p1318
g15
tp1319
a(S"what're the newsfeed"
p1320
g15
tp1321
a(S'get current forecast'
p1322
g15
tp1323
a(S'turn up the sound'
p1324
g15
tp1325
a(S'spotify play previous song please'
p1326
g15
tp1327
a(S'spotify stop the song '
p1328
g15
tp1329
a(S'go to dot net'
p1330
g15
tp1331
a(S'can you please kill active window'
p1332
g15
tp1333
a(S"what's in my mail please"
p1334
g15
tp1335
a(S'could you make a new event please'
p1336
g15
tp1337
a(S'what do i have to do on'
p1338
g15
tp1339
a(S'can you quit'
p1340
g168
tp1341
a(S'is it freezing this week'
p1342
g15
tp1343
a(S'would you check inbox please'
p1344
g15
tp1345
a(S'stop playing'
p1346
g15
tp1347
a(S"get if it's cloudy this week"
p1348
g15
tp1349
a(S'can you check new gmail please'
p1350
g15
tp1351
a(S'create new event please'
p1352
g15
tp1353
a(S'find live newsfeed'
p1354
g15
tp1355
a(S'could you please make a new event'
p1356
g15
tp1357
a(S'could you check new mail please'
p1358
g15
tp1359
a(S"don't i have any events"
p1360
g15
tp1361
a(S'spotify skip ahead'
p1362
g15
tp1363
a(S"aren't there any events in a month"
p1364
g15
tp1365
a(S'kill the program'
p1366
g15
tp1367
a(S'stop the tunez'
p1368
g15
tp1369
a(S'please start default browser'
p1370
g15
tp1371
a(S"please what's in inbox"
p1372
g15
tp1373
a(S'fake news'
p1374
g15
tp1375
a(S"get today's temperature"
p1376
g15
tp1377
a(S'can you make event please'
p1378
g15
tp1379
a(S'could you make new event'
p1380
g15
tp1381
a(S'please stop song'
p1382
g15
tp1383
a(S'start song'
p1384
g15
tp1385
a(S"what's new in mail"
p1386
g15
tp1387
a(S"don't i have to do anything tomorrow"
p1388
g15
tp1389
a(S"don't i have any events on this day"
p1390
g15
tp1391
a(S"if it's cold today"
p1392
g15
tp1393
a(S"don't i have to do anything on this day"
p1394
g15
tp1395
a(S'start browser'
p1396
g15
tp1397
a(S'lock my computer'
p1398
g15
tp1399
a(S'what is new in new gmail please'
p1400
g15
tp1401
a(S'open gmail please'
p1402
g15
tp1403
a(S'check events on'
p1404
g15
tp1405
a(S'check events on today'
p1406
g15
tp1407
a(S'tell me headlines'
p1408
g15
tp1409
a(S'could you open inbox please'
p1410
g15
tp1411
a(S'the news today'
p1412
g15
tp1413
a(S'turn the volume to zero'
p1414
g15
tp1415
a(S'gather information on todays current events please'
p1416
g15
tp1417
a(S"don't i have to do anything in a month"
p1418
g15
tp1419
a(S'what is live newsfeed'
p1420
g15
tp1421
a(S'shut down please'
p1422
g15
tp1423
a(S'add event'
p1424
g15
tp1425
a(S'please start a browser'
p1426
g15
tp1427
a(S'am i free on next'
p1428
g15
tp1429
a(S'please play spotify '
p1430
g15
tp1431
a(S'what events are'
p1432
g15
tp1433
a(S"what're the live news"
p1434
g15
tp1435
a(S"what's if it's freezing this week"
p1436
g15
tp1437
a(S'what are the newsfeed'
p1438
g15
tp1439
a(S'can you add new event'
p1440
g15
tp1441
a(S'am i free on saturday'
p1442
g15
tp1443
a(S'please open my mail'
p1444
g15
tp1445
a(S'shutdown'
p1446
g15
tp1447
a(S'the tale pretends'
p1448
g15
tp1449
a(S'please open mail'
p1450
g15
tp1451
a(S'please send me to the lock screen'
p1452
g15
tp1453
a(S'please when is it'
p1454
g15
tp1455
a(S'check events for tuesday'
p1456
g15
tp1457
a(S"don't i have anything on wednesday"
p1458
g15
tp1459
a(S'open default browser please'
p1460
g15
tp1461
a(S"what's the news feed"
p1462
g15
tp1463
a(S'will it hail this week'
p1464
g15
tp1465
a(S"if it's hot today"
p1466
g15
tp1467
a(S'please add new event'
p1468
g15
tp1469
a(S'unmute please'
p1470
g15
tp1471
a(S'news today'
p1472
g15
tp1473
a(S'do i have anything to do tomorrow'
p1474
g15
tp1475
a(S"what's new in new gmail please"
p1476
g15
tp1477
a(S'please shut down'
p1478
g15
tp1479
a(S'check the clock please'
p1480
g15
tp1481
a(S"if it's snowing today"
p1482
g15
tp1483
a(S'intelligence report'
p1484
g15
tp1485
a(S'what is in mail please'
p1486
g15
tp1487
a(S"don't i have to do anything on wednesday"
p1488
g15
tp1489
a(S'what events do i have on saturday'
p1490
g15
tp1491
a(S'please could you check mail'
p1492
g15
tp1493
a(S"what's the temperature today"
p1494
g15
tp1495
a(S'current news'
p1496
g15
tp1497
a(S'i like dogs'
p1498
g15
tp1499
a(S'can you make it louder please'
p1500
g15
tp1501
a(S'what is new in mail please'
p1502
g15
tp1503
a(S'what time is it currently'
p1504
g15
tp1505
a(S"what's new in my inbox please"
p1506
g15
tp1507
a(S'when is it please'
p1508
g15
tp1509
a(S"what's this week's weather"
p1510
g15
tp1511
a(S'can you lock my computer please'
p1512
g15
tp1513
a(S'check events on thursday'
p1514
g15
tp1515
a(S'can you shutdown my computer'
p1516
g15
tp1517
a(S'can you lock computer'
p1518
g15
tp1519
a(S'check google calendar for tuesday'
p1520
g15
tp1521
a(S'could you add a new event please'
p1522
g15
tp1523
a(S'check calendar for friday'
p1524
g15
tp1525
a(S'could you check my inbox'
p1526
g15
tp1527
a(S'please turn off'
p1528
g15
tp1529
a(S'do i have any events on sunday'
p1530
g15
tp1531
a(S'do i have anything on'
p1532
g15
tp1533
a(S'any mail'
p1534
g15
tp1535
a(S'would you open my gmail'
p1536
g15
tp1537
a(S'can you make new event please'
p1538
g15
tp1539
a(S'will it snow today'
p1540
g15
tp1541
a(S'news now please'
p1542
g15
tp1543
a(S'what is news feed'
p1544
g15
tp1545
a(S"please what's in gmail"
p1546
g15
tp1547
a(S"don't i have any events on friday"
p1548
g15
tp1549
a(S'would you check new mail'
p1550
g15
tp1551
a(S'tell me current events'
p1552
g15
tp1553
a(S"today's forecast"
p1554
g15
tp1555
a(S"what's temperature"
p1556
g15
tp1557
a(S'schedule a new event please'
p1558
g15
tp1559
a(S'what is new in inbox please'
p1560
g15
tp1561
a(S'turn up the tunes'
p1562
g15
tp1563
a(S'please what is new in gmail'
p1564
g15
tp1565
a(S"aren't there any events on monday"
p1566
g15
tp1567
a(S'can you please make event'
p1568
g15
tp1569
a(S'do i have to do anything in a month'
p1570
g15
tp1571
a(S'what events are on'
p1572
g15
tp1573
a(S'spotify start the song please'
p1574
g15
tp1575
a(S'go ahead'
p1576
g15
tp1577
a(S'am i free on monday'
p1578
g15
tp1579
a(S'check my mail'
p1580
g15
tp1581
a(S'will it hail today'
p1582
g15
tp1583
a(S'will you check mail please'
p1584
g15
tp1585
a(S'can you check my mail please'
p1586
g15
tp1587
a(S'music down'
p1588
g15
tp1589
a(S"if it's freezing today"
p1590
g15
tp1591
a(S'check google calendar on monday'
p1592
g15
tp1593
a(S'get the current time'
p1594
g15
tp1595
a(S'stop song please'
p1596
g15
tp1597
a(S'time'
p1598
g15
tp1599
a(S'find live news feed'
p1600
g15
tp1601
a(S'please start browsing'
p1602
g15
tp1603
a(S'turn it down'
p1604
g15
tp1605
a(S'please would you check new gmail'
p1606
g15
tp1607
a(S'please google search for'
p1608
g15
tp1609
a(S'could you add an event please'
p1610
g15
tp1611
a(S'find news feed'
p1612
g15
tp1613
a(S'turn it up please'
p1614
g15
tp1615
a(S'please get the news'
p1616
g15
tp1617
a(S'what is in my gmail'
p1618
g15
tp1619
a(S'please open inbox'
p1620
g15
tp1621
a(S'turn up the tune'
p1622
g15
tp1623
a(S'could you please make new event'
p1624
g15
tp1625
a(S'please pause song'
p1626
g15
tp1627
a(S'turn down the sound'
p1628
g15
tp1629
a(S"if it's cold this week"
p1630
g15
tp1631
a(S'what events are on thursday'
p1632
g15
tp1633
a(S'could you please create new event'
p1634
g15
tp1635
a(S'please turn it up'
p1636
g15
tp1637
a(S"what's in gmail"
p1638
g15
tp1639
a(S'lock my computer please'
p1640
g15
tp1641
a(S'am i free on tomorrow'
p1642
g15
tp1643
a(S'please could you check my gmail'
p1644
g15
tp1645
a(S"what's forecast"
p1646
g15
tp1647
a(S'check calendar on'
p1648
g15
tp1649
a(S'would you open mail please'
p1650
g15
tp1651
a(S'is there anything to do on wednesday'
p1652
g15
tp1653
a(S'retrieve what time it is'
p1654
g15
tp1655
a(S'is there anything i have to do on next'
p1656
g15
tp1657
a(S"aren't there any events on sunday"
p1658
g15
tp1659
a(S'turn up'
p1660
g15
tp1661
a(S'turn yourself off please'
p1662
g168
tp1663
a(S'do i have to do anything today'
p1664
g15
tp1665
a(S'can you turn the volume higher please'
p1666
g15
tp1667
a(S'stop'
p1668
g15
tp1669
a(S'check events on wednesday'
p1670
g15
tp1671
a(S'turn the tune down'
p1672
g15
tp1673
a(S'what do i have'
p1674
g15
tp1675
a(S'get time'
p1676
g15
tp1677
a(S'please kill the current window'
p1678
g15
tp1679
a(S"aren't there any events on this day"
p1680
g15
tp1681
a(S'can you get information on the current events'
p1682
g15
tp1683
a(S'am i free'
p1684
g15
tp1685
a(S'what do i have to do on this day'
p1686
g15
tp1687
a(S'please open browser'
p1688
g15
tp1689
a(S'would you check my inbox'
p1690
g15
tp1691
a(S'can you please mute'
p1692
g15
tp1693
a(S'what do i have on friday'
p1694
g15
tp1695
a(S'google search for'
p1696
g15
tp1697
a(S"please what's in my mail"
p1698
g15
tp1699
a(S'please kill current window'
p1700
g15
tp1701
a(S'can you schedule a new event'
p1702
g15
tp1703
a(S'please can you check gmail'
p1704
g15
tp1705
a(S'is there anything i have to do today'
p1706
g15
tp1707
a(S'check my calendar'
p1708
g15
tp1709
a(S'tell me live newsfeed'
p1710
g15
tp1711
a(S'current events please'
p1712
g15
tp1713
a(S'am i free on thursday'
p1714
g15
tp1715
a(S'please read time'
p1716
g15
tp1717
a(S'check events on month'
p1718
g15
tp1719
a(S"how's the weather this week"
p1720
g15
tp1721
a(S'pause spotify'
p1722
g15
tp1723
a(S"don't i have to do anything on"
p1724
g15
tp1725
a(S'live newsfeed today'
p1726
g15
tp1727
a(S'alice'
p1728
g15
tp1729
a(S"what's the temperature"
p1730
g15
tp1731
a(S'can you make a new event'
p1732
g15
tp1733
a(S'please add a new event'
p1734
g15
tp1735
a(S'go to dot org'
p1736
g15
tp1737
a(S'get the information'
p1738
g15
tp1739
a(S'gather information on'
p1740
g15
tp1741
a(S'please can you check mail'
p1742
g15
tp1743
a(S'could you schedule an event please'
p1744
g15
tp1745
a(S'get the clock please'
p1746
g15
tp1747
a(S"don't i have anything to do on wednesday"
p1748
g15
tp1749
a(S'what do i have to do on wednesday'
p1750
g15
tp1751
a(S'is there anything i have to do on today'
p1752
g15
tp1753
a(S'please what is new in my inbox'
p1754
g15
tp1755
a(S'are there any events on friday'
p1756
g15
tp1757
a(S'please give me the current events please'
p1758
g15
tp1759
a(S'are there any events on saturday'
p1760
g15
tp1761
a(S'check calendar for this day'
p1762
g15
tp1763
a(S'get the time please'
p1764
g15
tp1765
a(S'is it rainy this week'
p1766
g15
tp1767
a(S'do i have anything on this day'
p1768
g15
tp1769
a(S'check my inbox'
p1770
g15
tp1771
a(S'will you open inbox please'
p1772
g15
tp1773
a(S'what do i have on saturday'
p1774
g15
tp1775
a(S'what events do i have on tuesday'
p1776
g15
tp1777
a(S'extract the features using almost the same feature'
p1778
g15
tp1779
a(S'lower the tunez please'
p1780
g15
tp1781
a(S'close the active window'
p1782
g15
tp1783
a(S'is it cold this week'
p1784
g15
tp1785
a(S'news feed today'
p1786
g15
tp1787
a(S'check google calendar on thursday'
p1788
g15
tp1789
a(S'please get me the clock'
p1790
g15
tp1791
a(S"this week's temperature"
p1792
g15
tp1793
a(S'schedule new event'
p1794
g15
tp1795
a(S'what events do i have on this day'
p1796
g15
tp1797
a(S'exit'
p1798
g168
tp1799
a(S'can you create new event please'
p1800
g15
tp1801
a(S'google search please for'
p1802
g15
tp1803
a(S'check the current time please'
p1804
g15
tp1805
a(S'check google calendar for thursday'
p1806
g15
tp1807
a(S'could you create event'
p1808
g15
tp1809
a(S'add new event'
p1810
g15
tp1811
a(S"don't i have any events on monday"
p1812
g15
tp1813
a(S"aren't there any events on next"
p1814
g15
tp1815
a(S'get the current time please'
p1816
g15
tp1817
a(S'spotify play the song'
p1818
g15
tp1819
a(S"what's new in gmail"
p1820
g15
tp1821
a(S'check mail'
p1822
g15
tp1823
a(S'would you open inbox please'
p1824
g15
tp1825
a(S'check calendar on thursday'
p1826
g15
tp1827
a(S'please what is in my inbox'
p1828
g15
tp1829
a(S'please could you check new mail'
p1830
g15
tp1831
a(S"what's new in my gmail"
p1832
g15
tp1833
a(S'search google for please'
p1834
g15
tp1835
a(S'can you schedule a new event please'
p1836
g15
tp1837
a(S'could you please schedule an event'
p1838
g15
tp1839
a(S'could you schedule event please'
p1840
g15
tp1841
a(S"what's new in new mail"
p1842
g15
tp1843
a(S'can you put me on the lock screen please'
p1844
g15
tp1845
a(S'good night alice'
p1846
g168
tp1847
a(S'please check gmail'
p1848
g15
tp1849
a(S'check my calendar for friday'
p1850
g15
tp1851
a(S"today's forecast"
p1852
g15
tp1853
a(S'check events for today'
p1854
g15
tp1855
a(S'check my calendar on'
p1856
g15
tp1857
a(S'turn yourself on'
p1858
g15
tp1859
a(S'get current time'
p1860
g15
tp1861
a(S"don't i have to do anything"
p1862
g15
tp1863
a(S'search google for'
p1864
g15
tp1865
a(S"aren't there any events"
p1866
g15
tp1867
a(S'retrieve what time it is please'
p1868
g15
tp1869
a(S'what are the news'
p1870
g15
tp1871
a(S"what's if it's foggy this week"
p1872
g15
tp1873
a(S'please give me the news'
p1874
g15
tp1875
a(S'could you please create an event'
p1876
g15
tp1877
a(S'can you check my inbox'
p1878
g15
tp1879
a(S'go to dot gov'
p1880
g15
tp1881
a(S'anything in my gmail'
p1882
g15
tp1883
a(S'check google calendar on saturday'
p1884
g15
tp1885
a(S'do i have to do anything on saturday'
p1886
g15
tp1887
a(S'will you open my gmail please'
p1888
g15
tp1889
a(S'do i have anything to do on sunday'
p1890
g15
tp1891
a(S"don't i have anything on saturday"
p1892
g15
tp1893
a(S'can you please shut my computer down'
p1894
g15
tp1895
a(S"what're the headlines"
p1896
g15
tp1897
a(S'please get clock'
p1898
g15
tp1899
a(S'make new event please'
p1900
g15
tp1901
a(S'do i have any events on this day'
p1902
g15
tp1903
a(S'please what is new in mail'
p1904
g15
tp1905
a(S'open my inbox'
p1906
g15
tp1907
a(S'check calendar for this day'
p1908
g15
tp1909
a(S'next'
p1910
g15
tp1911
a(S'could you check my gmail please'
p1912
g15
tp1913
a(S'please spotify pause the song'
p1914
g15
tp1915
a(S'what do i have to do on today'
p1916
g15
tp1917
a(S'check my calendar for tomorrow'
p1918
g15
tp1919
a(S'create an event'
p1920
g15
tp1921
a(S'please go back'
p1922
g15
tp1923
a(S'can you please create event'
p1924
g15
tp1925
a(S'is there anything i have to do on saturday'
p1926
g15
tp1927
a(S'please could you open my mail'
p1928
g15
tp1929
a(S'could you add a new event'
p1930
g15
tp1931
a(S'check what time it is'
p1932
g15
tp1933
a(S"today's news feed"
p1934
g15
tp1935
a(S"what's if it's cloudy today"
p1936
g15
tp1937
a(S'is there anything i have to do on thursday'
p1938
g15
tp1939
a(S'search please for'
p1940
g15
tp1941
a(S'do i have to do anything on monday'
p1942
g15
tp1943
a(S'please spotify play previous song'
p1944
g15
tp1945
a(S'shut down the computer'
p1946
g15
tp1947
a(S'am i free'
p1948
g15
tp1949
a(S'what is live news feed'
p1950
g15
tp1951
a(S'tell me news'
p1952
g15
tp1953
a(S'last song please'
p1954
g15
tp1955
a(S'check my calendar for sunday'
p1956
g15
tp1957
a(S"what's if it's rainy today"
p1958
g15
tp1959
a(S'news'
p1960
g15
tp1961
a(S'schedule an event'
p1962
g15
tp1963
a(S'start default browser'
p1964
g15
tp1965
a(S'check what time it is please'
p1966
g15
tp1967
a(S'any events in a month'
p1968
g15
tp1969
a(S'will you check inbox please'
p1970
g15
tp1971
a(S'please get the current time'
p1972
g15
tp1973
a(S'could you open my inbox'
p1974
g15
tp1975
a(S'check calendar for monday'
p1976
g15
tp1977
a(S"what's today's forecast"
p1978
g15
tp1979
a(S'shut down'
p1980
g15
tp1981
a(S'will you check my gmail please'
p1982
g15
tp1983
a(S'please get the clock'
p1984
g15
tp1985
a(S'do i have to do anything to do'
p1986
g15
tp1987
a(S'close active window'
p1988
g15
tp1989
a(S'what do i have on sunday'
p1990
g15
tp1991
a(S'find the news'
p1992
g15
tp1993
a(S'what is new in my gmail please'
p1994
g15
tp1995
a(S'please go to dot com'
p1996
g15
tp1997
a(S'is there anything to do on this day'
p1998
g15
tp1999
a(S'please can you check new gmail'
p2000
g15
tp2001
a(S'can you please kill the window'
p2002
g15
tp2003
a(S'close this window'
p2004
g15
tp2005
a(S'what is in inbox'
p2006
g15
tp2007
a(S'can you turn yourself on please'
p2008
g15
tp2009
a(S'create an event please'
p2010
g15
tp2011
a(S'do i have anything to do in a month'
p2012
g15
tp2013
a(S'could you open mail'
p2014
g15
tp2015
a(S"don't i have any events on"
p2016
g15
tp2017
a(S'volume up'
p2018
g15
tp2019
a(S'check my calendar on saturday'
p2020
g15
tp2021
a(S"aren't there any events on saturday"
p2022
g15
tp2023
a(S'can you create an event please'
p2024
g15
tp2025
a(S"what's new in my mail please"
p2026
g15
tp2027
a(S'please shutdown'
p2028
g15
tp2029
a(S'turn the beat down'
p2030
g15
tp2031
a(S'are there any events on sunday'
p2032
g15
tp2033
a(S'a backbone dictates above my grief'
p2034
g15
tp2035
a(S'pause spotify please'
p2036
g15
tp2037
a(S'could you create event please'
p2038
g15
tp2039
a(S'open mail'
p2040
g15
tp2041
a(S'can you send me to the lock screen'
p2042
g15
tp2043
a(S'add event please'
p2044
g15
tp2045
a(S'am i free for saturday'
p2046
g15
tp2047
a(S'please retrieve the current time'
p2048
g15
tp2049
a(S'please shut down the computer'
p2050
g15
tp2051
a(S"what're the current events"
p2052
g15
tp2053
a(S'check google calendar'
p2054
g15
tp2055
a(S'check calendar on wednesday'
p2056
g15
tp2057
a(S'stop the song'
p2058
g15
tp2059
a(S'byebye'
p2060
g168
tp2061
a(S'start'
p2062
g15
tp2063
a(S'please turn it down'
p2064
g15
tp2065
a(S'open inbox'
p2066
g15
tp2067
a(S'turn up the beat'
p2068
g15
tp2069
a(S'what events are in a week'
p2070
g15
tp2071
a(S"don't i have to do anything tomorrow"
p2072
g15
tp2073
a(S'is it snowing this week'
p2074
g15
tp2075
a(S'check google calendar on tomorrow'
p2076
g15
tp2077
a(S'check my calendar for next'
p2078
g15
tp2079
a(S'please could you check my mail'
p2080
g15
tp2081
a(S"please what's new in my mail"
p2082
g15
tp2083
a(S"what's new in gmail please"
p2084
g15
tp2085
a(S'can you shut my computer down'
p2086
g15
tp2087
a(S'make a new event'
p2088
g15
tp2089
a(S'shut my computer down'
p2090
g15
tp2091
a(S'can you open browser please'
p2092
g15
tp2093
a(S'can you please shut up'
p2094
g15
tp2095
a(S'open dot edu'
p2096
g15
tp2097
a(S'could you add an event'
p2098
g15
tp2099
a(S'can you add an event'
p2100
g15
tp2101
a(S'live news feed today'
p2102
g15
tp2103
a(S'close the current window'
p2104
g15
tp2105
a(S'please get current time'
p2106
g15
tp2107
a(S'check google calendar on next'
p2108
g15
tp2109
a(S'give me the current events please'
p2110
g15
tp2111
a(S'shut off'
p2112
g15
tp2113
a(S'could you create an event please'
p2114
g15
tp2115
a(S"don't i have to do anything on"
p2116
g15
tp2117
a(S'shut down the computer please'
p2118
g15
tp2119
a(S'open dot net'
p2120
g15
tp2121
a(S'can you get the current events'
p2122
g15
tp2123
a(S"today's live news feed"
p2124
g15
tp2125
a(S'please louder'
p2126
g15
tp2127
a(S"get if it's cold today"
p2128
g15
tp2129
a(S"what's if it's raining this week"
p2130
g15
tp2131
a(S'are there any events on next'
p2132
g15
tp2133
a(S"don't i have anything on monday"
p2134
g15
tp2135
a(S'please what is in new gmail'
p2136
g15
tp2137
a(S'can you please shut off'
p2138
g15
tp2139
a(S"what's if it's foggy today"
p2140
g15
tp2141
a(S'check google calendar for sunday'
p2142
g15
tp2143
a(S"don't i have to do anything on friday"
p2144
g15
tp2145
a(S'turn up the the beat'
p2146
g15
tp2147
a(S'do i have anything on saturday'
p2148
g15
tp2149
a(S'am i free on tuesday'
p2150
g15
tp2151
a(S'please tell me whats going on in the news please'
p2152
g15
tp2153
a(S'shut off please'
p2154
g15
tp2155
a(S'can you turn off'
p2156
g15
tp2157
a(S'open'
p2158
g15
tp2159
a(S'make the volume lower'
p2160
g15
tp2161
a(S'get current time please'
p2162
g15
tp2163
a(S'todays headlines'
p2164
g15
tp2165
a(S'would you check my gmail'
p2166
g15
tp2167
a(S'could you please schedule a new event'
p2168
g15
tp2169
a(S'please will you check my inbox'
p2170
g15
tp2171
a(S'please shut off my computer'
p2172
g15
tp2173
a(S'check inbox'
p2174
g15
tp2175
a(S'please turn off the computer'
p2176
g15
tp2177
a(S'check google calendar for monday'
p2178
g15
tp2179
a(S'would you check inbox'
p2180
g15
tp2181
a(S'please open gmail'
p2182
g15
tp2183
a(S'do i have anything on wednesday'
p2184
g15
tp2185
a(S'what is new in gmail'
p2186
g15
tp2187
a(S'am i free for friday'
p2188
g15
tp2189
a(S"aren't there any events on today"
p2190
g15
tp2191
a(S'any events on thursday'
p2192
g15
tp2193
a(S'anything new in inbox'
p2194
g15
tp2195
a(S'turn off the sound please'
p2196
g15
tp2197
a(S'schedule a new event'
p2198
g15
tp2199
a(S'what is on my calendar for monday'
p2200
g15
tp2201
a(S'am i free today'
p2202
g15
tp2203
a(S'spotify last song please'
p2204
g15
tp2205
a(S'check events'
p2206
g15
tp2207
a(S'do i have any events on tuesday'
p2208
g15
tp2209
a(S'can you close the active window'
p2210
g15
tp2211
a(S"what's in my inbox please"
p2212
g15
tp2213
a(S'are there any events in a week'
p2214
g15
tp2215
a(S'spotify go to the last song'
p2216
g15
tp2217
a(S'do i have any events on monday'
p2218
g15
tp2219
a(S"don't i have anything to do in a week"
p2220
g15
tp2221
a(S'check calendar on tuesday'
p2222
g15
tp2223
a(S'please could you open my inbox'
p2224
g15
tp2225
a(S'please would you open inbox'
p2226
g15
tp2227
a(S'check new mail please'
p2228
g15
tp2229
a(S'please what is in my mail'
p2230
g15
tp2231
a(S'will you get the current headlines'
p2232
g15
tp2233
a(S'shut off my computer please'
p2234
g15
tp2235
a(S"what's the live news feed"
p2236
g15
tp2237
a(S"aren't there any events on"
p2238
g15
tp2239
a(S"don't i have anything to do tomorrow"
p2240
g15
tp2241
a(S'do i have to do anything on next'
p2242
g15
tp2243
a(S'will you check my inbox'
p2244
g15
tp2245
a(S'spotify next'
p2246
g15
tp2247
a(S'get current weather'
p2248
g15
tp2249
a(S"get if it's raining today"
p2250
g15
tp2251
a(S'check google calendar for tomorrow'
p2252
g15
tp2253
a(S'check my calendar for this month'
p2254
g15
tp2255
a(S'check events on sunday'
p2256
g15
tp2257
a(S'please read the time'
p2258
g15
tp2259
a(S'shutdown the computer please'
p2260
g15
tp2261
a(S"today's newsfeed"
p2262
g15
tp2263
a(S'is there anything i have to do on'
p2264
g15
tp2265
a(S'please check my gmail'
p2266
g15
tp2267
a(S'current forecast'
p2268
g15
tp2269
a(S'do i have anything to do on next'
p2270
g15
tp2271
a(S'are there any events in a month'
p2272
g15
tp2273
a(S'check my gmail please'
p2274
g15
tp2275
a(S'open my inbox please'
p2276
g15
tp2277
a(S"don't i have anything today"
p2278
g15
tp2279
a(S'open mail please'
p2280
g15
tp2281
a(S"how's the temperature this week"
p2282
g15
tp2283
a(S'please would you open my mail'
p2284
g15
tp2285
a(S'open dot ee dee you'
p2286
g15
tp2287
a(S"don't i have anything in a week"
p2288
g15
tp2289
a(S'set the volume to zero'
p2290
g15
tp2291
a(S'play '
p2292
g15
tp2293
a(S'start spotify please'
p2294
g15
tp2295
a(S'can you exit'
p2296
g168
tp2297
a(S"don't i have to do anything on tuesday"
p2298
g15
tp2299
a(S'go to dot com'
p2300
g15
tp2301
a(S'could you please schedule new event'
p2302
g15
tp2303
a(S'current events'
p2304
g15
tp2305
a(S'please check the clock right now'
p2306
g15
tp2307
a(S'do i have anything to do on monday'
p2308
g15
tp2309
a(S'check events on tuesday'
p2310
g15
tp2311
a(S'could you please add event'
p2312
g15
tp2313
a(S'what do i have on thursday'
p2314
g15
tp2315
a(S"don't i have anything to do on thursday"
p2316
g15
tp2317
a(S'schedule event please'
p2318
g15
tp2319
a(S'could you create a new event please'
p2320
g15
tp2321
a(S'get me the clock'
p2322
g15
tp2323
a(S'can you send me to the lock screen please'
p2324
g15
tp2325
a(S'can you please schedule event'
p2326
g15
tp2327
a(S'a decent problem gossips beside the shoulder'
p2328
g15
tp2329
a(S'sound higher please'
p2330
g15
tp2331
a(S'can you please make an event'
p2332
g15
tp2333
a(S'turn off the beats'
p2334
g15
tp2335
a(S'check calendar on saturday'
p2336
g15
tp2337
a(S"if it's cloudy this week"
p2338
g15
tp2339
a(S'shut down my computer'
p2340
g15
tp2341
a(S'spotify stop'
p2342
g15
tp2343
a(S'get forecast'
p2344
g15
tp2345
a(S'skip'
p2346
g15
tp2347
a(S'open dot gov'
p2348
g15
tp2349
a(S'what do i have on wednesday'
p2350
g15
tp2351
a(S'can you turn the sound down'
p2352
g15
tp2353
a(S'can you add event please'
p2354
g15
tp2355
a(S"what's if it's raining today"
p2356
g15
tp2357
a(S'any events on wednesday'
p2358
g15
tp2359
a(S'am i free for monday'
p2360
g15
tp2361
a(S'please pause'
p2362
g15
tp2363
a(S"don't i have anything on next"
p2364
g15
tp2365
a(S'read the clock'
p2366
g15
tp2367
a(S'please shutdown my computer'
p2368
g15
tp2369
a(S"don't i have anything in a month"
p2370
g15
tp2371
a(S'can you please turn up the tunez'
p2372
g15
tp2373
a(S"don't i have anything to do on monday"
p2374
g15
tp2375
a(S'get the the latest headlines'
p2376
g15
tp2377
a(S'get news'
p2378
g15
tp2379
a(S'can you check new mail please'
p2380
g15
tp2381
a(S'can you check inbox please'
p2382
g15
tp2383
a(S'can you shut down'
p2384
g15
tp2385
a(S'do i have any events'
p2386
g15
tp2387
a(S'open a default browser'
p2388
g15
tp2389
a(S'see ya'
p2390
g168
tp2391
a(S'could you add new event please'
p2392
g15
tp2393
a(S"what's the live newsfeed"
p2394
g15
tp2395
a(S'can you please close the active window'
p2396
g15
tp2397
a(S'lower the volume'
p2398
g15
tp2399
a(S'are there any events on this day'
p2400
g15
tp2401
a(S'could you check inbox'
p2402
g15
tp2403
a(S'turn up the beat please'
p2404
g15
tp2405
a(S"don't i have to do anything on monday"
p2406
g15
tp2407
a(S'pause the song please'
p2408
g15
tp2409
a(S'please close this window'
p2410
g15
tp2411
a(S"don't i have any events on thursday"
p2412
g15
tp2413
a(S'spotify last please'
p2414
g15
tp2415
a(S'check calendar'
p2416
g15
tp2417
a(S'please can you turn the volume higher'
p2418
g15
tp2419
a(S'what is on my calendar'
p2420
g15
tp2421
a(S"don't i have to do anything on sunday"
p2422
g15
tp2423
a(S'please spotify play last song'
p2424
g15
tp2425
a(S'do i have anything to do in a week'
p2426
g15
tp2427
a(S'will you get the headlines'
p2428
g15
tp2429
a(S'check my calendar for monday'
p2430
g15
tp2431
a(S'kill the current window'
p2432
g15
tp2433
a(S'check google calendar for friday'
p2434
g15
tp2435
a(S"what's if it's snowing this week"
p2436
g15
tp2437
a(S'check my calendar on this week'
p2438
g15
tp2439
a(S'spotify shut up'
p2440
g15
tp2441
a(S'what do i have to do on friday'
p2442
g15
tp2443
a(S"what're the news"
p2444
g15
tp2445
a(S'any new mail'
p2446
g15
tp2447
a(S'shutdown please'
p2448
g15
tp2449
a(S'please search for'
p2450
g15
tp2451
a(S'can you open a browser'
p2452
g15
tp2453
a(S'can you turn yourself off'
p2454
g168
tp2455
a(S'make the sound higher'
p2456
g15
tp2457
a(S"please what's new in new gmail"
p2458
g15
tp2459
a(S'check my calendar on monday'
p2460
g15
tp2461
a(S'what do i have on'
p2462
g15
tp2463
a(S'issue commands'
p2464
g15
tp2465
a(S"what's new in new gmail"
p2466
g15
tp2467
a(S'do i have anything tomorrow'
p2468
g15
tp2469
a(S'google for please'
p2470
g15
tp2471
a(S'can you check gmail'
p2472
g15
tp2473
a(S"don't i have anything on friday"
p2474
g15
tp2475
a(S'make the sound quieter'
p2476
g15
tp2477
a(S"what's new in inbox"
p2478
g15
tp2479
a(S"don't i have anything to do in a month"
p2480
g15
tp2481
a(S'sweet dreams alice'
p2482
g168
tp2483
a(S'tell me the news'
p2484
g15
tp2485
a(S'do i have anything to do on saturday'
p2486
g15
tp2487
a(S'could you create new event'
p2488
g15
tp2489
a(S"what's today's temperature"
p2490
g15
tp2491
a(S'please create an event'
p2492
g15
tp2493
a(S'make an event'
p2494
g15
tp2495
a(S"what's in mail please"
p2496
g15
tp2497
a(S'check events for friday'
p2498
g15
tp2499
a(S'play song'
p2500
g15
tp2501
a(S'what do i have to do'
p2502
g15
tp2503
a(S'please google'
p2504
g15
tp2505
a(S'live newsfeed'
p2506
g15
tp2507
a(S"don't i have any events on saturday"
p2508
g15
tp2509
a(S'give me the current events'
p2510
g15
tp2511
a(S'please can you check inbox'
p2512
g15
tp2513
a(S'make event please'
p2514
g15
tp2515
a(S'add new event please'
p2516
g15
tp2517
a(S'please pause the song'
p2518
g15
tp2519
a(S'what events do i have in a month'
p2520
g15
tp2521
a(S"get if it's rainy today"
p2522
g15
tp2523
a(S'check calendar for this month'
p2524
g15
tp2525
a(S'bye'
p2526
g168
tp2527
a(S'clock'
p2528
g15
tp2529
a(S'please get the current events'
p2530
g15
tp2531
a(S'can you please turn up the sound'
p2532
g15
tp2533
a(S'can you lock my computer please'
p2534
g15
tp2535
a(S'close window'
p2536
g15
tp2537
a(S"what's new in inbox please"
p2538
g15
tp2539
a(S'is it raining this week'
p2540
g15
tp2541
a(S'please lock computer'
p2542
g15
tp2543
a(S'will you check gmail please'
p2544
g15
tp2545
a(S'would you check mail please'
p2546
g15
tp2547
a(S'what do i have on next'
p2548
g15
tp2549
a(S"what's the current news"
p2550
g15
tp2551
a(S'retrieve the time please'
p2552
g15
tp2553
a(S'get current temperature'
p2554
g15
tp2555
a(S'are there any events on wednesday'
p2556
g15
tp2557
a(S'do i have to do anything next'
p2558
g15
tp2559
a(S'check google calendar for next'
p2560
g15
tp2561
a(S'please schedule an event'
p2562
g15
tp2563
a(S'check events for'
p2564
g15
tp2565
a(S'check my calendar on next'
p2566
g15
tp2567
a(S'brief me'
p2568
g15
tp2569
a(S'could you open my mail'
p2570
g15
tp2571
a(S'check google calendar on wednesday'
p2572
g15
tp2573
a(S'check google calendar on friday'
p2574
g15
tp2575
a(S'what are the current events today'
p2576
g15
tp2577
a(S'please would you check mail'
p2578
g15
tp2579
a(S'spotify play the last song'
p2580
g15
tp2581
a(S'current time'
p2582
g15
tp2583
a(S'turn off'
p2584
g15
tp2585
a(S'what is in gmail please'
p2586
g15
tp2587
a(S'get current events'
p2588
g15
tp2589
a(S'can you add event'
p2590
g15
tp2591
a(S'check google calendar for'
p2592
g15
tp2593
a(S'can you please turn up the tune'
p2594
g15
tp2595
a(S'turn up the volume'
p2596
g15
tp2597
a(S'please add an event'
p2598
g15
tp2599
a(S'could you add event please'
p2600
g15
tp2601
a(S'are there any events on tomorrow'
p2602
g15
tp2603
a(S'what is new in mail'
p2604
g15
tp2605
a(S'please add event'
p2606
g15
tp2607
a(S'put me on the lock screen please'
p2608
g15
tp2609
a(S"what's in new gmail please"
p2610
g15
tp2611
a(S'anything in gmail'
p2612
g15
tp2613
a(S"don't i have any events on tuesday"
p2614
g15
tp2615
a(S"don't i have any events on sunday"
p2616
g15
tp2617
a(S'what are the live newsfeed'
p2618
g15
tp2619
a(S'is there anything to do on tomorrow'
p2620
g15
tp2621
a(S'can you turn off my computer'
p2622
g15
tp2623
a(S'please shut off'
p2624
g15
tp2625
a(S'what events do i have on wednesday'
p2626
g15
tp2627
a(S"what's if it's rainy this week"
p2628
g15
tp2629
a(S'check if i have anything in my inbox'
p2630
g15
tp2631
a(S'make the sound louder'
p2632
g15
tp2633
a(S"what's the headlines"
p2634
g15
tp2635
a(S"get if it's snowing today"
p2636
g15
tp2637
a(S'will you open gmail'
p2638
g15
tp2639
a(S"what's if it's freezing today"
p2640
g15
tp2641
a(S"if it's raining today"
p2642
g15
tp2643
a(S'volume higher please'
p2644
g15
tp2645
a(S'search google please'
p2646
g15
tp2647
a(S'would you check gmail'
p2648
g15
tp2649
a(S'can you create an event'
p2650
g15
tp2651
a(S'what events do i have in a week'
p2652
g15
tp2653
a(S'check calendar for tuesday'
p2654
g15
tp2655
a(S'can you please shut down the computer'
p2656
g15
tp2657
a(S'could you create a new event'
p2658
g15
tp2659
a(S'do i have to do anything on sunday'
p2660
g15
tp2661
a(S'what is new in new gmail'
p2662
g15
tp2663
a(S'open a default browser please'
p2664
g15
tp2665
a(S'check inbox please'
p2666
g15
tp2667
a(S'open my mail please'
p2668
g15
tp2669
a(S'get current news'
p2670
g15
tp2671
a(S"aren't there any events on thursday"
p2672
g15
tp2673
a(S'check events on monday'
p2674
g15
tp2675
a(S"please what's new in my inbox"
p2676
g15
tp2677
a(S'do i have anything on sunday'
p2678
g15
tp2679
a(S'can you please close this window'
p2680
g15
tp2681
a(S'alice go ahead please'
p2682
g15
tp2683
a(S'am i free for a month'
p2684
g15
tp2685
a(S'hey alice'
p2686
g15
tp2687
a(S'get the clock'
p2688
g15
tp2689
a(S"get this week's weather"
p2690
g15
tp2691
a(S"what's if it's hot today"
p2692
g15
tp2693
a(S'please will you check my mail'
p2694
g15
tp2695
a(S'is there anything to do on monday'
p2696
g15
tp2697
a(S'please turn off my computer'
p2698
g15
tp2699
a(S'can you please turn the sound down'
p2700
g15
tp2701
a(S"today's temperature"
p2702
g15
tp2703
a(S'please will you check mail'
p2704
g15
tp2705
a(S'please read me the clock'
p2706
g15
tp2707
a(S'what events are on saturday'
p2708
g15
tp2709
a(S'check my gmail'
p2710
g15
tp2711
a(S'please what is new in inbox'
p2712
g15
tp2713
a(S'set the volume zero'
p2714
g15
tp2715
a(S'is there anything i have to do in a week'
p2716
g15
tp2717
a(S'what is on my calendar for wednesday'
p2718
g15
tp2719
a(S'retrieve the current time please'
p2720
g15
tp2721
a(S"if it's hot this week"
p2722
g15
tp2723
a(S'check my calendar on wednesday'
p2724
g15
tp2725
a(S'what is new in new mail'
p2726
g15
tp2727
a(S'alex'
p2728
g15
tp2729
a(S'can you lock the screen please'
p2730
g15
tp2731
a(S'tell me current news'
p2732
g15
tp2733
a(S'check events on friday'
p2734
g15
tp2735
a(S"what's the forecast"
p2736
g15
tp2737
a(S'can you check if i have anything in my inbox'
p2738
g15
tp2739
a(S'please sound higher'
p2740
g15
tp2741
a(S"what's the time"
p2742
g15
tp2743
a(S'would you open my inbox please'
p2744
g15
tp2745
a(S'please shut my computer down'
p2746
g15
tp2747
a(S'do i have anything in my inbox'
p2748
g15
tp2749
a(S'spotify play the song before'
p2750
g15
tp2751
a(S"get if it's hot this week"
p2752
g15
tp2753
a(S"what's the live news"
p2754
g15
tp2755
a(S'shut off my computer'
p2756
g15
tp2757
a(S'what do i have to do on sunday'
p2758
g15
tp2759
a(S'what events do i have on monday'
p2760
g15
tp2761
a(S'will you check my mail'
p2762
g15
tp2763
a(S'please open my inbox'
p2764
g15
tp2765
a(S'make the volume 0'
p2766
g15
tp2767
a(S'would you check gmail please'
p2768
g15
tp2769
a(S'check my calendar on today'
p2770
g15
tp2771
a(S"don't i have anything on tuesday"
p2772
g15
tp2773
a(S'any events on tuesday'
p2774
g15
tp2775
a(S'can you please create an event'
p2776
g15
tp2777
a(S'what is in new mail please'
p2778
g15
tp2779
a(S'please read your watch'
p2780
g15
tp2781
a(S'is it hot today'
p2782
g15
tp2783
a(S'am i free on friday'
p2784
g15
tp2785
a(S'do i have any events on saturday'
p2786
g15
tp2787
a(S'get headlines'
p2788
g15
tp2789
a(S'what events are on monday'
p2790
g15
tp2791
a(S'schedule event'
p2792
g15
tp2793
a(S'what is on my calendar for thursday'
p2794
g15
tp2795
a(S"please what's new in inbox"
p2796
g15
tp2797
a(S'open gmail'
p2798
g15
tp2799
a(S'am i free on'
p2800
g15
tp2801
a(S'will you check my mail please'
p2802
g15
tp2803
a(S'please get the time'
p2804
g15
tp2805
a(S'can you please exit'
p2806
g168
tp2807
a(S"what's in inbox"
p2808
g15
tp2809
a(S'check google calendar for saturday'
p2810
g15
tp2811
a(S'check gmail please'
p2812
g15
tp2813
a(S'open my gmail'
p2814
g15
tp2815
a(S'what events do i have on tomorrow'
p2816
g15
tp2817
a(S'am i free for a week'
p2818
g15
tp2819
a(S'will you open my mail please'
p2820
g15
tp2821
a(S'next spotify please'
p2822
g15
tp2823
a(S'what is in my gmail please'
p2824
g15
tp2825
a(S'check my calendar for tuesday'
p2826
g15
tp2827
a(S"what's new in my inbox"
p2828
g15
tp2829
a(S'could you open my mail please'
p2830
g15
tp2831
a(S'will you check my gmail'
p2832
g15
tp2833
a(S'is there anything i have to do on wednesday'
p2834
g15
tp2835
a(S"don't i have to do anything in a month"
p2836
g15
tp2837
a(S'google please for'
p2838
g15
tp2839
a(S"aren't there any events in a week"
p2840
g15
tp2841
a(S'spotify previous song please'
p2842
g15
tp2843
a(S'could you schedule new event'
p2844
g15
tp2845
a(S'check events for wednesday'
p2846
g15
tp2847
a(S'current news today'
p2848
g15
tp2849
a(S'start a browser'
p2850
g15
tp2851
a(S'search for'
p2852
g15
tp2853
a(S'mute please'
p2854
g15
tp2855
a(S"get this week's forecast"
p2856
g15
tp2857
a(S'would you check new mail please'
p2858
g15
tp2859
a(S'what events are going on right now'
p2860
g15
tp2861
a(S"what's new in mail please"
p2862
g15
tp2863
a(S'any new gmail'
p2864
g15
tp2865
a(S'could you open mail please'
p2866
g15
tp2867
a(S"what's if it's cold this week"
p2868
g15
tp2869
a(S'please schedule a new event'
p2870
g15
tp2871
a(S'please open my gmail'
p2872
g15
tp2873
a(S"don't i have to do anything on saturday"
p2874
g15
tp2875
a(S'kill this window'
p2876
g15
tp2877
a(S'what events do i have on thursday'
p2878
g15
tp2879
a(S'open a browser please'
p2880
g15
tp2881
a(S'spotify pause'
p2882
g15
tp2883
a(S'anything new in my mail'
p2884
g15
tp2885
a(S'retrieve the current time'
p2886
g15
tp2887
a(S'how is the temperature'
p2888
g15
tp2889
a(S'check google calendar on sunday'
p2890
g15
tp2891
a(S'will you check new gmail please'
p2892
g15
tp2893
a(S'what do i have in a week'
p2894
g15
tp2895
a(S'see ya alice'
p2896
g168
tp2897
a(S'check google calendar for this week'
p2898
g15
tp2899
a(S'check calendar for wednesday'
p2900
g15
tp2901
a(S'see you'
p2902
g168
tp2903
a(S'please spotify last'
p2904
g15
tp2905
a(S"if it's foggy today"
p2906
g15
tp2907
a(S'is there anything i have to do on friday'
p2908
g15
tp2909
a(S'time please'
p2910
g15
tp2911
a(S'could you make an event please'
p2912
g15
tp2913
a(S'is there anything i have to do'
p2914
g15
tp2915
a(S'please will you open inbox'
p2916
g15
tp2917
a(S'quit'
p2918
g168
tp2919
a(S"today's weather"
p2920
g15
tp2921
a(S'are there any events on'
p2922
g15
tp2923
a(S'can you check new gmail'
p2924
g15
tp2925
a(S'send me to the lock screen'
p2926
g15
tp2927
a(S'could you please add an event'
p2928
g15
tp2929
a(S'please open'
p2930
g15
tp2931
a(S'do i have anything on thursday'
p2932
g15
tp2933
a(S'how is the forecast'
p2934
g15
tp2935
a(S'can you schedule new event'
p2936
g15
tp2937
a(S'song stop'
p2938
g15
tp2939
a(S'can you turn up the sound'
p2940
g15
tp2941
a(S'what events are on friday'
p2942
g15
tp2943
a(S'make the volume softer'
p2944
g15
tp2945
a(S'any events on tomorrow'
p2946
g15
tp2947
a(S'live news feed'
p2948
g15
tp2949
a(S"get if it's hot today"
p2950
g15
tp2951
a(S'please will you open my mail'
p2952
g15
tp2953
a(S"what's the weather"
p2954
g15
tp2955
a(S'check events on this day'
p2956
g15
tp2957
a(S'is there anything to do on tuesday'
p2958
g15
tp2959
a(S'will you check new gmail'
p2960
g15
tp2961
a(S'what events are on this day'
p2962
g15
tp2963
a(S"what's the weather this week"
p2964
g15
tp2965
a(S'unmute'
p2966
g15
tp2967
a(S'will you open my mail'
p2968
g15
tp2969
a(S'check events for this month'
p2970
g15
tp2971
a(S'please make an event'
p2972
g15
tp2973
a(S'what do i have on today'
p2974
g15
tp2975
a(S'please create event'
p2976
g15
tp2977
a(S"please what's in my inbox"
p2978
g15
tp2979
a(S'please could you check gmail'
p2980
g15
tp2981
a(S'read me the clock please'
p2982
g15
tp2983
a(S'can you schedule event'
p2984
g15
tp2985
a(S'could you open gmail'
p2986
g15
tp2987
a(S'give me the news'
p2988
g15
tp2989
a(S'can you please shutdown the computer'
p2990
g15
tp2991
a(S'what events do i have'
p2992
g15
tp2993
a(S'google search for please'
p2994
g15
tp2995
a(S'current weather'
p2996
g15
tp2997
a(S'could you make new event please'
p2998
g15
tp2999
a(S'please check the current time'
p3000
g15
tp3001
a(S'are there any events'
p3002
g15
tp3003
a(S"don't i have any events on tomorrow"
p3004
g15
tp3005
a(S'what time is it right now'
p3006
g15
tp3007
a(S'google please'
p3008
g15
tp3009
a(S'next song'
p3010
g15
tp3011
a(S'what is in the news today'
p3012
g15
tp3013
a(S'can you put me on the lock screen'
p3014
g15
tp3015
a(S'can you create event please'
p3016
g15
tp3017
a(S'could you check my mail'
p3018
g15
tp3019
a(S'start browsing'
p3020
g15
tp3021
a(S'would you check new gmail please'
p3022
g15
tp3023
a(S'please spotify start'
p3024
g15
tp3025
a(S'check my calendar on sunday'
p3026
g15
tp3027
a(S'please close active window'
p3028
g15
tp3029
a(S'please will you open gmail'
p3030
g15
tp3031
a(S'please check inbox'
p3032
g15
tp3033
a(S"what's the clock"
p3034
g15
tp3035
a(S'will you open inbox'
p3036
g15
tp3037
a(S"don't i have any events on next"
p3038
g15
tp3039
a(S'please what is new in my mail'
p3040
g15
tp3041
a(S"don't i have anything to do on tuesday"
p3042
g15
tp3043
a(S'is there anything to do on thursday'
p3044
g15
tp3045
a(S'what is news'
p3046
g15
tp3047
a(S'check calendar for today'
p3048
g15
tp3049
a(S"please what's new in mail"
p3050
g15
tp3051
a(S'can you please add a new event'
p3052
g15
tp3053
a(S"i think i didn't answer an earlier question"
p3054
g15
tp3055
a(S'please what is new in my gmail'
p3056
g15
tp3057
a(S'please can you turn up the volume'
p3058
g15
tp3059
a(S"don't i have anything tomorrow"
p3060
g15
tp3061
a(S"how's the weather today"
p3062
g15
tp3063
a(S'can you kill the current window'
p3064
g15
tp3065
a(S'pause please'
p3066
g15
tp3067
a(S'put me on the lock screen'
p3068
g15
tp3069
a(S'will you get the current events for me'
p3070
g15
tp3071
a(S'go spotify please'
p3072
g15
tp3073
a(S'please could you open mail'
p3074
g15
tp3075
a(S'please start browser'
p3076
g15
tp3077
a(S'what are the news feed'
p3078
g15
tp3079
a(S'is it snowing today'
p3080
g15
tp3081
a(S"what's this week's temperature"
p3082
g15
tp3083
a(S"get if it's foggy today"
p3084
g15
tp3085
a(S'please retrieve what time it is'
p3086
g15
tp3087
a(S'open dot com'
p3088
g15
tp3089
a(S'can you shut off my computer'
p3090
g15
tp3091
a(S"today's live newsfeed"
p3092
g15
tp3093
a(S'is there anything i have to do on this day'
p3094
g15
tp3095
a(S'can you lock computer please'
p3096
g15
tp3097
a(S'read time'
p3098
g15
tp3099
a(S'please would you check new mail'
p3100
g15
tp3101
a(S'please would you open my inbox'
p3102
g15
tp3103
a(S'please volume higher'
p3104
g15
tp3105
a(S'please what is in new mail'
p3106
g15
tp3107
a(S'please create a new event'
p3108
g15
tp3109
a(S'turn down the volume'
p3110
g15
tp3111
a(S'do i have anything to do next'
p3112
g15
tp3113
a(S'read the clock please'
p3114
g15
tp3115
a(S"please what's in new mail"
p3116
g15
tp3117
a(S'please schedule event'
p3118
g15
tp3119
a(S"what's in inbox please"
p3120
g15
tp3121
a(S'please can you check my mail'
p3122
g15
tp3123
a(S'create new event'
p3124
g15
tp3125
a(S'can you add a new event please'
p3126
g15
tp3127
a(S'please would you open gmail'
p3128
g15
tp3129
a(S'can you please shutdown my computer'
p3130
g15
tp3131
a(S'find current events'
p3132
g15
tp3133
a(S'please pause spotify'
p3134
g15
tp3135
a(S'what is in gmail'
p3136
g15
tp3137
a(S'what is new in inbox'
p3138
g15
tp3139
a(S"what's if it's hot this week"
p3140
g15
tp3141
a(S"what's the temperature this week"
p3142
g15
tp3143
a(S'kill current window'
p3144
g15
tp3145
a(S"what's in my gmail please"
p3146
g15
tp3147
a(S"what're the live news feed"
p3148
g15
tp3149
a(S'can you open this program'
p3150
g15
tp3151
a(S"what's in my gmail"
p3152
g15
tp3153
a(S'please could you open gmail'
p3154
g15
tp3155
a(S'news feed'
p3156
g15
tp3157
a(S'would you open my gmail please'
p3158
g15
tp3159
a(S"get this week's temperature"
p3160
g15
tp3161
a(S'am i free on wednesday'
p3162
g15
tp3163
a(S'is there anything i have to do on sunday'
p3164
g15
tp3165
a(S'lock computer please'
p3166
g15
tp3167
a(S'can you open a browser please'
p3168
g15
tp3169
a(S'check google calendar for this day'
p3170
g15
tp3171
a(S'spotify go ahead'
p3172
g15
tp3173
a(S'make the volume zero'
p3174
g15
tp3175
a(S'am i free on sunday'
p3176
g15
tp3177
a(S'what events are on tuesday'
p3178
g15
tp3179
a(S"what're the news feed"
p3180
g15
tp3181
a(S"don't i have to do anything on this day"
p3182
g15
tp3183
a(S'what is on my calendar for next'
p3184
g15
tp3185
a(S'what is in my inbox'
p3186
g15
tp3187
a(S'debrief me'
p3188
g15
tp3189
a(S'is there anything to do in a month'
p3190
g15
tp3191
a(S'do i have anything to do on this day'
p3192
g15
tp3193
a(S'are there any events on tuesday'
p3194
g15
tp3195
a(S"how's the forecast"
p3196
g15
tp3197
a(S'please can you check new mail'
p3198
g15
tp3199
a(S'get live news'
p3200
g15
tp3201
a(S'can you add new event please'
p3202
g15
tp3203
a(S'could you check inbox please'
p3204
g15
tp3205
a(S'check my calendar for saturday'
p3206
g15
tp3207
a(S"what's if it's cloudy this week"
p3208
g15
tp3209
a(S'any events on saturday'
p3210
g15
tp3211
a(S'what do i have to do on saturday'
p3212
g15
tp3213
a(S"don't i have anything to do on this day"
p3214
g15
tp3215
a(S'please go spotify '
p3216
g15
tp3217
a(S'what is in new mail'
p3218
g15
tp3219
a(S'is there anything i have to do in a month'
p3220
g15
tp3221
a(S"today's headlines"
p3222
g15
tp3223
a(S'get temperature'
p3224
g15
tp3225
a(S'what time is it'
p3226
g15
tp3227
a(S'any events in a week'
p3228
g15
tp3229
a(S'any gmail'
p3230
g15
tp3231
a(S'could you add event'
p3232
g15
tp3233
a(S'get clock please'
p3234
g15
tp3235
a(S'please could you check my inbox'
p3236
g15
tp3237
a(S'check gmail'
p3238
g15
tp3239
a(S'please make a new event'
p3240
g15
tp3241
a(S'will you open my inbox please'
p3242
g15
tp3243
a(S'check google calendar for this month'
p3244
g15
tp3245
a(S"get if it's cold this week"
p3246
g15
tp3247
a(S'could you create new event please'
p3248
g15
tp3249
a(S'what is in new gmail'
p3250
g15
tp3251
a(S'shutdown my computer please'
p3252
g15
tp3253
a(S"how's the forecast this week"
p3254
g15
tp3255
a(S'will you check my inbox please'
p3256
g15
tp3257
a(S'check google calendar for this day'
p3258
g15
tp3259
a(S'could you schedule new event please'
p3260
g15
tp3261
a(S'a releasing moderate stalls beside the material cell'
p3262
g15
tp3263
a(S'what events are in a month'
p3264
g15
tp3265
a(S'do i have any events on tomorrow'
p3266
g15
tp3267
a(S'turn off my computer please'
p3268
g15
tp3269
a(S'get the current events'
p3270
g15
tp3271
a(S'open my gmail please'
p3272
g15
tp3273
a(S'how is the weather'
p3274
g15
tp3275
a(S'set volume 0'
p3276
g15
tp3277
a(S'what do i have to do in a week'
p3278
g15
tp3279
a(S"what's today's weather"
p3280
g15
tp3281
a(S"get if it's raining this week"
p3282
g15
tp3283
a(S'close current program'
p3284
g15
tp3285
a(S'please will you check my gmail'
p3286
g15
tp3287
a(S'please can you make it louder'
p3288
g15
tp3289
a(S'lower the sound'
p3290
g15
tp3291
a(S"don't i have any events in a month"
p3292
g15
tp3293
a(S'am i free for tuesday'
p3294
g15
tp3295
a(S'check google calendar for today'
p3296
g15
tp3297
a(S'get the current events'
p3298
g15
tp3299
a(S'will you check new mail'
p3300
g15
tp3301
a(S'please spotify previous song'
p3302
g15
tp3303
a(S'could you check new gmail please'
p3304
g15
tp3305
a(S'please shutdown the computer'
p3306
g15
tp3307
a(S'could you schedule event'
p3308
g15
tp3309
a(S'do i have anything to do on friday'
p3310
g15
tp3311
a(S'could you check mail'
p3312
g15
tp3313
a(S'would you open gmail'
p3314
g15
tp3315
a(S'am i free for today'
p3316
g15
tp3317
a(S'please will you open mail'
p3318
g15
tp3319
a(S'please would you check inbox'
p3320
g15
tp3321
a(S'would you open gmail please'
p3322
g15
tp3323
a(S'open a browser'
p3324
g15
tp3325
a(S'can you shutdown the computer'
p3326
g15
tp3327
a(S'what is in my mail'
p3328
g15
tp3329
a(S"if it's rainy this week"
p3330
g15
tp3331
a(S'could you create an event'
p3332
g15
tp3333
a(S'turn off the computer'
p3334
g15
tp3335
a(S'spotify skip'
p3336
g15
tp3337
a(S'what time is it now'
p3338
g15
tp3339
a(S"don't i have anything on sunday"
p3340
g15
tp3341
a(S'temperature'
p3342
g15
tp3343
a(S"today's live news"
p3344
g15
tp3345
a(S'gimme the news'
p3346
g15
tp3347
a(S'anything new in gmail'
p3348
g15
tp3349
a(S'what is new in gmail please'
p3350
g15
tp3351
a(S'can you please turn off the computer'
p3352
g15
tp3353
a(S'check the clock right now'
p3354
g15
tp3355
a(S'can you please close active window'
p3356
g15
tp3357
a(S"don't i have to do anything"
p3358
g15
tp3359
a(S'is it rainy today'
p3360
g15
tp3361
a(S'check calendar on tomorrow'
p3362
g15
tp3363
a(S"what's in new mail"
p3364
g15
tp3365
a(S'sweet dreams'
p3366
g168
tp3367
a(S'please what is in inbox'
p3368
g15
tp3369
a(S'get live news feed'
p3370
g15
tp3371
a(S'be quiet'
p3372
g15
tp3373
a(S'check google calendar on this week'
p3374
g15
tp3375
a(S'what is newsfeed'
p3376
g15
tp3377
a(S'is there anything i have to do tomorrow'
p3378
g15
tp3379
a(S'is there anything i have to do on monday'
p3380
g15
tp3381
a(S'kill the noise'
p3382
g15
tp3383
asS'classifier'
p3384
ccopy_reg
_reconstructor
p3385
(csklearn.pipeline
Pipeline
p3386
c__builtin__
object
p3387
Ntp3388
Rp3389
(dp3390
S'_sklearn_version'
p3391
S'0.18.1'
p3392
sS'steps'
p3393
(lp3394
(S'vect'
p3395
g3385
(csklearn.feature_extraction.text
CountVectorizer
p3396
g3387
Ntp3397
Rp3398
(dp3399
S'decode_error'
p3400
Vstrict
p3401
sS'lowercase'
p3402
I01
sS'stop_words'
p3403
NsS'vocabulary'
p3404
NsS'tokenizer'
p3405
NsS'encoding'
p3406
Vutf-8
p3407
sS'token_pattern'
p3408
V(?u)\u005cb\u005cw\u005cw+\u005cb
p3409
sS'input'
p3410
Vcontent
p3411
sS'analyzer'
p3412
Vword
p3413
sS'vocabulary_'
p3414
(dp3415
Vevent
p3416
cnumpy.core.multiarray
scalar
p3417
(cnumpy
dtype
p3418
(S'i8'
p3419
I0
I1
tp3420
Rp3421
(I3
S'<'
p3422
NNNI-1
I-1
I0
tp3423
bS'@\x00\x00\x00\x00\x00\x00\x00'
p3424
tp3425
Rp3426
sVraining
p3427
g3417
(g3421
S'\xa2\x00\x00\x00\x00\x00\x00\x00'
p3428
tp3429
Rp3430
sVtodays
p3431
g3417
(g3421
S'\xcf\x00\x00\x00\x00\x00\x00\x00'
p3432
tp3433
Rp3434
sVmute
p3435
g3417
(g3421
S'\x7f\x00\x00\x00\x00\x00\x00\x00'
p3436
tp3437
Rp3438
sVbyebye
p3439
g3417
(g3421
S'\x1b\x00\x00\x00\x00\x00\x00\x00'
p3440
tp3441
Rp3442
sVskip
p3443
g3417
(g3421
S'\xb7\x00\x00\x00\x00\x00\x00\x00'
p3444
tp3445
Rp3446
sVmonth
p3447
g3417
(g3421
S'|\x00\x00\x00\x00\x00\x00\x00'
p3448
tp3449
Rp3450
sVsofter
p3451
g3417
(g3421
S'\xba\x00\x00\x00\x00\x00\x00\x00'
p3452
tp3453
Rp3454
sVkill
p3455
g3417
(g3421
S'n\x00\x00\x00\x00\x00\x00\x00'
p3456
tp3457
Rp3458
sVedu
p3459
g3417
(g3421
S'=\x00\x00\x00\x00\x00\x00\x00'
p3460
tp3461
Rp3462
sVgo
p3463
g3417
(g3421
S'U\x00\x00\x00\x00\x00\x00\x00'
p3464
tp3465
Rp3466
sVheadlines
p3467
g3417
(g3421
S'^\x00\x00\x00\x00\x00\x00\x00'
p3468
tp3469
Rp3470
sVfind
p3471
g3417
(g3421
S'H\x00\x00\x00\x00\x00\x00\x00'
p3472
tp3473
Rp3474
sVprevious
p3475
g3417
(g3421
S'\x98\x00\x00\x00\x00\x00\x00\x00'
p3476
tp3477
Rp3478
sVspotify
p3479
g3417
(g3421
S'\xbd\x00\x00\x00\x00\x00\x00\x00'
p3480
tp3481
Rp3482
sVpause
p3483
g3417
(g3421
S'\x91\x00\x00\x00\x00\x00\x00\x00'
p3484
tp3485
Rp3486
sVsnowing
p3487
g3417
(g3421
S'\xb9\x00\x00\x00\x00\x00\x00\x00'
p3488
tp3489
Rp3490
sVsunday
p3491
g3417
(g3421
S'\xc2\x00\x00\x00\x00\x00\x00\x00'
p3492
tp3493
Rp3494
sVsend
p3495
g3417
(g3421
S'\xb1\x00\x00\x00\x00\x00\x00\x00'
p3496
tp3497
Rp3498
sVaren
p3499
g3417
(g3421
S'\x0e\x00\x00\x00\x00\x00\x00\x00'
p3500
tp3501
Rp3502
sVto
p3503
g3417
(g3421
S'\xcd\x00\x00\x00\x00\x00\x00\x00'
p3504
tp3505
Rp3506
sVwindow
p3507
g3417
(g3421
S'\xe5\x00\x00\x00\x00\x00\x00\x00'
p3508
tp3509
Rp3510
sVgoing
p3511
g3417
(g3421
S'V\x00\x00\x00\x00\x00\x00\x00'
p3512
tp3513
Rp3514
sVmail
p3515
g3417
(g3421
S'v\x00\x00\x00\x00\x00\x00\x00'
p3516
tp3517
Rp3518
sVbye
p3519
g3417
(g3421
S'\x1a\x00\x00\x00\x00\x00\x00\x00'
p3520
tp3521
Rp3522
sVdo
p3523
g3417
(g3421
S'5\x00\x00\x00\x00\x00\x00\x00'
p3524
tp3525
Rp3526
sVpredict
p3527
g3417
(g3421
S'\x96\x00\x00\x00\x00\x00\x00\x00'
p3528
tp3529
Rp3530
sVgood
p3531
g3417
(g3421
S'W\x00\x00\x00\x00\x00\x00\x00'
p3532
tp3533
Rp3534
sVemergency
p3535
g3417
(g3421
S'?\x00\x00\x00\x00\x00\x00\x00'
p3536
tp3537
Rp3538
sVget
p3539
g3417
(g3421
S'Q\x00\x00\x00\x00\x00\x00\x00'
p3540
tp3541
Rp3542
sVya
p3543
g3417
(g3421
S'\xe8\x00\x00\x00\x00\x00\x00\x00'
p3544
tp3545
Rp3546
sVmaterial
p3547
g3417
(g3421
S'x\x00\x00\x00\x00\x00\x00\x00'
p3548
tp3549
Rp3550
sVstop
p3551
g3417
(g3421
S'\xc1\x00\x00\x00\x00\x00\x00\x00'
p3552
tp3553
Rp3554
sVanswer
p3555
g3417
(g3421
S'\n\x00\x00\x00\x00\x00\x00\x00'
p3556
tp3557
Rp3558
sVreport
p3559
g3417
(g3421
S'\xa7\x00\x00\x00\x00\x00\x00\x00'
p3560
tp3561
Rp3562
sVworld
p3563
g3417
(g3421
S'\xe6\x00\x00\x00\x00\x00\x00\x00'
p3564
tp3565
Rp3566
sVnow
p3567
g3417
(g3421
S'\x88\x00\x00\x00\x00\x00\x00\x00'
p3568
tp3569
Rp3570
sVday
p3571
g3417
(g3421
S'-\x00\x00\x00\x00\x00\x00\x00'
p3572
tp3573
Rp3574
sVdreams
p3575
g3417
(g3421
S';\x00\x00\x00\x00\x00\x00\x00'
p3576
tp3577
Rp3578
sVintel
p3579
g3417
(g3421
S'i\x00\x00\x00\x00\x00\x00\x00'
p3580
tp3581
Rp3582
sVshoulder
p3583
g3417
(g3421
S'\xb3\x00\x00\x00\x00\x00\x00\x00'
p3584
tp3585
Rp3586
sVmoderate
p3587
g3417
(g3421
S'z\x00\x00\x00\x00\x00\x00\x00'
p3588
tp3589
Rp3590
sValex
p3591
g3417
(g3421
S'\x05\x00\x00\x00\x00\x00\x00\x00'
p3592
tp3593
Rp3594
sVlike
p3595
g3417
(g3421
S'q\x00\x00\x00\x00\x00\x00\x00'
p3596
tp3597
Rp3598
sVgossips
p3599
g3417
(g3421
S'Y\x00\x00\x00\x00\x00\x00\x00'
p3600
tp3601
Rp3602
sVdidn
p3603
g3417
(g3421
S'4\x00\x00\x00\x00\x00\x00\x00'
p3604
tp3605
Rp3606
sVwednesday
p3607
g3417
(g3421
S'\xdf\x00\x00\x00\x00\x00\x00\x00'
p3608
tp3609
Rp3610
sVcloudy
p3611
g3417
(g3421
S'$\x00\x00\x00\x00\x00\x00\x00'
p3612
tp3613
Rp3614
sVmorning
p3615
g3417
(g3421
S'}\x00\x00\x00\x00\x00\x00\x00'
p3616
tp3617
Rp3618
sVtry
p3619
g3417
(g3421
S'\xd2\x00\x00\x00\x00\x00\x00\x00'
p3620
tp3621
Rp3622
sVtunez
p3623
g3417
(g3421
S'\xd6\x00\x00\x00\x00\x00\x00\x00'
p3624
tp3625
Rp3626
sVgimme
p3627
g3417
(g3421
S'R\x00\x00\x00\x00\x00\x00\x00'
p3628
tp3629
Rp3630
sVnight
p3631
g3417
(g3421
S'\x86\x00\x00\x00\x00\x00\x00\x00'
p3632
tp3633
Rp3634
sVtunes
p3635
g3417
(g3421
S'\xd5\x00\x00\x00\x00\x00\x00\x00'
p3636
tp3637
Rp3638
sVclassifier
p3639
g3417
(g3421
S'!\x00\x00\x00\x00\x00\x00\x00'
p3640
tp3641
Rp3642
sVinbox
p3643
g3417
(g3421
S'f\x00\x00\x00\x00\x00\x00\x00'
p3644
tp3645
Rp3646
sVset
p3647
g3417
(g3421
S'\xb2\x00\x00\x00\x00\x00\x00\x00'
p3648
tp3649
Rp3650
sVretrieve
p3651
g3417
(g3421
S'\xa8\x00\x00\x00\x00\x00\x00\x00'
p3652
tp3653
Rp3654
sVee
p3655
g3417
(g3421
S'>\x00\x00\x00\x00\x00\x00\x00'
p3656
tp3657
Rp3658
sVintelligence
p3659
g3417
(g3421
S'j\x00\x00\x00\x00\x00\x00\x00'
p3660
tp3661
Rp3662
sVfake
p3663
g3417
(g3421
S'D\x00\x00\x00\x00\x00\x00\x00'
p3664
tp3665
Rp3666
sVback
p3667
g3417
(g3421
S'\x0f\x00\x00\x00\x00\x00\x00\x00'
p3668
tp3669
Rp3670
sVhail
p3671
g3417
(g3421
S'\\\x00\x00\x00\x00\x00\x00\x00'
p3672
tp3673
Rp3674
sValice
p3675
g3417
(g3421
S'\x06\x00\x00\x00\x00\x00\x00\x00'
p3676
tp3677
Rp3678
sVzero
p3679
g3417
(g3421
S'\xec\x00\x00\x00\x00\x00\x00\x00'
p3680
tp3681
Rp3682
sVcomputer
p3683
g3417
(g3421
S'(\x00\x00\x00\x00\x00\x00\x00'
p3684
tp3685
Rp3686
sVare
p3687
g3417
(g3421
S'\r\x00\x00\x00\x00\x00\x00\x00'
p3688
tp3689
Rp3690
sVclose
p3691
g3417
(g3421
S'#\x00\x00\x00\x00\x00\x00\x00'
p3692
tp3693
Rp3694
sVcalendar
p3695
g3417
(g3421
S'\x1c\x00\x00\x00\x00\x00\x00\x00'
p3696
tp3697
Rp3698
sVextract
p3699
g3417
(g3421
S'C\x00\x00\x00\x00\x00\x00\x00'
p3700
tp3701
Rp3702
sVcold
p3703
g3417
(g3421
S'%\x00\x00\x00\x00\x00\x00\x00'
p3704
tp3705
Rp3706
sVout
p3707
g3417
(g3421
S'\x8f\x00\x00\x00\x00\x00\x00\x00'
p3708
tp3709
Rp3710
sVcategory
p3711
g3417
(g3421
S'\x1e\x00\x00\x00\x00\x00\x00\x00'
p3712
tp3713
Rp3714
sVwhat
p3715
g3417
(g3421
S'\xe1\x00\x00\x00\x00\x00\x00\x00'
p3716
tp3717
Rp3718
sVmonday
p3719
g3417
(g3421
S'{\x00\x00\x00\x00\x00\x00\x00'
p3720
tp3721
Rp3722
sVfor
p3723
g3417
(g3421
S'J\x00\x00\x00\x00\x00\x00\x00'
p3724
tp3725
Rp3726
sVclock
p3727
g3417
(g3421
S'"\x00\x00\x00\x00\x00\x00\x00'
p3728
tp3729
Rp3730
sVdebrief
p3731
g3417
(g3421
S'.\x00\x00\x00\x00\x00\x00\x00'
p3732
tp3733
Rp3734
sVcurrently
p3735
g3417
(g3421
S',\x00\x00\x00\x00\x00\x00\x00'
p3736
tp3737
Rp3738
sVplease
p3739
g3417
(g3421
S'\x94\x00\x00\x00\x00\x00\x00\x00'
p3740
tp3741
Rp3742
sVbrief
p3743
g3417
(g3421
S'\x16\x00\x00\x00\x00\x00\x00\x00'
p3744
tp3745
Rp3746
sVforecast
p3747
g3417
(g3421
S'K\x00\x00\x00\x00\x00\x00\x00'
p3748
tp3749
Rp3750
sVcurrent
p3751
g3417
(g3421
S'+\x00\x00\x00\x00\x00\x00\x00'
p3752
tp3753
Rp3754
sVre
p3755
g3417
(g3421
S'\xa4\x00\x00\x00\x00\x00\x00\x00'
p3756
tp3757
Rp3758
sVexit
p3759
g3417
(g3421
S'B\x00\x00\x00\x00\x00\x00\x00'
p3760
tp3761
Rp3762
sVabove
p3763
g3417
(g3421
S'\x00\x00\x00\x00\x00\x00\x00\x00'
p3764
tp3765
Rp3766
sVnew
p3767
g3417
(g3421
S'\x82\x00\x00\x00\x00\x00\x00\x00'
p3768
tp3769
Rp3770
sVnet
p3771
g3417
(g3421
S'\x81\x00\x00\x00\x00\x00\x00\x00'
p3772
tp3773
Rp3774
sVgov
p3775
g3417
(g3421
S'Z\x00\x00\x00\x00\x00\x00\x00'
p3776
tp3777
Rp3778
sVissue
p3779
g3417
(g3421
S'l\x00\x00\x00\x00\x00\x00\x00'
p3780
tp3781
Rp3782
sVbe
p3783
g3417
(g3421
S'\x11\x00\x00\x00\x00\x00\x00\x00'
p3784
tp3785
Rp3786
sVshut
p3787
g3417
(g3421
S'\xb4\x00\x00\x00\x00\x00\x00\x00'
p3788
tp3789
Rp3790
sVfriday
p3791
g3417
(g3421
S'N\x00\x00\x00\x00\x00\x00\x00'
p3792
tp3793
Rp3794
sVschedule
p3795
g3417
(g3421
S'\xad\x00\x00\x00\x00\x00\x00\x00'
p3796
tp3797
Rp3798
sVscreen
p3799
g3417
(g3421
S'\xae\x00\x00\x00\x00\x00\x00\x00'
p3800
tp3801
Rp3802
sVdictates
p3803
g3417
(g3421
S'3\x00\x00\x00\x00\x00\x00\x00'
p3804
tp3805
Rp3806
sVfree
p3807
g3417
(g3421
S'L\x00\x00\x00\x00\x00\x00\x00'
p3808
tp3809
Rp3810
sVwe
p3811
g3417
(g3421
S'\xdd\x00\x00\x00\x00\x00\x00\x00'
p3812
tp3813
Rp3814
sVillustration
p3815
g3417
(g3421
S'd\x00\x00\x00\x00\x00\x00\x00'
p3816
tp3817
Rp3818
sVactive
p3819
g3417
(g3421
S'\x01\x00\x00\x00\x00\x00\x00\x00'
p3820
tp3821
Rp3822
sVnews
p3823
g3417
(g3421
S'\x83\x00\x00\x00\x00\x00\x00\x00'
p3824
tp3825
Rp3826
sVpost
p3827
g3417
(g3421
S'\x95\x00\x00\x00\x00\x00\x00\x00'
p3828
tp3829
Rp3830
sVdon
p3831
g3417
(g3421
S'8\x00\x00\x00\x00\x00\x00\x00'
p3832
tp3833
Rp3834
sVon
p3835
g3417
(g3421
S'\x8c\x00\x00\x00\x00\x00\x00\x00'
p3836
tp3837
Rp3838
sVsearch
p3839
g3417
(g3421
S'\xaf\x00\x00\x00\x00\x00\x00\x00'
p3840
tp3841
Rp3842
sVlast
p3843
g3417
(g3421
S'o\x00\x00\x00\x00\x00\x00\x00'
p3844
tp3845
Rp3846
sVanything
p3847
g3417
(g3421
S'\x0c\x00\x00\x00\x00\x00\x00\x00'
p3848
tp3849
Rp3850
sVof
p3851
g3417
(g3421
S'\x89\x00\x00\x00\x00\x00\x00\x00'
p3852
tp3853
Rp3854
sVcould
p3855
g3417
(g3421
S')\x00\x00\x00\x00\x00\x00\x00'
p3856
tp3857
Rp3858
sVquiet
p3859
g3417
(g3421
S'\x9e\x00\x00\x00\x00\x00\x00\x00'
p3860
tp3861
Rp3862
sVturn
p3863
g3417
(g3421
S'\xd7\x00\x00\x00\x00\x00\x00\x00'
p3864
tp3865
Rp3866
sVafternoon
p3867
g3417
(g3421
S'\x03\x00\x00\x00\x00\x00\x00\x00'
p3868
tp3869
Rp3870
sVbrowsing
p3871
g3417
(g3421
S'\x19\x00\x00\x00\x00\x00\x00\x00'
p3872
tp3873
Rp3874
sVcom
p3875
g3417
(g3421
S'&\x00\x00\x00\x00\x00\x00\x00'
p3876
tp3877
Rp3878
sVthink
p3879
g3417
(g3421
S'\xc9\x00\x00\x00\x00\x00\x00\x00'
p3880
tp3881
Rp3882
sVfeed
p3883
g3417
(g3421
S'G\x00\x00\x00\x00\x00\x00\x00'
p3884
tp3885
Rp3886
sVthis
p3887
g3417
(g3421
S'\xca\x00\x00\x00\x00\x00\x00\x00'
p3888
tp3889
Rp3890
sVwhats
p3891
g3417
(g3421
S'\xe2\x00\x00\x00\x00\x00\x00\x00'
p3892
tp3893
Rp3894
sVfeatures
p3895
g3417
(g3421
S'F\x00\x00\x00\x00\x00\x00\x00'
p3896
tp3897
Rp3898
sVsimple
p3899
g3417
(g3421
S'\xb6\x00\x00\x00\x00\x00\x00\x00'
p3900
tp3901
Rp3902
sVsweet
p3903
g3417
(g3421
S'\xc3\x00\x00\x00\x00\x00\x00\x00'
p3904
tp3905
Rp3906
sVtuesday
p3907
g3417
(g3421
S'\xd3\x00\x00\x00\x00\x00\x00\x00'
p3908
tp3909
Rp3910
sVyourself
p3911
g3417
(g3421
S'\xeb\x00\x00\x00\x00\x00\x00\x00'
p3912
tp3913
Rp3914
sVdown
p3915
g3417
(g3421
S':\x00\x00\x00\x00\x00\x00\x00'
p3916
tp3917
Rp3918
sVput
p3919
g3417
(g3421
S'\x9c\x00\x00\x00\x00\x00\x00\x00'
p3920
tp3921
Rp3922
sVweather
p3923
g3417
(g3421
S'\xde\x00\x00\x00\x00\x00\x00\x00'
p3924
tp3925
Rp3926
sVdecrease
p3927
g3417
(g3421
S'0\x00\x00\x00\x00\x00\x00\x00'
p3928
tp3929
Rp3930
sVthursday
p3931
g3417
(g3421
S'\xcb\x00\x00\x00\x00\x00\x00\x00'
p3932
tp3933
Rp3934
sVshutdown
p3935
g3417
(g3421
S'\xb5\x00\x00\x00\x00\x00\x00\x00'
p3936
tp3937
Rp3938
sVorg
p3939
g3417
(g3421
S'\x8e\x00\x00\x00\x00\x00\x00\x00'
p3940
tp3941
Rp3942
sVopen
p3943
g3417
(g3421
S'\x8d\x00\x00\x00\x00\x00\x00\x00'
p3944
tp3945
Rp3946
sVtomorrow
p3947
g3417
(g3421
S'\xd0\x00\x00\x00\x00\x00\x00\x00'
p3948
tp3949
Rp3950
sVquit
p3951
g3417
(g3421
S'\xa0\x00\x00\x00\x00\x00\x00\x00'
p3952
tp3953
Rp3954
sVtemperature
p3955
g3417
(g3421
S'\xc6\x00\x00\x00\x00\x00\x00\x00'
p3956
tp3957
Rp3958
sVwould
p3959
g3417
(g3421
S'\xe7\x00\x00\x00\x00\x00\x00\x00'
p3960
tp3961
Rp3962
sVsake
p3963
g3417
(g3421
S'\xaa\x00\x00\x00\x00\x00\x00\x00'
p3964
tp3965
Rp3966
sVdecent
p3967
g3417
(g3421
S'/\x00\x00\x00\x00\x00\x00\x00'
p3968
tp3969
Rp3970
sVcreate
p3971
g3417
(g3421
S'*\x00\x00\x00\x00\x00\x00\x00'
p3972
tp3973
Rp3974
sVthere
p3975
g3417
(g3421
S'\xc8\x00\x00\x00\x00\x00\x00\x00'
p3976
tp3977
Rp3978
sVquestion
p3979
g3417
(g3421
S'\x9d\x00\x00\x00\x00\x00\x00\x00'
p3980
tp3981
Rp3982
sVadd
p3983
g3417
(g3421
S'\x02\x00\x00\x00\x00\x00\x00\x00'
p3984
tp3985
Rp3986
sVnext
p3987
g3417
(g3421
S'\x85\x00\x00\x00\x00\x00\x00\x00'
p3988
tp3989
Rp3990
sVstart
p3991
g3417
(g3421
S'\xbf\x00\x00\x00\x00\x00\x00\x00'
p3992
tp3993
Rp3994
sVlive
p3995
g3417
(g3421
S'r\x00\x00\x00\x00\x00\x00\x00'
p3996
tp3997
Rp3998
sVprogram
p3999
g3417
(g3421
S'\x9b\x00\x00\x00\x00\x00\x00\x00'
p4000
tp4001
Rp4002
sVmusic
p4003
g3417
(g3421
S'~\x00\x00\x00\x00\x00\x00\x00'
p4004
tp4005
Rp4006
sVtell
p4007
g3417
(g3421
S'\xc5\x00\x00\x00\x00\x00\x00\x00'
p4008
tp4009
Rp4010
sVtoday
p4011
g3417
(g3421
S'\xce\x00\x00\x00\x00\x00\x00\x00'
p4012
tp4013
Rp4014
sVpretends
p4015
g3417
(g3421
S'\x97\x00\x00\x00\x00\x00\x00\x00'
p4016
tp4017
Rp4018
sVsound
p4019
g3417
(g3421
S'\xbc\x00\x00\x00\x00\x00\x00\x00'
p4020
tp4021
Rp4022
sVreleasing
p4023
g3417
(g3421
S'\xa6\x00\x00\x00\x00\x00\x00\x00'
p4024
tp4025
Rp4026
sVcommands
p4027
g3417
(g3421
S"'\x00\x00\x00\x00\x00\x00\x00"
p4028
tp4029
Rp4030
sVit
p4031
g3417
(g3421
S'm\x00\x00\x00\x00\x00\x00\x00'
p4032
tp4033
Rp4034
sVvolume
p4035
g3417
(g3421
S'\xdb\x00\x00\x00\x00\x00\x00\x00'
p4036
tp4037
Rp4038
sVtrain
p4039
g3417
(g3421
S'\xd1\x00\x00\x00\x00\x00\x00\x00'
p4040
tp4041
Rp4042
sVstick
p4043
g3417
(g3421
S'\xc0\x00\x00\x00\x00\x00\x00\x00'
p4044
tp4045
Rp4046
sVbeat
p4047
g3417
(g3421
S'\x12\x00\x00\x00\x00\x00\x00\x00'
p4048
tp4049
Rp4050
sVfoggy
p4051
g3417
(g3421
S'I\x00\x00\x00\x00\x00\x00\x00'
p4052
tp4053
Rp4054
sVgoogle
p4055
g3417
(g3421
S'X\x00\x00\x00\x00\x00\x00\x00'
p4056
tp4057
Rp4058
sVdocument
p4059
g3417
(g3421
S'6\x00\x00\x00\x00\x00\x00\x00'
p4060
tp4061
Rp4062
sVme
p4063
g3417
(g3421
S'y\x00\x00\x00\x00\x00\x00\x00'
p4064
tp4065
Rp4066
sVahead
p4067
g3417
(g3421
S'\x04\x00\x00\x00\x00\x00\x00\x00'
p4068
tp4069
Rp4070
sVunmute
p4071
g3417
(g3421
S'\xd8\x00\x00\x00\x00\x00\x00\x00'
p4072
tp4073
Rp4074
sVsnow
p4075
g3417
(g3421
S'\xb8\x00\x00\x00\x00\x00\x00\x00'
p4076
tp4077
Rp4078
sVup
p4079
g3417
(g3421
S'\xd9\x00\x00\x00\x00\x00\x00\x00'
p4080
tp4081
Rp4082
sVdogs
p4083
g3417
(g3421
S'7\x00\x00\x00\x00\x00\x00\x00'
p4084
tp4085
Rp4086
sVwill
p4087
g3417
(g3421
S'\xe4\x00\x00\x00\x00\x00\x00\x00'
p4088
tp4089
Rp4090
sVlouder
p4091
g3417
(g3421
S't\x00\x00\x00\x00\x00\x00\x00'
p4092
tp4093
Rp4094
sVcan
p4095
g3417
(g3421
S'\x1d\x00\x00\x00\x00\x00\x00\x00'
p4096
tp4097
Rp4098
sVbriefing
p4099
g3417
(g3421
S'\x17\x00\x00\x00\x00\x00\x00\x00'
p4100
tp4101
Rp4102
sVproblem
p4103
g3417
(g3421
S'\x99\x00\x00\x00\x00\x00\x00\x00'
p4104
tp4105
Rp4106
sVoutcome
p4107
g3417
(g3421
S'\x90\x00\x00\x00\x00\x00\x00\x00'
p4108
tp4109
Rp4110
sVmy
p4111
g3417
(g3421
S'\x80\x00\x00\x00\x00\x00\x00\x00'
p4112
tp4113
Rp4114
sVdee
p4115
g3417
(g3421
S'1\x00\x00\x00\x00\x00\x00\x00'
p4116
tp4117
Rp4118
sVbrowser
p4119
g3417
(g3421
S'\x18\x00\x00\x00\x00\x00\x00\x00'
p4120
tp4121
Rp4122
sVcell
p4123
g3417
(g3421
S'\x1f\x00\x00\x00\x00\x00\x00\x00'
p4124
tp4125
Rp4126
sVgive
p4127
g3417
(g3421
S'S\x00\x00\x00\x00\x00\x00\x00'
p4128
tp4129
Rp4130
sValmost
p4131
g3417
(g3421
S'\x07\x00\x00\x00\x00\x00\x00\x00'
p4132
tp4133
Rp4134
sVlock
p4135
g3417
(g3421
S's\x00\x00\x00\x00\x00\x00\x00'
p4136
tp4137
Rp4138
sVis
p4139
g3417
(g3421
S'k\x00\x00\x00\x00\x00\x00\x00'
p4140
tp4141
Rp4142
sVin
p4143
g3417
(g3421
S'e\x00\x00\x00\x00\x00\x00\x00'
p4144
tp4145
Rp4146
sVam
p4147
g3417
(g3421
S'\x08\x00\x00\x00\x00\x00\x00\x00'
p4148
tp4149
Rp4150
sVfuck
p4151
g3417
(g3421
S'O\x00\x00\x00\x00\x00\x00\x00'
p4152
tp4153
Rp4154
sVbackbone
p4155
g3417
(g3421
S'\x10\x00\x00\x00\x00\x00\x00\x00'
p4156
tp4157
Rp4158
sVan
p4159
g3417
(g3421
S'\t\x00\x00\x00\x00\x00\x00\x00'
p4160
tp4161
Rp4162
sVbeats
p4163
g3417
(g3421
S'\x13\x00\x00\x00\x00\x00\x00\x00'
p4164
tp4165
Rp4166
sVright
p4167
g3417
(g3421
S'\xa9\x00\x00\x00\x00\x00\x00\x00'
p4168
tp4169
Rp4170
sVhave
p4171
g3417
(g3421
S']\x00\x00\x00\x00\x00\x00\x00'
p4172
tp4173
Rp4174
sVstalls
p4175
g3417
(g3421
S'\xbe\x00\x00\x00\x00\x00\x00\x00'
p4176
tp4177
Rp4178
sVcheck
p4179
g3417
(g3421
S' \x00\x00\x00\x00\x00\x00\x00'
p4180
tp4181
Rp4182
sVif
p4183
g3417
(g3421
S'c\x00\x00\x00\x00\x00\x00\x00'
p4184
tp4185
Rp4186
sVinformation
p4187
g3417
(g3421
S'h\x00\x00\x00\x00\x00\x00\x00'
p4188
tp4189
Rp4190
sVrainy
p4191
g3417
(g3421
S'\xa3\x00\x00\x00\x00\x00\x00\x00'
p4192
tp4193
Rp4194
sVmake
p4195
g3417
(g3421
S'w\x00\x00\x00\x00\x00\x00\x00'
p4196
tp4197
Rp4198
sVsong
p4199
g3417
(g3421
S'\xbb\x00\x00\x00\x00\x00\x00\x00'
p4200
tp4201
Rp4202
sVwhen
p4203
g3417
(g3421
S'\xe3\x00\x00\x00\x00\x00\x00\x00'
p4204
tp4205
Rp4206
sVfeature
p4207
g3417
(g3421
S'E\x00\x00\x00\x00\x00\x00\x00'
p4208
tp4209
Rp4210
sVsame
p4211
g3417
(g3421
S'\xab\x00\x00\x00\x00\x00\x00\x00'
p4212
tp4213
Rp4214
sVsaturday
p4215
g3417
(g3421
S'\xac\x00\x00\x00\x00\x00\x00\x00'
p4216
tp4217
Rp4218
sVbeside
p4219
g3417
(g3421
S'\x15\x00\x00\x00\x00\x00\x00\x00'
p4220
tp4221
Rp4222
sVhow
p4223
g3417
(g3421
S'b\x00\x00\x00\x00\x00\x00\x00'
p4224
tp4225
Rp4226
sVhot
p4227
g3417
(g3421
S'a\x00\x00\x00\x00\x00\x00\x00'
p4228
tp4229
Rp4230
sVbefore
p4231
g3417
(g3421
S'\x14\x00\x00\x00\x00\x00\x00\x00'
p4232
tp4233
Rp4234
sVyou
p4235
g3417
(g3421
S'\xe9\x00\x00\x00\x00\x00\x00\x00'
p4236
tp4237
Rp4238
sVgmail
p4239
g3417
(g3421
S'T\x00\x00\x00\x00\x00\x00\x00'
p4240
tp4241
Rp4242
sVevents
p4243
g3417
(g3421
S'A\x00\x00\x00\x00\x00\x00\x00'
p4244
tp4245
Rp4246
sVhigher
p4247
g3417
(g3421
S'`\x00\x00\x00\x00\x00\x00\x00'
p4248
tp4249
Rp4250
sVweek
p4251
g3417
(g3421
S'\xe0\x00\x00\x00\x00\x00\x00\x00'
p4252
tp4253
Rp4254
sVplay
p4255
g3417
(g3421
S'\x92\x00\x00\x00\x00\x00\x00\x00'
p4256
tp4257
Rp4258
sVokay
p4259
g3417
(g3421
S'\x8b\x00\x00\x00\x00\x00\x00\x00'
p4260
tp4261
Rp4262
sVhey
p4263
g3417
(g3421
S'_\x00\x00\x00\x00\x00\x00\x00'
p4264
tp4265
Rp4266
sVsee
p4267
g3417
(g3421
S'\xb0\x00\x00\x00\x00\x00\x00\x00'
p4268
tp4269
Rp4270
sVdefault
p4271
g3417
(g3421
S'2\x00\x00\x00\x00\x00\x00\x00'
p4272
tp4273
Rp4274
sVany
p4275
g3417
(g3421
S'\x0b\x00\x00\x00\x00\x00\x00\x00'
p4276
tp4277
Rp4278
sVwatch
p4279
g3417
(g3421
S'\xdc\x00\x00\x00\x00\x00\x00\x00'
p4280
tp4281
Rp4282
sVearlier
p4283
g3417
(g3421
S'<\x00\x00\x00\x00\x00\x00\x00'
p4284
tp4285
Rp4286
sVproblems
p4287
g3417
(g3421
S'\x9a\x00\x00\x00\x00\x00\x00\x00'
p4288
tp4289
Rp4290
sVquieter
p4291
g3417
(g3421
S'\x9f\x00\x00\x00\x00\x00\x00\x00'
p4292
tp4293
Rp4294
sVrain
p4295
g3417
(g3421
S'\xa1\x00\x00\x00\x00\x00\x00\x00'
p4296
tp4297
Rp4298
sVfreezing
p4299
g3417
(g3421
S'M\x00\x00\x00\x00\x00\x00\x00'
p4300
tp4301
Rp4302
sVnoise
p4303
g3417
(g3421
S'\x87\x00\x00\x00\x00\x00\x00\x00'
p4304
tp4305
Rp4306
sVtune
p4307
g3417
(g3421
S'\xd4\x00\x00\x00\x00\x00\x00\x00'
p4308
tp4309
Rp4310
sVyour
p4311
g3417
(g3421
S'\xea\x00\x00\x00\x00\x00\x00\x00'
p4312
tp4313
Rp4314
sVgrief
p4315
g3417
(g3421
S'[\x00\x00\x00\x00\x00\x00\x00'
p4316
tp4317
Rp4318
sVlower
p4319
g3417
(g3421
S'u\x00\x00\x00\x00\x00\x00\x00'
p4320
tp4321
Rp4322
sVoff
p4323
g3417
(g3421
S'\x8a\x00\x00\x00\x00\x00\x00\x00'
p4324
tp4325
Rp4326
sVusing
p4327
g3417
(g3421
S'\xda\x00\x00\x00\x00\x00\x00\x00'
p4328
tp4329
Rp4330
sVread
p4331
g3417
(g3421
S'\xa5\x00\x00\x00\x00\x00\x00\x00'
p4332
tp4333
Rp4334
sVgather
p4335
g3417
(g3421
S'P\x00\x00\x00\x00\x00\x00\x00'
p4336
tp4337
Rp4338
sVtale
p4339
g3417
(g3421
S'\xc4\x00\x00\x00\x00\x00\x00\x00'
p4340
tp4341
Rp4342
sVtime
p4343
g3417
(g3421
S'\xcc\x00\x00\x00\x00\x00\x00\x00'
p4344
tp4345
Rp4346
sVnewsfeed
p4347
g3417
(g3421
S'\x84\x00\x00\x00\x00\x00\x00\x00'
p4348
tp4349
Rp4350
sVthe
p4351
g3417
(g3421
S'\xc7\x00\x00\x00\x00\x00\x00\x00'
p4352
tp4353
Rp4354
sVincrease
p4355
g3417
(g3421
S'g\x00\x00\x00\x00\x00\x00\x00'
p4356
tp4357
Rp4358
sVplaying
p4359
g3417
(g3421
S'\x93\x00\x00\x00\x00\x00\x00\x00'
p4360
tp4361
Rp4362
sVdot
p4363
g3417
(g3421
S'9\x00\x00\x00\x00\x00\x00\x00'
p4364
tp4365
Rp4366
sVlatest
p4367
g3417
(g3421
S'p\x00\x00\x00\x00\x00\x00\x00'
p4368
tp4369
Rp4370
ssS'binary'
p4371
I00
sS'ngram_range'
p4372
(I1
I1
tp4373
sg3391
g3392
sS'max_df'
p4374
F1.0
sS'min_df'
p4375
I1
sS'max_features'
p4376
NsS'fixed_vocabulary_'
p4377
I00
sS'strip_accents'
p4378
NsS'dtype'
p4379
cnumpy
int64
p4380
sS'stop_words_'
p4381
c__builtin__
set
p4382
((lp4383
tp4384
Rp4385
sS'preprocessor'
p4386
Nsbtp4387
a(S'tfidf'
p4388
g3385
(csklearn.feature_extraction.text
TfidfTransformer
p4389
g3387
Ntp4390
Rp4391
(dp4392
S'smooth_idf'
p4393
I01
sg3391
g3392
sS'_idf_diag'
p4394
g3385
(cscipy.sparse.csr
csr_matrix
p4395
g3387
Ntp4396
Rp4397
(dp4398
S'indices'
p4399
cnumpy.core.multiarray
_reconstruct
p4400
(cnumpy
ndarray
p4401
(I0
tp4402
S'b'
p4403
tp4404
Rp4405
(I1
(I237
tp4406
g3418
(S'i4'
p4407
I0
I1
tp4408
Rp4409
(I3
S'<'
p4410
NNNI-1
I-1
I0
tp4411
bI00
S'\x00\x00\x00\x00\x01\x00\x00\x00\x02\x00\x00\x00\x03\x00\x00\x00\x04\x00\x00\x00\x05\x00\x00\x00\x06\x00\x00\x00\x07\x00\x00\x00\x08\x00\x00\x00\t\x00\x00\x00\n\x00\x00\x00\x0b\x00\x00\x00\x0c\x00\x00\x00\r\x00\x00\x00\x0e\x00\x00\x00\x0f\x00\x00\x00\x10\x00\x00\x00\x11\x00\x00\x00\x12\x00\x00\x00\x13\x00\x00\x00\x14\x00\x00\x00\x15\x00\x00\x00\x16\x00\x00\x00\x17\x00\x00\x00\x18\x00\x00\x00\x19\x00\x00\x00\x1a\x00\x00\x00\x1b\x00\x00\x00\x1c\x00\x00\x00\x1d\x00\x00\x00\x1e\x00\x00\x00\x1f\x00\x00\x00 \x00\x00\x00!\x00\x00\x00"\x00\x00\x00#\x00\x00\x00$\x00\x00\x00%\x00\x00\x00&\x00\x00\x00\'\x00\x00\x00(\x00\x00\x00)\x00\x00\x00*\x00\x00\x00+\x00\x00\x00,\x00\x00\x00-\x00\x00\x00.\x00\x00\x00/\x00\x00\x000\x00\x00\x001\x00\x00\x002\x00\x00\x003\x00\x00\x004\x00\x00\x005\x00\x00\x006\x00\x00\x007\x00\x00\x008\x00\x00\x009\x00\x00\x00:\x00\x00\x00;\x00\x00\x00<\x00\x00\x00=\x00\x00\x00>\x00\x00\x00?\x00\x00\x00@\x00\x00\x00A\x00\x00\x00B\x00\x00\x00C\x00\x00\x00D\x00\x00\x00E\x00\x00\x00F\x00\x00\x00G\x00\x00\x00H\x00\x00\x00I\x00\x00\x00J\x00\x00\x00K\x00\x00\x00L\x00\x00\x00M\x00\x00\x00N\x00\x00\x00O\x00\x00\x00P\x00\x00\x00Q\x00\x00\x00R\x00\x00\x00S\x00\x00\x00T\x00\x00\x00U\x00\x00\x00V\x00\x00\x00W\x00\x00\x00X\x00\x00\x00Y\x00\x00\x00Z\x00\x00\x00[\x00\x00\x00\\\x00\x00\x00]\x00\x00\x00^\x00\x00\x00_\x00\x00\x00`\x00\x00\x00a\x00\x00\x00b\x00\x00\x00c\x00\x00\x00d\x00\x00\x00e\x00\x00\x00f\x00\x00\x00g\x00\x00\x00h\x00\x00\x00i\x00\x00\x00j\x00\x00\x00k\x00\x00\x00l\x00\x00\x00m\x00\x00\x00n\x00\x00\x00o\x00\x00\x00p\x00\x00\x00q\x00\x00\x00r\x00\x00\x00s\x00\x00\x00t\x00\x00\x00u\x00\x00\x00v\x00\x00\x00w\x00\x00\x00x\x00\x00\x00y\x00\x00\x00z\x00\x00\x00{\x00\x00\x00|\x00\x00\x00}\x00\x00\x00~\x00\x00\x00\x7f\x00\x00\x00\x80\x00\x00\x00\x81\x00\x00\x00\x82\x00\x00\x00\x83\x00\x00\x00\x84\x00\x00\x00\x85\x00\x00\x00\x86\x00\x00\x00\x87\x00\x00\x00\x88\x00\x00\x00\x89\x00\x00\x00\x8a\x00\x00\x00\x8b\x00\x00\x00\x8c\x00\x00\x00\x8d\x00\x00\x00\x8e\x00\x00\x00\x8f\x00\x00\x00\x90\x00\x00\x00\x91\x00\x00\x00\x92\x00\x00\x00\x93\x00\x00\x00\x94\x00\x00\x00\x95\x00\x00\x00\x96\x00\x00\x00\x97\x00\x00\x00\x98\x00\x00\x00\x99\x00\x00\x00\x9a\x00\x00\x00\x9b\x00\x00\x00\x9c\x00\x00\x00\x9d\x00\x00\x00\x9e\x00\x00\x00\x9f\x00\x00\x00\xa0\x00\x00\x00\xa1\x00\x00\x00\xa2\x00\x00\x00\xa3\x00\x00\x00\xa4\x00\x00\x00\xa5\x00\x00\x00\xa6\x00\x00\x00\xa7\x00\x00\x00\xa8\x00\x00\x00\xa9\x00\x00\x00\xaa\x00\x00\x00\xab\x00\x00\x00\xac\x00\x00\x00\xad\x00\x00\x00\xae\x00\x00\x00\xaf\x00\x00\x00\xb0\x00\x00\x00\xb1\x00\x00\x00\xb2\x00\x00\x00\xb3\x00\x00\x00\xb4\x00\x00\x00\xb5\x00\x00\x00\xb6\x00\x00\x00\xb7\x00\x00\x00\xb8\x00\x00\x00\xb9\x00\x00\x00\xba\x00\x00\x00\xbb\x00\x00\x00\xbc\x00\x00\x00\xbd\x00\x00\x00\xbe\x00\x00\x00\xbf\x00\x00\x00\xc0\x00\x00\x00\xc1\x00\x00\x00\xc2\x00\x00\x00\xc3\x00\x00\x00\xc4\x00\x00\x00\xc5\x00\x00\x00\xc6\x00\x00\x00\xc7\x00\x00\x00\xc8\x00\x00\x00\xc9\x00\x00\x00\xca\x00\x00\x00\xcb\x00\x00\x00\xcc\x00\x00\x00\xcd\x00\x00\x00\xce\x00\x00\x00\xcf\x00\x00\x00\xd0\x00\x00\x00\xd1\x00\x00\x00\xd2\x00\x00\x00\xd3\x00\x00\x00\xd4\x00\x00\x00\xd5\x00\x00\x00\xd6\x00\x00\x00\xd7\x00\x00\x00\xd8\x00\x00\x00\xd9\x00\x00\x00\xda\x00\x00\x00\xdb\x00\x00\x00\xdc\x00\x00\x00\xdd\x00\x00\x00\xde\x00\x00\x00\xdf\x00\x00\x00\xe0\x00\x00\x00\xe1\x00\x00\x00\xe2\x00\x00\x00\xe3\x00\x00\x00\xe4\x00\x00\x00\xe5\x00\x00\x00\xe6\x00\x00\x00\xe7\x00\x00\x00\xe8\x00\x00\x00\xe9\x00\x00\x00\xea\x00\x00\x00\xeb\x00\x00\x00\xec\x00\x00\x00'
p4412
tp4413
bsS'indptr'
p4414
g4400
(g4401
(I0
tp4415
g4403
tp4416
Rp4417
(I1
(I238
tp4418
g4409
I00
S'\x00\x00\x00\x00\x01\x00\x00\x00\x02\x00\x00\x00\x03\x00\x00\x00\x04\x00\x00\x00\x05\x00\x00\x00\x06\x00\x00\x00\x07\x00\x00\x00\x08\x00\x00\x00\t\x00\x00\x00\n\x00\x00\x00\x0b\x00\x00\x00\x0c\x00\x00\x00\r\x00\x00\x00\x0e\x00\x00\x00\x0f\x00\x00\x00\x10\x00\x00\x00\x11\x00\x00\x00\x12\x00\x00\x00\x13\x00\x00\x00\x14\x00\x00\x00\x15\x00\x00\x00\x16\x00\x00\x00\x17\x00\x00\x00\x18\x00\x00\x00\x19\x00\x00\x00\x1a\x00\x00\x00\x1b\x00\x00\x00\x1c\x00\x00\x00\x1d\x00\x00\x00\x1e\x00\x00\x00\x1f\x00\x00\x00 \x00\x00\x00!\x00\x00\x00"\x00\x00\x00#\x00\x00\x00$\x00\x00\x00%\x00\x00\x00&\x00\x00\x00\'\x00\x00\x00(\x00\x00\x00)\x00\x00\x00*\x00\x00\x00+\x00\x00\x00,\x00\x00\x00-\x00\x00\x00.\x00\x00\x00/\x00\x00\x000\x00\x00\x001\x00\x00\x002\x00\x00\x003\x00\x00\x004\x00\x00\x005\x00\x00\x006\x00\x00\x007\x00\x00\x008\x00\x00\x009\x00\x00\x00:\x00\x00\x00;\x00\x00\x00<\x00\x00\x00=\x00\x00\x00>\x00\x00\x00?\x00\x00\x00@\x00\x00\x00A\x00\x00\x00B\x00\x00\x00C\x00\x00\x00D\x00\x00\x00E\x00\x00\x00F\x00\x00\x00G\x00\x00\x00H\x00\x00\x00I\x00\x00\x00J\x00\x00\x00K\x00\x00\x00L\x00\x00\x00M\x00\x00\x00N\x00\x00\x00O\x00\x00\x00P\x00\x00\x00Q\x00\x00\x00R\x00\x00\x00S\x00\x00\x00T\x00\x00\x00U\x00\x00\x00V\x00\x00\x00W\x00\x00\x00X\x00\x00\x00Y\x00\x00\x00Z\x00\x00\x00[\x00\x00\x00\\\x00\x00\x00]\x00\x00\x00^\x00\x00\x00_\x00\x00\x00`\x00\x00\x00a\x00\x00\x00b\x00\x00\x00c\x00\x00\x00d\x00\x00\x00e\x00\x00\x00f\x00\x00\x00g\x00\x00\x00h\x00\x00\x00i\x00\x00\x00j\x00\x00\x00k\x00\x00\x00l\x00\x00\x00m\x00\x00\x00n\x00\x00\x00o\x00\x00\x00p\x00\x00\x00q\x00\x00\x00r\x00\x00\x00s\x00\x00\x00t\x00\x00\x00u\x00\x00\x00v\x00\x00\x00w\x00\x00\x00x\x00\x00\x00y\x00\x00\x00z\x00\x00\x00{\x00\x00\x00|\x00\x00\x00}\x00\x00\x00~\x00\x00\x00\x7f\x00\x00\x00\x80\x00\x00\x00\x81\x00\x00\x00\x82\x00\x00\x00\x83\x00\x00\x00\x84\x00\x00\x00\x85\x00\x00\x00\x86\x00\x00\x00\x87\x00\x00\x00\x88\x00\x00\x00\x89\x00\x00\x00\x8a\x00\x00\x00\x8b\x00\x00\x00\x8c\x00\x00\x00\x8d\x00\x00\x00\x8e\x00\x00\x00\x8f\x00\x00\x00\x90\x00\x00\x00\x91\x00\x00\x00\x92\x00\x00\x00\x93\x00\x00\x00\x94\x00\x00\x00\x95\x00\x00\x00\x96\x00\x00\x00\x97\x00\x00\x00\x98\x00\x00\x00\x99\x00\x00\x00\x9a\x00\x00\x00\x9b\x00\x00\x00\x9c\x00\x00\x00\x9d\x00\x00\x00\x9e\x00\x00\x00\x9f\x00\x00\x00\xa0\x00\x00\x00\xa1\x00\x00\x00\xa2\x00\x00\x00\xa3\x00\x00\x00\xa4\x00\x00\x00\xa5\x00\x00\x00\xa6\x00\x00\x00\xa7\x00\x00\x00\xa8\x00\x00\x00\xa9\x00\x00\x00\xaa\x00\x00\x00\xab\x00\x00\x00\xac\x00\x00\x00\xad\x00\x00\x00\xae\x00\x00\x00\xaf\x00\x00\x00\xb0\x00\x00\x00\xb1\x00\x00\x00\xb2\x00\x00\x00\xb3\x00\x00\x00\xb4\x00\x00\x00\xb5\x00\x00\x00\xb6\x00\x00\x00\xb7\x00\x00\x00\xb8\x00\x00\x00\xb9\x00\x00\x00\xba\x00\x00\x00\xbb\x00\x00\x00\xbc\x00\x00\x00\xbd\x00\x00\x00\xbe\x00\x00\x00\xbf\x00\x00\x00\xc0\x00\x00\x00\xc1\x00\x00\x00\xc2\x00\x00\x00\xc3\x00\x00\x00\xc4\x00\x00\x00\xc5\x00\x00\x00\xc6\x00\x00\x00\xc7\x00\x00\x00\xc8\x00\x00\x00\xc9\x00\x00\x00\xca\x00\x00\x00\xcb\x00\x00\x00\xcc\x00\x00\x00\xcd\x00\x00\x00\xce\x00\x00\x00\xcf\x00\x00\x00\xd0\x00\x00\x00\xd1\x00\x00\x00\xd2\x00\x00\x00\xd3\x00\x00\x00\xd4\x00\x00\x00\xd5\x00\x00\x00\xd6\x00\x00\x00\xd7\x00\x00\x00\xd8\x00\x00\x00\xd9\x00\x00\x00\xda\x00\x00\x00\xdb\x00\x00\x00\xdc\x00\x00\x00\xdd\x00\x00\x00\xde\x00\x00\x00\xdf\x00\x00\x00\xe0\x00\x00\x00\xe1\x00\x00\x00\xe2\x00\x00\x00\xe3\x00\x00\x00\xe4\x00\x00\x00\xe5\x00\x00\x00\xe6\x00\x00\x00\xe7\x00\x00\x00\xe8\x00\x00\x00\xe9\x00\x00\x00\xea\x00\x00\x00\xeb\x00\x00\x00\xec\x00\x00\x00\xed\x00\x00\x00'
p4419
tp4420
bsS'maxprint'
p4421
I50
sS'_shape'
p4422
(I237
I237
tp4423
sg12
g4400
(g4401
(I0
tp4424
g4403
tp4425
Rp4426
(I1
(I237
tp4427
g3418
(S'f8'
p4428
I0
I1
tp4429
Rp4430
(I3
S'<'
p4431
NNNI-1
I-1
I0
tp4432
bI00
S"5\x98\xf3\xef\x0b\xf2\x1e@c;,3\xc9\xe2\x16@\x94{\xb5\xd8?F\x13@5\x98\xf3\xef\x0b\xf2\x1e@\xddHF\xa47\xef\x19@\xf7P\x14\x90C,\x1c@5\x10i\xf1H\xc7\x17@5\x98\xf3\xef\x0b\xf2\x1e@\xc6I\x8a+m\xfb\x13@\x9f>\xf1\xec\xf0*\x13@5\x98\xf3\xef\x0b\xf2\x1e@._ZR\xa20\x10@\x18\x94\xa0\xb7\x8d\t\x0b@R\xb5T\xb4\xd1\x94\x12@{\xc2U\xd0\xb2\xa0\x16@\xddHF\xa47\xef\x19@5\x98\xf3\xef\x0b\xf2\x1e@\xb0\x9e'\xb1\xd9R\x1d@\xe84\xf8q\xfb\x81\x18@5\x98\xf3\xef\x0b\xf2\x1e@\xb0\x9e'\xb1\xd9R\x1d@\xb0\x9e'\xb1\xd9R\x1d@5\x98\xf3\xef\x0b\xf2\x1e@5\x98\xf3\xef\x0b\xf2\x1e@d\xe0\xeb\xe9\xb7?\x14@\xf7P\x14\x90C,\x1c@rWHQ\x11\x8d\x1a@5\x98\xf3\xef\x0b\xf2\x1e@/0'\x8a\xb4\r\x0e@\xaf\x08\xf4\x1e\x88M\n@5\x98\xf3\xef\x0b\xf2\x1e@5\x98\xf3\xef\x0b\xf2\x1e@\xd4\xc2{\x8c2\x03\x07@5\x98\xf3\xef\x0b\xf2\x1e@\xf7\xc8\x89\x91\x80\x01\x15@\x8f\xfc3\x14\x9aZ\x15@\xee]|\x12\xdf\xed\x18@\xee]|\x12\xdf\xed\x18@&|\xd7\xd1\xc3G\x1b@5\x98\xf3\xef\x0b\xf2\x1e@$s\xa8\x84\xde\x9d\x11@\xc6fCi\x0cp\x0f@\x94{\xb5\xd8?F\x13@\x8d\xaf\xb0\x1cf\x8e\x10@5\x98\xf3\xef\x0b\xf2\x1e@xX\xf6\x0e\xd6\x9c\x13@5\x98\xf3\xef\x0b\xf2\x1e@5\x98\xf3\xef\x0b\xf2\x1e@\xb0\x9e'\xb1\xd9R\x1d@\xb0\x9e'\xb1\xd9R\x1d@\xcdC\x13tb \x18@5\x98\xf3\xef\x0b\xf2\x1e@5\x98\xf3\xef\x0b\xf2\x1e@ \x08,&Y\x96\t@5\x98\xf3\xef\x0b\xf2\x1e@5\x98\xf3\xef\x0b\xf2\x1e@a\xf7\x11\x8d(e\x10@c;,3\xc9\xe2\x16@\x94{\xb5\xd8?F\x13@\xb0\x9e'\xb1\xd9R\x1d@5\x98\xf3\xef\x0b\xf2\x1e@\xb0\x9e'\xb1\xd9R\x1d@\xb0\x9e'\xb1\xd9R\x1d@5\x98\xf3\xef\x0b\xf2\x1e@.\xfa\xe0\xd7N\x9f\x0b@{?\xd9\xae\xae\x96\n@&|\xd7\xd1\xc3G\x1b@5\x98\xf3\xef\x0b\xf2\x1e@5\x98\xf3\xef\x0b\xf2\x1e@5\x98\xf3\xef\x0b\xf2\x1e@5\x98\xf3\xef\x0b\xf2\x1e@\x1b\x08\x9b\x05=\x8a\x15@K\x19::Ru\x17@\xee]|\x12\xdf\xed\x18@^\x1d%h\xa7\xfa\r@\x1b\x08\x9b\x05=\x8a\x15@\xc6I\x8a+m\xfb\x13@\xee]|\x12\xdf\xed\x18@&\xf4L\xd3\x00\x1d\x14@5\x98\xf3\xef\x0b\xf2\x1e@\xf7P\x14\x90C,\x1c@a\xf7\x11\x8d(e\x10@5\x98\xf3\xef\x0b\xf2\x1e@\xe84\xf8q\xfb\x81\x18@\xa4u\x14t\x8a\xc2\r@\xd9\x18\xdcS\xb3\xd7\x14@&|\xd7\xd1\xc3G\x1b@\xddHF\xa47\xef\x19@\xce\x8a{z\xc1\xe9\x11@5\x98\xf3\xef\x0b\xf2\x1e@\xb0\x9e'\xb1\xd9R\x1d@5\x98\xf3\xef\x0b\xf2\x1e@\xb0\x9e'\xb1\xd9R\x1d@\t\xbc\xaf\x91S\xf8\x08@\xb0\x16\x9d\xb2\x16(\x16@\xb0\x9e'\xb1\xd9R\x1d@\xb9\t50{f\x19@\xee]|\x12\xdf\xed\x18@K\x19::Ru\x17@\xf4^*\xd0\xa3\xfd\x11@5\x98\xf3\xef\x0b\xf2\x1e@\xf2\xcc\x1d[\xb9\x16\x0b@YD\xd2\xc9'\xcd\x0f@5\x98\xf3\xef\x0b\xf2\x1e@&|\xd7\xd1\xc3G\x1b@\xf7P\x14\x90C,\x1c@5\x98\xf3\xef\x0b\xf2\x1e@\xd8\x82\x9d\xf7\x1f\xca\x0b@5\x98\xf3\xef\x0b\xf2\x1e@j\x05[\x1dkY\x0f@\r\xd2Z\xda\x89\xaf\x14@K\x19::Ru\x17@rWHQ\x11\x8d\x1a@5\x98\xf3\xef\x0b\xf2\x1e@\xc6I\x8a+m\xfb\x13@\r\xd2Z\xda\x89\xaf\x14@rWHQ\x11\x8d\x1a@\xddHF\xa47\xef\x19@\xcbW\x92I,\xb0\r@\x18g\n8GQ\x12@5\x98\xf3\xef\x0b\xf2\x1e@L\x89\x0b\xad!\xdd\x12@5\x98\xf3\xef\x0b\xf2\x1e@&\xf4L\xd3\x00\x1d\x14@&\xf4L\xd3\x00\x1d\x14@\xb0\x9e'\xb1\xd9R\x1d@\xb0\x9e'\xb1\xd9R\x1d@&|\xd7\xd1\xc3G\x1b@\xa6\xf8yua\xbc\x08@\xb0\x9e'\xb1\xd9R\x1d@\xdd\xb5\x13\n\x97A\n@\x8d\xaf\xb0\x1cf\x8e\x10@\xaa\xed\x18\x123\xbc\x15@\x94{\xb5\xd8?F\x13@\xb0\x9e'\xb1\xd9R\x1d@5\x98\xf3\xef\x0b\xf2\x1e@\xee]|\x12\xdf\xed\x18@\xb0\x9e'\xb1\xd9R\x1d@\x9f>\xf1\xec\xf0*\x13@\xb0\x9e'\xb1\xd9R\x1d@6\x93\xe4\xeaO\xce\x05@\x90\x84ym\xda\xac\x0e@\xb0\x9e'\xb1\xd9R\x1d@5\x98\xf3\xef\x0b\xf2\x1e@5\x98\xf3\xef\x0b\xf2\x1e@\xb6\x9f\xd5n\x9eb\x16@\x9f\x01gDo)\x17@\xb0\x9e'\xb1\xd9R\x1d@\x95\xf1G\xef\xd6\xbd\x00@\xb0\x9e'\xb1\xd9R\x1d@\xb0\x9e'\xb1\xd9R\x1d@5\x98\xf3\xef\x0b\xf2\x1e@\xddHF\xa47\xef\x19@5\x98\xf3\xef\x0b\xf2\x1e@5\x98\xf3\xef\x0b\xf2\x1e@&|\xd7\xd1\xc3G\x1b@&|\xd7\xd1\xc3G\x1b@5\x98\xf3\xef\x0b\xf2\x1e@\xb0\x9e'\xb1\xd9R\x1d@5\x98\xf3\xef\x0b\xf2\x1e@\xb0\x9e'\xb1\xd9R\x1d@\xb0\x9e'\xb1\xd9R\x1d@\xee]|\x12\xdf\xed\x18@\xee]|\x12\xdf\xed\x18@\xcdC\x13tb \x18@{\xc2U\xd0\xb2\xa0\x16@5\x98\xf3\xef\x0b\xf2\x1e@5\x98\xf3\xef\x0b\xf2\x1e@\xe84\xf8q\xfb\x81\x18@rWHQ\x11\x8d\x1a@5\x98\xf3\xef\x0b\xf2\x1e@5\x98\xf3\xef\x0b\xf2\x1e@&\xf4L\xd3\x00\x1d\x14@\x94{\xb5\xd8?F\x13@c;,3\xc9\xe2\x16@\x8f\xfc3\x14\x9aZ\x15@\xf7P\x14\x90C,\x1c@rWHQ\x11\x8d\x1a@\xf7P\x14\x90C,\x1c@5\x98\xf3\xef\x0b\xf2\x1e@\x94{\xb5\xd8?F\x13@\xb6\x9f\xd5n\x9eb\x16@5\x98\xf3\xef\x0b\xf2\x1e@rWHQ\x11\x8d\x1a@\xb0\x9e'\xb1\xd9R\x1d@\xee]|\x12\xdf\xed\x18@\xb0\x9e'\xb1\xd9R\x1d@r\xcf\xbdRNb\x13@\x1b\x08\x9b\x05=\x8a\x15@$s\xa8\x84\xde\x9d\x11@5\x98\xf3\xef\x0b\xf2\x1e@\r\xd2Z\xda\x89\xaf\x14@5\x98\xf3\xef\x0b\xf2\x1e@5\x10i\xf1H\xc7\x17@&\xf4L\xd3\x00\x1d\x14@\xb0\x9e'\xb1\xd9R\x1d@5\x98\xf3\xef\x0b\xf2\x1e@5\x10i\xf1H\xc7\x17@\x1b\x08\x9b\x05=\x8a\x15@\xa2\xbb\x8c;_\xcc\x06@\xfe\xb5>\xbcA\x05\x11@5\x98\xf3\xef\x0b\xf2\x1e@\xcbW\x92I,\xb0\r@&\xf4L\xd3\x00\x1d\x14@\xdc\xc0\xbb\xa5t\xc4\x12@\t\xe3\x1c\xb4@\x83\x0b@/0'\x8a\xb4\r\x0e@&|\xd7\xd1\xc3G\x1b@>{vp\xea\xda\x13@5\x98\xf3\xef\x0b\xf2\x1e@5\x98\xf3\xef\x0b\xf2\x1e@&\xf4L\xd3\x00\x1d\x14@\xddHF\xa47\xef\x19@\xb0\x9e'\xb1\xd9R\x1d@\xddHF\xa47\xef\x19@J\x91\xaf;\x8fJ\x10@&|\xd7\xd1\xc3G\x1b@\x9f>\xf1\xec\xf0*\x13@5\x98\xf3\xef\x0b\xf2\x1e@\r\xd2Z\xda\x89\xaf\x14@\xddHF\xa47\xef\x19@5\x98\xf3\xef\x0b\xf2\x1e@\x1b\x08\x9b\x05=\x8a\x15@&\xf4L\xd3\x00\x1d\x14@\xf2\xfao\xc2\xef\n\x10@\xa2Z\x94k\x1d\xd4\x06@\xb0\x9e'\xb1\xd9R\x1d@\xb0\x9e'\xb1\xd9R\x1d@\x80\xe0\x17\xf6Q\xb0\x11@\xdc\xc0\xbb\xa5t\xc4\x12@\xb0\x9e'\xb1\xd9R\x1d@ji\xc8D\\\xac\x12@\xb0\x9e'\xb1\xd9R\x1d@\xceI\xa9\xd1!\x81\x04@\xddHF\xa47\xef\x19@\xee]|\x12\xdf\xed\x18@&|\xd7\xd1\xc3G\x1b@"
p4433
tp4434
bsbsS'use_idf'
p4435
I01
sS'sublinear_tf'
p4436
I00
sS'norm'
p4437
Vl2
p4438
sbtp4439
a(S'clsfr'
p4440
g3385
(csklearn.linear_model.stochastic_gradient
SGDClassifier
p4441
g3387
Ntp4442
Rp4443
(dp4444
S't_'
p4445
F8421.0
sS'n_jobs'
p4446
I1
sS'shuffle'
p4447
I01
sS'verbose'
p4448
I0
sS'classes_'
p4449
g4400
(g4401
(I0
tp4450
g4403
tp4451
Rp4452
(I1
(I2
tp4453
g3418
(S'S5'
p4454
I0
I1
tp4455
Rp4456
(I3
S'|'
p4457
NNNI5
I1
I0
tp4458
bI00
S'FalseTrue\x00'
p4459
tp4460
bsS'class_weight'
p4461
NsS'fit_intercept'
p4462
I01
sg8
g9
sS'random_state'
p4463
I627
sg3391
g3392
sS'loss_function'
p4464
csklearn.linear_model.sgd_fast
ModifiedHuber
p4465
(tRp4466
sS'C'
p4467
F1.0
sg7
I5
sS'epsilon'
p4468
F0.1
sS'learning_rate'
p4469
S'optimal'
p4470
sS'coef_'
p4471
g4400
(g4401
(I0
tp4472
g4403
tp4473
Rp4474
(I1
(I1
I237
tp4475
g4430
I00
S'\x00\x00\x00\x00\x00\x00\x00\x00\x16\xb9\xc0\xa1M)\xd0\xbfK\xa32\xc2\x8a\x18\xda\xbf}O\xe0\xa5*e\xef\xbf\x9c\x98\xa6\xa4r\xcf\x08\xc0\x02\xe60c\x84\x02\xf5\xbf\n(\x96\xb6\xb6L\xd8\xbf\x00\x00\x00\x00\x00\x00\x00\x00\xf2y\x95.\x18\xfd\xee\xbfi\xff\x086&\xca\xf0\xbf\xcc\x00\xf8\xe7\x1fD\x9c\xbf\xc8I\x9c?S\'\xe1\xbf\x9b\xc9\xc7\x8c\xda\x87\xfc\xbf\x00\x00\x00\x00\x00\x00\x00\x00\x00\x00\x00\x00\x00\x00\x00\x00pi\xd6z\x8fp\xd5\xbf\x00\x00\x00\x00\x00\x00\x00\x00pc\x02\x01#\xb6\xf3\xbf\x00\x00\x00\x00\x00\x00\x00\x00\x00\x00\x00\x00\x00\x00\x00\x00\x00\x00\x00\x00\x00\x00\x00\x00\x00\x00\x00\x00\x00\x00\x00\x00\x00\x00\x00\x00\x00\x00\x00\x00\xb7Be\xff\xb8\x1f\xf2\xbf^T\x9d`&\xfe\x00\xc0\x00\x00\x00\x00\x00\x00\x00\x00\x1fX\x97\xf9:\x11\x11@Di \xb7\xe2\xed\x12@\xf2\xc6\x0e>\'!\x0e\xc0\xae=\x93\xa0\xb1\xda\x08\xc0\x00\x00\x00\x00\x00\x00\x00\x00\x00\x00\x00\x00\x00\x00\x00\x00\xe0S\xb2\xb2\xbeX\x08\xc0\x00\x00\x00\x00\x00\x00\x00\x00\x8e\t@xJS\x1f\xc0l`\x06\xe3R\xa2\xe7\xbf\x00\x00\x00\x00\x00\x00\x00\x00\x00\x00\x00\x00\x00\x00\x00\x00\x00\x00\x00\x00\x00\x00\x00\x00\xbd\x16\xa4\xf0\x80?\xce\xbf\x081W\x98O)\x02\xc0\xf6b\xe2?\xaf\x16\xeb\xbfu:\x07\xb2\xa5\x9b\xf0\xbf|\xcf\xb9\x04\xb3\xc5\xe3\xbf\x00\x00\x00\x00\x00\x00\x00\x00\x00\x00\x00\x00\x00\x00\x00\x00\x00\x00\x00\x00\x00\x00\x00\x00\x00\x00\x00\x00\x00\x00\x00\x00\x00\x00\x00\x00\x00\x00\x00\x00\x00\x00\x00\x00\x00\x00\x00\x00|\xc7\xa9\xb50?\x04\xc0\x00\x00\x00\x00\x00\x00\x00\x00\xcc\x00\xf8\xe7\x1fD\x9c\xbf\xbb\x17\xf0=%\x00\xfb\xbf\x00\x00\x00\x00\x00\x00\x00\x00\x1f@\xee\xed\x1e\xb4\xcf\xbf\x8a$\x8e2\xfbL\x01\xc0\x06\x18j\xf0\x1fZ\xe4\xbf\xc4N\xa8\xce\xfc\xa4\xf4\xbf\xa9*\x05P\xa6\xb6\x08@\xcc\x00\xf8\xe7\x1fD\x9c\xbf\x00\x00\x00\x00\x00\x00\x00\x00\x00\x00\x00\x00\x00\x00\x00\x00\xef;\x944G\xad$@\xe5\xaf\xe2GF\x93\xf0\xbfP\x86Y\xf8\xd1+\xdc\xbf\xea\x1d\xbaZ\x1c\xf0\x1a@\x00\x00\x00\x00\x00\x00\x00\x00\x00\x00\x00\x00\x00\x00\x00\x00\x00\x00\x00\x00\x00\x00\x00\x00\x00\x00\x00\x00\x00\x00\x00\x00|-&\xfb\x1db\x10\xc0\xf5\x9d\xbc\xab\x0c\xf2\xf0\xbf\x00\x00\x00\x00\x00\x00\x00\x00D]\xfd\xc7\r\x0e\x0e\xc0V\x1a\xacK\x8d&\xdc\xbf\xf2y\x95.\x18\xfd\xee\xbf\x00\x00\x00\x00\x00\x00\x00\x00\x8a\x8c\xfe\xd0\x04*\x14\xc0\x00\x00\x00\x00\x00\x00\x00\x00\x00\x00\x00\x00\x00\x00\x00\x00m1\nQ\x15s\x18\xc0\x00\x00\x00\x00\x00\x00\x00\x00\x00\x00\x00\x00\x00\x00\x00\x00\x00\x00\x00\x00\x00\x00\x00\x00k\xe2\x1dz\xf5:\xd1\xbf\x00\x00\x00\x00\x00\x00\x00\x00\x83\xa4v\xb4\xd1\t\xe0?}o\xdfI\xa4b\xf0\xbf\x00\x00\x00\x00\x00\x00\x00\x00#A\x9b\xdd\xb8\x13\xea\xbf\x00\x00\x00\x00\x00\x00\x00\x00\x00\x00\x00\x00\x00\x00\x00\x00\x9a\xea#GeY\xfa\xbfs\xaa\x85`\xd0\x82\x04\xc0\xa83\x9d\x17\xfc\xda\xae\xbf\x00\x00\x00\x00\x00\x00\x00\x00\x00\x00\x00\x00\x00\x00\x00\x00\x00\x00\x00\x00\x00\x00\x00\x00\x00\x00\x00\x00\x00\x00\x00\x00\x00\x00\x00\x00\x00\x00\x00\x00\xbe\x14Lj\xc0\x95\xfc\xbf\x00\x00\x00\x00\x00\x00\x00\x00\x00\x00\x00\x00\x00\x00\x00\x00\x00\x00\x00\x00\x00\x00\x00\x00\x1f{HK\x00\xa9\xd9\xbf\x97h"\x1c\xbf`\xee\xbf\xad\x0e\x95\x9d\x1b\xdc\x0b\xc0\xbd\x16\xa4\xf0\x80?\xce\xbf\x00\x00\x00\x00\x00\x00\x00\x00\x81\x11\x97\xf2\xe5K\xcf\xbf\x00\x00\x00\x00\x00\x00\x00\x00\x00\x00\x00\x00\x00\x00\x00\x00\x1f@\xee\xed\x1e\xb4\xcf\xbf\r\x05\xed7\x90e\x0e\xc0\xd9\xf0\xc1\xc1ES\x05\xc0\xe9\x19\xf5\xd0\x98u\xeb\xbf\x00\x00\x00\x00\x00\x00\x00\x002@\xb5\xc2\xcch\x0f\xc0\x00\x00\x00\x00\x00\x00\x00\x00\x00\x00\x00\x00\x00\x00\x00\x00B\xd3\x04\xeevv\x01\xc0\x00\x00\x00\x00\x00\x00\x00\x00\x00\x00\x00\x00\x00\x00\x00\x00\'C\x9fJf9\x05\xc0>\xa3\t\xb0H\xc4\xe6\xbf\x00\x00\x00\x00\x00\x00\x00\x00,fAn\xc1V\xe6\xbf\xce\xf3\xd1:c\xcc\x08\xc0\x00\x00\x00\x00\x00\x00\x00\x00t\xb8\xb9\xbbG\xc7\x0b\xc0\x08k>\xdan/\t\xc0\xc5\x17\x88\x80\xcbf\xef\xbf\xeb\x1b\x13nN\xc3\xea\xbf\x83\xc8\xe8s\xa6\xa9\x01@\x00\x00\x00\x00\x00\x00\x00\x00\x00\x00\x00\x00\x00\x00\x00\x00\x00\x00\x00\x00\x00\x00\x00\x001\x1d\xcf,\xcd?\xfa?&\x04\x80&\x02"\xb2\xbf\xf3!\x8c\x97\xab\xe9\x16\xc0a\xf54!/\x98\xe0\xbf\x00\x00\x00\x00\x00\x00\x00\x00\x00\x00\x00\x00\x00\x00\x00\x00\x00\x00\x00\x00\x00\x00\x00\x00\x00\x00\x00\x00\x00\x00\x00\x00\x9d\x9b\x1e\xe5\x97\xf5\x18\xc0\xbd\xf2rc\x11\xac\xd7\xbfm\xde::C\xfd\xf2\xbf\x00\x00\x00\x00\x00\x00\x00\x00\x00\x00\x00\x00\x00\x00\x00\x00\x00\x00\x00\x00\x00\x00\x00\x00\x00\x00\x00\x00\x00\x00\x00\x00\x00\x00\x00\x00\x00\x00\x00\x00\x00\x00\x00\x00\x00\x00\x00\x00\xb7\x8b,.}1\xee\xbf\x00\x00\x00\x00\x00\x00\x00\x00\xcc\x00\xf8\xe7\x1fD\x9c\xbfpc\x02\x01#\xb6\xf3\xbf\x00\x00\x00\x00\x00\x00\x00\x00U\xa8C\x84\xa2\x12\x16@\x00\x00\x00\x00\x00\x00\x00\x00\x00\x00\x00\x00\x00\x00\x00\x00\x00\x00\x00\x00\x00\x00\x00\x00\x00\x00\x00\x00\x00\x00\x00\x00\x96\xcd"Y\x00\x83\xe7\xbf\x00\x00\x00\x00\x00\x00\x00\x00\x97h"\x1c\xbf`\xee\xbf\x00\x00\x00\x00\x00\x00\x00\x00\x00\x00\x00\x00\x00\x00\x00\x00\x00\x00\x00\x00\x00\x00\x00\x00\x00\x00\x00\x00\x00\x00\x00\x00\x00\x00\x00\x00\x00\x00\x00\x00\x00\x00\x00\x00\x00\x00\x00\x00\x00\x00\x00\x00\x00\x00\x00\x00\x9c\xcd\xbc\x88\\\x88\xf3\xbfLj\x13\x92\xd3\x1c\x1c@\x00\x00\x00\x00\x00\x00\x00\x00\x9f%\x01\r\x00>\xe3\xbf\x00\x00\x00\x00\x00\x00\x00\x00\x8dPN+\xd6h\xfb\xbf\xdeu\xbe7ce\x15\xc0\x00\x00\x00\x00\x00\x00\x00\x00\x8f\tk\xcetf\t\xc0\x00\x00\x00\x00\x00\x00\x00\x00\x00\x00\x00\x00\x00\x00\x00\x00\x00\x00\x00\x00\x00\x00\x00\x00\xa5\xbdj\xeah\xe3\x14\xc0x+|\x174\x12\xf7\xbfJF0\xd8d\xda\x00\xc0\x00\x00\x00\x00\x00\x00\x00\x00[\xc3h\x1e\xfd[\x01\xc0\x00\x00\x00\x00\x00\x00\x00\x00\\Vx\xabeH\xd5\xbf\x00\x00\x00\x00\x00\x00\x00\x00\xa9*\x05P\xa6\xb6\x08@\x00\x00\x00\x00\x00\x00\x00\x00\xf1\xc6\x8fH,\x03\x06\xc0\x15\x7f\xfb\xf7\x83\x1b\xda\xbf\xe5Cf\xd02\r\x14\xc0\x00\x00\x00\x00\x00\x00\x00\x00\xcc\x00\xf8\xe7\x1fD\x9c\xbfm\x91_A\x96(\xf7\xbf\x00\x00\x00\x00\x00\x00\x00\x00\xdf$\xc8d\xc6\xd8\xd5\xbf\x1a\xde\x0fTF\x08\xfd\xbf\x94\xdd\x04\x8c\xd0\xdb\x06\xc0\x00\x00\x00\x00\x00\x00\x00\x00\x00\x00\x00\x00\x00\x00\x00\x00\x00\x00\x00\x00\x00\x00\x00\x00\x00\x00\x00\x00\x00\x00\x00\x00\x00\x00\x00\x00\x00\x00\x00\x00\x00\x00\x00\x00\x00\x00\x00\x00\x00\x00\x00\x00\x00\x00\x00\x00\x00\x00\x00\x00\x00\x00\x00\x00\xceH\xe1S=\xcb\x05\xc0\x126\xb2kI\x9e\xf2\xbfN1\xce&@fu\xbf\x00\x00\x00\x00\x00\x00\x00\x00\x94\x05\xe4\xfe\x1d\x9e\xdc\xbf\x1f\xd5_R\x97\xf2\xea\xbf\x00\x00\x00\x00\x00\x00\x00\x00ql\x00\x12o\xcd\x00\xc0\x00\x00\x00\x00\x00\x00\x00\x00<ZQ=O\x07\xf9\xbf\x8eKC:\xe3\xe2\x06\xc0\x00\x00\x00\x00\x00\x00\x00\x00\x00\x00\x00\x00\x00\x00\x00\x00\x00\x00\x00\x00\x00\x00\x00\x00\xf9\x06I\xc9\xe9d\xcc\xbf\x00\x00\x00\x00\x00\x00\x00\x00\x00\x00\x00\x00\x00\x00\x00\x00\x00\x00\x00\x00\x00\x00\x00\x003\x11z2 \xa7\xda\xbf\x1f\xd5_R\x97\xf2\xea\xbf\xe2-6A\xa4]\x12@\x00\x00\x00\x00\x00\x00\x00\x00'
p4476
tp4477
bsg11
F0.001
sS'intercept_'
p4478
g4400
(g4401
(I0
tp4479
g4403
tp4480
Rp4481
(I1
(I1
tp4482
g4430
I00
S'5/S\xc5T\\\xe5\xbf'
p4483
tp4484
bsS'_expanded_class_weight'
p4485
g4400
(g4401
(I0
tp4486
g4403
tp4487
Rp4488
(I1
(I2
tp4489
g4430
I00
S'\x00\x00\x00\x00\x00\x00\xf0?\x00\x00\x00\x00\x00\x00\xf0?'
p4490
tp4491
bsS'warm_start'
p4492
I00
sg2
g3
sS'eta0'
p4493
F0.0
sS'l1_ratio'
p4494
F0.15
sS'average'
p4495
I00
sS'power_t'
p4496
F0.5
sbtp4497
asbsb.