(ialicized_models
CommandMatchingModel
p0
(dp1
S'loss'
p2
S'hinge'
p3
sS'grammar'
p4
NsS'name'
p5
S'GET_TIME.model'
p6
sS'n_iter'
p7
I5
sS'penalty'
p8
S'none'
p9
sS'trained'
p10
I01
sS'alpha'
p11
F0.001
sS'data'
p12
(lp13
(S"get if it's hot this week"
p14
S'False'
p15
tp16
a(S'google search for'
p17
g15
tp18
a(S'open a default browser please'
p19
g15
tp20
a(S'check my calendar for tuesday'
p21
g15
tp22
a(S'can you please turn my computer off'
p23
g15
tp24
a(S'open a default browser'
p25
g15
tp26
a(S'check events on thursday'
p27
g15
tp28
a(S'weather'
p29
g15
tp30
a(S"please don't check the clock"
p31
g15
tp32
a(S"please what's in my gmail"
p33
g15
tp34
a(S"get if it's cold today"
p35
g15
tp36
a(S'am i free for a month'
p37
g15
tp38
a(S'please spotify pause the song'
p39
g15
tp40
a(S'can you create new event please'
p41
g15
tp42
a(S'do i have anything'
p43
g15
tp44
a(S'can you create a new event'
p45
g15
tp46
a(S'are there any events on this day'
p47
g15
tp48
a(S'do i have to do anything tomorrow'
p49
g15
tp50
a(S'please spotify previous'
p51
g15
tp52
a(S'check my calendar on this day'
p53
g15
tp54
a(S'please what is new in gmail'
p55
g15
tp56
a(S'add an event please'
p57
g15
tp58
a(S'do not get the current time'
p59
g15
tp60
a(S'do not check the clock right now'
p61
g15
tp62
a(S'headlines'
p63
g15
tp64
a(S'is there anything to do on sunday'
p65
g15
tp66
a(S'any new gmail'
p67
g15
tp68
a(S'can you turn off'
p69
g15
tp70
a(S'please shut off'
p71
g15
tp72
a(S'will it snow today'
p73
g15
tp74
a(S'turn my computer off please'
p75
g15
tp76
a(S'could you make event please'
p77
g15
tp78
a(S'check calendar on'
p79
g15
tp80
a(S'what events are on tomorrow'
p81
g15
tp82
a(S'check my calendar for wednesday'
p83
g15
tp84
a(S'will you check inbox'
p85
g15
tp86
a(S'please get the time'
p87
S'True'
p88
tp89
a(S"get today's forecast"
p90
g15
tp91
a(S'would you check my gmail please'
p92
g15
tp93
a(S'please get the current time'
p94
g88
tp95
a(S'can you close this window'
p96
g15
tp97
a(S'what is new in new mail'
p98
g15
tp99
a(S"please don't when is it"
p100
g15
tp101
a(S'read the time please'
p102
g88
tp103
a(S'am i free on wednesday'
p104
g15
tp105
a(S'check google calendar on tuesday'
p106
g15
tp107
a(S'turn up the sound'
p108
g15
tp109
a(S'what is new in new gmail'
p110
g15
tp111
a(S'will you check mail please'
p112
g15
tp113
a(S"aren't there any events on saturday"
p114
g15
tp115
a(S'open dot net'
p116
g15
tp117
a(S'what events do i have on saturday'
p118
g15
tp119
a(S"please don't read the clock"
p120
g15
tp121
a(S'check google calendar for this month'
p122
g15
tp123
a(S'shutdown please'
p124
g15
tp125
a(S"don't i have any events in a month"
p126
g15
tp127
a(S"don't i have to do anything on sunday"
p128
g15
tp129
a(S"don't check the current time please"
p130
g15
tp131
a(S'send me to the lock screen please'
p132
g15
tp133
a(S'turn off'
p134
g15
tp135
a(S'any events'
p136
g15
tp137
a(S'check google calendar for today'
p138
g15
tp139
a(S'can you please close current window'
p140
g15
tp141
a(S"please what's in inbox"
p142
g15
tp143
a(S'could you create new event please'
p144
g15
tp145
a(S'can you check new mail please'
p146
g15
tp147
a(S'check calendar on next'
p148
g15
tp149
a(S"don't i have anything on saturday"
p150
g15
tp151
a(S"if it's cloudy today"
p152
g15
tp153
a(S'start a default browser please'
p154
g15
tp155
a(S'skip spotify please'
p156
g15
tp157
a(S'do i have anything to do on friday'
p158
g15
tp159
a(S'could you check new mail please'
p160
g15
tp161
a(S"don't get me the clock please"
p162
g15
tp163
a(S'can you please schedule new event'
p164
g15
tp165
a(S'can you please shutdown'
p166
g15
tp167
a(S"if it's raining today"
p168
g15
tp169
a(S"what's weather"
p170
g15
tp171
a(S'do i have anything to do next'
p172
g15
tp173
a(S'would you check mail please'
p174
g15
tp175
a(S"what're the live news"
p176
g15
tp177
a(S'could you schedule new event please'
p178
g15
tp179
a(S"don't i have any events on"
p180
g15
tp181
a(S"don't read the clock please"
p182
g15
tp183
a(S"don't i have to do anything in a month"
p184
g15
tp185
a(S'can you please make new event'
p186
g15
tp187
a(S'do i have any events on'
p188
g15
tp189
a(S'search'
p190
g15
tp191
a(S'check my calendar for'
p192
g15
tp193
a(S'get live news feed'
p194
g15
tp195
a(S'open dot ee dee you'
p196
g15
tp197
a(S'check my calendar for this day'
p198
g15
tp199
a(S"aren't there any events on today"
p200
g15
tp201
a(S'spotify play'
p202
g15
tp203
a(S'any mail'
p204
g15
tp205
a(S'please can you check gmail'
p206
g15
tp207
a(S'check calendar for next'
p208
g15
tp209
a(S'please stop song'
p210
g15
tp211
a(S'do not retrieve the current time'
p212
g15
tp213
a(S'spotify stop the song '
p214
g15
tp215
a(S'could you schedule an event'
p216
g15
tp217
a(S'do not get me the clock please'
p218
g15
tp219
a(S"don't i have to do anything on tuesday"
p220
g15
tp221
a(S'please make a new event'
p222
g15
tp223
a(S'shut off'
p224
g15
tp225
a(S'check google calendar on tomorrow'
p226
g15
tp227
a(S"what's in new gmail please"
p228
g15
tp229
a(S'turn it up please'
p230
g15
tp231
a(S"don't i have anything to do on this day"
p232
g15
tp233
a(S'please spotify play previous song'
p234
g15
tp235
a(S"if it's cloudy this week"
p236
g15
tp237
a(S'kill active window'
p238
g15
tp239
a(S'what events are on tuesday'
p240
g15
tp241
a(S'can you turn the beat down'
p242
g15
tp243
a(S'read me the clock'
p244
g88
tp245
a(S'please will you check gmail'
p246
g15
tp247
a(S'anything in mail'
p248
g15
tp249
a(S"don't i have to do anything on wednesday"
p250
g15
tp251
a(S'please would you open inbox'
p252
g15
tp253
a(S'please start a browser'
p254
g15
tp255
a(S'what is in mail please'
p256
g15
tp257
a(S'please go to dot com'
p258
g15
tp259
a(S'do not when is it please'
p260
g15
tp261
a(S'lower the volume'
p262
g15
tp263
a(S'please check your watch'
p264
g88
tp265
a(S'can you check my mail'
p266
g15
tp267
a(S'can you check my gmail please'
p268
g15
tp269
a(S'spotify play the song before'
p270
g15
tp271
a(S"please don't retrieve the current time"
p272
g15
tp273
a(S'please go to'
p274
g15
tp275
a(S'spotify pause please'
p276
g15
tp277
a(S"aren't there any events on tomorrow"
p278
g15
tp279
a(S'please would you check mail'
p280
g15
tp281
a(S"what's new in new mail"
p282
g15
tp283
a(S'turn the tune down'
p284
g15
tp285
a(S'open browser please'
p286
g15
tp287
a(S'gimme the news'
p288
g15
tp289
a(S"what's in gmail"
p290
g15
tp291
a(S'spotify previous please'
p292
g15
tp293
a(S'can you send me to the lock screen'
p294
g15
tp295
a(S'check my calendar for monday'
p296
g15
tp297
a(S'anything new in inbox'
p298
g15
tp299
a(S'is there anything i have to do on saturday'
p300
g15
tp301
a(S'turn up the tunez'
p302
g15
tp303
a(S'is there anything i have to do on sunday'
p304
g15
tp305
a(S'please could you open my mail'
p306
g15
tp307
a(S'can you lock computer'
p308
g15
tp309
a(S"what's new in inbox"
p310
g15
tp311
a(S"what's if it's cloudy today"
p312
g15
tp313
a(S'spotify skip'
p314
g15
tp315
a(S"what's in inbox"
p316
g15
tp317
a(S"how's the temperature this week"
p318
g15
tp319
a(S'check calendar for tuesday'
p320
g15
tp321
a(S'byebye'
p322
g15
tp323
a(S"don't i have to do anything tomorrow"
p324
g15
tp325
a(S'is it raining today'
p326
g15
tp327
a(S"what's the current events"
p328
g15
tp329
a(S'turn off the computer'
p330
g15
tp331
a(S'get live newsfeed'
p332
g15
tp333
a(S'would you open mail please'
p334
g15
tp335
a(S'is there anything i have to do on friday'
p336
g15
tp337
a(S"what's the forecast"
p338
g15
tp339
a(S'please will you check my inbox'
p340
g15
tp341
a(S'what do i have on this day'
p342
g15
tp343
a(S'please will you check new mail'
p344
g15
tp345
a(S'what is on my calendar for tuesday'
p346
g15
tp347
a(S"don't when is it please"
p348
g15
tp349
a(S'gather information on'
p350
g15
tp351
a(S'current events today'
p352
g15
tp353
a(S'could you please schedule an event'
p354
g15
tp355
a(S'read time'
p356
g88
tp357
a(S"what's new in my gmail please"
p358
g15
tp359
a(S"don't i have to do anything"
p360
g15
tp361
a(S'close this window'
p362
g15
tp363
a(S'am i free for tomorrow'
p364
g15
tp365
a(S'are there any events on tuesday'
p366
g15
tp367
a(S'open dot com'
p368
g15
tp369
a(S"what's if it's snowing today"
p370
g15
tp371
a(S'please do not get the clock'
p372
g15
tp373
a(S'please can you check my mail'
p374
g15
tp375
a(S'am i free on this day'
p376
g15
tp377
a(S'can you please shut off my computer'
p378
g15
tp379
a(S'could you open my mail please'
p380
g15
tp381
a(S"don't i have any events on tuesday"
p382
g15
tp383
a(S'is there anything i have to do on'
p384
g15
tp385
a(S'spotify start please'
p386
g15
tp387
a(S'please start default browser'
p388
g15
tp389
a(S'do i have anything on this day'
p390
g15
tp391
a(S'is there anything i have to do on tuesday'
p392
g15
tp393
a(S'kill the noise'
p394
g15
tp395
a(S'what events do i have on monday'
p396
g15
tp397
a(S'check events on tuesday'
p398
g15
tp399
a(S'open dot gov'
p400
g15
tp401
a(S"today's temperature"
p402
g15
tp403
a(S'create event'
p404
g15
tp405
a(S'start song'
p406
g15
tp407
a(S'can you turn yourself off please'
p408
g15
tp409
a(S'start a default browser'
p410
g15
tp411
a(S'please make an event'
p412
g15
tp413
a(S'please can you check new mail'
p414
g15
tp415
a(S'do not check the current time'
p416
g15
tp417
a(S'can you please turn up the beat'
p418
g15
tp419
a(S'find current news'
p420
g15
tp421
a(S'what is headlines'
p422
g15
tp423
a(S"please what's in mail"
p424
g15
tp425
a(S"please what's new in my inbox"
p426
g15
tp427
a(S'check events for thursday'
p428
g15
tp429
a(S'open gmail'
p430
g15
tp431
a(S'what do i have on'
p432
g15
tp433
a(S'check my mail'
p434
g15
tp435
a(S'could you please add an event'
p436
g15
tp437
a(S"don't i have anything to do on saturday"
p438
g15
tp439
a(S'can you please close the current window'
p440
g15
tp441
a(S"please don't check your watch"
p442
g15
tp443
a(S'please turn off'
p444
g15
tp445
a(S'gather the latest headlines please'
p446
g15
tp447
a(S'please could you open gmail'
p448
g15
tp449
a(S'what do i have on thursday'
p450
g15
tp451
a(S'what do i have to do on tomorrow'
p452
g15
tp453
a(S"get if it's raining today"
p454
g15
tp455
a(S'tell me live news feed'
p456
g15
tp457
a(S"what're the news feed"
p458
g15
tp459
a(S'check calendar on wednesday'
p460
g15
tp461
a(S'what do i have to do on'
p462
g15
tp463
a(S'would you check my inbox'
p464
g15
tp465
a(S'be quiet'
p466
g15
tp467
a(S'check events for tomorrow'
p468
g15
tp469
a(S'turn down the volume'
p470
g15
tp471
a(S"don't retrieve the current time"
p472
g15
tp473
a(S'do not check the clock right now please'
p474
g15
tp475
a(S'please get time'
p476
g88
tp477
a(S'will you open inbox'
p478
g15
tp479
a(S'kill window'
p480
g15
tp481
a(S'check events for saturday'
p482
g15
tp483
a(S'do i have to do anything on this day'
p484
g15
tp485
a(S'could you create an event please'
p486
g15
tp487
a(S"don't read the time please"
p488
g15
tp489
a(S"aren't there any events in a week"
p490
g15
tp491
a(S'what is in inbox please'
p492
g15
tp493
a(S'please could you open mail'
p494
g15
tp495
a(S'can you check my inbox'
p496
g15
tp497
a(S'search google'
p498
g15
tp499
a(S'what is on my calendar for today'
p500
g15
tp501
a(S'check calendar for tomorrow'
p502
g15
tp503
a(S'okay alex'
p504
g15
tp505
a(S"what's the temperature"
p506
g15
tp507
a(S'can you check inbox'
p508
g15
tp509
a(S'please spotify play last song'
p510
g15
tp511
a(S'can you create event'
p512
g15
tp513
a(S'spotify last please'
p514
g15
tp515
a(S"if it's raining this week"
p516
g15
tp517
a(S'please check inbox'
p518
g15
tp519
a(S'what do i have on next'
p520
g15
tp521
a(S'can you unmute'
p522
g15
tp523
a(S'what do i have to do on tuesday'
p524
g15
tp525
a(S'schedule event please'
p526
g15
tp527
a(S'what is going on in the world today'
p528
g15
tp529
a(S'alice next please'
p530
g15
tp531
a(S'stop spotify'
p532
g15
tp533
a(S"get if it's hot today"
p534
g15
tp535
a(S'brief me'
p536
g15
tp537
a(S'open'
p538
g15
tp539
a(S'close the current window'
p540
g15
tp541
a(S"don't check the clock"
p542
g15
tp543
a(S'please add an event'
p544
g15
tp545
a(S'please can you check my gmail'
p546
g15
tp547
a(S'anything new in my inbox'
p548
g15
tp549
a(S'stop'
p550
g15
tp551
a(S'do i have to do anything today'
p552
g15
tp553
a(S'can you unmute please'
p554
g15
tp555
a(S'shutdown my computer'
p556
g15
tp557
a(S'can you add a new event please'
p558
g15
tp559
a(S"what's in my inbox"
p560
g15
tp561
a(S'please make new event'
p562
g15
tp563
a(S"what's forecast"
p564
g15
tp565
a(S'could you open inbox'
p566
g15
tp567
a(S"how's the temperature"
p568
g15
tp569
a(S'check events for this day'
p570
g15
tp571
a(S'check calendar on tuesday'
p572
g15
tp573
a(S'what is in my mail'
p574
g15
tp575
a(S"what's the forecast today"
p576
g15
tp577
a(S"what're the news"
p578
g15
tp579
a(S'what events do i have on friday'
p580
g15
tp581
a(S"get if it's foggy this week"
p582
g15
tp583
a(S'please shutdown my computer'
p584
g15
tp585
a(S'am i free for this day'
p586
g15
tp587
a(S'check events for this week'
p588
g15
tp589
a(S'what is in inbox'
p590
g15
tp591
a(S'exit'
p592
g15
tp593
a(S"please don't get clock"
p594
g15
tp595
a(S'lock my computer please'
p596
g15
tp597
a(S'can you please add an event'
p598
g15
tp599
a(S'what is new in inbox'
p600
g15
tp601
a(S"don't i have to do anything on thursday"
p602
g15
tp603
a(S'can you check mail'
p604
g15
tp605
a(S"please what's in new mail"
p606
g15
tp607
a(S'would you open inbox please'
p608
g15
tp609
a(S'am i free for monday'
p610
g15
tp611
a(S'could you create event please'
p612
g15
tp613
a(S'could you open my mail'
p614
g15
tp615
a(S"what's the newsfeed"
p616
g15
tp617
a(S'what is new in inbox please'
p618
g15
tp619
a(S"what's in my mail"
p620
g15
tp621
a(S'please open a browser'
p622
g15
tp623
a(S'turn yourself off please'
p624
g15
tp625
a(S'can you check my inbox please'
p626
g15
tp627
a(S'create an event please'
p628
g15
tp629
a(S'would you check inbox'
p630
g15
tp631
a(S'could you check new gmail'
p632
g15
tp633
a(S"what's not the time"
p634
g15
tp635
a(S'please google search for'
p636
g15
tp637
a(S'any events on wednesday'
p638
g15
tp639
a(S'do not get time please'
p640
g15
tp641
a(S"don't i have to do anything on next"
p642
g15
tp643
a(S"what time isn't it now"
p644
g15
tp645
a(S'check events on'
p646
g15
tp647
a(S"don't i have any events on today"
p648
g15
tp649
a(S'check events for monday'
p650
g15
tp651
a(S'open inbox'
p652
g15
tp653
a(S'check events for next'
p654
g15
tp655
a(S'please what is in my inbox'
p656
g15
tp657
a(S"what's the time"
p658
g88
tp659
a(S'can you shut off'
p660
g15
tp661
a(S'check my calendar for today'
p662
g15
tp663
a(S"what's the headlines"
p664
g15
tp665
a(S"what're the newsfeed"
p666
g15
tp667
a(S'check calendar for friday'
p668
g15
tp669
a(S'please what is new in my inbox'
p670
g15
tp671
a(S'current weather'
p672
g15
tp673
a(S'get temperature'
p674
g15
tp675
a(S"what's in new mail please"
p676
g15
tp677
a(S'please add a new event'
p678
g15
tp679
a(S'please open'
p680
g15
tp681
a(S"aren't there any events on sunday"
p682
g15
tp683
a(S"today's weather"
p684
g15
tp685
a(S'gather information on todays current events please'
p686
g15
tp687
a(S'please what is new in my gmail'
p688
g15
tp689
a(S"get today's temperature"
p690
g15
tp691
a(S'anything in my inbox'
p692
g15
tp693
a(S'please check the clock'
p694
g88
tp695
a(S'turn off the sound please'
p696
g15
tp697
a(S'add a new event please'
p698
g15
tp699
a(S'am i free for saturday'
p700
g15
tp701
a(S'what is news feed'
p702
g15
tp703
a(S'open mail'
p704
g15
tp705
a(S'please check the clock right now'
p706
g88
tp707
a(S'is it foggy today'
p708
g15
tp709
a(S'what is the news'
p710
g15
tp711
a(S'make new event'
p712
g15
tp713
a(S'current forecast'
p714
g15
tp715
a(S'shut off my computer please'
p716
g15
tp717
a(S'anything in my mail'
p718
g15
tp719
a(S'could you please schedule event'
p720
g15
tp721
a(S'good night alice'
p722
g15
tp723
a(S'what is in new mail please'
p724
g15
tp725
a(S'check my calendar on tomorrow'
p726
g15
tp727
a(S'am i free for'
p728
g15
tp729
a(S'do i have anything to do on wednesday'
p730
g15
tp731
a(S'is there anything i have to do on this day'
p732
g15
tp733
a(S"what's the weather"
p734
g15
tp735
a(S'can you please turn up the volume'
p736
g15
tp737
a(S'can you shut down the computer'
p738
g15
tp739
a(S'please check the current time'
p740
g88
tp741
a(S'please can you check new gmail'
p742
g15
tp743
a(S'what events are on'
p744
g15
tp745
a(S'turn up the sound'
p746
g15
tp747
a(S'is there anything i have to do on thursday'
p748
g15
tp749
a(S'do i have any events on this day'
p750
g15
tp751
a(S'do not time please'
p752
g15
tp753
a(S"what's in mail please"
p754
g15
tp755
a(S'stop song please'
p756
g15
tp757
a(S"today's headlines"
p758
g15
tp759
a(S'is it cloudy today'
p760
g15
tp761
a(S'send me to the lock screen'
p762
g15
tp763
a(S'please search google'
p764
g15
tp765
a(S'check calendar for sunday'
p766
g15
tp767
a(S'is there anything to do today'
p768
g15
tp769
a(S'turn off my computer please'
p770
g15
tp771
a(S'do i have anything to do on tuesday'
p772
g15
tp773
a(S'time'
p774
g15
tp775
a(S'check calendar on tomorrow'
p776
g15
tp777
a(S'check events on tomorrow'
p778
g15
tp779
a(S'live news'
p780
g15
tp781
a(S'what events do i have on'
p782
g15
tp783
a(S'please shut down the computer'
p784
g15
tp785
a(S'check google calendar on'
p786
g15
tp787
a(S'what do i have to do in a week'
p788
g15
tp789
a(S'do i have any events on tuesday'
p790
g15
tp791
a(S'check the current time please'
p792
g88
tp793
a(S'get the time'
p794
g88
tp795
a(S'what is on my calendar for thursday'
p796
g15
tp797
a(S"please don't get the current time"
p798
g15
tp799
a(S'live newsfeed today'
p800
g15
tp801
a(S'what are the live news feed'
p802
g15
tp803
a(S'schedule an event please'
p804
g15
tp805
a(S'would you open my mail'
p806
g15
tp807
a(S'please do not get current time'
p808
g15
tp809
a(S'bye alice'
p810
g15
tp811
a(S'could you open my inbox please'
p812
g15
tp813
a(S'check my inbox please'
p814
g15
tp815
a(S'will you get the current headlines'
p816
g15
tp817
a(S'can you please shut down'
p818
g15
tp819
a(S'get current forecast'
p820
g15
tp821
a(S'alice'
p822
g15
tp823
a(S'see ya'
p824
g15
tp825
a(S'what is on my calendar for'
p826
g15
tp827
a(S'what is in my inbox please'
p828
g15
tp829
a(S'what is news'
p830
g15
tp831
a(S'google please for'
p832
g15
tp833
a(S'could you check my gmail'
p834
g15
tp835
a(S'check events for today'
p836
g15
tp837
a(S'can you please turn up the tune'
p838
g15
tp839
a(S'please can you check mail'
p840
g15
tp841
a(S'could you check mail please'
p842
g15
tp843
a(S'forecast'
p844
g15
tp845
a(S'lock the screen'
p846
g15
tp847
a(S"don't i have anything to do on tuesday"
p848
g15
tp849
a(S'make the sound softer'
p850
g15
tp851
a(S'can you schedule new event please'
p852
g15
tp853
a(S'am i free for thursday'
p854
g15
tp855
a(S'please give me the news'
p856
g15
tp857
a(S'is there anything i have to do tomorrow'
p858
g15
tp859
a(S"get this week's weather"
p860
g15
tp861
a(S'please lock the screen'
p862
g15
tp863
a(S'please google for'
p864
g15
tp865
a(S'check my calendar'
p866
g15
tp867
a(S"what's in my gmail please"
p868
g15
tp869
a(S'do not get clock'
p870
g15
tp871
a(S'check google calendar on monday'
p872
g15
tp873
a(S"don't i have any events on friday"
p874
g15
tp875
a(S'do i have anything on tuesday'
p876
g15
tp877
a(S"don't get me the clock"
p878
g15
tp879
a(S'check what time it is'
p880
g88
tp881
a(S'get live news'
p882
g15
tp883
a(S'can you kill the current window'
p884
g15
tp885
a(S'what events are on friday'
p886
g15
tp887
a(S"this week's weather"
p888
g15
tp889
a(S'can you please add new event'
p890
g15
tp891
a(S"what's new in new mail please"
p892
g15
tp893
a(S'please do not read the time'
p894
g15
tp895
a(S"don't read the clock"
p896
g15
tp897
a(S'is it cold today'
p898
g15
tp899
a(S'get current time please'
p900
g88
tp901
a(S'google please'
p902
g15
tp903
a(S"today's live news"
p904
g15
tp905
a(S"don't i have to do anything on saturday"
p906
g15
tp907
a(S'hey alice'
p908
g15
tp909
a(S'could you add event'
p910
g15
tp911
a(S'please will you open my inbox'
p912
g15
tp913
a(S'can you open this program'
p914
g15
tp915
a(S'can you schedule new event'
p916
g15
tp917
a(S'do i have anything to do on monday'
p918
g15
tp919
a(S'check calendar for this day'
p920
g15
tp921
a(S'is it rainy today'
p922
g15
tp923
a(S"don't i have to do anything on monday"
p924
g15
tp925
a(S'close current window'
p926
g15
tp927
a(S"what's today's weather"
p928
g15
tp929
a(S"don't i have any events in a week"
p930
g15
tp931
a(S'what is on my calendar for tomorrow'
p932
g15
tp933
a(S'please kill the window'
p934
g15
tp935
a(S'see you'
p936
g15
tp937
a(S'what is new in my mail'
p938
g15
tp939
a(S'please spotify start'
p940
g15
tp941
a(S'please pause spotify'
p942
g15
tp943
a(S'any events on friday'
p944
g15
tp945
a(S"what's in gmail please"
p946
g15
tp947
a(S'please do not get the time'
p948
g15
tp949
a(S'what events do i have on today'
p950
g15
tp951
a(S'please will you open mail'
p952
g15
tp953
a(S'will you open my gmail please'
p954
g15
tp955
a(S'create new event please'
p956
g15
tp957
a(S'please could you open my inbox'
p958
g15
tp959
a(S'current news today'
p960
g15
tp961
a(S"get if it's cold this week"
p962
g15
tp963
a(S'check events on'
p964
g15
tp965
a(S'get the clock'
p966
g88
tp967
a(S'please spotify last'
p968
g15
tp969
a(S'get headlines'
p970
g15
tp971
a(S'am i free on thursday'
p972
g15
tp973
a(S'what is in my mail please'
p974
g15
tp975
a(S"don't i have anything to do on wednesday"
p976
g15
tp977
a(S"get if it's rainy today"
p978
g15
tp979
a(S'are there any events on'
p980
g15
tp981
a(S'anything new in my mail'
p982
g15
tp983
a(S'close active window'
p984
g15
tp985
a(S'what events do i have in a week'
p986
g15
tp987
a(S"if it's freezing this week"
p988
g15
tp989
a(S'start a browser'
p990
g15
tp991
a(S'lock my computer'
p992
g15
tp993
a(S'please can you make it louder'
p994
g15
tp995
a(S'what is in my inbox'
p996
g15
tp997
a(S'temperature'
p998
g15
tp999
a(S'please can you check my inbox'
p1000
g15
tp1001
a(S'check gmail please'
p1002
g15
tp1003
a(S'google for please'
p1004
g15
tp1005
a(S'am i free in a week'
p1006
g15
tp1007
a(S'check my calendar for next'
p1008
g15
tp1009
a(S"please what's in gmail"
p1010
g15
tp1011
a(S'could you open inbox please'
p1012
g15
tp1013
a(S'am i free in a month'
p1014
g15
tp1015
a(S'mute please'
p1016
g15
tp1017
a(S'what are the live newsfeed'
p1018
g15
tp1019
a(S'good bye'
p1020
g15
tp1021
a(S'can you check inbox please'
p1022
g15
tp1023
a(S'can you please create event'
p1024
g15
tp1025
a(S'what is new in my mail please'
p1026
g15
tp1027
a(S'pause song please'
p1028
g15
tp1029
a(S'please schedule a new event'
p1030
g15
tp1031
a(S'please start browsing'
p1032
g15
tp1033
a(S'check google calendar'
p1034
g15
tp1035
a(S'check google calendar for friday'
p1036
g15
tp1037
a(S"don't check the clock right now"
p1038
g15
tp1039
a(S'can you turn up the sound'
p1040
g15
tp1041
a(S'please turn off the computer'
p1042
g15
tp1043
a(S"don't i have anything to do on next"
p1044
g15
tp1045
a(S'please check new gmail'
p1046
g15
tp1047
a(S'what is in mail'
p1048
g15
tp1049
a(S'can you shutdown'
p1050
g15
tp1051
a(S'check my calendar for sunday'
p1052
g15
tp1053
a(S'can you please create a new event'
p1054
g15
tp1055
a(S'please spotify pause'
p1056
g15
tp1057
a(S'get the current time'
p1058
g88
tp1059
a(S'please check my inbox'
p1060
g15
tp1061
a(S'are there any events on saturday'
p1062
g15
tp1063
a(S"please what's new in my mail"
p1064
g15
tp1065
a(S'could you please create a new event'
p1066
g15
tp1067
a(S'please search for'
p1068
g15
tp1069
a(S'could you please schedule new event'
p1070
g15
tp1071
a(S'what do i have on today'
p1072
g15
tp1073
a(S'check events for friday'
p1074
g15
tp1075
a(S"what's the live news feed"
p1076
g15
tp1077
a(S'is it freezing this week'
p1078
g15
tp1079
a(S"what's today's forecast"
p1080
g15
tp1081
a(S'please what is new in new mail'
p1082
g15
tp1083
a(S"get if it's raining this week"
p1084
g15
tp1085
a(S"get if it's cloudy today"
p1086
g15
tp1087
a(S'shut my computer down'
p1088
g15
tp1089
a(S'do not get the current time please'
p1090
g15
tp1091
a(S'open a browser'
p1092
g15
tp1093
a(S'do not get current time please'
p1094
g15
tp1095
a(S'check my calendar for friday'
p1096
g15
tp1097
a(S'start'
p1098
g15
tp1099
a(S'unmute please'
p1100
g15
tp1101
a(S"don't i have anything tomorrow"
p1102
g15
tp1103
a(S'shutdown the computer'
p1104
g15
tp1105
a(S"this week's forecast"
p1106
g15
tp1107
a(S'can you please add event'
p1108
g15
tp1109
a(S'could you check my inbox please'
p1110
g15
tp1111
a(S"don't i have any events on this day"
p1112
g15
tp1113
a(S'current time'
p1114
g15
tp1115
a(S'check calendar for this month'
p1116
g15
tp1117
a(S'check events for wednesday'
p1118
g15
tp1119
a(S'kill the music'
p1120
g15
tp1121
a(S'turn up the tunez please'
p1122
g15
tp1123
a(S'do i have to do anything on monday'
p1124
g15
tp1125
a(S'can you lock the screen please'
p1126
g15
tp1127
a(S'make event'
p1128
g15
tp1129
a(S'can you please shut up'
p1130
g15
tp1131
a(S'can you check mail please'
p1132
g15
tp1133
a(S'please kill active window'
p1134
g15
tp1135
a(S'please create event'
p1136
g15
tp1137
a(S"don't read time"
p1138
g15
tp1139
a(S'can you please make a new event'
p1140
g15
tp1141
a(S'shut down please'
p1142
g15
tp1143
a(S'close current program'
p1144
g15
tp1145
a(S'go back to the last song '
p1146
g15
tp1147
a(S'please would you open gmail'
p1148
g15
tp1149
a(S'are there any events on sunday'
p1150
g15
tp1151
a(S'please schedule new event'
p1152
g15
tp1153
a(S'can you make new event please'
p1154
g15
tp1155
a(S'current events'
p1156
g15
tp1157
a(S'what do i have to do in a month'
p1158
g15
tp1159
a(S'is it cold this week'
p1160
g15
tp1161
a(S'what is on my calendar for monday'
p1162
g15
tp1163
a(S'how is the forecast'
p1164
g15
tp1165
a(S'do not get current time'
p1166
g15
tp1167
a(S"what's new in gmail"
p1168
g15
tp1169
a(S"if it's snowing this week"
p1170
g15
tp1171
a(S'please make event'
p1172
g15
tp1173
a(S'am i free on tomorrow'
p1174
g15
tp1175
a(S'can you please close the active window'
p1176
g15
tp1177
a(S'add event'
p1178
g15
tp1179
a(S'can you make a new event please'
p1180
g15
tp1181
a(S'spotify play the song'
p1182
g15
tp1183
a(S'check events on monday'
p1184
g15
tp1185
a(S'check your watch please'
p1186
g88
tp1187
a(S"get if it's cloudy this week"
p1188
g15
tp1189
a(S'what is in new gmail please'
p1190
g15
tp1191
a(S'check google calendar for tomorrow'
p1192
g15
tp1193
a(S'what time is it currently'
p1194
g88
tp1195
a(S'check my calendar on'
p1196
g15
tp1197
a(S'spotify stop playing'
p1198
g15
tp1199
a(S'briefing'
p1200
g15
tp1201
a(S'can you check new gmail please'
p1202
g15
tp1203
a(S'pause spotify please'
p1204
g15
tp1205
a(S'what is on my calendar for next'
p1206
g15
tp1207
a(S'please will you open inbox'
p1208
g15
tp1209
a(S'would you check new mail please'
p1210
g15
tp1211
a(S'start the song'
p1212
g15
tp1213
a(S'please pause'
p1214
g15
tp1215
a(S'check events on sunday'
p1216
g15
tp1217
a(S'please close the active window'
p1218
g15
tp1219
a(S'start browser please'
p1220
g15
tp1221
a(S'can you please kill active window'
p1222
g15
tp1223
a(S'give me the news please'
p1224
g15
tp1225
a(S'could you create an event'
p1226
g15
tp1227
a(S"what time isn't it currently"
p1228
g15
tp1229
a(S'could you schedule event please'
p1230
g15
tp1231
a(S'am i free on monday'
p1232
g15
tp1233
a(S'check the clock'
p1234
g88
tp1235
a(S'what do i have on tomorrow'
p1236
g15
tp1237
a(S'do not check your watch please'
p1238
g15
tp1239
a(S'create new event'
p1240
g15
tp1241
a(S"today's news feed"
p1242
g15
tp1243
a(S'please get the current events'
p1244
g15
tp1245
a(S'is there anything i have to do on next'
p1246
g15
tp1247
a(S'check your watch'
p1248
g88
tp1249
a(S'will you open a browser'
p1250
g15
tp1251
a(S'can you create an event please'
p1252
g15
tp1253
a(S'get forecast'
p1254
g15
tp1255
a(S'please shutdown the computer'
p1256
g15
tp1257
a(S'can you shutdown the computer'
p1258
g15
tp1259
a(S'retrieve the time please'
p1260
g88
tp1261
a(S"today's current events"
p1262
g15
tp1263
a(S'live news feed today'
p1264
g15
tp1265
a(S'kill this window'
p1266
g15
tp1267
a(S'search please'
p1268
g15
tp1269
a(S'check google calendar for thursday'
p1270
g15
tp1271
a(S'what do i have on friday'
p1272
g15
tp1273
a(S'can you create a new event please'
p1274
g15
tp1275
a(S'shut up'
p1276
g15
tp1277
a(S'what do i have to do on today'
p1278
g15
tp1279
a(S'check my inbox'
p1280
g15
tp1281
a(S'can you check new gmail'
p1282
g15
tp1283
a(S'turn up the tune'
p1284
g15
tp1285
a(S'are there any events on monday'
p1286
g15
tp1287
a(S'check my calendar for this month'
p1288
g15
tp1289
a(S'tell me live news'
p1290
g15
tp1291
a(S'am i free for today'
p1292
g15
tp1293
a(S"don't retrieve the time"
p1294
g15
tp1295
a(S'do not check the clock'
p1296
g15
tp1297
a(S'could you please create event'
p1298
g15
tp1299
a(S"don't i have anything to do in a week"
p1300
g15
tp1301
a(S'pause spotify'
p1302
g15
tp1303
a(S'can you check my gmail'
p1304
g15
tp1305
a(S'please spotify last song'
p1306
g15
tp1307
a(S'are there any events on tomorrow'
p1308
g15
tp1309
a(S'turn the sound down please'
p1310
g15
tp1311
a(S'please give me the current events please'
p1312
g15
tp1313
a(S'check google calendar for tuesday'
p1314
g15
tp1315
a(S'am i free on sunday'
p1316
g15
tp1317
a(S"don't retrieve what time it is"
p1318
g15
tp1319
a(S'get the information'
p1320
g15
tp1321
a(S'will it rain this week'
p1322
g15
tp1323
a(S'check inbox please'
p1324
g15
tp1325
a(S'could you please create new event'
p1326
g15
tp1327
a(S'please create a new event'
p1328
g15
tp1329
a(S'please would you check my mail'
p1330
g15
tp1331
a(S'could you add event please'
p1332
g15
tp1333
a(S'get time'
p1334
g88
tp1335
a(S'am i free for friday'
p1336
g15
tp1337
a(S'can you shut down my computer'
p1338
g15
tp1339
a(S'can you make an event please'
p1340
g15
tp1341
a(S'can you add new event please'
p1342
g15
tp1343
a(S'please do not retrieve the current time'
p1344
g15
tp1345
a(S"please what's new in my gmail"
p1346
g15
tp1347
a(S"don't get the current time please"
p1348
g15
tp1349
a(S'turn yourself off'
p1350
g15
tp1351
a(S'do i have anything on wednesday'
p1352
g15
tp1353
a(S'please could you check my mail'
p1354
g15
tp1355
a(S'check calendar on month'
p1356
g15
tp1357
a(S'please turn it up'
p1358
g15
tp1359
a(S'what is on my calendar for this day'
p1360
g15
tp1361
a(S'please what is new in new gmail'
p1362
g15
tp1363
a(S'can you open browser please'
p1364
g15
tp1365
a(S'check events on this day'
p1366
g15
tp1367
a(S'news feed today'
p1368
g15
tp1369
a(S"please don't check the clock right now"
p1370
g15
tp1371
a(S'check google calendar for wednesday'
p1372
g15
tp1373
a(S'check my calendar on friday'
p1374
g15
tp1375
a(S'could you add an event'
p1376
g15
tp1377
a(S'will you check new mail'
p1378
g15
tp1379
a(S'spotify pause please'
p1380
g15
tp1381
a(S'do i have anything on saturday'
p1382
g15
tp1383
a(S'search google please for'
p1384
g15
tp1385
a(S'what do i have to do on monday'
p1386
g15
tp1387
a(S'spotify shut up'
p1388
g15
tp1389
a(S'any events in a week'
p1390
g15
tp1391
a(S"i think i didn't answer an earlier question"
p1392
g15
tp1393
a(S'will you check my inbox please'
p1394
g15
tp1395
a(S'what is in the news today'
p1396
g15
tp1397
a(S'open default browser please'
p1398
g15
tp1399
a(S'shut down my computer please'
p1400
g15
tp1401
a(S"today's newsfeed"
p1402
g15
tp1403
a(S'please close active window'
p1404
g15
tp1405
a(S'would you open my mail please'
p1406
g15
tp1407
a(S'can you turn the sound down'
p1408
g15
tp1409
a(S'please will you check new gmail'
p1410
g15
tp1411
a(S'will it hail today'
p1412
g15
tp1413
a(S'give me intel on current events'
p1414
g15
tp1415
a(S"what's this week's weather"
p1416
g15
tp1417
a(S'what is new in my inbox please'
p1418
g15
tp1419
a(S'spotify go back to the last song '
p1420
g15
tp1421
a(S'please create an event'
p1422
g15
tp1423
a(S'make the volume 0'
p1424
g15
tp1425
a(S'check my calendar for this week'
p1426
g15
tp1427
a(S'will you open mail'
p1428
g15
tp1429
a(S'what time is it right now'
p1430
g88
tp1431
a(S'check events for'
p1432
g15
tp1433
a(S"aren't there any events on next"
p1434
g15
tp1435
a(S'check my calendar on saturday'
p1436
g15
tp1437
a(S'do not get the time'
p1438
g15
tp1439
a(S'do not read the clock please'
p1440
g15
tp1441
a(S'do i have anything to do on next'
p1442
g15
tp1443
a(S'can you turn up the beat'
p1444
g15
tp1445
a(S'get the clock please'
p1446
g88
tp1447
a(S'please could you check gmail'
p1448
g15
tp1449
a(S'make the volume lower'
p1450
g15
tp1451
a(S'please schedule event'
p1452
g15
tp1453
a(S"what's new in new gmail please"
p1454
g15
tp1455
a(S'how is the temperature'
p1456
g15
tp1457
a(S'do i have any events on sunday'
p1458
g15
tp1459
a(S'is there anything to do on saturday'
p1460
g15
tp1461
a(S"this week's weather"
p1462
g15
tp1463
a(S'please shutdown'
p1464
g15
tp1465
a(S'schedule an event'
p1466
g15
tp1467
a(S'news today'
p1468
g15
tp1469
a(S'read the clock please'
p1470
g88
tp1471
a(S'shut down my computer'
p1472
g15
tp1473
a(S'would you open inbox'
p1474
g15
tp1475
a(S"what's if it's hot today"
p1476
g15
tp1477
a(S"please don't retrieve the time"
p1478
g15
tp1479
a(S'check events on this week'
p1480
g15
tp1481
a(S'can you please create an event'
p1482
g15
tp1483
a(S"this week's temperature"
p1484
g15
tp1485
a(S'check google calendar for saturday'
p1486
g15
tp1487
a(S'anything in my gmail'
p1488
g15
tp1489
a(S'check my calendar on next'
p1490
g15
tp1491
a(S'what events are in a month'
p1492
g15
tp1493
a(S"don't get time"
p1494
g15
tp1495
a(S'check mail please'
p1496
g15
tp1497
a(S"please don't read the time"
p1498
g15
tp1499
a(S"please don't check the current time"
p1500
g15
tp1501
a(S'stop the song'
p1502
g15
tp1503
a(S"what's if it's freezing today"
p1504
g15
tp1505
a(S'is it freezing today'
p1506
g15
tp1507
a(S'find current events'
p1508
g15
tp1509
a(S'song stop'
p1510
g15
tp1511
a(S'please open a browser'
p1512
g15
tp1513
a(S"don't i have to do anything on sunday"
p1514
g15
tp1515
a(S'could you add new event please'
p1516
g15
tp1517
a(S'check the current time'
p1518
g88
tp1519
a(S'what events do i have on sunday'
p1520
g15
tp1521
a(S'is there anything i have to do on today'
p1522
g15
tp1523
a(S'get news now'
p1524
g15
tp1525
a(S"don't time please"
p1526
g15
tp1527
a(S'go to dot ee dee you'
p1528
g15
tp1529
a(S'please read your watch'
p1530
g88
tp1531
a(S'check google calendar on friday'
p1532
g15
tp1533
a(S'would you check my mail'
p1534
g15
tp1535
a(S'what are the news feed'
p1536
g15
tp1537
a(S"don't get current time please"
p1538
g15
tp1539
a(S'we stick to simple problems in this post for the sake of illustration'
p1540
g15
tp1541
a(S'retrieve the current time'
p1542
g88
tp1543
a(S'would you check my inbox please'
p1544
g15
tp1545
a(S"don't check your watch please"
p1546
g15
tp1547
a(S'do i have to do anything in a week'
p1548
g15
tp1549
a(S'last song please'
p1550
g15
tp1551
a(S'spotify stop'
p1552
g15
tp1553
a(S"if it's rainy this week"
p1554
g15
tp1555
a(S'check google calendar for this day'
p1556
g15
tp1557
a(S'check google calendar on next'
p1558
g15
tp1559
a(S'can you please shut off'
p1560
g15
tp1561
a(S'spotify pause the song please'
p1562
g15
tp1563
a(S'can you send me to the lock screen please'
p1564
g15
tp1565
a(S"don't i have to do anything tomorrow"
p1566
g15
tp1567
a(S'do not read time'
p1568
g15
tp1569
a(S'please do not retrieve what time it is'
p1570
g15
tp1571
a(S'open inbox please'
p1572
g15
tp1573
a(S'go to dot org'
p1574
g15
tp1575
a(S'any events on today'
p1576
g15
tp1577
a(S'read your watch'
p1578
g88
tp1579
a(S'could you please add a new event'
p1580
g15
tp1581
a(S"don't i have anything to do today"
p1582
g15
tp1583
a(S'start a browser please'
p1584
g15
tp1585
a(S'could you open gmail'
p1586
g15
tp1587
a(S'check my calendar on thursday'
p1588
g15
tp1589
a(S"how's the weather this week"
p1590
g15
tp1591
a(S"how's the temperature today"
p1592
g15
tp1593
a(S'check calendar for'
p1594
g15
tp1595
a(S'are there any events on today'
p1596
g15
tp1597
a(S'tell me newsfeed'
p1598
g15
tp1599
a(S'any events on tuesday'
p1600
g15
tp1601
a(S'spotify next'
p1602
g15
tp1603
a(S"what's if it's cold this week"
p1604
g15
tp1605
a(S'shutdown'
p1606
g15
tp1607
a(S"please what's new in inbox"
p1608
g15
tp1609
a(S'do not get the clock please'
p1610
g15
tp1611
a(S'set volume 0'
p1612
g15
tp1613
a(S'please start a default browser'
p1614
g15
tp1615
a(S'news'
p1616
g15
tp1617
a(S'would you check gmail'
p1618
g15
tp1619
a(S'what is in new mail'
p1620
g15
tp1621
a(S'unmute'
p1622
g15
tp1623
a(S'do i have any events in a month'
p1624
g15
tp1625
a(S'retrieve the current time please'
p1626
g88
tp1627
a(S'spotify go please'
p1628
g15
tp1629
a(S"don't check what time it is"
p1630
g15
tp1631
a(S'make an event please'
p1632
g15
tp1633
a(S'please start spotify'
p1634
g15
tp1635
a(S'what is on my calendar'
p1636
g15
tp1637
a(S'please what is in gmail'
p1638
g15
tp1639
a(S"what's if it's cloudy this week"
p1640
g15
tp1641
a(S'am i free on tuesday'
p1642
g15
tp1643
a(S'do not check the current time please'
p1644
g15
tp1645
a(S'please spotify go '
p1646
g15
tp1647
a(S'check google calendar for this day'
p1648
g15
tp1649
a(S'check my calendar on this month'
p1650
g15
tp1651
a(S'check gmail'
p1652
g15
tp1653
a(S'exit please'
p1654
g15
tp1655
a(S'could you add a new event please'
p1656
g15
tp1657
a(S'what do i have on sunday'
p1658
g15
tp1659
a(S'do i have to do anything next'
p1660
g15
tp1661
a(S'turn up the tunes'
p1662
g15
tp1663
a(S'a decent problem gossips beside the shoulder'
p1664
g15
tp1665
a(S"please don't read time"
p1666
g15
tp1667
a(S"what're the live newsfeed"
p1668
g15
tp1669
a(S'spotify next song '
p1670
g15
tp1671
a(S'increase the volume'
p1672
g15
tp1673
a(S'open my mail please'
p1674
g15
tp1675
a(S'what do i have'
p1676
g15
tp1677
a(S'kill the current window'
p1678
g15
tp1679
a(S'turn the beat down'
p1680
g15
tp1681
a(S"don't check the clock please"
p1682
g15
tp1683
a(S'what events are on thursday'
p1684
g15
tp1685
a(S"what's in new gmail"
p1686
g15
tp1687
a(S"what's if it's raining today"
p1688
g15
tp1689
a(S'is there anything to do on next'
p1690
g15
tp1691
a(S'is it hot this week'
p1692
g15
tp1693
a(S'please last song'
p1694
g15
tp1695
a(S'go to dot gov'
p1696
g15
tp1697
a(S'get the current events'
p1698
g15
tp1699
a(S'get weather'
p1700
g15
tp1701
a(S'please would you check new gmail'
p1702
g15
tp1703
a(S'what is on my calendar for saturday'
p1704
g15
tp1705
a(S'what do i have to do on next'
p1706
g15
tp1707
a(S'lower the sound'
p1708
g15
tp1709
a(S'spotify go to the last song'
p1710
g15
tp1711
a(S"this week's temperature"
p1712
g15
tp1713
a(S'shut off please'
p1714
g15
tp1715
a(S'get clock please'
p1716
g88
tp1717
a(S"get if it's snowing this week"
p1718
g15
tp1719
a(S'please turn my computer off'
p1720
g15
tp1721
a(S'start browsing'
p1722
g15
tp1723
a(S'check calendar on friday'
p1724
g15
tp1725
a(S'am i free for next'
p1726
g15
tp1727
a(S'please read the time'
p1728
g88
tp1729
a(S'check calendar for thursday'
p1730
g15
tp1731
a(S'check the clock please'
p1732
g88
tp1733
a(S'could you please add event'
p1734
g15
tp1735
a(S'what is in my gmail'
p1736
g15
tp1737
a(S'do not read the clock'
p1738
g15
tp1739
a(S"don't i have any events"
p1740
g15
tp1741
a(S'what events do i have on tuesday'
p1742
g15
tp1743
a(S'can you please add a new event'
p1744
g15
tp1745
a(S'check calendar for this day'
p1746
g15
tp1747
a(S'current events please'
p1748
g15
tp1749
a(S'turn up the volume please'
p1750
g15
tp1751
a(S'please close the window'
p1752
g15
tp1753
a(S"what time isn't it right now"
p1754
g15
tp1755
a(S"don't read me the clock"
p1756
g15
tp1757
a(S"get if it's freezing today"
p1758
g15
tp1759
a(S'retrieve the time'
p1760
g88
tp1761
a(S'spotify play last song please'
p1762
g15
tp1763
a(S'spotify previous song please'
p1764
g15
tp1765
a(S'please be quiet'
p1766
g15
tp1767
a(S'could you check inbox'
p1768
g15
tp1769
a(S'start default browser please'
p1770
g15
tp1771
a(S"what's the clock not"
p1772
g15
tp1773
a(S"don't i have anything on this day"
p1774
g15
tp1775
a(S'can you get the latest headlines'
p1776
g15
tp1777
a(S'do i have anything to do in a week'
p1778
g15
tp1779
a(S'could you open mail please'
p1780
g15
tp1781
a(S"today's forecast"
p1782
g15
tp1783
a(S'can you create new event'
p1784
g15
tp1785
a(S'get me the clock please'
p1786
g88
tp1787
a(S'open my gmail please'
p1788
g15
tp1789
a(S"if it's cold today"
p1790
g15
tp1791
a(S"please don't check what time it is"
p1792
g15
tp1793
a(S'will it rain today'
p1794
g15
tp1795
a(S'please get clock'
p1796
g88
tp1797
a(S"don't read your watch"
p1798
g15
tp1799
a(S'do i have anything on sunday'
p1800
g15
tp1801
a(S'find live newsfeed'
p1802
g15
tp1803
a(S'could you check mail'
p1804
g15
tp1805
a(S'could you schedule an event please'
p1806
g15
tp1807
a(S'get me the clock'
p1808
g88
tp1809
a(S'set the volume to zero'
p1810
g15
tp1811
a(S'what do i have on monday'
p1812
g15
tp1813
a(S'google search please'
p1814
g15
tp1815
a(S'read time please'
p1816
g88
tp1817
a(S'please spotify pause'
p1818
g15
tp1819
a(S'please check gmail'
p1820
g15
tp1821
a(S"don't i have anything to do in a month"
p1822
g15
tp1823
a(S'extract the features using almost the same feature'
p1824
g15
tp1825
a(S'could you open mail'
p1826
g15
tp1827
a(S'turn my computer off'
p1828
g15
tp1829
a(S'anything new in my gmail'
p1830
g15
tp1831
a(S'would you open mail'
p1832
g15
tp1833
a(S"what's if it's rainy this week"
p1834
g15
tp1835
a(S"what's new in new gmail"
p1836
g15
tp1837
a(S'please open mail'
p1838
g15
tp1839
a(S'what is on my calendar for wednesday'
p1840
g15
tp1841
a(S'are there any events'
p1842
g15
tp1843
a(S'make the sound quieter'
p1844
g15
tp1845
a(S'schedule new event please'
p1846
g15
tp1847
a(S'spotify start the song please'
p1848
g15
tp1849
a(S'is there anything to do on this day'
p1850
g15
tp1851
a(S"get this week's forecast"
p1852
g15
tp1853
a(S'please could you check my gmail'
p1854
g15
tp1855
a(S'make the sound higher'
p1856
g15
tp1857
a(S'could you check my mail please'
p1858
g15
tp1859
a(S'what do i have to do on this day'
p1860
g15
tp1861
a(S'will you check my inbox'
p1862
g15
tp1863
a(S'live newsfeed'
p1864
g15
tp1865
a(S'please could you open my gmail'
p1866
g15
tp1867
a(S"what's if it's snowing this week"
p1868
g15
tp1869
a(S'get the news'
p1870
g15
tp1871
a(S'can you schedule an event please'
p1872
g15
tp1873
a(S'please will you open gmail'
p1874
g15
tp1875
a(S'do not check what time it is please'
p1876
g15
tp1877
a(S'check google calendar for sunday'
p1878
g15
tp1879
a(S"what're the current news"
p1880
g15
tp1881
a(S'current events'
p1882
g15
tp1883
a(S'can you shut my computer down'
p1884
g15
tp1885
a(S'could you check inbox please'
p1886
g15
tp1887
a(S'can you please turn up the tunez'
p1888
g15
tp1889
a(S'do i have anything to do in a month'
p1890
g15
tp1891
a(S'get clock'
p1892
g88
tp1893
a(S'can you please shutdown the computer'
p1894
g15
tp1895
a(S'would you check new gmail please'
p1896
g15
tp1897
a(S'please what is in my gmail'
p1898
g15
tp1899
a(S'could you please make event'
p1900
g15
tp1901
a(S'can you make event please'
p1902
g15
tp1903
a(S'can you kill this window'
p1904
g15
tp1905
a(S'is there anything i have to do on wednesday'
p1906
g15
tp1907
a(S"don't i have anything"
p1908
g15
tp1909
a(S'make a new event'
p1910
g15
tp1911
a(S'read the clock'
p1912
g88
tp1913
a(S"today's weather"
p1914
g15
tp1915
a(S"get if it's foggy today"
p1916
g15
tp1917
a(S'can you please schedule event'
p1918
g15
tp1919
a(S'please do not get time'
p1920
g15
tp1921
a(S'do i have to do anything on next'
p1922
g15
tp1923
a(S"what's if it's foggy today"
p1924
g15
tp1925
a(S'will you open my inbox'
p1926
g15
tp1927
a(S'do i have anything to do'
p1928
g15
tp1929
a(S'could you make an event'
p1930
g15
tp1931
a(S'do i have any events on today'
p1932
g15
tp1933
a(S'could you open my inbox'
p1934
g15
tp1935
a(S'please get the news'
p1936
g15
tp1937
a(S'what events do i have on this day'
p1938
g15
tp1939
a(S"don't i have any events on thursday"
p1940
g15
tp1941
a(S'what do i have on tuesday'
p1942
g15
tp1943
a(S'do i have anything to do on this day'
p1944
g15
tp1945
a(S'can you please kill this window'
p1946
g15
tp1947
a(S'check my mail please'
p1948
g15
tp1949
a(S'debrief me'
p1950
g15
tp1951
a(S'turn off my computer'
p1952
g15
tp1953
a(S"what's if it's cold today"
p1954
g15
tp1955
a(S'please could you check new gmail'
p1956
g15
tp1957
a(S"aren't there any events on thursday"
p1958
g15
tp1959
a(S'do i have to do anything on saturday'
p1960
g15
tp1961
a(S'lower the tunez please'
p1962
g15
tp1963
a(S"don't i have to do anything on next"
p1964
g15
tp1965
a(S"if it's foggy this week"
p1966
g15
tp1967
a(S"please what's new in new mail"
p1968
g15
tp1969
a(S'is there anything to do in a month'
p1970
g15
tp1971
a(S'google search'
p1972
g15
tp1973
a(S'can you please shut my computer down'
p1974
g15
tp1975
a(S'sweet dreams alice'
p1976
g15
tp1977
a(S'todays headlines'
p1978
g15
tp1979
a(S'do i have anything on'
p1980
g15
tp1981
a(S'read me the clock please'
p1982
g88
tp1983
a(S"if it's rainy today"
p1984
g15
tp1985
a(S'can you decrease the sound'
p1986
g15
tp1987
a(S'read your watch please'
p1988
g88
tp1989
a(S'turn the volume to zero'
p1990
g15
tp1991
a(S"don't i have to do anything"
p1992
g15
tp1993
a(S'lower the volume'
p1994
g15
tp1995
a(S'is there anything to do on tuesday'
p1996
g15
tp1997
a(S'please will you check inbox'
p1998
g15
tp1999
a(S"if it's hot this week"
p2000
g15
tp2001
a(S'what events are in a week'
p2002
g15
tp2003
a(S'lock the screen please'
p2004
g15
tp2005
a(S"don't read me the clock please"
p2006
g15
tp2007
a(S'any events on saturday'
p2008
g15
tp2009
a(S'time please'
p2010
g88
tp2011
a(S'please would you open my inbox'
p2012
g15
tp2013
a(S'please add event'
p2014
g15
tp2015
a(S'please find out the latest headlines'
p2016
g15
tp2017
a(S'can you add event please'
p2018
g15
tp2019
a(S'can you please turn off my computer'
p2020
g15
tp2021
a(S"don't get the current time"
p2022
g15
tp2023
a(S'can you please turn up the sound'
p2024
g15
tp2025
a(S'could you please make new event'
p2026
g15
tp2027
a(S'will you open mail please'
p2028
g15
tp2029
a(S'can you lock my computer please'
p2030
g15
tp2031
a(S"don't get clock"
p2032
g15
tp2033
a(S'do not get time'
p2034
g15
tp2035
a(S'is there anything to do on'
p2036
g15
tp2037
a(S'can you turn up the tunez'
p2038
g15
tp2039
a(S"don't i have anything to do on friday"
p2040
g15
tp2041
a(S'what events are on saturday'
p2042
g15
tp2043
a(S'is it snowing this week'
p2044
g15
tp2045
a(S'can you shut off my computer'
p2046
g15
tp2047
a(S'check google calendar on saturday'
p2048
g15
tp2049
a(S"please don't read your watch"
p2050
g15
tp2051
a(S'read the time'
p2052
g88
tp2053
a(S'check google calendar on wednesday'
p2054
g15
tp2055
a(S'check the clock right now please'
p2056
g88
tp2057
a(S"please what's in new gmail"
p2058
g15
tp2059
a(S'make new event please'
p2060
g15
tp2061
a(S"get today's weather"
p2062
g15
tp2063
a(S'please what is in new mail'
p2064
g15
tp2065
a(S'check calendar'
p2066
g15
tp2067
a(S'turn it down'
p2068
g15
tp2069
a(S'find news feed'
p2070
g15
tp2071
a(S'fake news'
p2072
g15
tp2073
a(S'open a browser please'
p2074
g15
tp2075
a(S"get if it's freezing this week"
p2076
g15
tp2077
a(S"what's new in my inbox"
p2078
g15
tp2079
a(S'what events are on sunday'
p2080
g15
tp2081
a(S'any events on'
p2082
g15
tp2083
a(S'can you turn up the tune'
p2084
g15
tp2085
a(S"don't i have any events on tomorrow"
p2086
g15
tp2087
a(S'find the news'
p2088
g15
tp2089
a(S"aren't there any events in a month"
p2090
g15
tp2091
a(S'please shut off my computer'
p2092
g15
tp2093
a(S'clock'
p2094
g15
tp2095
a(S'mute'
p2096
g15
tp2097
a(S'get news feed'
p2098
g15
tp2099
a(S'check calendar'
p2100
g15
tp2101
a(S'could you please make a new event'
p2102
g15
tp2103
a(S'is there anything i have to do today'
p2104
g15
tp2105
a(S'can you make new event'
p2106
g15
tp2107
a(S'can you close the active window'
p2108
g15
tp2109
a(S'find live news feed'
p2110
g15
tp2111
a(S'do not retrieve the time please'
p2112
g15
tp2113
a(S'please search'
p2114
g15
tp2115
a(S'create an event'
p2116
g15
tp2117
a(S'can you add new event'
p2118
g15
tp2119
a(S'is there anything to do on friday'
p2120
g15
tp2121
a(S'check my calendar on today'
p2122
g15
tp2123
a(S'please would you check new mail'
p2124
g15
tp2125
a(S'can you please make an event'
p2126
g15
tp2127
a(S'please schedule an event'
p2128
g15
tp2129
a(S'please close the current window'
p2130
g15
tp2131
a(S'please shut my computer down'
p2132
g15
tp2133
a(S'go to dot net'
p2134
g15
tp2135
a(S'will you check my mail please'
p2136
g15
tp2137
a(S"aren't there any events on tuesday"
p2138
g15
tp2139
a(S'open my inbox'
p2140
g15
tp2141
a(S'turn the beat down please'
p2142
g15
tp2143
a(S"please what's in my mail"
p2144
g15
tp2145
a(S"today's news"
p2146
g15
tp2147
a(S"please don't get the clock"
p2148
g15
tp2149
a(S"what're the headlines"
p2150
g15
tp2151
a(S'is there anything to do on tomorrow'
p2152
g15
tp2153
a(S"what's this week's forecast"
p2154
g15
tp2155
a(S'please open dot com'
p2156
g15
tp2157
a(S'do i have anything on monday'
p2158
g15
tp2159
a(S"don't i have anything on thursday"
p2160
g15
tp2161
a(S'is it rainy this week'
p2162
g15
tp2163
a(S'check calendar on sunday'
p2164
g15
tp2165
a(S'can you please kill the window'
p2166
g15
tp2167
a(S'tell me news'
p2168
g15
tp2169
a(S'check events on friday'
p2170
g15
tp2171
a(S'do i have to do anything on wednesday'
p2172
g15
tp2173
a(S'do not read time please'
p2174
g15
tp2175
a(S'retrieve what time it is please'
p2176
g88
tp2177
a(S"don't i have anything on next"
p2178
g15
tp2179
a(S'what events do i have on wednesday'
p2180
g15
tp2181
a(S'google search please for'
p2182
g15
tp2183
a(S"if it's cold this week"
p2184
g15
tp2185
a(S'please do not retrieve the time'
p2186
g15
tp2187
a(S'could you check my gmail please'
p2188
g15
tp2189
a(S'check my calendar on sunday'
p2190
g15
tp2191
a(S'will you check my gmail please'
p2192
g15
tp2193
a(S'shut down the computer'
p2194
g15
tp2195
a(S"don't get clock please"
p2196
g15
tp2197
a(S'please do not check the clock'
p2198
g15
tp2199
a(S'any events on sunday'
p2200
g15
tp2201
a(S'what is on my calendar for this week'
p2202
g15
tp2203
a(S'please do not get the current time'
p2204
g15
tp2205
a(S'spotify skip ahead please'
p2206
g15
tp2207
a(S'please do not read the clock'
p2208
g15
tp2209
a(S'is it snowing today'
p2210
g15
tp2211
a(S'please sound higher'
p2212
g15
tp2213
a(S'do not retrieve the current time please'
p2214
g15
tp2215
a(S'please do not check the clock right now'
p2216
g15
tp2217
a(S'tell me headlines'
p2218
g15
tp2219
a(S'please will you open my gmail'
p2220
g15
tp2221
a(S"today's live news feed"
p2222
g15
tp2223
a(S'time'
p2224
g88
tp2225
a(S'could you open my gmail'
p2226
g15
tp2227
a(S"what's the the news"
p2228
g15
tp2229
a(S'will you check new mail please'
p2230
g15
tp2231
a(S'could you make an event please'
p2232
g15
tp2233
a(S'could you check new mail'
p2234
g15
tp2235
a(S'do i have anything on next'
p2236
g15
tp2237
a(S'please open my mail'
p2238
g15
tp2239
a(S'find news'
p2240
g15
tp2241
a(S'shutdown the computer please'
p2242
g15
tp2243
a(S"please what's new in gmail"
p2244
g15
tp2245
a(S'open browser'
p2246
g15
tp2247
a(S'do i have to do anything'
p2248
g15
tp2249
a(S'please do not read me the clock'
p2250
g15
tp2251
a(S'add new event'
p2252
g15
tp2253
a(S'please what is new in mail'
p2254
g15
tp2255
a(S'add an event'
p2256
g15
tp2257
a(S"don't get the time please"
p2258
g15
tp2259
a(S"don't get the clock"
p2260
g15
tp2261
a(S'can you open a browser please'
p2262
g15
tp2263
a(S'make an event'
p2264
g15
tp2265
a(S"don't i have anything on friday"
p2266
g15
tp2267
a(S'do i have any events on wednesday'
p2268
g15
tp2269
a(S'can you shut down'
p2270
g15
tp2271
a(S'emergency shutdown'
p2272
g15
tp2273
a(S'is there anything i have to do'
p2274
g15
tp2275
a(S'schedule new event'
p2276
g15
tp2277
a(S'could you make new event please'
p2278
g15
tp2279
a(S'tell me the news'
p2280
g15
tp2281
a(S'please close this window'
p2282
g15
tp2283
a(S'could you please make an event'
p2284
g15
tp2285
a(S'kill current window'
p2286
g15
tp2287
a(S'can you please turn the sound down'
p2288
g15
tp2289
a(S'what is in my gmail please'
p2290
g15
tp2291
a(S'check my calendar for thursday'
p2292
g15
tp2293
a(S'can you create event please'
p2294
g15
tp2295
a(S'check my calendar on this week'
p2296
g15
tp2297
a(S"don't i have anything to do on"
p2298
g15
tp2299
a(S'could you please schedule a new event'
p2300
g15
tp2301
a(S'what events are on monday'
p2302
g15
tp2303
a(S"if it's foggy today"
p2304
g15
tp2305
a(S'please check mail'
p2306
g15
tp2307
a(S'get current news'
p2308
g15
tp2309
a(S'can you schedule an event'
p2310
g15
tp2311
a(S'could you create new event'
p2312
g15
tp2313
a(S'search please for'
p2314
g15
tp2315
a(S"don't i have anything on tuesday"
p2316
g15
tp2317
a(S"how's the forecast this week"
p2318
g15
tp2319
a(S'bye bye alice'
p2320
g15
tp2321
a(S'kill the active window'
p2322
g15
tp2323
a(S'do i have anything to do on thursday'
p2324
g15
tp2325
a(S'do not retrieve what time it is please'
p2326
g15
tp2327
a(S'open gmail please'
p2328
g15
tp2329
a(S'what do i have to do on thursday'
p2330
g15
tp2331
a(S"don't i have to do anything on"
p2332
g15
tp2333
a(S'please do not get me the clock'
p2334
g15
tp2335
a(S'please check what time it is'
p2336
g88
tp2337
a(S'search google please'
p2338
g15
tp2339
a(S'please would you check gmail'
p2340
g15
tp2341
a(S"what's the current news"
p2342
g15
tp2343
a(S"don't i have to do anything on friday"
p2344
g15
tp2345
a(S'turn up the beat please'
p2346
g15
tp2347
a(S'what is current events'
p2348
g15
tp2349
a(S'check calendar for this week'
p2350
g15
tp2351
a(S'please can you turn the volume higher'
p2352
g15
tp2353
a(S'is there anything i have to do on monday'
p2354
g15
tp2355
a(S'please volume higher'
p2356
g15
tp2357
a(S'would you open gmail'
p2358
g15
tp2359
a(S'get time please'
p2360
g88
tp2361
a(S'please read the clock'
p2362
g88
tp2363
a(S'please send me to the lock screen'
p2364
g15
tp2365
a(S'please will you check my mail'
p2366
g15
tp2367
a(S'please do not check what time it is'
p2368
g15
tp2369
a(S'can you mute'
p2370
g15
tp2371
a(S'please lock my computer'
p2372
g15
tp2373
a(S"please don't get the time"
p2374
g15
tp2375
a(S'check calendar on monday'
p2376
g15
tp2377
a(S'would you open my inbox please'
p2378
g15
tp2379
a(S"how's the forecast today"
p2380
g15
tp2381
a(S'would you check new mail'
p2382
g15
tp2383
a(S"please what's in my inbox"
p2384
g15
tp2385
a(S'bye'
p2386
g15
tp2387
a(S'am i free on next'
p2388
g15
tp2389
a(S'what do i have to do on wednesday'
p2390
g15
tp2391
a(S'please what is new in my mail'
p2392
g15
tp2393
a(S"what's new in my gmail"
p2394
g15
tp2395
a(S'will you open gmail'
p2396
g15
tp2397
a(S'issue commands'
p2398
g15
tp2399
a(S'pause please'
p2400
g15
tp2401
a(S'please pause the song'
p2402
g15
tp2403
a(S'set the volume zero'
p2404
g15
tp2405
a(S'can you get the current events'
p2406
g15
tp2407
a(S'will you open gmail please'
p2408
g15
tp2409
a(S'is there anything to do on monday'
p2410
g15
tp2411
a(S"don't i have to do anything in a week"
p2412
g15
tp2413
a(S"aren't there any events"
p2414
g15
tp2415
a(S'could you check gmail please'
p2416
g15
tp2417
a(S'would you check inbox please'
p2418
g15
tp2419
a(S'do not retrieve the time'
p2420
g15
tp2421
a(S'are there any events on friday'
p2422
g15
tp2423
a(S'please check my gmail'
p2424
g15
tp2425
a(S'do not check the clock please'
p2426
g15
tp2427
a(S'get me the news todays'
p2428
g15
tp2429
a(S"don't i have any events on sunday"
p2430
g15
tp2431
a(S"don't i have anything on monday"
p2432
g15
tp2433
a(S'shut off my computer'
p2434
g15
tp2435
a(S"aren't there any events on friday"
p2436
g15
tp2437
a(S'check my calendar on monday'
p2438
g15
tp2439
a(S'can you please shut down my computer'
p2440
g15
tp2441
a(S'find live news'
p2442
g15
tp2443
a(S"don't i have any events on monday"
p2444
g15
tp2445
a(S'am i free'
p2446
g15
tp2447
a(S'live news today'
p2448
g15
tp2449
a(S'check calendar for wednesday'
p2450
g15
tp2451
a(S'please do not read time'
p2452
g15
tp2453
a(S'search for'
p2454
g15
tp2455
a(S'please give me current events'
p2456
g15
tp2457
a(S'please tell me whats going on in the news please'
p2458
g15
tp2459
a(S"don't read time please"
p2460
g15
tp2461
a(S'what events are on next'
p2462
g15
tp2463
a(S'clock'
p2464
g88
tp2465
a(S'a releasing moderate stalls beside the material cell'
p2466
g15
tp2467
a(S'get news'
p2468
g15
tp2469
a(S'can you turn the volume higher please'
p2470
g15
tp2471
a(S"don't get the clock please"
p2472
g15
tp2473
a(S'spotify go ahead'
p2474
g15
tp2475
a(S'am i free on saturday'
p2476
g15
tp2477
a(S'will you get the current events'
p2478
g15
tp2479
a(S"what's if it's rainy today"
p2480
g15
tp2481
a(S'do not get clock please'
p2482
g15
tp2483
a(S"what's the clock"
p2484
g88
tp2485
a(S'is there anything to do on thursday'
p2486
g15
tp2487
a(S'lock computer'
p2488
g15
tp2489
a(S"what's the live news"
p2490
g15
tp2491
a(S'please kill the current window'
p2492
g15
tp2493
a(S'what events are on today'
p2494
g15
tp2495
a(S'intel'
p2496
g15
tp2497
a(S'can you make it louder please'
p2498
g15
tp2499
a(S"what's if it's raining this week"
p2500
g15
tp2501
a(S"don't i have anything in a week"
p2502
g15
tp2503
a(S'please what is in inbox'
p2504
g15
tp2505
a(S'check calendar for monday'
p2506
g15
tp2507
a(S'schedule a new event please'
p2508
g15
tp2509
a(S'headlines today'
p2510
g15
tp2511
a(S'can you schedule event please'
p2512
g15
tp2513
a(S"don't i have any events on saturday"
p2514
g15
tp2515
a(S'search google for'
p2516
g15
tp2517
a(S'could you open my gmail please'
p2518
g15
tp2519
a(S'could you schedule a new event'
p2520
g15
tp2521
a(S'is there anything to do in a week'
p2522
g15
tp2523
a(S'good night'
p2524
g15
tp2525
a(S'please what is in mail'
p2526
g15
tp2527
a(S'play the song before'
p2528
g15
tp2529
a(S"what's the temperature today"
p2530
g15
tp2531
a(S'will you open my inbox please'
p2532
g15
tp2533
a(S'can you create an event'
p2534
g15
tp2535
a(S'could you add an event please'
p2536
g15
tp2537
a(S'check calendar on today'
p2538
g15
tp2539
a(S'decrease the volume'
p2540
g15
tp2541
a(S'find the current events'
p2542
g15
tp2543
a(S'would you check mail'
p2544
g15
tp2545
a(S'please open browser'
p2546
g15
tp2547
a(S'check events on today'
p2548
g15
tp2549
a(S"what's the news"
p2550
g15
tp2551
a(S'can you please open a browser'
p2552
g15
tp2553
a(S'see ya alice'
p2554
g15
tp2555
a(S'spotify skip ahead'
p2556
g15
tp2557
a(S'do not get the time please'
p2558
g15
tp2559
a(S'what events are'
p2560
g15
tp2561
a(S'please louder'
p2562
g15
tp2563
a(S'can you turn the tune down'
p2564
g15
tp2565
a(S'get current time'
p2566
g88
tp2567
a(S'do not read me the clock please'
p2568
g15
tp2569
a(S'would you check my mail please'
p2570
g15
tp2571
a(S'will you check my gmail'
p2572
g15
tp2573
a(S'stop the tunez'
p2574
g15
tp2575
a(S'please shut down my computer'
p2576
g15
tp2577
a(S"don't check what time it is please"
p2578
g15
tp2579
a(S"don't i have to do anything on wednesday"
p2580
g15
tp2581
a(S'is there anything to do on wednesday'
p2582
g15
tp2583
a(S'check calendar on saturday'
p2584
g15
tp2585
a(S'turn it off'
p2586
g15
tp2587
a(S'next spotify please'
p2588
g15
tp2589
a(S'schedule a new event'
p2590
g15
tp2591
a(S'please would you check inbox'
p2592
g15
tp2593
a(S'is it raining this week'
p2594
g15
tp2595
a(S'add a new event'
p2596
g15
tp2597
a(S'please what is in new gmail'
p2598
g15
tp2599
a(S'go to dot edu'
p2600
g15
tp2601
a(S'what is on my calendar for sunday'
p2602
g15
tp2603
a(S'am i free on'
p2604
g15
tp2605
a(S'spotify pause'
p2606
g15
tp2607
a(S"what's new in my mail"
p2608
g15
tp2609
a(S'could you check my mail'
p2610
g15
tp2611
a(S'please get me the clock'
p2612
g88
tp2613
a(S'google search for please'
p2614
g15
tp2615
a(S'check events on month'
p2616
g15
tp2617
a(S'check my calendar for this day'
p2618
g15
tp2619
a(S'are there any events on wednesday'
p2620
g15
tp2621
a(S'check events on wednesday'
p2622
g15
tp2623
a(S'what is current news'
p2624
g15
tp2625
a(S'what events do i have'
p2626
g15
tp2627
a(S'please open my gmail'
p2628
g15
tp2629
a(S"don't i have to do anything on this day"
p2630
g15
tp2631
a(S'check events on saturday'
p2632
g15
tp2633
a(S'will it snow this week'
p2634
g15
tp2635
a(S'please start browser'
p2636
g15
tp2637
a(S'please do not when is it'
p2638
g15
tp2639
a(S'is there anything i have to do in a week'
p2640
g15
tp2641
a(S"don't get current time"
p2642
g15
tp2643
a(S'please open gmail'
p2644
g15
tp2645
a(S'is there anything i have to do on tomorrow'
p2646
g15
tp2647
a(S'news feed'
p2648
g15
tp2649
a(S'create a new event'
p2650
g15
tp2651
a(S'turn up the volume'
p2652
g15
tp2653
a(S'could you create event'
p2654
g15
tp2655
a(S'are there any events in a week'
p2656
g15
tp2657
a(S'turn up the sound please'
p2658
g15
tp2659
a(S'please retrieve what time it is'
p2660
g88
tp2661
a(S'what is new in mail'
p2662
g15
tp2663
a(S'open my inbox please'
p2664
g15
tp2665
a(S'do i have anything to do today'
p2666
g15
tp2667
a(S'please check my mail'
p2668
g15
tp2669
a(S'a backbone dictates above my grief'
p2670
g15
tp2671
a(S"if it's snowing today"
p2672
g15
tp2673
a(S'open mail please'
p2674
g15
tp2675
a(S'can you please turn off'
p2676
g15
tp2677
a(S"aren't there any events on"
p2678
g15
tp2679
a(S'do i have any events on saturday'
p2680
g15
tp2681
a(S'can you schedule a new event'
p2682
g15
tp2683
a(S'please could you check my inbox'
p2684
g15
tp2685
a(S'check new gmail'
p2686
g15
tp2687
a(S"what's new in mail please"
p2688
g15
tp2689
a(S"today's forecast"
p2690
g15
tp2691
a(S'do not retrieve what time it is'
p2692
g15
tp2693
a(S'go to'
p2694
g15
tp2695
a(S'can you kill the window'
p2696
g15
tp2697
a(S'what is new in my gmail please'
p2698
g15
tp2699
a(S'what are the live news'
p2700
g15
tp2701
a(S'put me on the lock screen please'
p2702
g15
tp2703
a(S'please get the clock'
p2704
g88
tp2705
a(S'can you put me on the lock screen please'
p2706
g15
tp2707
a(S'can you turn up the volume please'
p2708
g15
tp2709
a(S'will you open my mail'
p2710
g15
tp2711
a(S'what events are on wednesday'
p2712
g15
tp2713
a(S'please shut down'
p2714
g15
tp2715
a(S'can you please turn off the computer'
p2716
g15
tp2717
a(S'make the volume zero'
p2718
g15
tp2719
a(S'do not check what time it is'
p2720
g15
tp2721
a(S'sound higher please'
p2722
g15
tp2723
a(S'find newsfeed'
p2724
g15
tp2725
a(S'check google calendar on month'
p2726
g15
tp2727
a(S'open my mail'
p2728
g15
tp2729
a(S'will you check mail'
p2730
g15
tp2731
a(S'check events for this day'
p2732
g15
tp2733
a(S'do not read me the clock'
p2734
g15
tp2735
a(S'what is new in new mail please'
p2736
g15
tp2737
a(S'am i free for wednesday'
p2738
g15
tp2739
a(S'do i have any events on friday'
p2740
g15
tp2741
a(S'next'
p2742
g15
tp2743
a(S'do i have anything in a week'
p2744
g15
tp2745
a(S'get the current time please'
p2746
g88
tp2747
a(S'please could you check inbox'
p2748
g15
tp2749
a(S"don't retrieve the current time please"
p2750
g15
tp2751
a(S"don't i have anything to do on thursday"
p2752
g15
tp2753
a(S'turn it down'
p2754
g15
tp2755
a(S"what's the live newsfeed"
p2756
g15
tp2757
a(S'what is new in my gmail'
p2758
g15
tp2759
a(S'can you add an event'
p2760
g15
tp2761
a(S'spotify last song please'
p2762
g15
tp2763
a(S'can you close the current window'
p2764
g15
tp2765
a(S"don't retrieve what time it is please"
p2766
g15
tp2767
a(S'can you turn my computer off'
p2768
g15
tp2769
a(S'what do i have on saturday'
p2770
g15
tp2771
a(S'give me the current events please'
p2772
g15
tp2773
a(S"what's new in gmail please"
p2774
g15
tp2775
a(S'can you make event'
p2776
g15
tp2777
a(S'do not read your watch please'
p2778
g15
tp2779
a(S'off'
p2780
g15
tp2781
a(S'can you lock the screen'
p2782
g15
tp2783
a(S'what is on my calendar for friday'
p2784
g15
tp2785
a(S'what events do i have on tomorrow'
p2786
g15
tp2787
a(S'check new gmail please'
p2788
g15
tp2789
a(S"don't i have to do anything on"
p2790
g15
tp2791
a(S"don't i have to do anything on thursday"
p2792
g15
tp2793
a(S'check events for tuesday'
p2794
g15
tp2795
a(S'check google calendar for this week'
p2796
g15
tp2797
a(S"what's if it's freezing this week"
p2798
g15
tp2799
a(S'please will you check mail'
p2800
g15
tp2801
a(S'current news'
p2802
g15
tp2803
a(S'please play spotify '
p2804
g15
tp2805
a(S'how is the weather'
p2806
g15
tp2807
a(S'am i free for tuesday'
p2808
g15
tp2809
a(S'do not read your watch'
p2810
g15
tp2811
a(S'do i have to do anything to do'
p2812
g15
tp2813
a(S'please retrieve the time'
p2814
g88
tp2815
a(S'what do i have to do on friday'
p2816
g15
tp2817
a(S'can you please schedule an event'
p2818
g15
tp2819
a(S"what's today's temperature"
p2820
g15
tp2821
a(S'please open inbox'
p2822
g15
tp2823
a(S"please don't get me the clock"
p2824
g15
tp2825
a(S'anything new in mail'
p2826
g15
tp2827
a(S'please turn it down'
p2828
g15
tp2829
a(S'get the the latest headlines'
p2830
g15
tp2831
a(S'what events are on this day'
p2832
g15
tp2833
a(S'live news feed'
p2834
g15
tp2835
a(S'will you check gmail please'
p2836
g15
tp2837
a(S'close the active window'
p2838
g15
tp2839
a(S'please go back'
p2840
g15
tp2841
a(S'play '
p2842
g15
tp2843
a(S'can you exit'
p2844
g15
tp2845
a(S'please create new event'
p2846
g15
tp2847
a(S'please read me the clock'
p2848
g88
tp2849
a(S'check calendar for saturday'
p2850
g15
tp2851
a(S'spotify go back'
p2852
g15
tp2853
a(S'could you schedule a new event please'
p2854
g15
tp2855
a(S'i like dogs'
p2856
g15
tp2857
a(S"don't i have anything today"
p2858
g15
tp2859
a(S'train a classifier to try to predict the category of a post'
p2860
g15
tp2861
a(S'clock'
p2862
g15
tp2863
a(S'what is new in gmail please'
p2864
g15
tp2865
a(S'start browser'
p2866
g15
tp2867
a(S'please what is new in inbox'
p2868
g15
tp2869
a(S'bye bye'
p2870
g15
tp2871
a(S'open dot org'
p2872
g15
tp2873
a(S"please don't read me the clock"
p2874
g15
tp2875
a(S'shutdown my computer please'
p2876
g15
tp2877
a(S"today's live newsfeed"
p2878
g15
tp2879
a(S'get current events'
p2880
g15
tp2881
a(S'please would you check my gmail'
p2882
g15
tp2883
a(S'can you please schedule a new event'
p2884
g15
tp2885
a(S'can you add a new event'
p2886
g15
tp2887
a(S'play song'
p2888
g15
tp2889
a(S'could you make new event'
p2890
g15
tp2891
a(S'will you get the news for me'
p2892
g15
tp2893
a(S'please do not check the current time'
p2894
g15
tp2895
a(S'can you check new mail'
p2896
g15
tp2897
a(S"don't i have to do anything on saturday"
p2898
g15
tp2899
a(S'retrieve what time it is'
p2900
g88
tp2901
a(S'check my calendar for saturday'
p2902
g15
tp2903
a(S'check events for this month'
p2904
g15
tp2905
a(S'do i have anything to do on saturday'
p2906
g15
tp2907
a(S'do i have anything in a month'
p2908
g15
tp2909
a(S'do i have anything to do on sunday'
p2910
g15
tp2911
a(S'please retrieve the current time'
p2912
g88
tp2913
a(S'will you check my mail'
p2914
g15
tp2915
a(S"don't read the time"
p2916
g15
tp2917
a(S'louder please'
p2918
g15
tp2919
a(S'the tale pretends'
p2920
g15
tp2921
a(S'make a new event please'
p2922
g15
tp2923
a(S'please do not check your watch'
p2924
g15
tp2925
a(S'what is new in new gmail please'
p2926
g15
tp2927
a(S"don't i have to do anything on this day"
p2928
g15
tp2929
a(S'what is new in my inbox'
p2930
g15
tp2931
a(S"what's the temperature this week"
p2932
g15
tp2933
a(S"don't i have any events on wednesday"
p2934
g15
tp2935
a(S'am i free'
p2936
g15
tp2937
a(S'can you please turn the beat down'
p2938
g15
tp2939
a(S'do not check your watch'
p2940
g15
tp2941
a(S'what is live news'
p2942
g15
tp2943
a(S'add new event please'
p2944
g15
tp2945
a(S'anything in inbox'
p2946
g15
tp2947
a(S'turn down the sound'
p2948
g15
tp2949
a(S'will you check new gmail'
p2950
g15
tp2951
a(S'spotify play previous song please'
p2952
g15
tp2953
a(S'check the clock right now'
p2954
g88
tp2955
a(S'would you open my gmail please'
p2956
g15
tp2957
a(S'are there any events on next'
p2958
g15
tp2959
a(S'what time is it now'
p2960
g88
tp2961
a(S'kill the program'
p2962
g15
tp2963
a(S'check calendar on this day'
p2964
g15
tp2965
a(S'tell me news feed'
p2966
g15
tp2967
a(S'tell me current news'
p2968
g15
tp2969
a(S'will you open inbox please'
p2970
g15
tp2971
a(S'will you check gmail'
p2972
g15
tp2973
a(S'can you check gmail please'
p2974
g15
tp2975
a(S'search google for please'
p2976
g15
tp2977
a(S'can you check my mail please'
p2978
g15
tp2979
a(S"what time isn't it"
p2980
g15
tp2981
a(S'check google calendar on this week'
p2982
g15
tp2983
a(S'please do not get clock'
p2984
g15
tp2985
a(S'what are the latest events '
p2986
g15
tp2987
a(S"please don't get time"
p2988
g15
tp2989
a(S'check my calendar for tomorrow'
p2990
g15
tp2991
a(S"aren't there any events on monday"
p2992
g15
tp2993
a(S'is there anything to do tomorrow'
p2994
g15
tp2995
a(S"get if it's rainy this week"
p2996
g15
tp2997
a(S'can you add an event please'
p2998
g15
tp2999
a(S'could you create a new event'
p3000
g15
tp3001
a(S'turn up the volume'
p3002
g15
tp3003
a(S"what's in my mail please"
p3004
g15
tp3005
a(S'can you please close active window'
p3006
g15
tp3007
a(S"don't check your watch"
p3008
g15
tp3009
a(S"what's if it's foggy this week"
p3010
g15
tp3011
a(S'hey alex'
p3012
g15
tp3013
a(S'could you check my inbox'
p3014
g15
tp3015
a(S'newsfeed'
p3016
g15
tp3017
a(S'could you create a new event please'
p3018
g15
tp3019
a(S'do not get me the clock'
p3020
g15
tp3021
a(S'can you turn off my computer'
p3022
g15
tp3023
a(S'google for'
p3024
g15
tp3025
a(S'can you schedule event'
p3026
g15
tp3027
a(S'alice go ahead please'
p3028
g15
tp3029
a(S'am i free today'
p3030
g15
tp3031
a(S'will it hail this week'
p3032
g15
tp3033
a(S'can you get information on the current events'
p3034
g15
tp3035
a(S"what's in my inbox please"
p3036
g15
tp3037
a(S"don't i have any events on next"
p3038
g15
tp3039
a(S'check new mail please'
p3040
g15
tp3041
a(S'any events on monday'
p3042
g15
tp3043
a(S'please could you check new mail'
p3044
g15
tp3045
a(S"don't i have anything to do"
p3046
g15
tp3047
a(S'make the volume softer'
p3048
g15
tp3049
a(S'check my gmail'
p3050
g15
tp3051
a(S"what's the news feed"
p3052
g15
tp3053
a(S'shut the fuck up'
p3054
g15
tp3055
a(S"don't check the clock right now please"
p3056
g15
tp3057
a(S'will you check inbox please'
p3058
g15
tp3059
a(S'what are the the news'
p3060
g15
tp3061
a(S'check inbox'
p3062
g15
tp3063
a(S"don't get the time"
p3064
g15
tp3065
a(S'open dot edu'
p3066
g15
tp3067
a(S'find headlines'
p3068
g15
tp3069
a(S'anything new in gmail'
p3070
g15
tp3071
a(S'give me intel'
p3072
g15
tp3073
a(S'can you put me on the lock screen'
p3074
g15
tp3075
a(S'do i have anything to do tomorrow'
p3076
g15
tp3077
a(S'can you turn off the computer'
p3078
g15
tp3079
a(S'what is the news today'
p3080
g15
tp3081
a(S'am i free on friday'
p3082
g15
tp3083
a(S'can you open a browser'
p3084
g15
tp3085
a(S'can you please turn the tune down'
p3086
g15
tp3087
a(S'check google calendar for next'
p3088
g15
tp3089
a(S'please will you open my mail'
p3090
g15
tp3091
a(S'lower the tunes please'
p3092
g15
tp3093
a(S'would you check my gmail'
p3094
g15
tp3095
a(S'am i free for sunday'
p3096
g15
tp3097
a(S'do not read the time please'
p3098
g15
tp3099
a(S'can you lock computer please'
p3100
g15
tp3101
a(S'can you check gmail'
p3102
g15
tp3103
a(S'can you please kill the active window'
p3104
g15
tp3105
a(S"how's the weather today"
p3106
g15
tp3107
a(S'please pause song'
p3108
g15
tp3109
a(S"don't i have to do anything on friday"
p3110
g15
tp3111
a(S'start spotify please'
p3112
g15
tp3113
a(S'is there anything i have to do in a month'
p3114
g15
tp3115
a(S'do i have any events on monday'
p3116
g15
tp3117
a(S'check google calendar for monday'
p3118
g15
tp3119
a(S'what is in gmail please'
p3120
g15
tp3121
a(S'any events on this day'
p3122
g15
tp3123
a(S'what events do i have on next'
p3124
g15
tp3125
a(S'create event please'
p3126
g15
tp3127
a(S'please spotify previous song'
p3128
g15
tp3129
a(S'do i have any events'
p3130
g15
tp3131
a(S"what's this week's temperature"
p3132
g15
tp3133
a(S"what's new in my mail please"
p3134
g15
tp3135
a(S'lock computer please'
p3136
g15
tp3137
a(S'do i have anything today'
p3138
g15
tp3139
a(S'current temperature'
p3140
g15
tp3141
a(S'please turn off my computer'
p3142
g15
tp3143
a(S'skip'
p3144
g15
tp3145
a(S"aren't there any events on wednesday"
p3146
g15
tp3147
a(S'music down'
p3148
g15
tp3149
a(S'are there any events on thursday'
p3150
g15
tp3151
a(S'play spotify please'
p3152
g15
tp3153
a(S'could you make a new event'
p3154
g15
tp3155
a(S'please google search'
p3156
g15
tp3157
a(S'do i have to do anything on friday'
p3158
g15
tp3159
a(S'can you shutdown my computer'
p3160
g15
tp3161
a(S'go back'
p3162
g15
tp3163
a(S'what are the headlines'
p3164
g15
tp3165
a(S'go ahead'
p3166
g15
tp3167
a(S'turn up the the beat'
p3168
g15
tp3169
a(S"don't i have to do anything in a month"
p3170
g15
tp3171
a(S'would you open gmail please'
p3172
g15
tp3173
a(S'would you open my inbox'
p3174
g15
tp3175
a(S'time'
p3176
g15
tp3177
a(S'what is in new gmail'
p3178
g15
tp3179
a(S"how's the forecast"
p3180
g15
tp3181
a(S'please could you check mail'
p3182
g15
tp3183
a(S'what do i have in a month'
p3184
g15
tp3185
a(S'do i have any events on next'
p3186
g15
tp3187
a(S'do i have any events on thursday'
p3188
g15
tp3189
a(S'please would you open my mail'
p3190
g15
tp3191
a(S"don't i have anything on sunday"
p3192
g15
tp3193
a(S'please can you check inbox'
p3194
g15
tp3195
a(S'please start'
p3196
g15
tp3197
a(S'news now please'
p3198
g15
tp3199
a(S'any gmail'
p3200
g15
tp3201
a(S"please don't get current time"
p3202
g15
tp3203
a(S'put me on the lock screen'
p3204
g15
tp3205
a(S'could you add a new event'
p3206
g15
tp3207
a(S'google'
p3208
g15
tp3209
a(S'please will you check my gmail'
p3210
g15
tp3211
a(S'will you open my gmail'
p3212
g15
tp3213
a(S"what're the live news feed"
p3214
g15
tp3215
a(S'please open my inbox'
p3216
g15
tp3217
a(S'what are the current news'
p3218
g15
tp3219
a(S"don't check the current time"
p3220
g15
tp3221
a(S'what time is it'
p3222
g88
tp3223
a(S"what's new in mail"
p3224
g15
tp3225
a(S'could you schedule event'
p3226
g15
tp3227
a(S'do i have any events on tomorrow'
p3228
g15
tp3229
a(S"this week's forecast"
p3230
g15
tp3231
a(S'could you add new event'
p3232
g15
tp3233
a(S'what is live news feed'
p3234
g15
tp3235
a(S'check my gmail please'
p3236
g15
tp3237
a(S'go back please'
p3238
g15
tp3239
a(S"don't i have anything on wednesday"
p3240
g15
tp3241
a(S'shut my computer down please'
p3242
g15
tp3243
a(S'please read time'
p3244
g88
tp3245
a(S"what's the weather this week"
p3246
g15
tp3247
a(S'can you please kill the current window'
p3248
g15
tp3249
a(S'get the current events'
p3250
g15
tp3251
a(S'create a new event please'
p3252
g15
tp3253
a(S'shut up please'
p3254
g15
tp3255
a(S'any events on tomorrow'
p3256
g15
tp3257
a(S"aren't there any events on this day"
p3258
g15
tp3259
a(S'please would you open my gmail'
p3260
g15
tp3261
a(S'okay alice'
p3262
g15
tp3263
a(S"don't i have to do anything in a week"
p3264
g15
tp3265
a(S'turn off please'
p3266
g15
tp3267
a(S'tell me current events'
p3268
g15
tp3269
a(S"what's the forecast this week"
p3270
g15
tp3271
a(S'can you schedule a new event please'
p3272
g15
tp3273
a(S'please lock computer'
p3274
g15
tp3275
a(S'schedule event'
p3276
g15
tp3277
a(S'please get current time'
p3278
g88
tp3279
a(S'what events do i have on thursday'
p3280
g15
tp3281
a(S"don't read your watch please"
p3282
g15
tp3283
a(S'current time'
p3284
g88
tp3285
a(S'what is in gmail'
p3286
g15
tp3287
a(S'what is newsfeed'
p3288
g15
tp3289
a(S'go ahead spotify please'
p3290
g15
tp3291
a(S'will you get the headlines'
p3292
g15
tp3293
a(S'could you make a new event please'
p3294
g15
tp3295
a(S'will you check new gmail please'
p3296
g15
tp3297
a(S"don't i have to do anything today"
p3298
g15
tp3299
a(S'what is live newsfeed'
p3300
g15
tp3301
a(S'go to dot com'
p3302
g15
tp3303
a(S'please when is it'
p3304
g88
tp3305
a(S'please go spotify '
p3306
g15
tp3307
a(S'go spotify please'
p3308
g15
tp3309
a(S'check calendar on thursday'
p3310
g15
tp3311
a(S'is it foggy this week'
p3312
g15
tp3313
a(S'check calendar on this week'
p3314
g15
tp3315
a(S'give me the news'
p3316
g15
tp3317
a(S'can you turn up the volume'
p3318
g15
tp3319
a(S'do i have to do anything in a month'
p3320
g15
tp3321
a(S'volume higher please'
p3322
g15
tp3323
a(S"today's current news "
p3324
g15
tp3325
a(S'check google calendar on today'
p3326
g15
tp3327
a(S"don't i have to do anything on tuesday"
p3328
g15
tp3329
a(S'turn up'
p3330
g15
tp3331
a(S'do not read the time'
p3332
g15
tp3333
a(S'any events on next'
p3334
g15
tp3335
a(S'please would you open mail'
p3336
g15
tp3337
a(S'any events in a month'
p3338
g15
tp3339
a(S'check google calendar for'
p3340
g15
tp3341
a(S"don't i have anything in a month"
p3342
g15
tp3343
a(S'what are the current events'
p3344
g15
tp3345
a(S"today's temperature"
p3346
g15
tp3347
a(S'give me the current events'
p3348
g15
tp3349
a(S'can you please make event'
p3350
g15
tp3351
a(S'what do i have in a week'
p3352
g15
tp3353
a(S'check my calendar on tuesday'
p3354
g15
tp3355
a(S'please spotify start the song'
p3356
g15
tp3357
a(S'turn off the computer please'
p3358
g15
tp3359
a(S"what's new in my inbox please"
p3360
g15
tp3361
a(S'what do i have to do'
p3362
g15
tp3363
a(S"what's in inbox please"
p3364
g15
tp3365
a(S'are there any events in a month'
p3366
g15
tp3367
a(S'is there anything to do on today'
p3368
g15
tp3369
a(S'is it cloudy this week'
p3370
g15
tp3371
a(S'sweet dreams'
p3372
g15
tp3373
a(S'could you open gmail please'
p3374
g15
tp3375
a(S"don't i have anything to do on sunday"
p3376
g15
tp3377
a(S"please don't retrieve what time it is"
p3378
g15
tp3379
a(S'start default browser'
p3380
g15
tp3381
a(S'check events'
p3382
g15
tp3383
a(S"don't i have anything to do tomorrow"
p3384
g15
tp3385
a(S"how's the weather"
p3386
g15
tp3387
a(S'do i have anything on thursday'
p3388
g15
tp3389
a(S"what's in mail"
p3390
g15
tp3391
a(S'can you please mute'
p3392
g15
tp3393
a(S"don't i have anything to do on monday"
p3394
g15
tp3395
a(S'when is it please'
p3396
g88
tp3397
a(S'please what is in my mail'
p3398
g15
tp3399
a(S'what do i have to do on saturday'
p3400
g15
tp3401
a(S'predict the outcome on a new document'
p3402
g15
tp3403
a(S'could you schedule new event'
p3404
g15
tp3405
a(S"what's new in inbox please"
p3406
g15
tp3407
a(S"don't get time please"
p3408
g15
tp3409
a(S'next song'
p3410
g15
tp3411
a(S'spotify play the last song'
p3412
g15
tp3413
a(S'please google'
p3414
g15
tp3415
a(S'get the time please'
p3416
g88
tp3417
a(S"what's the weather today"
p3418
g15
tp3419
a(S'is there anything to do'
p3420
g15
tp3421
a(S'please kill the active window'
p3422
g15
tp3423
a(S'stop playing'
p3424
g15
tp3425
a(S'can you please shutdown my computer'
p3426
g15
tp3427
a(S'turn off the beats'
p3428
g15
tp3429
a(S'do i have any events in a week'
p3430
g15
tp3431
a(S'any events on thursday'
p3432
g15
tp3433
a(S'what events are going on right now'
p3434
g15
tp3435
a(S'could you please add new event'
p3436
g15
tp3437
a(S"don't i have anything on"
p3438
g15
tp3439
a(S'please do not read your watch'
p3440
g15
tp3441
a(S'search for please'
p3442
g15
tp3443
a(S'please can you turn up the volume'
p3444
g15
tp3445
a(S'check what time it is please'
p3446
g88
tp3447
a(S'can you please close this window'
p3448
g15
tp3449
a(S"get this week's temperature"
p3450
g15
tp3451
a(S"don't retrieve the time please"
p3452
g15
tp3453
a(S'check new mail'
p3454
g15
tp3455
a(S'do i have to do anything on tuesday'
p3456
g15
tp3457
a(S'can you please exit'
p3458
g15
tp3459
a(S'can you please create new event'
p3460
g15
tp3461
a(S'open my gmail'
p3462
g15
tp3463
a(S'can you turn yourself off'
p3464
g15
tp3465
a(S'can you make a new event'
p3466
g15
tp3467
a(S'check mail'
p3468
g15
tp3469
a(S'please check new mail'
p3470
g15
tp3471
a(S'pause the song please'
p3472
g15
tp3473
a(S'can you lock my computer please'
p3474
g15
tp3475
a(S'please close current window'
p3476
g15
tp3477
a(S'make event please'
p3478
g15
tp3479
a(S"don't i have to do anything today"
p3480
g15
tp3481
a(S'what is new in mail please'
p3482
g15
tp3483
a(S"what's temperature"
p3484
g15
tp3485
a(S'kill the active program'
p3486
g15
tp3487
a(S'check my calendar on wednesday'
p3488
g15
tp3489
a(S'get current temperature'
p3490
g15
tp3491
a(S'what are the newsfeed'
p3492
g15
tp3493
a(S'can you please shut down the computer'
p3494
g15
tp3495
a(S'what is new in gmail'
p3496
g15
tp3497
a(S'add event please'
p3498
g15
tp3499
a(S'the news today'
p3500
g15
tp3501
a(S'will you open my mail please'
p3502
g15
tp3503
a(S'get newsfeed'
p3504
g15
tp3505
a(S'could you make event'
p3506
g15
tp3507
a(S'what do i have on wednesday'
p3508
g15
tp3509
a(S'close window'
p3510
g15
tp3511
a(S'what do i have to do on sunday'
p3512
g15
tp3513
a(S'any new mail'
p3514
g15
tp3515
a(S'what events do i have in a month'
p3516
g15
tp3517
a(S'could you please create an event'
p3518
g15
tp3519
a(S'check google calendar on this day'
p3520
g15
tp3521
a(S'would you check gmail please'
p3522
g15
tp3523
a(S'lock'
p3524
g15
tp3525
a(S"if it's hot today"
p3526
g15
tp3527
a(S'check events for sunday'
p3528
g15
tp3529
a(S"if it's freezing today"
p3530
g15
tp3531
a(S'volume up'
p3532
g15
tp3533
a(S'please kill current window'
p3534
g15
tp3535
a(S'sound up please'
p3536
g15
tp3537
a(S'start browsing please'
p3538
g15
tp3539
a(S'please kill this window'
p3540
g15
tp3541
a(S'check calendar for today'
p3542
g15
tp3543
a(S'what is on my calendar for this month'
p3544
g15
tp3545
a(S'would you check new gmail'
p3546
g15
tp3547
a(S'will you get the current events for me'
p3548
g15
tp3549
a(S'do i have to do anything on thursday'
p3550
g15
tp3551
a(S'please could you open inbox'
p3552
g15
tp3553
a(S'can you please kill current window'
p3554
g15
tp3555
a(S'do i have to do anything on sunday'
p3556
g15
tp3557
a(S"what're the current events"
p3558
g15
tp3559
a(S'whats going on in the world todays please'
p3560
g15
tp3561
a(S'can you shut up'
p3562
g15
tp3563
a(S'can you add event'
p3564
g15
tp3565
a(S'please sound up'
p3566
g15
tp3567
a(S'tell me live newsfeed'
p3568
g15
tp3569
a(S'turn up the beat'
p3570
g15
tp3571
a(S"what's if it's hot this week"
p3572
g15
tp3573
a(S'what are the news'
p3574
g15
tp3575
a(S'do i have anything on friday'
p3576
g15
tp3577
a(S'please search google for'
p3578
g15
tp3579
a(S"what're the the news"
p3580
g15
tp3581
a(S'do i have anything tomorrow'
p3582
g15
tp3583
a(S'do not get the clock'
p3584
g15
tp3585
a(S'please add new event'
p3586
g15
tp3587
a(S'shut down the computer please'
p3588
g15
tp3589
a(S'shut down'
p3590
g15
tp3591
a(S'check google calendar on sunday'
p3592
g15
tp3593
a(S'alex'
p3594
g15
tp3595
a(S"please what's new in mail"
p3596
g15
tp3597
a(S"what's in new mail"
p3598
g15
tp3599
a(S'open default browser'
p3600
g15
tp3601
a(S'anything in gmail'
p3602
g15
tp3603
a(S'get current weather'
p3604
g15
tp3605
a(S'check google calendar on thursday'
p3606
g15
tp3607
a(S'what are the current events today'
p3608
g15
tp3609
a(S'can you make an event'
p3610
g15
tp3611
a(S'am i free for a week'
p3612
g15
tp3613
a(S"don't i have to do anything on monday"
p3614
g15
tp3615
a(S"please what's new in new gmail"
p3616
g15
tp3617
a(S'please would you check my inbox'
p3618
g15
tp3619
a(S'could you check new gmail please'
p3620
g15
tp3621
a(S"get if it's snowing today"
p3622
g15
tp3623
a(S'the news'
p3624
g15
tp3625
a(S'make the sound louder'
p3626
g15
tp3627
a(S'is it hot today'
p3628
g15
tp3629
a(S'intelligence report'
p3630
g15
tp3631
a(S'would you open my gmail'
p3632
g15
tp3633
a(S"what's in my gmail"
p3634
g15
tp3635
asS'classifier'
p3636
ccopy_reg
_reconstructor
p3637
(csklearn.pipeline
Pipeline
p3638
c__builtin__
object
p3639
Ntp3640
Rp3641
(dp3642
S'_sklearn_version'
p3643
S'0.18.1'
p3644
sS'steps'
p3645
(lp3646
(S'vect'
p3647
g3637
(csklearn.feature_extraction.text
CountVectorizer
p3648
g3639
Ntp3649
Rp3650
(dp3651
S'decode_error'
p3652
Vstrict
p3653
sS'lowercase'
p3654
I01
sS'stop_words'
p3655
NsS'vocabulary'
p3656
NsS'tokenizer'
p3657
NsS'encoding'
p3658
Vutf-8
p3659
sS'token_pattern'
p3660
V(?u)\u005cb\u005cw\u005cw+\u005cb
p3661
sS'input'
p3662
Vcontent
p3663
sS'analyzer'
p3664
Vword
p3665
sS'vocabulary_'
p3666
(dp3667
Vevent
p3668
cnumpy.core.multiarray
scalar
p3669
(cnumpy
dtype
p3670
(S'i8'
p3671
I0
I1
tp3672
Rp3673
(I3
S'<'
p3674
NNNI-1
I-1
I0
tp3675
bS'?\x00\x00\x00\x00\x00\x00\x00'
p3676
tp3677
Rp3678
sVraining
p3679
g3669
(g3673
S'\xa1\x00\x00\x00\x00\x00\x00\x00'
p3680
tp3681
Rp3682
sVtodays
p3683
g3669
(g3673
S'\xce\x00\x00\x00\x00\x00\x00\x00'
p3684
tp3685
Rp3686
sVmute
p3687
g3669
(g3673
S'~\x00\x00\x00\x00\x00\x00\x00'
p3688
tp3689
Rp3690
sVskip
p3691
g3669
(g3673
S'\xb6\x00\x00\x00\x00\x00\x00\x00'
p3692
tp3693
Rp3694
sVmonth
p3695
g3669
(g3673
S'|\x00\x00\x00\x00\x00\x00\x00'
p3696
tp3697
Rp3698
sVnot
p3699
g3669
(g3673
S'\x87\x00\x00\x00\x00\x00\x00\x00'
p3700
tp3701
Rp3702
sVsofter
p3703
g3669
(g3673
S'\xb9\x00\x00\x00\x00\x00\x00\x00'
p3704
tp3705
Rp3706
sVkill
p3707
g3669
(g3673
S'n\x00\x00\x00\x00\x00\x00\x00'
p3708
tp3709
Rp3710
sVedu
p3711
g3669
(g3673
S'<\x00\x00\x00\x00\x00\x00\x00'
p3712
tp3713
Rp3714
sVgo
p3715
g3669
(g3673
S'T\x00\x00\x00\x00\x00\x00\x00'
p3716
tp3717
Rp3718
sVheadlines
p3719
g3669
(g3673
S']\x00\x00\x00\x00\x00\x00\x00'
p3720
tp3721
Rp3722
sVfind
p3723
g3669
(g3673
S'G\x00\x00\x00\x00\x00\x00\x00'
p3724
tp3725
Rp3726
sVprevious
p3727
g3669
(g3673
S'\x98\x00\x00\x00\x00\x00\x00\x00'
p3728
tp3729
Rp3730
sVspotify
p3731
g3669
(g3673
S'\xbc\x00\x00\x00\x00\x00\x00\x00'
p3732
tp3733
Rp3734
sVpause
p3735
g3669
(g3673
S'\x91\x00\x00\x00\x00\x00\x00\x00'
p3736
tp3737
Rp3738
sVsnowing
p3739
g3669
(g3673
S'\xb8\x00\x00\x00\x00\x00\x00\x00'
p3740
tp3741
Rp3742
sVsend
p3743
g3669
(g3673
S'\xb0\x00\x00\x00\x00\x00\x00\x00'
p3744
tp3745
Rp3746
sVsunday
p3747
g3669
(g3673
S'\xc1\x00\x00\x00\x00\x00\x00\x00'
p3748
tp3749
Rp3750
sVthursday
p3751
g3669
(g3673
S'\xca\x00\x00\x00\x00\x00\x00\x00'
p3752
tp3753
Rp3754
sVaren
p3755
g3669
(g3673
S'\r\x00\x00\x00\x00\x00\x00\x00'
p3756
tp3757
Rp3758
sVto
p3759
g3669
(g3673
S'\xcc\x00\x00\x00\x00\x00\x00\x00'
p3760
tp3761
Rp3762
sVadd
p3763
g3669
(g3673
S'\x02\x00\x00\x00\x00\x00\x00\x00'
p3764
tp3765
Rp3766
sVgoing
p3767
g3669
(g3673
S'U\x00\x00\x00\x00\x00\x00\x00'
p3768
tp3769
Rp3770
sVmail
p3771
g3669
(g3673
S'v\x00\x00\x00\x00\x00\x00\x00'
p3772
tp3773
Rp3774
sVbye
p3775
g3669
(g3673
S'\x19\x00\x00\x00\x00\x00\x00\x00'
p3776
tp3777
Rp3778
sVdo
p3779
g3669
(g3673
S'4\x00\x00\x00\x00\x00\x00\x00'
p3780
tp3781
Rp3782
sVgood
p3783
g3669
(g3673
S'V\x00\x00\x00\x00\x00\x00\x00'
p3784
tp3785
Rp3786
sVemergency
p3787
g3669
(g3673
S'>\x00\x00\x00\x00\x00\x00\x00'
p3788
tp3789
Rp3790
sVsong
p3791
g3669
(g3673
S'\xba\x00\x00\x00\x00\x00\x00\x00'
p3792
tp3793
Rp3794
sVya
p3795
g3669
(g3673
S'\xe7\x00\x00\x00\x00\x00\x00\x00'
p3796
tp3797
Rp3798
sVmaterial
p3799
g3669
(g3673
S'x\x00\x00\x00\x00\x00\x00\x00'
p3800
tp3801
Rp3802
sVstop
p3803
g3669
(g3673
S'\xc0\x00\x00\x00\x00\x00\x00\x00'
p3804
tp3805
Rp3806
sVanswer
p3807
g3669
(g3673
S'\t\x00\x00\x00\x00\x00\x00\x00'
p3808
tp3809
Rp3810
sVreport
p3811
g3669
(g3673
S'\xa6\x00\x00\x00\x00\x00\x00\x00'
p3812
tp3813
Rp3814
sVworld
p3815
g3669
(g3673
S'\xe5\x00\x00\x00\x00\x00\x00\x00'
p3816
tp3817
Rp3818
sVnow
p3819
g3669
(g3673
S'\x88\x00\x00\x00\x00\x00\x00\x00'
p3820
tp3821
Rp3822
sVday
p3823
g3669
(g3673
S',\x00\x00\x00\x00\x00\x00\x00'
p3824
tp3825
Rp3826
sVdreams
p3827
g3669
(g3673
S':\x00\x00\x00\x00\x00\x00\x00'
p3828
tp3829
Rp3830
sVintel
p3831
g3669
(g3673
S'h\x00\x00\x00\x00\x00\x00\x00'
p3832
tp3833
Rp3834
sVshoulder
p3835
g3669
(g3673
S'\xb2\x00\x00\x00\x00\x00\x00\x00'
p3836
tp3837
Rp3838
sVmoderate
p3839
g3669
(g3673
S'z\x00\x00\x00\x00\x00\x00\x00'
p3840
tp3841
Rp3842
sValex
p3843
g3669
(g3673
S'\x04\x00\x00\x00\x00\x00\x00\x00'
p3844
tp3845
Rp3846
sVlike
p3847
g3669
(g3673
S'q\x00\x00\x00\x00\x00\x00\x00'
p3848
tp3849
Rp3850
sVgossips
p3851
g3669
(g3673
S'X\x00\x00\x00\x00\x00\x00\x00'
p3852
tp3853
Rp3854
sVdidn
p3855
g3669
(g3673
S'3\x00\x00\x00\x00\x00\x00\x00'
p3856
tp3857
Rp3858
sVwednesday
p3859
g3669
(g3673
S'\xde\x00\x00\x00\x00\x00\x00\x00'
p3860
tp3861
Rp3862
sVcloudy
p3863
g3669
(g3673
S'#\x00\x00\x00\x00\x00\x00\x00'
p3864
tp3865
Rp3866
sVtry
p3867
g3669
(g3673
S'\xd1\x00\x00\x00\x00\x00\x00\x00'
p3868
tp3869
Rp3870
sVunmute
p3871
g3669
(g3673
S'\xd7\x00\x00\x00\x00\x00\x00\x00'
p3872
tp3873
Rp3874
sVgimme
p3875
g3669
(g3673
S'Q\x00\x00\x00\x00\x00\x00\x00'
p3876
tp3877
Rp3878
sVnight
p3879
g3669
(g3673
S'\x85\x00\x00\x00\x00\x00\x00\x00'
p3880
tp3881
Rp3882
sVtunes
p3883
g3669
(g3673
S'\xd4\x00\x00\x00\x00\x00\x00\x00'
p3884
tp3885
Rp3886
sVout
p3887
g3669
(g3673
S'\x8f\x00\x00\x00\x00\x00\x00\x00'
p3888
tp3889
Rp3890
sVclassifier
p3891
g3669
(g3673
S' \x00\x00\x00\x00\x00\x00\x00'
p3892
tp3893
Rp3894
sVset
p3895
g3669
(g3673
S'\xb1\x00\x00\x00\x00\x00\x00\x00'
p3896
tp3897
Rp3898
sVretrieve
p3899
g3669
(g3673
S'\xa7\x00\x00\x00\x00\x00\x00\x00'
p3900
tp3901
Rp3902
sVee
p3903
g3669
(g3673
S'=\x00\x00\x00\x00\x00\x00\x00'
p3904
tp3905
Rp3906
sVintelligence
p3907
g3669
(g3673
S'i\x00\x00\x00\x00\x00\x00\x00'
p3908
tp3909
Rp3910
sVback
p3911
g3669
(g3673
S'\x0e\x00\x00\x00\x00\x00\x00\x00'
p3912
tp3913
Rp3914
sVhail
p3915
g3669
(g3673
S'[\x00\x00\x00\x00\x00\x00\x00'
p3916
tp3917
Rp3918
sValice
p3919
g3669
(g3673
S'\x05\x00\x00\x00\x00\x00\x00\x00'
p3920
tp3921
Rp3922
sVsee
p3923
g3669
(g3673
S'\xaf\x00\x00\x00\x00\x00\x00\x00'
p3924
tp3925
Rp3926
sVcomputer
p3927
g3669
(g3673
S"'\x00\x00\x00\x00\x00\x00\x00"
p3928
tp3929
Rp3930
sVare
p3931
g3669
(g3673
S'\x0c\x00\x00\x00\x00\x00\x00\x00'
p3932
tp3933
Rp3934
sVclose
p3935
g3669
(g3673
S'"\x00\x00\x00\x00\x00\x00\x00'
p3936
tp3937
Rp3938
sVcalendar
p3939
g3669
(g3673
S'\x1b\x00\x00\x00\x00\x00\x00\x00'
p3940
tp3941
Rp3942
sVextract
p3943
g3669
(g3673
S'B\x00\x00\x00\x00\x00\x00\x00'
p3944
tp3945
Rp3946
sVcold
p3947
g3669
(g3673
S'$\x00\x00\x00\x00\x00\x00\x00'
p3948
tp3949
Rp3950
sVgmail
p3951
g3669
(g3673
S'S\x00\x00\x00\x00\x00\x00\x00'
p3952
tp3953
Rp3954
sVcategory
p3955
g3669
(g3673
S'\x1d\x00\x00\x00\x00\x00\x00\x00'
p3956
tp3957
Rp3958
sVwhat
p3959
g3669
(g3673
S'\xe0\x00\x00\x00\x00\x00\x00\x00'
p3960
tp3961
Rp3962
sVfor
p3963
g3669
(g3673
S'I\x00\x00\x00\x00\x00\x00\x00'
p3964
tp3965
Rp3966
sVclock
p3967
g3669
(g3673
S'!\x00\x00\x00\x00\x00\x00\x00'
p3968
tp3969
Rp3970
sVdebrief
p3971
g3669
(g3673
S'-\x00\x00\x00\x00\x00\x00\x00'
p3972
tp3973
Rp3974
sVcurrently
p3975
g3669
(g3673
S'+\x00\x00\x00\x00\x00\x00\x00'
p3976
tp3977
Rp3978
sVplease
p3979
g3669
(g3673
S'\x94\x00\x00\x00\x00\x00\x00\x00'
p3980
tp3981
Rp3982
sVbrief
p3983
g3669
(g3673
S'\x15\x00\x00\x00\x00\x00\x00\x00'
p3984
tp3985
Rp3986
sVforecast
p3987
g3669
(g3673
S'J\x00\x00\x00\x00\x00\x00\x00'
p3988
tp3989
Rp3990
sVcurrent
p3991
g3669
(g3673
S'*\x00\x00\x00\x00\x00\x00\x00'
p3992
tp3993
Rp3994
sVre
p3995
g3669
(g3673
S'\xa3\x00\x00\x00\x00\x00\x00\x00'
p3996
tp3997
Rp3998
sVexit
p3999
g3669
(g3673
S'A\x00\x00\x00\x00\x00\x00\x00'
p4000
tp4001
Rp4002
sVabove
p4003
g3669
(g3673
S'\x00\x00\x00\x00\x00\x00\x00\x00'
p4004
tp4005
Rp4006
sVnew
p4007
g3669
(g3673
S'\x81\x00\x00\x00\x00\x00\x00\x00'
p4008
tp4009
Rp4010
sVnet
p4011
g3669
(g3673
S'\x80\x00\x00\x00\x00\x00\x00\x00'
p4012
tp4013
Rp4014
sVgov
p4015
g3669
(g3673
S'Y\x00\x00\x00\x00\x00\x00\x00'
p4016
tp4017
Rp4018
sVissue
p4019
g3669
(g3673
S'l\x00\x00\x00\x00\x00\x00\x00'
p4020
tp4021
Rp4022
sVbe
p4023
g3669
(g3673
S'\x10\x00\x00\x00\x00\x00\x00\x00'
p4024
tp4025
Rp4026
sVshut
p4027
g3669
(g3673
S'\xb3\x00\x00\x00\x00\x00\x00\x00'
p4028
tp4029
Rp4030
sVnoise
p4031
g3669
(g3673
S'\x86\x00\x00\x00\x00\x00\x00\x00'
p4032
tp4033
Rp4034
sVtomorrow
p4035
g3669
(g3673
S'\xcf\x00\x00\x00\x00\x00\x00\x00'
p4036
tp4037
Rp4038
sVschedule
p4039
g3669
(g3673
S'\xac\x00\x00\x00\x00\x00\x00\x00'
p4040
tp4041
Rp4042
sVscreen
p4043
g3669
(g3673
S'\xad\x00\x00\x00\x00\x00\x00\x00'
p4044
tp4045
Rp4046
sVdictates
p4047
g3669
(g3673
S'2\x00\x00\x00\x00\x00\x00\x00'
p4048
tp4049
Rp4050
sVfree
p4051
g3669
(g3673
S'K\x00\x00\x00\x00\x00\x00\x00'
p4052
tp4053
Rp4054
sVwe
p4055
g3669
(g3673
S'\xdc\x00\x00\x00\x00\x00\x00\x00'
p4056
tp4057
Rp4058
sVillustration
p4059
g3669
(g3673
S'c\x00\x00\x00\x00\x00\x00\x00'
p4060
tp4061
Rp4062
sVactive
p4063
g3669
(g3673
S'\x01\x00\x00\x00\x00\x00\x00\x00'
p4064
tp4065
Rp4066
sVnews
p4067
g3669
(g3673
S'\x82\x00\x00\x00\x00\x00\x00\x00'
p4068
tp4069
Rp4070
sVpost
p4071
g3669
(g3673
S'\x95\x00\x00\x00\x00\x00\x00\x00'
p4072
tp4073
Rp4074
sVdon
p4075
g3669
(g3673
S'7\x00\x00\x00\x00\x00\x00\x00'
p4076
tp4077
Rp4078
sVearlier
p4079
g3669
(g3673
S';\x00\x00\x00\x00\x00\x00\x00'
p4080
tp4081
Rp4082
sVon
p4083
g3669
(g3673
S'\x8c\x00\x00\x00\x00\x00\x00\x00'
p4084
tp4085
Rp4086
sVsearch
p4087
g3669
(g3673
S'\xae\x00\x00\x00\x00\x00\x00\x00'
p4088
tp4089
Rp4090
sVlast
p4091
g3669
(g3673
S'o\x00\x00\x00\x00\x00\x00\x00'
p4092
tp4093
Rp4094
sVahead
p4095
g3669
(g3673
S'\x03\x00\x00\x00\x00\x00\x00\x00'
p4096
tp4097
Rp4098
sVof
p4099
g3669
(g3673
S'\x89\x00\x00\x00\x00\x00\x00\x00'
p4100
tp4101
Rp4102
sVcould
p4103
g3669
(g3673
S'(\x00\x00\x00\x00\x00\x00\x00'
p4104
tp4105
Rp4106
sVquiet
p4107
g3669
(g3673
S'\x9e\x00\x00\x00\x00\x00\x00\x00'
p4108
tp4109
Rp4110
sVturn
p4111
g3669
(g3673
S'\xd6\x00\x00\x00\x00\x00\x00\x00'
p4112
tp4113
Rp4114
sVisn
p4115
g3669
(g3673
S'k\x00\x00\x00\x00\x00\x00\x00'
p4116
tp4117
Rp4118
sVbrowsing
p4119
g3669
(g3673
S'\x18\x00\x00\x00\x00\x00\x00\x00'
p4120
tp4121
Rp4122
sVcom
p4123
g3669
(g3673
S'%\x00\x00\x00\x00\x00\x00\x00'
p4124
tp4125
Rp4126
sVthink
p4127
g3669
(g3673
S'\xc8\x00\x00\x00\x00\x00\x00\x00'
p4128
tp4129
Rp4130
sVfeed
p4131
g3669
(g3673
S'F\x00\x00\x00\x00\x00\x00\x00'
p4132
tp4133
Rp4134
sVthis
p4135
g3669
(g3673
S'\xc9\x00\x00\x00\x00\x00\x00\x00'
p4136
tp4137
Rp4138
sVwhats
p4139
g3669
(g3673
S'\xe1\x00\x00\x00\x00\x00\x00\x00'
p4140
tp4141
Rp4142
sVfeatures
p4143
g3669
(g3673
S'E\x00\x00\x00\x00\x00\x00\x00'
p4144
tp4145
Rp4146
sVsimple
p4147
g3669
(g3673
S'\xb5\x00\x00\x00\x00\x00\x00\x00'
p4148
tp4149
Rp4150
sVsweet
p4151
g3669
(g3673
S'\xc2\x00\x00\x00\x00\x00\x00\x00'
p4152
tp4153
Rp4154
sVtuesday
p4155
g3669
(g3673
S'\xd2\x00\x00\x00\x00\x00\x00\x00'
p4156
tp4157
Rp4158
sVyourself
p4159
g3669
(g3673
S'\xea\x00\x00\x00\x00\x00\x00\x00'
p4160
tp4161
Rp4162
sVdown
p4163
g3669
(g3673
S'9\x00\x00\x00\x00\x00\x00\x00'
p4164
tp4165
Rp4166
sVput
p4167
g3669
(g3673
S'\x9c\x00\x00\x00\x00\x00\x00\x00'
p4168
tp4169
Rp4170
sVweather
p4171
g3669
(g3673
S'\xdd\x00\x00\x00\x00\x00\x00\x00'
p4172
tp4173
Rp4174
sVdecrease
p4175
g3669
(g3673
S'/\x00\x00\x00\x00\x00\x00\x00'
p4176
tp4177
Rp4178
sVinbox
p4179
g3669
(g3673
S'e\x00\x00\x00\x00\x00\x00\x00'
p4180
tp4181
Rp4182
sVshutdown
p4183
g3669
(g3673
S'\xb4\x00\x00\x00\x00\x00\x00\x00'
p4184
tp4185
Rp4186
sVfake
p4187
g3669
(g3673
S'C\x00\x00\x00\x00\x00\x00\x00'
p4188
tp4189
Rp4190
sVopen
p4191
g3669
(g3673
S'\x8d\x00\x00\x00\x00\x00\x00\x00'
p4192
tp4193
Rp4194
sVyour
p4195
g3669
(g3673
S'\xe9\x00\x00\x00\x00\x00\x00\x00'
p4196
tp4197
Rp4198
sVtemperature
p4199
g3669
(g3673
S'\xc5\x00\x00\x00\x00\x00\x00\x00'
p4200
tp4201
Rp4202
sVwould
p4203
g3669
(g3673
S'\xe6\x00\x00\x00\x00\x00\x00\x00'
p4204
tp4205
Rp4206
sVtunez
p4207
g3669
(g3673
S'\xd5\x00\x00\x00\x00\x00\x00\x00'
p4208
tp4209
Rp4210
sVsake
p4211
g3669
(g3673
S'\xa9\x00\x00\x00\x00\x00\x00\x00'
p4212
tp4213
Rp4214
sVdecent
p4215
g3669
(g3673
S'.\x00\x00\x00\x00\x00\x00\x00'
p4216
tp4217
Rp4218
sVcreate
p4219
g3669
(g3673
S')\x00\x00\x00\x00\x00\x00\x00'
p4220
tp4221
Rp4222
sVthere
p4223
g3669
(g3673
S'\xc7\x00\x00\x00\x00\x00\x00\x00'
p4224
tp4225
Rp4226
sVquestion
p4227
g3669
(g3673
S'\x9d\x00\x00\x00\x00\x00\x00\x00'
p4228
tp4229
Rp4230
sVwindow
p4231
g3669
(g3673
S'\xe4\x00\x00\x00\x00\x00\x00\x00'
p4232
tp4233
Rp4234
sVnext
p4235
g3669
(g3673
S'\x84\x00\x00\x00\x00\x00\x00\x00'
p4236
tp4237
Rp4238
sVstart
p4239
g3669
(g3673
S'\xbe\x00\x00\x00\x00\x00\x00\x00'
p4240
tp4241
Rp4242
sVlive
p4243
g3669
(g3673
S'r\x00\x00\x00\x00\x00\x00\x00'
p4244
tp4245
Rp4246
sVprogram
p4247
g3669
(g3673
S'\x9b\x00\x00\x00\x00\x00\x00\x00'
p4248
tp4249
Rp4250
sVmusic
p4251
g3669
(g3673
S'}\x00\x00\x00\x00\x00\x00\x00'
p4252
tp4253
Rp4254
sVtell
p4255
g3669
(g3673
S'\xc4\x00\x00\x00\x00\x00\x00\x00'
p4256
tp4257
Rp4258
sVtoday
p4259
g3669
(g3673
S'\xcd\x00\x00\x00\x00\x00\x00\x00'
p4260
tp4261
Rp4262
sVpretends
p4263
g3669
(g3673
S'\x97\x00\x00\x00\x00\x00\x00\x00'
p4264
tp4265
Rp4266
sValmost
p4267
g3669
(g3673
S'\x06\x00\x00\x00\x00\x00\x00\x00'
p4268
tp4269
Rp4270
sVsound
p4271
g3669
(g3673
S'\xbb\x00\x00\x00\x00\x00\x00\x00'
p4272
tp4273
Rp4274
sVreleasing
p4275
g3669
(g3673
S'\xa5\x00\x00\x00\x00\x00\x00\x00'
p4276
tp4277
Rp4278
sVcommands
p4279
g3669
(g3673
S'&\x00\x00\x00\x00\x00\x00\x00'
p4280
tp4281
Rp4282
sVit
p4283
g3669
(g3673
S'm\x00\x00\x00\x00\x00\x00\x00'
p4284
tp4285
Rp4286
sVvolume
p4287
g3669
(g3673
S'\xda\x00\x00\x00\x00\x00\x00\x00'
p4288
tp4289
Rp4290
sVtrain
p4291
g3669
(g3673
S'\xd0\x00\x00\x00\x00\x00\x00\x00'
p4292
tp4293
Rp4294
sVstick
p4295
g3669
(g3673
S'\xbf\x00\x00\x00\x00\x00\x00\x00'
p4296
tp4297
Rp4298
sVbeat
p4299
g3669
(g3673
S'\x11\x00\x00\x00\x00\x00\x00\x00'
p4300
tp4301
Rp4302
sVfoggy
p4303
g3669
(g3673
S'H\x00\x00\x00\x00\x00\x00\x00'
p4304
tp4305
Rp4306
sVgoogle
p4307
g3669
(g3673
S'W\x00\x00\x00\x00\x00\x00\x00'
p4308
tp4309
Rp4310
sVme
p4311
g3669
(g3673
S'y\x00\x00\x00\x00\x00\x00\x00'
p4312
tp4313
Rp4314
sVanything
p4315
g3669
(g3673
S'\x0b\x00\x00\x00\x00\x00\x00\x00'
p4316
tp4317
Rp4318
sVfriday
p4319
g3669
(g3673
S'M\x00\x00\x00\x00\x00\x00\x00'
p4320
tp4321
Rp4322
sVdefault
p4323
g3669
(g3673
S'1\x00\x00\x00\x00\x00\x00\x00'
p4324
tp4325
Rp4326
sVsnow
p4327
g3669
(g3673
S'\xb7\x00\x00\x00\x00\x00\x00\x00'
p4328
tp4329
Rp4330
sVup
p4331
g3669
(g3673
S'\xd8\x00\x00\x00\x00\x00\x00\x00'
p4332
tp4333
Rp4334
sVdogs
p4335
g3669
(g3673
S'6\x00\x00\x00\x00\x00\x00\x00'
p4336
tp4337
Rp4338
sVwill
p4339
g3669
(g3673
S'\xe3\x00\x00\x00\x00\x00\x00\x00'
p4340
tp4341
Rp4342
sVlouder
p4343
g3669
(g3673
S't\x00\x00\x00\x00\x00\x00\x00'
p4344
tp4345
Rp4346
sVcan
p4347
g3669
(g3673
S'\x1c\x00\x00\x00\x00\x00\x00\x00'
p4348
tp4349
Rp4350
sVbriefing
p4351
g3669
(g3673
S'\x16\x00\x00\x00\x00\x00\x00\x00'
p4352
tp4353
Rp4354
sVproblem
p4355
g3669
(g3673
S'\x99\x00\x00\x00\x00\x00\x00\x00'
p4356
tp4357
Rp4358
sVoutcome
p4359
g3669
(g3673
S'\x90\x00\x00\x00\x00\x00\x00\x00'
p4360
tp4361
Rp4362
sVmy
p4363
g3669
(g3673
S'\x7f\x00\x00\x00\x00\x00\x00\x00'
p4364
tp4365
Rp4366
sVdee
p4367
g3669
(g3673
S'0\x00\x00\x00\x00\x00\x00\x00'
p4368
tp4369
Rp4370
sVbrowser
p4371
g3669
(g3673
S'\x17\x00\x00\x00\x00\x00\x00\x00'
p4372
tp4373
Rp4374
sVcell
p4375
g3669
(g3673
S'\x1e\x00\x00\x00\x00\x00\x00\x00'
p4376
tp4377
Rp4378
sVgive
p4379
g3669
(g3673
S'R\x00\x00\x00\x00\x00\x00\x00'
p4380
tp4381
Rp4382
sVpredict
p4383
g3669
(g3673
S'\x96\x00\x00\x00\x00\x00\x00\x00'
p4384
tp4385
Rp4386
sVlock
p4387
g3669
(g3673
S's\x00\x00\x00\x00\x00\x00\x00'
p4388
tp4389
Rp4390
sVis
p4391
g3669
(g3673
S'j\x00\x00\x00\x00\x00\x00\x00'
p4392
tp4393
Rp4394
sVin
p4395
g3669
(g3673
S'd\x00\x00\x00\x00\x00\x00\x00'
p4396
tp4397
Rp4398
sVam
p4399
g3669
(g3673
S'\x07\x00\x00\x00\x00\x00\x00\x00'
p4400
tp4401
Rp4402
sVfuck
p4403
g3669
(g3673
S'N\x00\x00\x00\x00\x00\x00\x00'
p4404
tp4405
Rp4406
sVan
p4407
g3669
(g3673
S'\x08\x00\x00\x00\x00\x00\x00\x00'
p4408
tp4409
Rp4410
sVbeats
p4411
g3669
(g3673
S'\x12\x00\x00\x00\x00\x00\x00\x00'
p4412
tp4413
Rp4414
sVright
p4415
g3669
(g3673
S'\xa8\x00\x00\x00\x00\x00\x00\x00'
p4416
tp4417
Rp4418
sVhave
p4419
g3669
(g3673
S'\\\x00\x00\x00\x00\x00\x00\x00'
p4420
tp4421
Rp4422
sVstalls
p4423
g3669
(g3673
S'\xbd\x00\x00\x00\x00\x00\x00\x00'
p4424
tp4425
Rp4426
sVcheck
p4427
g3669
(g3673
S'\x1f\x00\x00\x00\x00\x00\x00\x00'
p4428
tp4429
Rp4430
sVif
p4431
g3669
(g3673
S'b\x00\x00\x00\x00\x00\x00\x00'
p4432
tp4433
Rp4434
sVinformation
p4435
g3669
(g3673
S'g\x00\x00\x00\x00\x00\x00\x00'
p4436
tp4437
Rp4438
sVrainy
p4439
g3669
(g3673
S'\xa2\x00\x00\x00\x00\x00\x00\x00'
p4440
tp4441
Rp4442
sVzero
p4443
g3669
(g3673
S'\xeb\x00\x00\x00\x00\x00\x00\x00'
p4444
tp4445
Rp4446
sVmake
p4447
g3669
(g3673
S'w\x00\x00\x00\x00\x00\x00\x00'
p4448
tp4449
Rp4450
sVget
p4451
g3669
(g3673
S'P\x00\x00\x00\x00\x00\x00\x00'
p4452
tp4453
Rp4454
sVwhen
p4455
g3669
(g3673
S'\xe2\x00\x00\x00\x00\x00\x00\x00'
p4456
tp4457
Rp4458
sVfeature
p4459
g3669
(g3673
S'D\x00\x00\x00\x00\x00\x00\x00'
p4460
tp4461
Rp4462
sVsame
p4463
g3669
(g3673
S'\xaa\x00\x00\x00\x00\x00\x00\x00'
p4464
tp4465
Rp4466
sVsaturday
p4467
g3669
(g3673
S'\xab\x00\x00\x00\x00\x00\x00\x00'
p4468
tp4469
Rp4470
sVbeside
p4471
g3669
(g3673
S'\x14\x00\x00\x00\x00\x00\x00\x00'
p4472
tp4473
Rp4474
sVhow
p4475
g3669
(g3673
S'a\x00\x00\x00\x00\x00\x00\x00'
p4476
tp4477
Rp4478
sVhot
p4479
g3669
(g3673
S'`\x00\x00\x00\x00\x00\x00\x00'
p4480
tp4481
Rp4482
sVbefore
p4483
g3669
(g3673
S'\x13\x00\x00\x00\x00\x00\x00\x00'
p4484
tp4485
Rp4486
sVyou
p4487
g3669
(g3673
S'\xe8\x00\x00\x00\x00\x00\x00\x00'
p4488
tp4489
Rp4490
sVdocument
p4491
g3669
(g3673
S'5\x00\x00\x00\x00\x00\x00\x00'
p4492
tp4493
Rp4494
sVevents
p4495
g3669
(g3673
S'@\x00\x00\x00\x00\x00\x00\x00'
p4496
tp4497
Rp4498
sVhigher
p4499
g3669
(g3673
S'_\x00\x00\x00\x00\x00\x00\x00'
p4500
tp4501
Rp4502
sVweek
p4503
g3669
(g3673
S'\xdf\x00\x00\x00\x00\x00\x00\x00'
p4504
tp4505
Rp4506
sVplay
p4507
g3669
(g3673
S'\x92\x00\x00\x00\x00\x00\x00\x00'
p4508
tp4509
Rp4510
sVokay
p4511
g3669
(g3673
S'\x8b\x00\x00\x00\x00\x00\x00\x00'
p4512
tp4513
Rp4514
sVhey
p4515
g3669
(g3673
S'^\x00\x00\x00\x00\x00\x00\x00'
p4516
tp4517
Rp4518
sVmonday
p4519
g3669
(g3673
S'{\x00\x00\x00\x00\x00\x00\x00'
p4520
tp4521
Rp4522
sVany
p4523
g3669
(g3673
S'\n\x00\x00\x00\x00\x00\x00\x00'
p4524
tp4525
Rp4526
sVwatch
p4527
g3669
(g3673
S'\xdb\x00\x00\x00\x00\x00\x00\x00'
p4528
tp4529
Rp4530
sVorg
p4531
g3669
(g3673
S'\x8e\x00\x00\x00\x00\x00\x00\x00'
p4532
tp4533
Rp4534
sVbackbone
p4535
g3669
(g3673
S'\x0f\x00\x00\x00\x00\x00\x00\x00'
p4536
tp4537
Rp4538
sVproblems
p4539
g3669
(g3673
S'\x9a\x00\x00\x00\x00\x00\x00\x00'
p4540
tp4541
Rp4542
sVquieter
p4543
g3669
(g3673
S'\x9f\x00\x00\x00\x00\x00\x00\x00'
p4544
tp4545
Rp4546
sVrain
p4547
g3669
(g3673
S'\xa0\x00\x00\x00\x00\x00\x00\x00'
p4548
tp4549
Rp4550
sVfreezing
p4551
g3669
(g3673
S'L\x00\x00\x00\x00\x00\x00\x00'
p4552
tp4553
Rp4554
sVbyebye
p4555
g3669
(g3673
S'\x1a\x00\x00\x00\x00\x00\x00\x00'
p4556
tp4557
Rp4558
sVtune
p4559
g3669
(g3673
S'\xd3\x00\x00\x00\x00\x00\x00\x00'
p4560
tp4561
Rp4562
sVgrief
p4563
g3669
(g3673
S'Z\x00\x00\x00\x00\x00\x00\x00'
p4564
tp4565
Rp4566
sVlower
p4567
g3669
(g3673
S'u\x00\x00\x00\x00\x00\x00\x00'
p4568
tp4569
Rp4570
sVoff
p4571
g3669
(g3673
S'\x8a\x00\x00\x00\x00\x00\x00\x00'
p4572
tp4573
Rp4574
sVusing
p4575
g3669
(g3673
S'\xd9\x00\x00\x00\x00\x00\x00\x00'
p4576
tp4577
Rp4578
sVread
p4579
g3669
(g3673
S'\xa4\x00\x00\x00\x00\x00\x00\x00'
p4580
tp4581
Rp4582
sVgather
p4583
g3669
(g3673
S'O\x00\x00\x00\x00\x00\x00\x00'
p4584
tp4585
Rp4586
sVtale
p4587
g3669
(g3673
S'\xc3\x00\x00\x00\x00\x00\x00\x00'
p4588
tp4589
Rp4590
sVtime
p4591
g3669
(g3673
S'\xcb\x00\x00\x00\x00\x00\x00\x00'
p4592
tp4593
Rp4594
sVnewsfeed
p4595
g3669
(g3673
S'\x83\x00\x00\x00\x00\x00\x00\x00'
p4596
tp4597
Rp4598
sVthe
p4599
g3669
(g3673
S'\xc6\x00\x00\x00\x00\x00\x00\x00'
p4600
tp4601
Rp4602
sVincrease
p4603
g3669
(g3673
S'f\x00\x00\x00\x00\x00\x00\x00'
p4604
tp4605
Rp4606
sVplaying
p4607
g3669
(g3673
S'\x93\x00\x00\x00\x00\x00\x00\x00'
p4608
tp4609
Rp4610
sVdot
p4611
g3669
(g3673
S'8\x00\x00\x00\x00\x00\x00\x00'
p4612
tp4613
Rp4614
sVlatest
p4615
g3669
(g3673
S'p\x00\x00\x00\x00\x00\x00\x00'
p4616
tp4617
Rp4618
ssS'binary'
p4619
I00
sS'ngram_range'
p4620
(I1
I1
tp4621
sg3643
g3644
sS'max_df'
p4622
F1.0
sS'min_df'
p4623
I1
sS'max_features'
p4624
NsS'fixed_vocabulary_'
p4625
I00
sS'strip_accents'
p4626
NsS'dtype'
p4627
cnumpy
int64
p4628
sS'stop_words_'
p4629
c__builtin__
set
p4630
((lp4631
tp4632
Rp4633
sS'preprocessor'
p4634
Nsbtp4635
a(S'tfidf'
p4636
g3637
(csklearn.feature_extraction.text
TfidfTransformer
p4637
g3639
Ntp4638
Rp4639
(dp4640
S'smooth_idf'
p4641
I01
sg3643
g3644
sS'_idf_diag'
p4642
g3637
(cscipy.sparse.csr
csr_matrix
p4643
g3639
Ntp4644
Rp4645
(dp4646
S'indices'
p4647
cnumpy.core.multiarray
_reconstruct
p4648
(cnumpy
ndarray
p4649
(I0
tp4650
S'b'
p4651
tp4652
Rp4653
(I1
(I236
tp4654
g3670
(S'i4'
p4655
I0
I1
tp4656
Rp4657
(I3
S'<'
p4658
NNNI-1
I-1
I0
tp4659
bI00
S'\x00\x00\x00\x00\x01\x00\x00\x00\x02\x00\x00\x00\x03\x00\x00\x00\x04\x00\x00\x00\x05\x00\x00\x00\x06\x00\x00\x00\x07\x00\x00\x00\x08\x00\x00\x00\t\x00\x00\x00\n\x00\x00\x00\x0b\x00\x00\x00\x0c\x00\x00\x00\r\x00\x00\x00\x0e\x00\x00\x00\x0f\x00\x00\x00\x10\x00\x00\x00\x11\x00\x00\x00\x12\x00\x00\x00\x13\x00\x00\x00\x14\x00\x00\x00\x15\x00\x00\x00\x16\x00\x00\x00\x17\x00\x00\x00\x18\x00\x00\x00\x19\x00\x00\x00\x1a\x00\x00\x00\x1b\x00\x00\x00\x1c\x00\x00\x00\x1d\x00\x00\x00\x1e\x00\x00\x00\x1f\x00\x00\x00 \x00\x00\x00!\x00\x00\x00"\x00\x00\x00#\x00\x00\x00$\x00\x00\x00%\x00\x00\x00&\x00\x00\x00\'\x00\x00\x00(\x00\x00\x00)\x00\x00\x00*\x00\x00\x00+\x00\x00\x00,\x00\x00\x00-\x00\x00\x00.\x00\x00\x00/\x00\x00\x000\x00\x00\x001\x00\x00\x002\x00\x00\x003\x00\x00\x004\x00\x00\x005\x00\x00\x006\x00\x00\x007\x00\x00\x008\x00\x00\x009\x00\x00\x00:\x00\x00\x00;\x00\x00\x00<\x00\x00\x00=\x00\x00\x00>\x00\x00\x00?\x00\x00\x00@\x00\x00\x00A\x00\x00\x00B\x00\x00\x00C\x00\x00\x00D\x00\x00\x00E\x00\x00\x00F\x00\x00\x00G\x00\x00\x00H\x00\x00\x00I\x00\x00\x00J\x00\x00\x00K\x00\x00\x00L\x00\x00\x00M\x00\x00\x00N\x00\x00\x00O\x00\x00\x00P\x00\x00\x00Q\x00\x00\x00R\x00\x00\x00S\x00\x00\x00T\x00\x00\x00U\x00\x00\x00V\x00\x00\x00W\x00\x00\x00X\x00\x00\x00Y\x00\x00\x00Z\x00\x00\x00[\x00\x00\x00\\\x00\x00\x00]\x00\x00\x00^\x00\x00\x00_\x00\x00\x00`\x00\x00\x00a\x00\x00\x00b\x00\x00\x00c\x00\x00\x00d\x00\x00\x00e\x00\x00\x00f\x00\x00\x00g\x00\x00\x00h\x00\x00\x00i\x00\x00\x00j\x00\x00\x00k\x00\x00\x00l\x00\x00\x00m\x00\x00\x00n\x00\x00\x00o\x00\x00\x00p\x00\x00\x00q\x00\x00\x00r\x00\x00\x00s\x00\x00\x00t\x00\x00\x00u\x00\x00\x00v\x00\x00\x00w\x00\x00\x00x\x00\x00\x00y\x00\x00\x00z\x00\x00\x00{\x00\x00\x00|\x00\x00\x00}\x00\x00\x00~\x00\x00\x00\x7f\x00\x00\x00\x80\x00\x00\x00\x81\x00\x00\x00\x82\x00\x00\x00\x83\x00\x00\x00\x84\x00\x00\x00\x85\x00\x00\x00\x86\x00\x00\x00\x87\x00\x00\x00\x88\x00\x00\x00\x89\x00\x00\x00\x8a\x00\x00\x00\x8b\x00\x00\x00\x8c\x00\x00\x00\x8d\x00\x00\x00\x8e\x00\x00\x00\x8f\x00\x00\x00\x90\x00\x00\x00\x91\x00\x00\x00\x92\x00\x00\x00\x93\x00\x00\x00\x94\x00\x00\x00\x95\x00\x00\x00\x96\x00\x00\x00\x97\x00\x00\x00\x98\x00\x00\x00\x99\x00\x00\x00\x9a\x00\x00\x00\x9b\x00\x00\x00\x9c\x00\x00\x00\x9d\x00\x00\x00\x9e\x00\x00\x00\x9f\x00\x00\x00\xa0\x00\x00\x00\xa1\x00\x00\x00\xa2\x00\x00\x00\xa3\x00\x00\x00\xa4\x00\x00\x00\xa5\x00\x00\x00\xa6\x00\x00\x00\xa7\x00\x00\x00\xa8\x00\x00\x00\xa9\x00\x00\x00\xaa\x00\x00\x00\xab\x00\x00\x00\xac\x00\x00\x00\xad\x00\x00\x00\xae\x00\x00\x00\xaf\x00\x00\x00\xb0\x00\x00\x00\xb1\x00\x00\x00\xb2\x00\x00\x00\xb3\x00\x00\x00\xb4\x00\x00\x00\xb5\x00\x00\x00\xb6\x00\x00\x00\xb7\x00\x00\x00\xb8\x00\x00\x00\xb9\x00\x00\x00\xba\x00\x00\x00\xbb\x00\x00\x00\xbc\x00\x00\x00\xbd\x00\x00\x00\xbe\x00\x00\x00\xbf\x00\x00\x00\xc0\x00\x00\x00\xc1\x00\x00\x00\xc2\x00\x00\x00\xc3\x00\x00\x00\xc4\x00\x00\x00\xc5\x00\x00\x00\xc6\x00\x00\x00\xc7\x00\x00\x00\xc8\x00\x00\x00\xc9\x00\x00\x00\xca\x00\x00\x00\xcb\x00\x00\x00\xcc\x00\x00\x00\xcd\x00\x00\x00\xce\x00\x00\x00\xcf\x00\x00\x00\xd0\x00\x00\x00\xd1\x00\x00\x00\xd2\x00\x00\x00\xd3\x00\x00\x00\xd4\x00\x00\x00\xd5\x00\x00\x00\xd6\x00\x00\x00\xd7\x00\x00\x00\xd8\x00\x00\x00\xd9\x00\x00\x00\xda\x00\x00\x00\xdb\x00\x00\x00\xdc\x00\x00\x00\xdd\x00\x00\x00\xde\x00\x00\x00\xdf\x00\x00\x00\xe0\x00\x00\x00\xe1\x00\x00\x00\xe2\x00\x00\x00\xe3\x00\x00\x00\xe4\x00\x00\x00\xe5\x00\x00\x00\xe6\x00\x00\x00\xe7\x00\x00\x00\xe8\x00\x00\x00\xe9\x00\x00\x00\xea\x00\x00\x00\xeb\x00\x00\x00'
p4660
tp4661
bsS'indptr'
p4662
g4648
(g4649
(I0
tp4663
g4651
tp4664
Rp4665
(I1
(I237
tp4666
g4657
I00
S'\x00\x00\x00\x00\x01\x00\x00\x00\x02\x00\x00\x00\x03\x00\x00\x00\x04\x00\x00\x00\x05\x00\x00\x00\x06\x00\x00\x00\x07\x00\x00\x00\x08\x00\x00\x00\t\x00\x00\x00\n\x00\x00\x00\x0b\x00\x00\x00\x0c\x00\x00\x00\r\x00\x00\x00\x0e\x00\x00\x00\x0f\x00\x00\x00\x10\x00\x00\x00\x11\x00\x00\x00\x12\x00\x00\x00\x13\x00\x00\x00\x14\x00\x00\x00\x15\x00\x00\x00\x16\x00\x00\x00\x17\x00\x00\x00\x18\x00\x00\x00\x19\x00\x00\x00\x1a\x00\x00\x00\x1b\x00\x00\x00\x1c\x00\x00\x00\x1d\x00\x00\x00\x1e\x00\x00\x00\x1f\x00\x00\x00 \x00\x00\x00!\x00\x00\x00"\x00\x00\x00#\x00\x00\x00$\x00\x00\x00%\x00\x00\x00&\x00\x00\x00\'\x00\x00\x00(\x00\x00\x00)\x00\x00\x00*\x00\x00\x00+\x00\x00\x00,\x00\x00\x00-\x00\x00\x00.\x00\x00\x00/\x00\x00\x000\x00\x00\x001\x00\x00\x002\x00\x00\x003\x00\x00\x004\x00\x00\x005\x00\x00\x006\x00\x00\x007\x00\x00\x008\x00\x00\x009\x00\x00\x00:\x00\x00\x00;\x00\x00\x00<\x00\x00\x00=\x00\x00\x00>\x00\x00\x00?\x00\x00\x00@\x00\x00\x00A\x00\x00\x00B\x00\x00\x00C\x00\x00\x00D\x00\x00\x00E\x00\x00\x00F\x00\x00\x00G\x00\x00\x00H\x00\x00\x00I\x00\x00\x00J\x00\x00\x00K\x00\x00\x00L\x00\x00\x00M\x00\x00\x00N\x00\x00\x00O\x00\x00\x00P\x00\x00\x00Q\x00\x00\x00R\x00\x00\x00S\x00\x00\x00T\x00\x00\x00U\x00\x00\x00V\x00\x00\x00W\x00\x00\x00X\x00\x00\x00Y\x00\x00\x00Z\x00\x00\x00[\x00\x00\x00\\\x00\x00\x00]\x00\x00\x00^\x00\x00\x00_\x00\x00\x00`\x00\x00\x00a\x00\x00\x00b\x00\x00\x00c\x00\x00\x00d\x00\x00\x00e\x00\x00\x00f\x00\x00\x00g\x00\x00\x00h\x00\x00\x00i\x00\x00\x00j\x00\x00\x00k\x00\x00\x00l\x00\x00\x00m\x00\x00\x00n\x00\x00\x00o\x00\x00\x00p\x00\x00\x00q\x00\x00\x00r\x00\x00\x00s\x00\x00\x00t\x00\x00\x00u\x00\x00\x00v\x00\x00\x00w\x00\x00\x00x\x00\x00\x00y\x00\x00\x00z\x00\x00\x00{\x00\x00\x00|\x00\x00\x00}\x00\x00\x00~\x00\x00\x00\x7f\x00\x00\x00\x80\x00\x00\x00\x81\x00\x00\x00\x82\x00\x00\x00\x83\x00\x00\x00\x84\x00\x00\x00\x85\x00\x00\x00\x86\x00\x00\x00\x87\x00\x00\x00\x88\x00\x00\x00\x89\x00\x00\x00\x8a\x00\x00\x00\x8b\x00\x00\x00\x8c\x00\x00\x00\x8d\x00\x00\x00\x8e\x00\x00\x00\x8f\x00\x00\x00\x90\x00\x00\x00\x91\x00\x00\x00\x92\x00\x00\x00\x93\x00\x00\x00\x94\x00\x00\x00\x95\x00\x00\x00\x96\x00\x00\x00\x97\x00\x00\x00\x98\x00\x00\x00\x99\x00\x00\x00\x9a\x00\x00\x00\x9b\x00\x00\x00\x9c\x00\x00\x00\x9d\x00\x00\x00\x9e\x00\x00\x00\x9f\x00\x00\x00\xa0\x00\x00\x00\xa1\x00\x00\x00\xa2\x00\x00\x00\xa3\x00\x00\x00\xa4\x00\x00\x00\xa5\x00\x00\x00\xa6\x00\x00\x00\xa7\x00\x00\x00\xa8\x00\x00\x00\xa9\x00\x00\x00\xaa\x00\x00\x00\xab\x00\x00\x00\xac\x00\x00\x00\xad\x00\x00\x00\xae\x00\x00\x00\xaf\x00\x00\x00\xb0\x00\x00\x00\xb1\x00\x00\x00\xb2\x00\x00\x00\xb3\x00\x00\x00\xb4\x00\x00\x00\xb5\x00\x00\x00\xb6\x00\x00\x00\xb7\x00\x00\x00\xb8\x00\x00\x00\xb9\x00\x00\x00\xba\x00\x00\x00\xbb\x00\x00\x00\xbc\x00\x00\x00\xbd\x00\x00\x00\xbe\x00\x00\x00\xbf\x00\x00\x00\xc0\x00\x00\x00\xc1\x00\x00\x00\xc2\x00\x00\x00\xc3\x00\x00\x00\xc4\x00\x00\x00\xc5\x00\x00\x00\xc6\x00\x00\x00\xc7\x00\x00\x00\xc8\x00\x00\x00\xc9\x00\x00\x00\xca\x00\x00\x00\xcb\x00\x00\x00\xcc\x00\x00\x00\xcd\x00\x00\x00\xce\x00\x00\x00\xcf\x00\x00\x00\xd0\x00\x00\x00\xd1\x00\x00\x00\xd2\x00\x00\x00\xd3\x00\x00\x00\xd4\x00\x00\x00\xd5\x00\x00\x00\xd6\x00\x00\x00\xd7\x00\x00\x00\xd8\x00\x00\x00\xd9\x00\x00\x00\xda\x00\x00\x00\xdb\x00\x00\x00\xdc\x00\x00\x00\xdd\x00\x00\x00\xde\x00\x00\x00\xdf\x00\x00\x00\xe0\x00\x00\x00\xe1\x00\x00\x00\xe2\x00\x00\x00\xe3\x00\x00\x00\xe4\x00\x00\x00\xe5\x00\x00\x00\xe6\x00\x00\x00\xe7\x00\x00\x00\xe8\x00\x00\x00\xe9\x00\x00\x00\xea\x00\x00\x00\xeb\x00\x00\x00\xec\x00\x00\x00'
p4667
tp4668
bsS'maxprint'
p4669
I50
sS'_shape'
p4670
(I236
I236
tp4671
sg12
g4648
(g4649
(I0
tp4672
g4651
tp4673
Rp4674
(I1
(I236
tp4675
g3670
(S'f8'
p4676
I0
I1
tp4677
Rp4678
(I3
S'<'
p4679
NNNI-1
I-1
I0
tp4680
bI00
S"sX\xbd\x16\xe4;\x1f@\xa2\xfb\xf5Y\xa1,\x17@\xd2;\x7f\xff\x17\x90\x13@\x1c\t\x10\xcb\x0f9\x1a@6\x11\xde\xb6\x1bv\x1c@\x0b\x04\xdd\x9a:j\x18@sX\xbd\x16\xe4;\x1f@\x04\nTREE\x14@\xdd\xfe\xba\x13\xc9t\x13@sX\xbd\x16\xe4;\x1f@m\x1f$yzz\x10@\xde\xbc\x91\xb0\x02\xc5\x0b@\x90u\x1e\xdb\xa9\xde\x12@\xba\x82\x1f\xf7\x8a\xea\x16@\x1c\t\x10\xcb\x0f9\x1a@sX\xbd\x16\xe4;\x1f@\xef^\xf1\xd7\xb1\x9c\x1d@'\xf5\xc1\x98\xd3\xcb\x18@sX\xbd\x16\xe4;\x1f@\xef^\xf1\xd7\xb1\x9c\x1d@\xef^\xf1\xd7\xb1\x9c\x1d@sX\xbd\x16\xe4;\x1f@sX\xbd\x16\xe4;\x1f@\xa2\xa0\xb5\x10\x90\x89\x14@6\x11\xde\xb6\x1bv\x1c@\xb1\x17\x12x\xe9\xd6\x1a@sX\xbd\x16\xe4;\x1f@\xac\xb0\xba\xd7d\xa1\x0e@\xa5\x90\xcd/\xb2\x11\x0b@sX\xbd\x16\xe4;\x1f@sX\xbd\x16\xe4;\x1f@J\xed\xc9J\xe0\xc3\x06@sX\xbd\x16\xe4;\x1f@\xf6\x84\x08\xd9\xf2\x11\x11@\xcd\xbc\xfd:r\xa4\x15@,\x1eF9\xb77\x19@,\x1eF9\xb77\x19@d<\xa1\xf8\x9b\x91\x1b@sX\xbd\x16\xe4;\x1f@b3r\xab\xb6\xe7\x11@\xa2sk[\xde\x01\x10@\xd2;\x7f\xff\x17\x90\x13@\x90VH\x7fUU\x0f@\xef^\xf1\xd7\xb1\x9c\x1d@\xb6\x18\xc05\xae\xe6\x13@sX\xbd\x16\xe4;\x1f@sX\xbd\x16\xe4;\x1f@\xef^\xf1\xd7\xb1\x9c\x1d@\xef^\xf1\xd7\xb1\x9c\x1d@\x0b\x04\xdd\x9a:j\x18@sX\xbd\x16\xe4;\x1f@sX\xbd\x16\xe4;\x1f@\xda\xf4\x1c\x95\x9a\xdf\x07@sX\xbd\x16\xe4;\x1f@sX\xbd\x16\xe4;\x1f@>)\x0bu\x8b\x89\x0c@\xa2\xfb\xf5Y\xa1,\x17@\xd2;\x7f\xff\x17\x90\x13@\xef^\xf1\xd7\xb1\x9c\x1d@sX\xbd\x16\xe4;\x1f@\xef^\xf1\xd7\xb1\x9c\x1d@\xef^\xf1\xd7\xb1\x9c\x1d@sX\xbd\x16\xe4;\x1f@\xaazt%\xff2\x0c@\xf8\xbfl\xfc^*\x0b@d<\xa1\xf8\x9b\x91\x1b@sX\xbd\x16\xe4;\x1f@sX\xbd\x16\xe4;\x1f@sX\xbd\x16\xe4;\x1f@sX\xbd\x16\xe4;\x1f@Y\xc8d,\x15\xd4\x15@\x89\xd9\x03a*\xbf\x17@,\x1eF9\xb77\x19@\xdb\x9d\xb8\xb5W\x8e\x0e@Y\xc8d,\x15\xd4\x15@\x04\nTREE\x14@,\x1eF9\xb77\x19@d\xb4\x16\xfa\xd8f\x14@sX\xbd\x16\xe4;\x1f@6\x11\xde\xb6\x1bv\x1c@\xf5]\xec9\xfc\xd8\r@sX\xbd\x16\xe4;\x1f@'\xf5\xc1\x98\xd3\xcb\x18@ \xf6\xa7\xc1:V\x0e@\x18\xd9\xa5z\x8b!\x15@d<\xa1\xf8\x9b\x91\x1b@6\x11\xde\xb6\x1bv\x1c@\rKE\xa1\x993\x12@sX\xbd\x16\xe4;\x1f@\xef^\xf1\xd7\xb1\x9c\x1d@sX\xbd\x16\xe4;\x1f@\xef^\xf1\xd7\xb1\x9c\x1d@V\xa4\t\xba\xa8\xaa\t@\xee\xd6f\xd9\xeeq\x16@\xef^\xf1\xd7\xb1\x9c\x1d@\xf8\xc9\xfeVS\xb0\x19@,\x1eF9\xb77\x19@\x89\xd9\x03a*\xbf\x17@\x86r\x83\x1fsp\x12@sX\xbd\x16\xe4;\x1f@\xc3\xe0\xf8\xa7p\xd2\x0b@0\xbb9\xe9\xc7T\x10@sX\xbd\x16\xe4;\x1f@d<\xa1\xf8\x9b\x91\x1b@6\x11\xde\xb6\x1bv\x1c@sX\xbd\x16\xe4;\x1f@\x01N\x1b\x1a'\x83\x0b@d<\xa1\xf8\x9b\x91\x1b@sX\xbd\x16\xe4;\x1f@ \xf6\xa7\xc1:V\x0e@K\x92$\x01b\xf9\x14@\x89\xd9\x03a*\xbf\x17@\xb1\x17\x12x\xe9\xd6\x1a@sX\xbd\x16\xe4;\x1f@\x04\nTREE\x14@K\x92$\x01b\xf9\x14@\xb1\x17\x12x\xe9\xd6\x1a@\x1c\t\x10\xcb\x0f9\x1a@H\xd8%\x97\xdcC\x0e@V'\xd4^\x1f\x9b\x12@sX\xbd\x16\xe4;\x1f@\\\x81\x8bB\x18 \x12@sX\xbd\x16\xe4;\x1f@d\xb4\x16\xfa\xd8f\x14@d\xb4\x16\xfa\xd8f\x14@\xef^\xf1\xd7\xb1\x9c\x1d@d<\xa1\xf8\x9b\x91\x1b@{\xcc\xb3\xab\xd2m\t@\xef^\xf1\xd7\xb1\x9c\x1d@Z6\xa7WG\xd5\n@\xcbozC>\xd8\x10@\xe9\xad\xe28\x0b\x06\x16@\xd2;\x7f\xff\x17\x90\x13@\xef^\xf1\xd7\xb1\x9c\x1d@sX\xbd\x16\xe4;\x1f@\x0b|R\x9cw?\x11@\xf4_\x9f\x95v\xac\x16@\xef^\xf1\xd7\xb1\x9c\x1d@\xc6\x98X\xc2/Z\x13@\xef^\xf1\xd7\xb1\x9c\x1d@2\xcc\xc2\xbf}}\x06@\x0c\x05\r\xbb\x8a@\x0f@\xef^\xf1\xd7\xb1\x9c\x1d@sX\xbd\x16\xe4;\x1f@sX\xbd\x16\xe4;\x1f@\xf4_\x9f\x95v\xac\x16@\xde\xc10kGs\x17@\xef^\xf1\xd7\xb1\x9c\x1d@&\xb5+B\xa95\x00@\xef^\xf1\xd7\xb1\x9c\x1d@\xef^\xf1\xd7\xb1\x9c\x1d@sX\xbd\x16\xe4;\x1f@\x1c\t\x10\xcb\x0f9\x1a@sX\xbd\x16\xe4;\x1f@sX\xbd\x16\xe4;\x1f@d<\xa1\xf8\x9b\x91\x1b@d<\xa1\xf8\x9b\x91\x1b@sX\xbd\x16\xe4;\x1f@\xef^\xf1\xd7\xb1\x9c\x1d@sX\xbd\x16\xe4;\x1f@\xef^\xf1\xd7\xb1\x9c\x1d@,\x1eF9\xb77\x19@,\x1eF9\xb77\x19@\x0b\x04\xdd\x9a:j\x18@|~\xd4\x17%\xb1\x12@sX\xbd\x16\xe4;\x1f@sX\xbd\x16\xe4;\x1f@\xa0zQ\x0b\x7f\xad\x14@\x89\xd9\x03a*\xbf\x17@sX\xbd\x16\xe4;\x1f@sX\xbd\x16\xe4;\x1f@d\xb4\x16\xfa\xd8f\x14@\xd2;\x7f\xff\x17\x90\x13@\xa2\xfb\xf5Y\xa1,\x17@\xcd\xbc\xfd:r\xa4\x15@6\x11\xde\xb6\x1bv\x1c@\xb1\x17\x12x\xe9\xd6\x1a@6\x11\xde\xb6\x1bv\x1c@sX\xbd\x16\xe4;\x1f@\xd2;\x7f\xff\x17\x90\x13@\xf4_\x9f\x95v\xac\x16@sX\xbd\x16\xe4;\x1f@\xb1\x17\x12x\xe9\xd6\x1a@\xef^\xf1\xd7\xb1\x9c\x1d@,\x1eF9\xb77\x19@\xef^\xf1\xd7\xb1\x9c\x1d@\xb0\x8f\x87y&\xac\x13@Y\xc8d,\x15\xd4\x15@b3r\xab\xb6\xe7\x11@sX\xbd\x16\xe4;\x1f@K\x92$\x01b\xf9\x14@sX\xbd\x16\xe4;\x1f@s\xd02\x18!\x11\x18@d\xb4\x16\xfa\xd8f\x14@\xef^\xf1\xd7\xb1\x9c\x1d@sX\xbd\x16\xe4;\x1f@s\xd02\x18!\x11\x18@Y\xc8d,\x15\xd4\x15@&\xb7{\xfb\xb2g\x05@<v\x08\xe3\x19O\x11@sX\xbd\x16\xe4;\x1f@H\xd8%\x97\xdcC\x0e@d\xb4\x16\xfa\xd8f\x14@\xf5]\xec9\xfc\xd8\r@\x86c\xb0\x01\xf1\x16\x0c@\xac\xb0\xba\xd7d\xa1\x0e@d<\xa1\xf8\x9b\x91\x1b@|;@\x97\xc2$\x14@sX\xbd\x16\xe4;\x1f@sX\xbd\x16\xe4;\x1f@d\xb4\x16\xfa\xd8f\x14@\x1c\t\x10\xcb\x0f9\x1a@\xef^\xf1\xd7\xb1\x9c\x1d@\x1c\t\x10\xcb\x0f9\x1a@\x95\xf4\x9f\x9fO\xca\x10@d<\xa1\xf8\x9b\x91\x1b@\xdd\xfe\xba\x13\xc9t\x13@sX\xbd\x16\xe4;\x1f@K\x92$\x01b\xf9\x14@\x1bF\x9as\x91:\x16@sX\xbd\x16\xe4;\x1f@Y\xc8d,\x15\xd4\x15@d\xb4\x16\xfa\xd8f\x14@0\xbb9\xe9\xc7T\x10@\xac>\x93\xc0\xb8\xe0\x06@\xef^\xf1\xd7\xb1\x9c\x1d@\x1c\t\x10\xcb\x0f9\x1a@\xbe\xa0\xe1\x1c*\xfa\x11@\x1b\x81\x85\xccL\x0e\x13@\xef^\xf1\xd7\xb1\x9c\x1d@\xa9)\x92k4\xf6\x12@\xef^\xf1\xd7\xb1\x9c\x1d@\xa2\x8c\x8c\xfa(,\x05@\x1bF\x9as\x91:\x16@d<\xa1\xf8\x9b\x91\x1b@d<\xa1\xf8\x9b\x91\x1b@"
p4681
tp4682
bsbsS'use_idf'
p4683
I01
sS'sublinear_tf'
p4684
I00
sS'norm'
p4685
Vl2
p4686
sbtp4687
a(S'clsfr'
p4688
g3637
(csklearn.linear_model.stochastic_gradient
SGDClassifier
p4689
g3639
Ntp4690
Rp4691
(dp4692
S't_'
p4693
F9051.0
sS'n_jobs'
p4694
I1
sS'shuffle'
p4695
I01
sS'verbose'
p4696
I0
sS'classes_'
p4697
g4648
(g4649
(I0
tp4698
g4651
tp4699
Rp4700
(I1
(I2
tp4701
g3670
(S'S5'
p4702
I0
I1
tp4703
Rp4704
(I3
S'|'
p4705
NNNI5
I1
I0
tp4706
bI00
S'FalseTrue\x00'
p4707
tp4708
bsS'class_weight'
p4709
NsS'fit_intercept'
p4710
I01
sg8
g9
sS'random_state'
p4711
I42
sg3643
g3644
sS'loss_function'
p4712
csklearn.linear_model.sgd_fast
Hinge
p4713
(F1.0
tp4714
Rp4715
sS'C'
p4716
F1.0
sg7
I5
sS'epsilon'
p4717
F0.1
sS'learning_rate'
p4718
S'optimal'
p4719
sS'coef_'
p4720
g4648
(g4649
(I0
tp4721
g4651
tp4722
Rp4723
(I1
(I1
I236
tp4724
g4678
I00
S'\x00\x00\x00\x00\x00\x00\x00\x00\xafhz\xb4\xf9\xbd\x02\xc0\xf7\nq-\xbd1\x0e\xc03\xcc\x1f\x0e\xce\x93\xf8\xbf{\x1dTe\xeb\xab\x0e\xc0\x05$\xf8\x06\x04\xe2\xf6\xbf\xacM\x88\xba\x07\xc1\xed\xbf<\x8d%\xc0\xd8\xa4\x08\xc0\x00\x00\x00\x00\x00\x00\x00\x00\x00\x00\x00\x00\x00\x00\x00\x00\x16\t\xff}\x07E\x01\xc0\x1av\xfc\xc8\x18A\xfe\xbf\x00\x00\x00\x00\x00\x00\x00\x00\x00\x00\x00\x00\x00\x00\x00\x00\x00\x00\x00\x00\x00\x00\x00\x00\x00\x00\x00\x00\x00\x00\x00\x00\x00\x00\x00\x00\x00\x00\x00\x00\x00\x00\x00\x00\x00\x00\x00\x00\x00\x00\x00\x00\x00\x00\x00\x00\x00\x00\x00\x00\x00\x00\x00\x00%:e\x1b\xa3\xd7\xd4\xbf\x01#ool\x1a\xe3\xbf\x00\x00\x00\x00\x00\x00\x00\x00\x00\x00\x00\x00\x00\x00\x00\x00\x00\x00\x00\x00\x00\x00\x00\x00\x02\xef\xcaM\\\x8a\x00\xc0\x94Z\xaa(\xff\x89\r\xc0\xaa\x98\x9c\xef=\xef\xf0\xbf\xf4\xb0\xfb\xa08\xed\x03\xc0\x00\x00\x00\x00\x00\x00\x00\x00\x00\x00\x00\x00\x00\x00\x00\x00\xd8&\xea\xfe2b\xf4?\x00\x00\x00\x00\x00\x00\x00\x00&\x1e\xdd7:\xda\x00@\x00\x00\x00\x00\x00\x00\x00\x00\x9e\x99\x9c\xbe\x87\xfb\xc3\xbf\x00\x00\x00\x00\x00\x00\x00\x00\x00\x00\x00\x00\x00\x00\x00\x00\x00\x00\x00\x00\x00\x00\x00\x00\x00\x00\x00\x00\x00\x00\x00\x00\x00\x00\x00\x00\x00\x00\x00\x00\x00\x00\x00\x00\x00\x00\x00\x00Z\x99S\x16\x8aX\xe4\xbf\x95\xe2\x002\xa2r\xe5?M\xe0\xc2\tg%\n\xc0a\xf5+\x0c\xb3\x12\xe4\xbf\x81\x05\x01\x02\xdf\xfb\xd5\xbf\x00\x00\x00\x00\x00\x00\x00\x00\x00\x00\x00\x00\x00\x00\x00\x00\x00\x00\x00\x00\x00\x00\x00\x00\x00\x00\x00\x00\x00\x00\x00\x00\x00\x00\x00\x00\x00\x00\x00\x00\xee{\x88\xc3\xfc\xfd\x15\xc0\x00\x00\x00\x00\x00\x00\x00\x00\xc1\xe8mf\xac\xbb\t\xc0p V\xe6\'7\x1e\xc0\x00\x00\x00\x00\x00\x00\x00\x00\xc0\xa7pY8\x1e\xfe\xbf\x00\x00\x00\x00\x00\x00\x00\x00\x00\x00\x00\x00\x00\x00\x00\x00\x00\x00\x00\x00\x00\x00\x00\x00\x00\x00\x00\x00\x00\x00\x00\x00\xbf\xf2\xfe\xa2\x93\xde\x03\xc0\xb4\x1c\xa6\xeb\x13\xc3\x05\xc0\x8f\x86!6\x83\xf4\x0c\xc0\x00\x00\x00\x00\x00\x00\x00\x00\xacM\x88\xba\x07\xc1\xed\xbf\x00\x00\x00\x00\x00\x00\x00\x00\xacM\x88\xba\x07\xc1\xed\xbf\xacM\x88\xba\x07\xc1\xed\xbf\r\xd5\xa7:b\xfc\x06\xc0\x00\x00\x00\x00\x00\x00\x00\x00\x00\x00\x00\x00\x00\x00\x00\x00\x0c" h\x81\x12\x04\xc0\x19\x96\xbe\x01\xab\x1e\xf0\xbf<\x8d%\xc0\xd8\xa4\x08\xc0g\x9c\xf1\xa3\x9c\xd8\x08\xc0\x00\x00\x00\x00\x00\x00\x00\x00\x00\x00\x00\x00\x00\x00\x00\x00\x00\x00\x00\x00\x00\x00\x00\x00\x8fzY\x87/\x88\xf3?\x00\x00\x00\x00\x00\x00\x00\x00x\xbd\x8e@;H\x04\xc0\x9e;\xf3K \xcb\xff\xbf\xb1of\n\x16\xce\xf3\xbf\x00\x00\x00\x00\x00\x00\x00\x00\xe2Q\xae(<\x8a\x01\xc0\r#\xbcb\xb0\xbb\xd6\xbf\x81\x05\x01\x02\xdf\xfb\xd5\xbf\x00\x00\x00\x00\x00\x00\x00\x00\x00\x00\x00\x00\x00\x00\x00\x00\x00\x00\x00\x00\x00\x00\x00\x00\x18\xb1\xa0i\x93\xf6\xfb\xbf|\xc5\n\xa0\xbbX\xf5\xbf\x00\x00\x00\x00\x00\x00\x00\x00\x00\x00\x00\x00\x00\x00\x00\x00\xe0\xf3\xc0\xd1@"\xd1\xbf\x80<\xa3zI\x12\xf0\xbf\xdc%o\xc9\xe8*\x02\xc0\x00\x00\x00\x00\x00\x00\x00\x00\x00\x00\x00\x00\x00\x00\x00\x00w\x8dT\xe3\xb9\xa3\x0c\xc085\\S\xad\x8b\x03\xc0$\x88\xf2\xd2>\xc2\xf1\xbf\x00\x00\x00\x00\x00\x00\x00\x00\x00\x00\x00\x00\x00\x00\x00\x00a\xb7\xbe*\x80\xf9\x03@\x7f\x91<\xeb\x01?\x02\xc0\x00\x00\x00\x00\x00\x00\x00\x00`s\r\xc7\xa0d\xd1?\x99\xcd\xb4\xe8s\xf6\x00\xc0)\xea\xb9\x1f\x02$\x00\xc0G\xb3\xb1E\xc9z\xe2\xbf\xc1\xe8mf\xac\xbb\t\xc0A\x8b\x9c\x98\xa6\xad\xfc\xbf*R\x14]\x1a\x16\x0c\xc0\xba]\xd4\x9f\x84g\x06\xc0\x89b\x15S6\xaa\xe0\xbfj\xbf\xe5\x86\xfb\x0f\xfe\xbf9\xaeWg\xfb\xb6\xe4\xbf\x00\x00\x00\x00\x00\x00\x00\x00\x8cToO\x05\xec\xaf?\x00\x00\x00\x00\x00\x00\x00\x00\x00\x00\x00\x00\x00\x00\x00\x00\x00\x00\x00\x00\x00\x00\x00\x00\x1b\xcf(\xb6o\xcb\x06\xc0\x00\x00\x00\x00\x00\x00\x00\x00\xac\xeb\x18\x87\xdaj\xf3\xbf\x00\x00\x00\x00\x00\x00\x00\x00\x95\xad\n\x1b1\xb5\x04\xc0%\x95X\xfa\xe4\xbc\x01\xc0_\xf0\xe2L\x90(\xff\xbf\x00\x00\x00\x00\x00\x00\x00\x00\x00\x00\x00\x00\x00\x00\x00\x00\x00\x00\x00\x00\x00\x00\x00\x00\xec\x88\x94\xf5\x86$\x0e\xc0\x95\xe0\x1e\x8eSG\xdd?\x00\x00\x00\x00\x00\x00\x00\x00Z\xeeT\xc5{\xae\r\xc0\x00\x00\x00\x00\x00\x00\x00\x00\x92\x9e\xc3}\'\xec\t\xc0f\xc3\x9f\xa9+g\x0b\xc0\x00\x00\x00\x00\x00\x00\x00\x00\x00\x00\x00\x00\x00\x00\x00\x00\x00\x00\x00\x00\x00\x00\x00\x00\x00\x00\x00\x00\x00\x00\x00\x00\x00\x00\x00\x00\x00\x00\x00\x00\x00\x00\x00\x00\x00\x00\x00\x00\x17n :K\xcc\xd3?\x00\x00\x00\x00\x00\x00\x00\x00\x00\x00\x00\x00\x00\x00\x00\x00\xc6`\x9as\xe9\xeb\xd8\xbf\x00\x00\x00\x00\x00\x00\x00\x00\x81\x05\x01\x02\xdf\xfb\xd5\xbf\x00\x00\x00\x00\x00\x00\x00\x00\x00\x00\x00\x00\x00\x00\x00\x00\x00\x00\x00\x00\x00\x00\x00\x00\x00\x00\x00\x00\x00\x00\x00\x00\x00\x00\x00\x00\x00\x00\x00\x00\x00\x00\x00\x00\x00\x00\x00\x00\x00\x00\x00\x00\x00\x00\x00\x00\x00\x00\x00\x00\x00\x00\x00\x00q:\x9c\x12\xc5{\xb9\xbf\xd5\x8b\xeb\xae\xa3\xb5\t\xc0\xf0\x16\x05\xcb\xce\x93\xf6?\x00\x00\x00\x00\x00\x00\x00\x00\x00\x00\x00\x00\x00\x00\x00\x00v\xfc\xe9\xfaN\xfc\xe3?\xf9\xc8%w\xc3F\xe7?\x00\x00\x00\x00\x00\x00\x00\x00\xacM\x88\xba\x07\xc1\xed\xbf\x00\x00\x00\x00\x00\x00\x00\x00\x00\x00\x00\x00\x00\x00\x00\x00;H\xcd\xfcW\x08\x0f\xc0\xf6\x05\xbf\xa0\xd3*\xdc\xbf\x00\x00\x00\x00\x00\x00\x00\x00\x00\x00\x00\x00\x00\x00\x00\x00\x00\x00\x00\x00\x00\x00\x00\x00\x81\x05\x01\x02\xdf\xfb\xd5\xbf\xe6\xda\x02\xe3)\x01\x0e\xc0S\xec\xbeG\x01\xd9\xfc\xbf\x00\x00\x00\x00\x00\x00\x00\x00\x00\x00\x00\x00\x00\x00\x00\x00\x00\x00\x00\x00\x00\x00\x00\x00--\x92yZ\xa7\xbf\xbf7W\xbdw\xf3{\xf0\xbfn\x9b\xa5Y}%\t\xc0\xact+\xc7qM\xe8\xbf\x01\xa1Ws\x19W\xf8\xbf\x00\x00\x00\x00\x00\x00\x00\x00\x00\x00\x00\x00\x00\x00\x00\x00\x00\x00\x00\x00\x00\x00\x00\x00\x83P$8\x80\xc3\x0e\xc0\x00\x00\x00\x00\x00\x00\x00\x00\x00\x00\x00\x00\x00\x00\x00\x00\xc6`\x9as\xe9\xeb\xd8\xbf\x9b,\x00\xc7"5\xed\xbf\xbeih\xad\\\xcb\x0b\xc0\xd0\xf1\xe2\x0eA\x0b\xf9?\x00\x00\x00\x00\x00\x00\x00\x00\x00\x00\x00\x00\x00\x00\x00\x00\xbfd\xe81\x94\xe1\x03\xc0\x00\x00\x00\x00\x00\x00\x00\x00)J\x9fD!\xce\t@e\xac\'\xcd[\x9a\xfe\xbf\xf7j\x8fL\xb3;\x02\xc0\x00\x00\x00\x00\x00\x00\x00\x00\x16\x0f\xd0gR}\x08\xc0\x00\x00\x00\x00\x00\x00\x00\x00\x00\x00\x00\x00\x00\x00\x00\x00\x00\x00\x00\x00\x00\x00\x00\x00\x8dc\x99<\tc\xff\xbf\xd3\x9d\x91\x00\x8b\xdd\xdc\xbfS\xa9_\xd6\x8b\x12\xbf\xbfF\xb5gJ\xc2\x18\xf4\xbfU\xdd)\xa1\x0c\x17\x08\xc0\xcd\xaaPP\xa1I\xf7\xbf\xacM\x88\xba\x07\xc1\xed\xbf\xb0s\xec\xb5\x1d@\xfa\xbf\xa1y*\xc2\xd6\x9d\xf6?\x00\x00\x00\x00\x00\x00\x00\x00\x97\x87\x8b\x84B\xfb\xf2\xbf\xa98\xd1\xdc*:\x06\xc0\x00\x00\x00\x00\x00\x00\x00\x00DR\x08\xb2D\x98\xf9\xbf\x00\x00\x00\x00\x00\x00\x00\x00i\x01\x9d\xe2\x16#\xf8?\x00\x00\x00\x00\x00\x00\x00\x00\x04A\xa2\xe7\x95\xd2\xfe\xbf\x00\x00\x00\x00\x00\x00\x00\x00\x00\x00\x00\x00\x00\x00\x00\x00\x00\x00\x00\x00\x00\x00\x00\x00\x83\x9e\x1c.\xfc+\xff\xbf\xa1y*\xc2\xd6\x9d\xf6?\x00\x00\x00\x00\x00\x00\x00\x00\x00\x00\x00\x00\x00\x00\x00\x00'
p4725
tp4726
bsg11
F0.001
sS'intercept_'
p4727
g4648
(g4649
(I0
tp4728
g4651
tp4729
Rp4730
(I1
(I1
tp4731
g4678
I00
S'\xce\xc4\x81*\xce&\xf2\xbf'
p4732
tp4733
bsS'_expanded_class_weight'
p4734
g4648
(g4649
(I0
tp4735
g4651
tp4736
Rp4737
(I1
(I2
tp4738
g4678
I00
S'\x00\x00\x00\x00\x00\x00\xf0?\x00\x00\x00\x00\x00\x00\xf0?'
p4739
tp4740
bsS'warm_start'
p4741
I00
sg2
g3
sS'eta0'
p4742
F0.0
sS'l1_ratio'
p4743
F0.15
sS'average'
p4744
I00
sS'power_t'
p4745
F0.5
sbtp4746
asbsb.