(ialicized_models
CommandMatchingModel
p0
(dp1
S'loss'
p2
S'perceptron'
p3
sS'grammar'
p4
NsS'name'
p5
S'GET_NEWS.model'
p6
sS'n_iter'
p7
I5
sS'penalty'
p8
S'none'
p9
sS'trained'
p10
I01
sS'alpha'
p11
F0.001
sS'data'
p12
(lp13
(S'can you send me to the lock screen'
p14
S'False'
p15
tp16
a(S"what's the weather today"
p17
g15
tp18
a(S'make the sound louder'
p19
g15
tp20
a(S"not today's live news"
p21
g15
tp22
a(S'a releasing moderate stalls beside the material cell'
p23
g15
tp24
a(S'any events on thursday'
p25
g15
tp26
a(S"don't i have to do anything on thursday"
p27
g15
tp28
a(S'close the active window'
p29
g15
tp30
a(S'get current temperature'
p31
g15
tp32
a(S"don't i have any events on sunday"
p33
g15
tp34
a(S"if it's rainy today"
p35
g15
tp36
a(S"what's if it's raining today"
p37
g15
tp38
a(S'kill this window'
p39
g15
tp40
a(S'turn yourself off'
p41
g15
tp42
a(S"what's if it's cold this week"
p43
g15
tp44
a(S'is it cloudy this week'
p45
g15
tp46
a(S'any gmail'
p47
g15
tp48
a(S'turn it down'
p49
g15
tp50
a(S"don't tell me news feed"
p51
g15
tp52
a(S"what's weather"
p53
g15
tp54
a(S'do i have to do anything to do'
p55
g15
tp56
a(S"don't find live news feed"
p57
g15
tp58
a(S'turn it up please'
p59
g15
tp60
a(S'can you send me to the lock screen please'
p61
g15
tp62
a(S'am i free in a month'
p63
g15
tp64
a(S'check calendar for tomorrow'
p65
g15
tp66
a(S'give me intel'
p67
S'True'
p68
tp69
a(S'schedule new event please'
p70
g15
tp71
a(S'could you open mail please'
p72
g15
tp73
a(S'could you make event please'
p74
g15
tp75
a(S'bye'
p76
g15
tp77
a(S'would you check gmail'
p78
g15
tp79
a(S'can you make an event please'
p80
g15
tp81
a(S"what's today's temperature"
p82
g15
tp83
a(S'current time'
p84
g15
tp85
a(S'get current time please'
p86
g15
tp87
a(S'please could you check new gmail'
p88
g15
tp89
a(S'make the volume lower'
p90
g15
tp91
a(S'check events for friday'
p92
g15
tp93
a(S"not today's current events"
p94
g15
tp95
a(S"don't i have anything on next"
p96
g15
tp97
a(S"don't i have to do anything on sunday"
p98
g15
tp99
a(S'retrieve the time'
p100
g15
tp101
a(S'please start'
p102
g15
tp103
a(S'dont gather information on todays current events'
p104
g15
tp105
a(S'am i free on tomorrow'
p106
g15
tp107
a(S'what is new in mail please'
p108
g15
tp109
a(S'please what is in gmail'
p110
g15
tp111
a(S"don't i have to do anything on wednesday"
p112
g15
tp113
a(S'what is in inbox please'
p114
g15
tp115
a(S'do i have anything to do on friday'
p116
g15
tp117
a(S'can you please shutdown'
p118
g15
tp119
a(S"today's temperature"
p120
g15
tp121
a(S"don't get current news"
p122
g15
tp123
a(S'any events on this day'
p124
g15
tp125
a(S'how is the forecast'
p126
g15
tp127
a(S'dont find current events'
p128
g15
tp129
a(S'put me on the lock screen please'
p130
g15
tp131
a(S"get this week's temperature"
p132
g15
tp133
a(S'is there anything i have to do on saturday'
p134
g15
tp135
a(S'increase the volume'
p136
g15
tp137
a(S'get the information'
p138
g68
tp139
a(S'read time please'
p140
g15
tp141
a(S'not get the information'
p142
g15
tp143
a(S'please check my gmail'
p144
g15
tp145
a(S'please can you check my mail'
p146
g15
tp147
a(S'could you open gmail'
p148
g15
tp149
a(S'what events are'
p150
g15
tp151
a(S"what aren't the current events today"
p152
g15
tp153
a(S"what aren't the newsfeed"
p154
g15
tp155
a(S'could you schedule an event please'
p156
g15
tp157
a(S'current forecast'
p158
g15
tp159
a(S'am i free for tuesday'
p160
g15
tp161
a(S'please can you check new mail'
p162
g15
tp163
a(S'could you please add event'
p164
g15
tp165
a(S'what is in the news today'
p166
g68
tp167
a(S"what's new in new mail please"
p168
g15
tp169
a(S'what events are on thursday'
p170
g15
tp171
a(S"what's if it's snowing today"
p172
g15
tp173
a(S'will it rain this week'
p174
g15
tp175
a(S'could you please create new event'
p176
g15
tp177
a(S"don't i have to do anything tomorrow"
p178
g15
tp179
a(S'turn off'
p180
g15
tp181
a(S'can you schedule event'
p182
g15
tp183
a(S'do not read the current events to me'
p184
g15
tp185
a(S'what events are on wednesday'
p186
g15
tp187
a(S'anything new in gmail'
p188
g15
tp189
a(S'turn it down'
p190
g15
tp191
a(S'get live news'
p192
g68
tp193
a(S'check events for'
p194
g15
tp195
a(S"what's if it's freezing today"
p196
g15
tp197
a(S'current events'
p198
g68
tp199
a(S'what do i have on monday'
p200
g15
tp201
a(S"what's if it's rainy this week"
p202
g15
tp203
a(S'please open a browser'
p204
g15
tp205
a(S'will it hail today'
p206
g15
tp207
a(S'please turn my computer off'
p208
g15
tp209
a(S"what aren't the current events"
p210
g15
tp211
a(S'can you please create new event'
p212
g15
tp213
a(S'can you please turn up the tunez'
p214
g15
tp215
a(S'read your watch'
p216
g15
tp217
a(S"don't i have any events on saturday"
p218
g15
tp219
a(S"what's the headlines"
p220
g68
tp221
a(S'not current events'
p222
g15
tp223
a(S'check google calendar for sunday'
p224
g15
tp225
a(S'please get the current events'
p226
g68
tp227
a(S'do i have any events in a week'
p228
g15
tp229
a(S"don't i have anything to do"
p230
g15
tp231
a(S'could you check inbox please'
p232
g15
tp233
a(S'check events for today'
p234
g15
tp235
a(S'please create new event'
p236
g15
tp237
a(S"what's new in my gmail"
p238
g15
tp239
a(S'check calendar'
p240
g15
tp241
a(S'check my calendar on monday'
p242
g15
tp243
a(S'can you please add an event'
p244
g15
tp245
a(S'check my calendar on today'
p246
g15
tp247
a(S'check google calendar for friday'
p248
g15
tp249
a(S'is it hot today'
p250
g15
tp251
a(S'bye alice'
p252
g15
tp253
a(S'what are the current news'
p254
g68
tp255
a(S'will you check mail please'
p256
g15
tp257
a(S'please turn off'
p258
g15
tp259
a(S"aren't there any events on today"
p260
g15
tp261
a(S'would you open inbox'
p262
g15
tp263
a(S'could you schedule event please'
p264
g15
tp265
a(S'find the current events'
p266
g68
tp267
a(S'am i free for a month'
p268
g15
tp269
a(S'can you check new mail please'
p270
g15
tp271
a(S"this week's forecast"
p272
g15
tp273
a(S'turn down the sound'
p274
g15
tp275
a(S"what's the current events"
p276
g68
tp277
a(S'please what is in my mail'
p278
g15
tp279
a(S'can you please make a new event'
p280
g15
tp281
a(S'what events do i have on tomorrow'
p282
g15
tp283
a(S'do not give me infornation on todays current events'
p284
g15
tp285
a(S'stop the song'
p286
g15
tp287
a(S'do i have to do anything on monday'
p288
g15
tp289
a(S"don't i have to do anything on this day"
p290
g15
tp291
a(S'open gmail please'
p292
g15
tp293
a(S'find newsfeed'
p294
g68
tp295
a(S'do i have to do anything in a week'
p296
g15
tp297
a(S"if it's snowing today"
p298
g15
tp299
a(S'do not give me the news'
p300
g15
tp301
a(S'what is new in new gmail'
p302
g15
tp303
a(S'please check inbox'
p304
g15
tp305
a(S'go back'
p306
g15
tp307
a(S'could you create a new event'
p308
g15
tp309
a(S'can you create a new event'
p310
g15
tp311
a(S'please send me to the lock screen'
p312
g15
tp313
a(S'check new mail please'
p314
g15
tp315
a(S'find current news'
p316
g68
tp317
a(S'check events for monday'
p318
g15
tp319
a(S"don't find news"
p320
g15
tp321
a(S'go back please'
p322
g15
tp323
a(S'can you open browser please'
p324
g15
tp325
a(S'start song'
p326
g15
tp327
a(S'do i have any events on wednesday'
p328
g15
tp329
a(S"what's the the news"
p330
g68
tp331
a(S'turn off the sound please'
p332
g15
tp333
a(S'can you please mute'
p334
g15
tp335
a(S'do i have anything on monday'
p336
g15
tp337
a(S'what is newsfeed'
p338
g68
tp339
a(S'is it cold today'
p340
g15
tp341
a(S'can you please shut my computer down'
p342
g15
tp343
a(S'please could you check mail'
p344
g15
tp345
a(S'please retrieve the time'
p346
g15
tp347
a(S'kill the current window'
p348
g15
tp349
a(S'open my mail please'
p350
g15
tp351
a(S'is there anything i have to do on monday'
p352
g15
tp353
a(S'please get the current time'
p354
g15
tp355
a(S'can you please turn up the volume'
p356
g15
tp357
a(S"if it's rainy this week"
p358
g15
tp359
a(S'could you check new gmail'
p360
g15
tp361
a(S"what's the forecast"
p362
g15
tp363
a(S'check calendar on saturday'
p364
g15
tp365
a(S'can you please close the current window'
p366
g15
tp367
a(S"don't find the current events"
p368
g15
tp369
a(S'do i have to do anything on thursday'
p370
g15
tp371
a(S'any events on monday'
p372
g15
tp373
a(S"don't give me the current events"
p374
g15
tp375
a(S'search please for'
p376
g15
tp377
a(S"get if it's freezing this week"
p378
g15
tp379
a(S'schedule an event'
p380
g15
tp381
a(S'do i have to do anything on sunday'
p382
g15
tp383
a(S'google search for'
p384
g15
tp385
a(S'check your watch'
p386
g15
tp387
a(S'do i have anything to do'
p388
g15
tp389
a(S"don't i have any events on monday"
p390
g15
tp391
a(S'would you check new mail please'
p392
g15
tp393
a(S'can you make a new event please'
p394
g15
tp395
a(S'google search please'
p396
g15
tp397
a(S'kill current window'
p398
g15
tp399
a(S"what's not the live news feed"
p400
g15
tp401
a(S'do i have any events on tomorrow'
p402
g15
tp403
a(S'check calendar for thursday'
p404
g15
tp405
a(S"don't i have to do anything tomorrow"
p406
g15
tp407
a(S'can you please turn the beat down'
p408
g15
tp409
a(S'would you check gmail please'
p410
g15
tp411
a(S'please lock my computer'
p412
g15
tp413
a(S'can you please turn the sound down'
p414
g15
tp415
a(S'would you check mail please'
p416
g15
tp417
a(S'is it cold this week'
p418
g15
tp419
a(S'hey alice'
p420
g15
tp421
a(S'can you lock the screen please'
p422
g15
tp423
a(S'what is new in inbox'
p424
g15
tp425
a(S"what's if it's cold today"
p426
g15
tp427
a(S'decrease the volume'
p428
g15
tp429
a(S'shut down the computer please'
p430
g15
tp431
a(S'what do i have on friday'
p432
g15
tp433
a(S'please would you check my gmail'
p434
g15
tp435
a(S'please make an event'
p436
g15
tp437
a(S'what events are on tomorrow'
p438
g15
tp439
a(S'could you create new event'
p440
g15
tp441
a(S'what events do i have on today'
p442
g15
tp443
a(S'see ya alice'
p444
g15
tp445
a(S"today's current events"
p446
g68
tp447
a(S'get me the news todays'
p448
g68
tp449
a(S'please retrieve what time it is'
p450
g15
tp451
a(S'dont give me the news'
p452
g15
tp453
a(S'what do i have on wednesday'
p454
g15
tp455
a(S'start default browser please'
p456
g15
tp457
a(S'check my calendar on this month'
p458
g15
tp459
a(S'do i have to do anything'
p460
g15
tp461
a(S"what's if it's cloudy today"
p462
g15
tp463
a(S'would you open my mail'
p464
g15
tp465
a(S"don't tell me current events"
p466
g15
tp467
a(S"don't get newsfeed"
p468
g15
tp469
a(S'check google calendar on wednesday'
p470
g15
tp471
a(S'can you kill the current window'
p472
g15
tp473
a(S'can you turn up the tune'
p474
g15
tp475
a(S'send me to the lock screen'
p476
g15
tp477
a(S'do i have anything to do in a week'
p478
g15
tp479
a(S"what's the forecast this week"
p480
g15
tp481
a(S'will you get the headlines'
p482
g68
tp483
a(S"today's weather"
p484
g15
tp485
a(S'what do i have on next'
p486
g15
tp487
a(S'will you get the current events for me'
p488
g68
tp489
a(S'not todays headlines'
p490
g15
tp491
a(S"today's current news "
p492
g68
tp493
a(S"don't i have to do anything on"
p494
g15
tp495
a(S'please last song'
p496
g15
tp497
a(S"don't i have anything to do tomorrow"
p498
g15
tp499
a(S"aren't there any events on saturday"
p500
g15
tp501
a(S'get the clock'
p502
g15
tp503
a(S'please could you check inbox'
p504
g15
tp505
a(S"please don't give me current events"
p506
g15
tp507
a(S"what's in new mail please"
p508
g15
tp509
a(S'play spotify please'
p510
g15
tp511
a(S'please can you check new gmail'
p512
g15
tp513
a(S'what is in new gmail'
p514
g15
tp515
a(S'what do i have to do on'
p516
g15
tp517
a(S'do i have anything to do on sunday'
p518
g15
tp519
a(S'please check mail'
p520
g15
tp521
a(S'briefing'
p522
g68
tp523
a(S'dont find out whats going on'
p524
g15
tp525
a(S'shut my computer down'
p526
g15
tp527
a(S"don't i have to do anything on this day"
p528
g15
tp529
a(S'please schedule new event'
p530
g15
tp531
a(S'find news'
p532
g68
tp533
a(S'find live newsfeed'
p534
g68
tp535
a(S'turn off please'
p536
g15
tp537
a(S'time'
p538
g15
tp539
a(S'shut my computer down please'
p540
g15
tp541
a(S'check calendar for monday'
p542
g15
tp543
a(S'please sound up'
p544
g15
tp545
a(S'what events are on this day'
p546
g15
tp547
a(S'can you turn yourself off'
p548
g15
tp549
a(S'okay alice'
p550
g15
tp551
a(S'please go spotify '
p552
g15
tp553
a(S'go ahead spotify please'
p554
g15
tp555
a(S"don't i have anything on monday"
p556
g15
tp557
a(S'not news feed'
p558
g15
tp559
a(S'train a classifier to try to predict the category of a post'
p560
g15
tp561
a(S"not today's newsfeed"
p562
g15
tp563
a(S'can you turn off my computer'
p564
g15
tp565
a(S'please shut my computer down'
p566
g15
tp567
a(S'what events do i have on'
p568
g15
tp569
a(S'what is on my calendar for saturday'
p570
g15
tp571
a(S'what is current news'
p572
g68
tp573
a(S"this week's weather"
p574
g15
tp575
a(S'start browsing'
p576
g15
tp577
a(S'can you please turn up the tune'
p578
g15
tp579
a(S'am i free on thursday'
p580
g15
tp581
a(S'please start a browser'
p582
g15
tp583
a(S'unmute please'
p584
g15
tp585
a(S'please turn off the computer'
p586
g15
tp587
a(S'news now please'
p588
g68
tp589
a(S'what is the news'
p590
g68
tp591
a(S"what're the live news feed"
p592
g68
tp593
a(S'set volume 0'
p594
g15
tp595
a(S'open mail'
p596
g15
tp597
a(S'please go back'
p598
g15
tp599
a(S'spotify previous song please'
p600
g15
tp601
a(S"what's not in news"
p602
g15
tp603
a(S'please open dot com'
p604
g15
tp605
a(S'what is in new mail please'
p606
g15
tp607
a(S'go to dot net'
p608
g15
tp609
a(S"please what's in new mail"
p610
g15
tp611
a(S'can you please kill the current window'
p612
g15
tp613
a(S"don't i have to do anything on monday"
p614
g15
tp615
a(S'can you turn yourself off please'
p616
g15
tp617
a(S'what is on my calendar for this day'
p618
g15
tp619
a(S'do i have to do anything on friday'
p620
g15
tp621
a(S'will you not get the current events'
p622
g15
tp623
a(S'are there any events'
p624
g15
tp625
a(S'do i have anything on next'
p626
g15
tp627
a(S'please open mail'
p628
g15
tp629
a(S'are there any events on this day'
p630
g15
tp631
a(S'can you please shut off'
p632
g15
tp633
a(S'get news feed'
p634
g68
tp635
a(S'spotify shut up'
p636
g15
tp637
a(S'can you schedule a new event'
p638
g15
tp639
a(S'can you make an event'
p640
g15
tp641
a(S'please kill the window'
p642
g15
tp643
a(S'what is new in my inbox please'
p644
g15
tp645
a(S"aren't there any events on tuesday"
p646
g15
tp647
a(S'can you make new event please'
p648
g15
tp649
a(S'what are the headlines'
p650
g68
tp651
a(S'can you turn the sound down'
p652
g15
tp653
a(S'is it rainy today'
p654
g15
tp655
a(S'do i have anything to do on next'
p656
g15
tp657
a(S'what events do i have'
p658
g15
tp659
a(S'can you please close this window'
p660
g15
tp661
a(S'are there any events in a week'
p662
g15
tp663
a(S"what's in new gmail"
p664
g15
tp665
a(S'could you please create an event'
p666
g15
tp667
a(S"don't i have any events in a month"
p668
g15
tp669
a(S'am i free for thursday'
p670
g15
tp671
a(S'is there anything to do'
p672
g15
tp673
a(S"please don't get the current events"
p674
g15
tp675
a(S'please stop song'
p676
g15
tp677
a(S'google search'
p678
g15
tp679
a(S'check my mail please'
p680
g15
tp681
a(S'search google please'
p682
g15
tp683
a(S'open'
p684
g15
tp685
a(S'can you please make event'
p686
g15
tp687
a(S'bye bye'
p688
g15
tp689
a(S'what do i have on sunday'
p690
g15
tp691
a(S'check my gmail please'
p692
g15
tp693
a(S'any events in a week'
p694
g15
tp695
a(S'stop playing'
p696
g15
tp697
a(S'check events on tomorrow'
p698
g15
tp699
a(S'can you please close current window'
p700
g15
tp701
a(S"what're the live newsfeed"
p702
g68
tp703
a(S'please give me the news'
p704
g68
tp705
a(S'please do not give me the news'
p706
g15
tp707
a(S'tell me current news'
p708
g68
tp709
a(S'get the time please'
p710
g15
tp711
a(S"get if it's hot this week"
p712
g15
tp713
a(S'kill the noise'
p714
g15
tp715
a(S'would you check my gmail'
p716
g15
tp717
a(S'please what is in my inbox'
p718
g15
tp719
a(S'please what is new in my inbox'
p720
g15
tp721
a(S'what events are on monday'
p722
g15
tp723
a(S"what's in mail please"
p724
g15
tp725
a(S'will you check my inbox please'
p726
g15
tp727
a(S'check the clock right now'
p728
g15
tp729
a(S'lower the volume'
p730
g15
tp731
a(S'good bye'
p732
g15
tp733
a(S'extract the features using almost the same feature'
p734
g15
tp735
a(S'can you shut my computer down'
p736
g15
tp737
a(S'news'
p738
g68
tp739
a(S'turn up'
p740
g15
tp741
a(S'could you open my gmail please'
p742
g15
tp743
a(S'will you open a browser'
p744
g15
tp745
a(S'any events in a month'
p746
g15
tp747
a(S"don't i have anything tomorrow"
p748
g15
tp749
a(S'what events are in a month'
p750
g15
tp751
a(S'check events on this day'
p752
g15
tp753
a(S'please read your watch'
p754
g15
tp755
a(S"what's new in mail please"
p756
g15
tp757
a(S"don't gimme the news"
p758
g15
tp759
a(S"don't i have anything to do in a month"
p760
g15
tp761
a(S'what is in my mail'
p762
g15
tp763
a(S'louder please'
p764
g15
tp765
a(S'do not whats going on in the world todays'
p766
g15
tp767
a(S'check calendar for this day'
p768
g15
tp769
a(S'will you check my mail please'
p770
g15
tp771
a(S'make new event'
p772
g15
tp773
a(S'could you please schedule event'
p774
g15
tp775
a(S'can you please shut down the computer'
p776
g15
tp777
a(S'shut off please'
p778
g15
tp779
a(S'will you get the current headlines'
p780
g68
tp781
a(S'what is in my inbox please'
p782
g15
tp783
a(S"what's the time"
p784
g15
tp785
a(S'please spotify pause'
p786
g15
tp787
a(S'tell me live news'
p788
g68
tp789
a(S'give me the news please'
p790
g68
tp791
a(S'can you turn off the computer'
p792
g15
tp793
a(S'please check gmail'
p794
g15
tp795
a(S'is there anything to do on tuesday'
p796
g15
tp797
a(S'lower the volume'
p798
g15
tp799
a(S'song stop'
p800
g15
tp801
a(S'what do i have to do on thursday'
p802
g15
tp803
a(S'will you check new gmail'
p804
g15
tp805
a(S'could you open my mail'
p806
g15
tp807
a(S"please what's new in inbox"
p808
g15
tp809
a(S'can you check gmail please'
p810
g15
tp811
a(S"please what's in my mail"
p812
g15
tp813
a(S'check events for this month'
p814
g15
tp815
a(S'the tale pretends'
p816
g15
tp817
a(S'current events'
p818
g68
tp819
a(S'could you add new event please'
p820
g15
tp821
a(S'what is in mail'
p822
g15
tp823
a(S'can you please turn off'
p824
g15
tp825
a(S'do i have anything to do on wednesday'
p826
g15
tp827
a(S'check google calendar on next'
p828
g15
tp829
a(S'is there anything i have to do on next'
p830
g15
tp831
a(S'can you make a new event'
p832
g15
tp833
a(S"don't i have any events on tuesday"
p834
g15
tp835
a(S"don't i have any events on thursday"
p836
g15
tp837
a(S'is there anything to do tomorrow'
p838
g15
tp839
a(S'get the current time please'
p840
g15
tp841
a(S'can you kill this window'
p842
g15
tp843
a(S'check events on this week'
p844
g15
tp845
a(S'dont give me infornation on todays current events'
p846
g15
tp847
a(S'is it rainy this week'
p848
g15
tp849
a(S'can you check inbox please'
p850
g15
tp851
a(S'skip spotify please'
p852
g15
tp853
a(S'can you check new gmail please'
p854
g15
tp855
a(S'could you create new event please'
p856
g15
tp857
a(S'not newsfeed'
p858
g15
tp859
a(S'could you make new event please'
p860
g15
tp861
a(S'check calendar on this week'
p862
g15
tp863
a(S'can you not get the current events'
p864
g15
tp865
a(S"what're not the the news"
p866
g15
tp867
a(S'what do i have to do on monday'
p868
g15
tp869
a(S'can you add event'
p870
g15
tp871
a(S'am i free on wednesday'
p872
g15
tp873
a(S'news feed today'
p874
g68
tp875
a(S'check the clock right now please'
p876
g15
tp877
a(S'can you please add new event'
p878
g15
tp879
a(S"don't tell me live news"
p880
g15
tp881
a(S"don't find live news"
p882
g15
tp883
a(S'could you check my gmail'
p884
g15
tp885
a(S'please what is new in my mail'
p886
g15
tp887
a(S'lock the screen please'
p888
g15
tp889
a(S'check my calendar for next'
p890
g15
tp891
a(S"what's new in new mail"
p892
g15
tp893
a(S'read me the clock please'
p894
g15
tp895
a(S'please make new event'
p896
g15
tp897
a(S'please get time'
p898
g15
tp899
a(S"what's new in gmail please"
p900
g15
tp901
a(S'please search for'
p902
g15
tp903
a(S'please start browsing'
p904
g15
tp905
a(S"what's new in my mail please"
p906
g15
tp907
a(S'what are the latest events '
p908
g68
tp909
a(S'turn up the volume'
p910
g15
tp911
a(S'current weather'
p912
g15
tp913
a(S'can you shutdown my computer'
p914
g15
tp915
a(S"don't tell me live news feed"
p916
g15
tp917
a(S'check my calendar on next'
p918
g15
tp919
a(S'turn the beat down'
p920
g15
tp921
a(S"aren't there any events on sunday"
p922
g15
tp923
a(S'would you check my gmail please'
p924
g15
tp925
a(S'please turn off my computer'
p926
g15
tp927
a(S"don't get news feed"
p928
g15
tp929
a(S'turn off the beats'
p930
g15
tp931
a(S'stop'
p932
g15
tp933
a(S"if it's hot today"
p934
g15
tp935
a(S"get today's weather"
p936
g15
tp937
a(S'please would you check my mail'
p938
g15
tp939
a(S"don't find the news"
p940
g15
tp941
a(S'read me the clock'
p942
g15
tp943
a(S'do i have anything to do on this day'
p944
g15
tp945
a(S'can you please kill the window'
p946
g15
tp947
a(S'get live news feed'
p948
g68
tp949
a(S'could you create event'
p950
g15
tp951
a(S'please would you check new gmail'
p952
g15
tp953
a(S"don't i have anything to do on sunday"
p954
g15
tp955
a(S'check my calendar for thursday'
p956
g15
tp957
a(S'what is on my calendar for friday'
p958
g15
tp959
a(S'is there anything to do on tomorrow'
p960
g15
tp961
a(S"what're the news feed"
p962
g68
tp963
a(S'what is in new gmail please'
p964
g15
tp965
a(S'gimme the news'
p966
g68
tp967
a(S'spotify pause'
p968
g15
tp969
a(S"get if it's raining today"
p970
g15
tp971
a(S'would you check inbox please'
p972
g15
tp973
a(S'do i have anything to do tomorrow'
p974
g15
tp975
a(S"if it's raining today"
p976
g15
tp977
a(S"don't get news now"
p978
g15
tp979
a(S'spotify play'
p980
g15
tp981
a(S'can you make event please'
p982
g15
tp983
a(S"what isn't newsfeed"
p984
g15
tp985
a(S'create an event please'
p986
g15
tp987
a(S"what's in inbox"
p988
g15
tp989
a(S"what's in mail"
p990
g15
tp991
a(S'spotify skip ahead'
p992
g15
tp993
a(S"don't i have anything to do on wednesday"
p994
g15
tp995
a(S'are there any events on saturday'
p996
g15
tp997
a(S'please check new gmail'
p998
g15
tp999
a(S'please volume higher'
p1000
g15
tp1001
a(S"if it's raining this week"
p1002
g15
tp1003
a(S'is there anything i have to do on thursday'
p1004
g15
tp1005
a(S'open my mail'
p1006
g15
tp1007
a(S'search'
p1008
g15
tp1009
a(S"what's not in current events"
p1010
g15
tp1011
a(S'check calendar on this day'
p1012
g15
tp1013
a(S"what's new in inbox please"
p1014
g15
tp1015
a(S'do i have anything to do today'
p1016
g15
tp1017
a(S'can you please add event'
p1018
g15
tp1019
a(S"please what's in inbox"
p1020
g15
tp1021
a(S'check calendar on wednesday'
p1022
g15
tp1023
a(S"don't find current events"
p1024
g15
tp1025
a(S'please will you open inbox'
p1026
g15
tp1027
a(S'will you open inbox'
p1028
g15
tp1029
a(S"don't find current news"
p1030
g15
tp1031
a(S'please what is in my gmail'
p1032
g15
tp1033
a(S"what're the headlines"
p1034
g68
tp1035
a(S'do i have anything to do on thursday'
p1036
g15
tp1037
a(S'am i free on this day'
p1038
g15
tp1039
a(S'will you check mail'
p1040
g15
tp1041
a(S"today's weather"
p1042
g15
tp1043
a(S'please start default browser'
p1044
g15
tp1045
a(S"what're the the news"
p1046
g68
tp1047
a(S'what do i have on'
p1048
g15
tp1049
a(S'are there any events on today'
p1050
g15
tp1051
a(S'would you check inbox'
p1052
g15
tp1053
a(S'kill the active window'
p1054
g15
tp1055
a(S'check events on wednesday'
p1056
g15
tp1057
a(S'kill window'
p1058
g15
tp1059
a(S'check google calendar for thursday'
p1060
g15
tp1061
a(S'get current events'
p1062
g68
tp1063
a(S'lock my computer'
p1064
g15
tp1065
a(S'get forecast'
p1066
g15
tp1067
a(S'can you please create a new event'
p1068
g15
tp1069
a(S'check the current time'
p1070
g15
tp1071
a(S'please could you open gmail'
p1072
g15
tp1073
a(S'do i have anything on this day'
p1074
g15
tp1075
a(S"aren't there any events on next"
p1076
g15
tp1077
a(S'please make a new event'
p1078
g15
tp1079
a(S'open gmail'
p1080
g15
tp1081
a(S'get newsfeed'
p1082
g68
tp1083
a(S'can you please make new event'
p1084
g15
tp1085
a(S"don't i have to do anything on tuesday"
p1086
g15
tp1087
a(S'check google calendar on'
p1088
g15
tp1089
a(S'can you open this program'
p1090
g15
tp1091
a(S"what's the clock"
p1092
g15
tp1093
a(S'emergency shutdown'
p1094
g15
tp1095
a(S'can you please shutdown my computer'
p1096
g15
tp1097
a(S'can you please kill current window'
p1098
g15
tp1099
a(S'can you please schedule an event'
p1100
g15
tp1101
a(S'give me the current events'
p1102
g68
tp1103
a(S'open a browser'
p1104
g15
tp1105
a(S'check google calendar on this week'
p1106
g15
tp1107
a(S"please don'tgive me the current events please"
p1108
g15
tp1109
a(S'please will you check my gmail'
p1110
g15
tp1111
a(S'what events are on friday'
p1112
g15
tp1113
a(S"don't get the the latest headlines"
p1114
g15
tp1115
a(S"please don't find out the latest headlines"
p1116
g15
tp1117
a(S'go to dot org'
p1118
g15
tp1119
a(S'can you shut down'
p1120
g15
tp1121
a(S'check calendar for wednesday'
p1122
g15
tp1123
a(S"don't i have any events on next"
p1124
g15
tp1125
a(S"don't get live news feed"
p1126
g15
tp1127
a(S'can you create event'
p1128
g15
tp1129
a(S'make a new event please'
p1130
g15
tp1131
a(S'could you check my inbox'
p1132
g15
tp1133
a(S'how is the temperature'
p1134
g15
tp1135
a(S'what is in new mail'
p1136
g15
tp1137
a(S'search google'
p1138
g15
tp1139
a(S"aren't there any events"
p1140
g15
tp1141
a(S'next spotify please'
p1142
g15
tp1143
a(S'please get me the clock'
p1144
g15
tp1145
a(S'pause spotify'
p1146
g15
tp1147
a(S"don't i have any events on friday"
p1148
g15
tp1149
a(S'skip'
p1150
g15
tp1151
a(S'newsfeed'
p1152
g68
tp1153
a(S'can you please turn the tune down'
p1154
g15
tp1155
a(S'are there any events on wednesday'
p1156
g15
tp1157
a(S'please search google for'
p1158
g15
tp1159
a(S'is there anything i have to do on wednesday'
p1160
g15
tp1161
a(S'please give me the current events please'
p1162
g68
tp1163
a(S'go back to the last song '
p1164
g15
tp1165
a(S'check google calendar on today'
p1166
g15
tp1167
a(S'close current program'
p1168
g15
tp1169
a(S'could you add event'
p1170
g15
tp1171
a(S'can you check my inbox please'
p1172
g15
tp1173
a(S"don't i have to do anything in a week"
p1174
g15
tp1175
a(S'put me on the lock screen'
p1176
g15
tp1177
a(S'close this window'
p1178
g15
tp1179
a(S"don't i have to do anything in a month"
p1180
g15
tp1181
a(S'could you create an event please'
p1182
g15
tp1183
a(S'could you create a new event please'
p1184
g15
tp1185
a(S'turn off the computer please'
p1186
g15
tp1187
a(S'do i have any events on'
p1188
g15
tp1189
a(S'am i free for'
p1190
g15
tp1191
a(S'will you open my gmail'
p1192
g15
tp1193
a(S'do i have anything to do on saturday'
p1194
g15
tp1195
a(S'go to dot ee dee you'
p1196
g15
tp1197
a(S"what's today's weather"
p1198
g15
tp1199
a(S"not today's news"
p1200
g15
tp1201
a(S'start spotify please'
p1202
g15
tp1203
a(S'please read the clock'
p1204
g15
tp1205
a(S'what is on my calendar for wednesday'
p1206
g15
tp1207
a(S'please tell me whats going on in the news please'
p1208
g68
tp1209
a(S'what is new in my mail please'
p1210
g15
tp1211
a(S'open my inbox'
p1212
g15
tp1213
a(S"don't i have to do anything on wednesday"
p1214
g15
tp1215
a(S"don't i have to do anything on friday"
p1216
g15
tp1217
a(S'can you not get information on the current events'
p1218
g15
tp1219
a(S"not today's live newsfeed"
p1220
g15
tp1221
a(S"what isn't in the news today"
p1222
g15
tp1223
a(S'please add an event'
p1224
g15
tp1225
a(S'do i have anything on tuesday'
p1226
g15
tp1227
a(S'intel'
p1228
g68
tp1229
a(S'what do i have on saturday'
p1230
g15
tp1231
a(S'open dot com'
p1232
g15
tp1233
a(S'will you not get the current headlines'
p1234
g15
tp1235
a(S'what events are on next'
p1236
g15
tp1237
a(S'shut down'
p1238
g15
tp1239
a(S'is there anything to do on wednesday'
p1240
g15
tp1241
a(S'will you open mail'
p1242
g15
tp1243
a(S'temperature'
p1244
g15
tp1245
a(S"get if it's freezing today"
p1246
g15
tp1247
a(S"how's the weather this week"
p1248
g15
tp1249
a(S'could you schedule event'
p1250
g15
tp1251
a(S'not headlines'
p1252
g15
tp1253
a(S'please google for'
p1254
g15
tp1255
a(S'what do i have to do on saturday'
p1256
g15
tp1257
a(S'check my calendar for today'
p1258
g15
tp1259
a(S'check events for next'
p1260
g15
tp1261
a(S'is it foggy this week'
p1262
g15
tp1263
a(S'will you open my inbox'
p1264
g15
tp1265
a(S'will you check gmail please'
p1266
g15
tp1267
a(S'shut off'
p1268
g15
tp1269
a(S'could you schedule a new event please'
p1270
g15
tp1271
a(S"get if it's hot today"
p1272
g15
tp1273
a(S'live newsfeed'
p1274
g68
tp1275
a(S'will you open my mail please'
p1276
g15
tp1277
a(S'would you open mail'
p1278
g15
tp1279
a(S"what isn't the news today"
p1280
g15
tp1281
a(S'start a browser please'
p1282
g15
tp1283
a(S'spotify last song please'
p1284
g15
tp1285
a(S'open default browser please'
p1286
g15
tp1287
a(S'can you schedule new event please'
p1288
g15
tp1289
a(S'please will you check new mail'
p1290
g15
tp1291
a(S'lock computer please'
p1292
g15
tp1293
a(S'please could you check my inbox'
p1294
g15
tp1295
a(S'what time is it now'
p1296
g15
tp1297
a(S'do i have any events on monday'
p1298
g15
tp1299
a(S'check google calendar for this month'
p1300
g15
tp1301
a(S"today's news"
p1302
g68
tp1303
a(S'what are the live news feed'
p1304
g68
tp1305
a(S"what isn't current events"
p1306
g15
tp1307
a(S'check google calendar on tuesday'
p1308
g15
tp1309
a(S"don't i have anything to do on this day"
p1310
g15
tp1311
a(S"what's new in gmail"
p1312
g15
tp1313
a(S'spotify go please'
p1314
g15
tp1315
a(S'what is on my calendar for this week'
p1316
g15
tp1317
a(S'spotify play previous song please'
p1318
g15
tp1319
a(S'lock'
p1320
g15
tp1321
a(S'please can you check my gmail'
p1322
g15
tp1323
a(S'what is headlines'
p1324
g68
tp1325
a(S'do not find the latest headlines'
p1326
g15
tp1327
a(S'can you shut up'
p1328
g15
tp1329
a(S'google for'
p1330
g15
tp1331
a(S'do i have any events on this day'
p1332
g15
tp1333
a(S'last song please'
p1334
g15
tp1335
a(S"don't brief me"
p1336
g15
tp1337
a(S"what's new in new gmail"
p1338
g15
tp1339
a(S"what's in new mail"
p1340
g15
tp1341
a(S'will you get the news for me'
p1342
g68
tp1343
a(S'can you mute'
p1344
g15
tp1345
a(S'check new gmail'
p1346
g15
tp1347
a(S"don't i have anything on wednesday"
p1348
g15
tp1349
a(S'will you not get the news for me'
p1350
g15
tp1351
a(S'would you check my mail'
p1352
g15
tp1353
a(S'byebye'
p1354
g15
tp1355
a(S'check my calendar for this week'
p1356
g15
tp1357
a(S'what is new in gmail'
p1358
g15
tp1359
a(S"don't find headlines"
p1360
g15
tp1361
a(S'can you exit'
p1362
g15
tp1363
a(S'do i have anything on wednesday'
p1364
g15
tp1365
a(S'play '
p1366
g15
tp1367
a(S'please kill current window'
p1368
g15
tp1369
a(S'do not give me information of todays news'
p1370
g15
tp1371
a(S'check the clock please'
p1372
g15
tp1373
a(S'do not find out whats going on'
p1374
g15
tp1375
a(S'kill active window'
p1376
g15
tp1377
a(S'not get the current events'
p1378
g15
tp1379
a(S'open my gmail please'
p1380
g15
tp1381
a(S'any events on tomorrow'
p1382
g15
tp1383
a(S'can you make event'
p1384
g15
tp1385
a(S'google'
p1386
g15
tp1387
a(S"what's forecast"
p1388
g15
tp1389
a(S'not live newsfeed'
p1390
g15
tp1391
a(S'stop song please'
p1392
g15
tp1393
a(S"don't i have anything to do on thursday"
p1394
g15
tp1395
a(S"get if it's cold today"
p1396
g15
tp1397
a(S'can you add a new event'
p1398
g15
tp1399
a(S'shut the fuck up'
p1400
g15
tp1401
a(S'music down'
p1402
g15
tp1403
a(S'will you open my gmail please'
p1404
g15
tp1405
a(S'go spotify please'
p1406
g15
tp1407
a(S'please create an event'
p1408
g15
tp1409
a(S'could you open mail'
p1410
g15
tp1411
a(S'check my calendar on tomorrow'
p1412
g15
tp1413
a(S'please get clock'
p1414
g15
tp1415
a(S'can you schedule an event please'
p1416
g15
tp1417
a(S'spotify go ahead'
p1418
g15
tp1419
a(S'check google calendar for wednesday'
p1420
g15
tp1421
a(S'check events for this day'
p1422
g15
tp1423
a(S'can you unmute please'
p1424
g15
tp1425
a(S'what do i have to do'
p1426
g15
tp1427
a(S'open browser please'
p1428
g15
tp1429
a(S"what aren't the live news feed"
p1430
g15
tp1431
a(S'google search please for'
p1432
g15
tp1433
a(S'weather'
p1434
g15
tp1435
a(S'can you shut down the computer'
p1436
g15
tp1437
a(S'can you please close active window'
p1438
g15
tp1439
a(S'could you make a new event please'
p1440
g15
tp1441
a(S'is it raining this week'
p1442
g15
tp1443
a(S'check my calendar on thursday'
p1444
g15
tp1445
a(S'make the volume 0'
p1446
g15
tp1447
a(S"what're not the news feed"
p1448
g15
tp1449
a(S'spotify previous please'
p1450
g15
tp1451
a(S'not intel'
p1452
g15
tp1453
a(S'please create a new event'
p1454
g15
tp1455
a(S'can you add a new event please'
p1456
g15
tp1457
a(S'will you open my inbox please'
p1458
g15
tp1459
a(S'check google calendar for next'
p1460
g15
tp1461
a(S'hey alex'
p1462
g15
tp1463
a(S"please what's in my inbox"
p1464
g15
tp1465
a(S'check events on month'
p1466
g15
tp1467
a(S'get current time'
p1468
g15
tp1469
a(S'google for please'
p1470
g15
tp1471
a(S'check my calendar for tuesday'
p1472
g15
tp1473
a(S'create new event'
p1474
g15
tp1475
a(S'what is in gmail please'
p1476
g15
tp1477
a(S"don't i have to do anything on next"
p1478
g15
tp1479
a(S"don't i have to do anything on sunday"
p1480
g15
tp1481
a(S'spotify play the song before'
p1482
g15
tp1483
a(S'retrieve the current time please'
p1484
g15
tp1485
a(S'shutdown'
p1486
g15
tp1487
a(S'not the news'
p1488
g15
tp1489
a(S'check google calendar for this day'
p1490
g15
tp1491
a(S'please open a browser'
p1492
g15
tp1493
a(S'check my calendar for monday'
p1494
g15
tp1495
a(S'turn the beat down please'
p1496
g15
tp1497
a(S'turn up the volume'
p1498
g15
tp1499
a(S"today's headlines"
p1500
g68
tp1501
a(S'will you check inbox'
p1502
g15
tp1503
a(S"don't i have any events on today"
p1504
g15
tp1505
a(S'bye bye alice'
p1506
g15
tp1507
a(S"what isn't the news"
p1508
g15
tp1509
a(S'check calendar for this week'
p1510
g15
tp1511
a(S'what events are on saturday'
p1512
g15
tp1513
a(S"what's the newsfeed"
p1514
g68
tp1515
a(S"today's live newsfeed"
p1516
g68
tp1517
a(S"what's the news feed"
p1518
g68
tp1519
a(S'sound up please'
p1520
g15
tp1521
a(S'not live news feed'
p1522
g15
tp1523
a(S"don't i have anything to do on friday"
p1524
g15
tp1525
a(S'what events do i have in a week'
p1526
g15
tp1527
a(S'make an event please'
p1528
g15
tp1529
a(S'get the news'
p1530
g68
tp1531
a(S"don't i have any events on"
p1532
g15
tp1533
a(S'do i have any events on tuesday'
p1534
g15
tp1535
a(S"don't i have anything to do on saturday"
p1536
g15
tp1537
a(S'can you please create an event'
p1538
g15
tp1539
a(S'what is live news'
p1540
g68
tp1541
a(S"if it's freezing today"
p1542
g15
tp1543
a(S'please turn it up'
p1544
g15
tp1545
a(S'current news today'
p1546
g68
tp1547
a(S'can you create new event'
p1548
g15
tp1549
a(S'is there anything to do on today'
p1550
g15
tp1551
a(S'what do i have in a month'
p1552
g15
tp1553
a(S"aren't there any events on friday"
p1554
g15
tp1555
a(S'create new event please'
p1556
g15
tp1557
a(S'tell me the news'
p1558
g68
tp1559
a(S'what time is it'
p1560
g15
tp1561
a(S'please open inbox'
p1562
g15
tp1563
a(S'check my calendar for this month'
p1564
g15
tp1565
a(S'can you check inbox'
p1566
g15
tp1567
a(S'please will you check my inbox'
p1568
g15
tp1569
a(S'what events are on sunday'
p1570
g15
tp1571
a(S'please read me the clock'
p1572
g15
tp1573
a(S'please kill active window'
p1574
g15
tp1575
a(S'make an event'
p1576
g15
tp1577
a(S'spotify pause the song please'
p1578
g15
tp1579
a(S'lower the tunes please'
p1580
g15
tp1581
a(S'brief me'
p1582
g68
tp1583
a(S'spotify play the song'
p1584
g15
tp1585
a(S"today's live news feed"
p1586
g68
tp1587
a(S'check gmail please'
p1588
g15
tp1589
a(S'what is new in my gmail'
p1590
g15
tp1591
a(S'will you get the current events'
p1592
g68
tp1593
a(S'anything new in mail'
p1594
g15
tp1595
a(S'get the current events'
p1596
g68
tp1597
a(S'pause spotify please'
p1598
g15
tp1599
a(S'can you make it louder please'
p1600
g15
tp1601
a(S'add new event please'
p1602
g15
tp1603
a(S'please shutdown'
p1604
g15
tp1605
a(S"what're not the live news feed"
p1606
g15
tp1607
a(S"what aren't the headlines"
p1608
g15
tp1609
a(S"this week's temperature"
p1610
g15
tp1611
a(S'shut down my computer please'
p1612
g15
tp1613
a(S"what's in my inbox"
p1614
g15
tp1615
a(S'can you check my mail'
p1616
g15
tp1617
a(S"what isn't current news"
p1618
g15
tp1619
a(S'not live news'
p1620
g15
tp1621
a(S'is there anything to do on sunday'
p1622
g15
tp1623
a(S"get if it's foggy today"
p1624
g15
tp1625
a(S'am i free on saturday'
p1626
g15
tp1627
a(S'spotify pause please'
p1628
g15
tp1629
a(S'check inbox please'
p1630
g15
tp1631
a(S'please lock computer'
p1632
g15
tp1633
a(S"get today's temperature"
p1634
g15
tp1635
a(S'please could you check new mail'
p1636
g15
tp1637
a(S'make a new event'
p1638
g15
tp1639
a(S"what're not the news"
p1640
g15
tp1641
a(S"please what's new in gmail"
p1642
g15
tp1643
a(S'please would you open mail'
p1644
g15
tp1645
a(S'is it raining today'
p1646
g15
tp1647
a(S'check calendar for saturday'
p1648
g15
tp1649
a(S"what aren't the news feed"
p1650
g15
tp1651
a(S'can you check new mail'
p1652
g15
tp1653
a(S'can you check gmail'
p1654
g15
tp1655
a(S"what's if it's cloudy this week"
p1656
g15
tp1657
a(S'please kill the active window'
p1658
g15
tp1659
a(S'would you open gmail please'
p1660
g15
tp1661
a(S'volume up'
p1662
g15
tp1663
a(S'turn up the sound'
p1664
g15
tp1665
a(S'schedule an event please'
p1666
g15
tp1667
a(S'could you please schedule an event'
p1668
g15
tp1669
a(S'please shut off'
p1670
g15
tp1671
a(S'please close the current window'
p1672
g15
tp1673
a(S'what do i have on this day'
p1674
g15
tp1675
a(S'lower the tunez please'
p1676
g15
tp1677
a(S"don't i have anything"
p1678
g15
tp1679
a(S'could you please make an event'
p1680
g15
tp1681
a(S'please can you turn up the volume'
p1682
g15
tp1683
a(S"what's this week's temperature"
p1684
g15
tp1685
a(S"don't give me intel on current events"
p1686
g15
tp1687
a(S"this week's weather"
p1688
g15
tp1689
a(S'could you make an event'
p1690
g15
tp1691
a(S'what are the newsfeed'
p1692
g68
tp1693
a(S'please schedule event'
p1694
g15
tp1695
a(S"what's not in headlines"
p1696
g15
tp1697
a(S'check events on sunday'
p1698
g15
tp1699
a(S'live news today'
p1700
g68
tp1701
a(S'will it hail this week'
p1702
g15
tp1703
a(S'what time is it right now'
p1704
g15
tp1705
a(S'can you make new event'
p1706
g15
tp1707
a(S'turn my computer off'
p1708
g15
tp1709
a(S'is there anything to do on monday'
p1710
g15
tp1711
a(S'what do i have to do on wednesday'
p1712
g15
tp1713
a(S'can you turn off'
p1714
g15
tp1715
a(S'tell me live news feed'
p1716
g68
tp1717
a(S"don't i have to do anything on monday"
p1718
g15
tp1719
a(S'can you shutdown the computer'
p1720
g15
tp1721
a(S"how's the weather today"
p1722
g15
tp1723
a(S'open dot org'
p1724
g15
tp1725
a(S'please shut down'
p1726
g15
tp1727
a(S"don't i have to do anything on"
p1728
g15
tp1729
a(S'please read the time'
p1730
g15
tp1731
a(S'please start a default browser'
p1732
g15
tp1733
a(S'shutdown the computer'
p1734
g15
tp1735
a(S'what do i have to do on next'
p1736
g15
tp1737
a(S'schedule a new event'
p1738
g15
tp1739
a(S'please can you check inbox'
p1740
g15
tp1741
a(S'can you turn the beat down'
p1742
g15
tp1743
a(S'please spotify play previous song'
p1744
g15
tp1745
a(S'current events today'
p1746
g68
tp1747
a(S'could you schedule a new event'
p1748
g15
tp1749
a(S'what do i have to do on sunday'
p1750
g15
tp1751
a(S'what is on my calendar for monday'
p1752
g15
tp1753
a(S'give me intel on current events'
p1754
g68
tp1755
a(S'please can you check my inbox'
p1756
g15
tp1757
a(S'will you check new mail please'
p1758
g15
tp1759
a(S"what's not the live news"
p1760
g15
tp1761
a(S'are there any events on tuesday'
p1762
g15
tp1763
a(S'check the clock'
p1764
g15
tp1765
a(S'can you get the current events'
p1766
g68
tp1767
a(S'are there any events on monday'
p1768
g15
tp1769
a(S'open my inbox please'
p1770
g15
tp1771
a(S'please can you check mail'
p1772
g15
tp1773
a(S"aren't there any events on tomorrow"
p1774
g15
tp1775
a(S"what aren't the latest events "
p1776
g15
tp1777
a(S'check calendar for this month'
p1778
g15
tp1779
a(S"today's live news"
p1780
g68
tp1781
a(S'sweet dreams alice'
p1782
g15
tp1783
a(S'i like dogs'
p1784
g15
tp1785
a(S'alice'
p1786
g15
tp1787
a(S"how's the temperature"
p1788
g15
tp1789
a(S'what is on my calendar for today'
p1790
g15
tp1791
a(S'please close the window'
p1792
g15
tp1793
a(S'please what is new in inbox'
p1794
g15
tp1795
a(S"don't i have anything on tuesday"
p1796
g15
tp1797
a(S'can you schedule an event'
p1798
g15
tp1799
a(S'what events are on today'
p1800
g15
tp1801
a(S'check calendar'
p1802
g15
tp1803
a(S'please would you open gmail'
p1804
g15
tp1805
a(S"don't get headlines"
p1806
g15
tp1807
a(S'please shutdown the computer'
p1808
g15
tp1809
a(S'check google calendar for monday'
p1810
g15
tp1811
a(S"don't i have anything on"
p1812
g15
tp1813
a(S'dont tell me the news'
p1814
g15
tp1815
a(S'get the current time'
p1816
g15
tp1817
a(S'could you open my inbox'
p1818
g15
tp1819
a(S'check events on'
p1820
g15
tp1821
a(S'check events for this week'
p1822
g15
tp1823
a(S'send me to the lock screen please'
p1824
g15
tp1825
a(S'is there anything i have to do'
p1826
g15
tp1827
a(S'am i free for monday'
p1828
g15
tp1829
a(S'is it snowing this week'
p1830
g15
tp1831
a(S'that should not call the function get news'
p1832
g15
tp1833
a(S'please check the current time'
p1834
g15
tp1835
a(S"get if it's cloudy this week"
p1836
g15
tp1837
a(S'am i free on tuesday'
p1838
g15
tp1839
a(S"don't find news feed"
p1840
g15
tp1841
a(S'check my calendar on'
p1842
g15
tp1843
a(S'please would you open my gmail'
p1844
g15
tp1845
a(S'do not tell me the news'
p1846
g15
tp1847
a(S'can you please exit'
p1848
g15
tp1849
a(S'anything in my mail'
p1850
g15
tp1851
a(S"today's forecast"
p1852
g15
tp1853
a(S"don't i have to do anything today"
p1854
g15
tp1855
a(S'start a browser'
p1856
g15
tp1857
a(S'open dot ee dee you'
p1858
g15
tp1859
a(S'check calendar on month'
p1860
g15
tp1861
a(S"don't i have anything on this day"
p1862
g15
tp1863
a(S'kill the program'
p1864
g15
tp1865
a(S'could you make a new event'
p1866
g15
tp1867
a(S'check events on monday'
p1868
g15
tp1869
a(S"what's in my mail"
p1870
g15
tp1871
a(S'can you kill the window'
p1872
g15
tp1873
a(S'what do i have to do on tuesday'
p1874
g15
tp1875
a(S'am i free for next'
p1876
g15
tp1877
a(S'will you check my inbox'
p1878
g15
tp1879
a(S'can you lock the screen'
p1880
g15
tp1881
a(S'check gmail'
p1882
g15
tp1883
a(S'make the sound quieter'
p1884
g15
tp1885
a(S'can you lock my computer please'
p1886
g15
tp1887
a(S'what events are in a week'
p1888
g15
tp1889
a(S'check events for this day'
p1890
g15
tp1891
a(S'could you please schedule new event'
p1892
g15
tp1893
a(S'add event'
p1894
g15
tp1895
a(S'could you please add an event'
p1896
g15
tp1897
a(S'will you not get the headlines'
p1898
g15
tp1899
a(S"don't give me the news"
p1900
g15
tp1901
a(S'please find out the latest headlines'
p1902
g68
tp1903
a(S'real not fake news'
p1904
g15
tp1905
a(S'can you please schedule new event'
p1906
g15
tp1907
a(S"today's forecast"
p1908
g15
tp1909
a(S"what isn't live news feed"
p1910
g15
tp1911
a(S'please shut off my computer'
p1912
g15
tp1913
a(S'get headlines'
p1914
g68
tp1915
a(S'please open my inbox'
p1916
g15
tp1917
a(S'anything new in my inbox'
p1918
g15
tp1919
a(S'please close current window'
p1920
g15
tp1921
a(S'lock my computer please'
p1922
g15
tp1923
a(S"what's not the current news"
p1924
g15
tp1925
a(S'tell me headlines'
p1926
g68
tp1927
a(S"don't tell me the news"
p1928
g15
tp1929
a(S'please what is new in my gmail'
p1930
g15
tp1931
a(S'any events'
p1932
g15
tp1933
a(S'can you shut off my computer'
p1934
g15
tp1935
a(S'please schedule an event'
p1936
g15
tp1937
a(S'could you add a new event'
p1938
g15
tp1939
a(S"what're not the newsfeed"
p1940
g15
tp1941
a(S'turn up the sound'
p1942
g15
tp1943
a(S'open a default browser'
p1944
g15
tp1945
a(S'check events for saturday'
p1946
g15
tp1947
a(S"what's in new gmail please"
p1948
g15
tp1949
a(S'add a new event'
p1950
g15
tp1951
a(S"don't i have to do anything on saturday"
p1952
g15
tp1953
a(S'can you please shut down'
p1954
g15
tp1955
a(S'start browser please'
p1956
g15
tp1957
a(S'what is new in new mail please'
p1958
g15
tp1959
a(S'could you add new event'
p1960
g15
tp1961
a(S'check my calendar for friday'
p1962
g15
tp1963
a(S'start default browser'
p1964
g15
tp1965
a(S'is it hot this week'
p1966
g15
tp1967
a(S'what do i have to do on today'
p1968
g15
tp1969
a(S"today's temperature"
p1970
g15
tp1971
a(S'check google calendar on tomorrow'
p1972
g15
tp1973
a(S'please what is in new gmail'
p1974
g15
tp1975
a(S'any events on saturday'
p1976
g15
tp1977
a(S"don't i have to do anything on next"
p1978
g15
tp1979
a(S"don't i have any events on this day"
p1980
g15
tp1981
a(S"what isn't live newsfeed"
p1982
g15
tp1983
a(S'find live news'
p1984
g68
tp1985
a(S'can you schedule a new event please'
p1986
g15
tp1987
a(S'would you check my inbox please'
p1988
g15
tp1989
a(S"don't i have to do anything in a month"
p1990
g15
tp1991
a(S'check my calendar on friday'
p1992
g15
tp1993
a(S'could you schedule an event'
p1994
g15
tp1995
a(S'tell me live newsfeed'
p1996
g68
tp1997
a(S"don't i have anything to do today"
p1998
g15
tp1999
a(S'am i free today'
p2000
g15
tp2001
a(S'please would you check mail'
p2002
g15
tp2003
a(S'can you check my gmail'
p2004
g15
tp2005
a(S'dont read the news to me'
p2006
g15
tp2007
a(S'please will you open mail'
p2008
g15
tp2009
a(S'a backbone dictates above my grief'
p2010
g15
tp2011
a(S'check events on today'
p2012
g15
tp2013
a(S'check google calendar for'
p2014
g15
tp2015
a(S'check new gmail please'
p2016
g15
tp2017
a(S'am i free for today'
p2018
g15
tp2019
a(S'what events do i have in a month'
p2020
g15
tp2021
a(S'what is new in inbox please'
p2022
g15
tp2023
a(S'read your watch please'
p2024
g15
tp2025
a(S"what's if it's raining this week"
p2026
g15
tp2027
a(S'is there anything i have to do on tuesday'
p2028
g15
tp2029
a(S'what events do i have on wednesday'
p2030
g15
tp2031
a(S'check google calendar on thursday'
p2032
g15
tp2033
a(S'what is new in my gmail please'
p2034
g15
tp2035
a(S'debrief me'
p2036
g68
tp2037
a(S'search for'
p2038
g15
tp2039
a(S'are there any events on'
p2040
g15
tp2041
a(S'google search for please'
p2042
g15
tp2043
a(S'check my calendar for saturday'
p2044
g15
tp2045
a(S'can you turn the tune down'
p2046
g15
tp2047
a(S'a decent problem gossips beside the shoulder'
p2048
g15
tp2049
a(S'spotify next song '
p2050
g15
tp2051
a(S"what aren't the news"
p2052
g15
tp2053
a(S'am i free for wednesday'
p2054
g15
tp2055
a(S'dont find the latest headlines'
p2056
g15
tp2057
a(S'do i have anything in a week'
p2058
g15
tp2059
a(S'tell me current events'
p2060
g68
tp2061
a(S'please get current time'
p2062
g15
tp2063
a(S'any mail'
p2064
g15
tp2065
a(S'can you please turn my computer off'
p2066
g15
tp2067
a(S'live news feed'
p2068
g68
tp2069
a(S'close active window'
p2070
g15
tp2071
a(S'whats going on in the world todays please'
p2072
g68
tp2073
a(S'gather information on todays current events please'
p2074
g68
tp2075
a(S'could you check inbox'
p2076
g15
tp2077
a(S'can you decrease the sound'
p2078
g15
tp2079
a(S'am i free for saturday'
p2080
g15
tp2081
a(S'do i have to do anything on tuesday'
p2082
g15
tp2083
a(S'can you please turn off my computer'
p2084
g15
tp2085
a(S'turn off my computer please'
p2086
g15
tp2087
a(S'do i have any events'
p2088
g15
tp2089
a(S"aren't there any events on thursday"
p2090
g15
tp2091
a(S'am i free on'
p2092
g15
tp2093
a(S'please will you check new gmail'
p2094
g15
tp2095
a(S'check calendar for this day'
p2096
g15
tp2097
a(S'can you shut off'
p2098
g15
tp2099
a(S"i think i didn't answer an earlier question"
p2100
g15
tp2101
a(S'check google calendar for this week'
p2102
g15
tp2103
a(S'am i free on sunday'
p2104
g15
tp2105
a(S'add an event please'
p2106
g15
tp2107
a(S'check my calendar for tomorrow'
p2108
g15
tp2109
a(S"today's newsfeed"
p2110
g68
tp2111
a(S"this week's temperature"
p2112
g15
tp2113
a(S'please check my mail'
p2114
g15
tp2115
a(S'close the current window'
p2116
g15
tp2117
a(S"what's the temperature this week"
p2118
g15
tp2119
a(S'please can you check gmail'
p2120
g15
tp2121
a(S"if it's freezing this week"
p2122
g15
tp2123
a(S"don't i have to do anything on thursday"
p2124
g15
tp2125
a(S'can you check new gmail'
p2126
g15
tp2127
a(S'please check new mail'
p2128
g15
tp2129
a(S'shutdown please'
p2130
g15
tp2131
a(S'will you check my gmail'
p2132
g15
tp2133
a(S'what is new in new mail'
p2134
g15
tp2135
a(S'exit please'
p2136
g15
tp2137
a(S'anything new in my mail'
p2138
g15
tp2139
a(S'spotify stop the song '
p2140
g15
tp2141
a(S'can you get the latest headlines'
p2142
g68
tp2143
a(S"what isn't headlines"
p2144
g15
tp2145
a(S'please check the clock right now'
p2146
g15
tp2147
a(S"what's the temperature today"
p2148
g15
tp2149
a(S'shut up'
p2150
g15
tp2151
a(S'can you shutdown'
p2152
g15
tp2153
a(S'could you make an event please'
p2154
g15
tp2155
a(S'will you check new mail'
p2156
g15
tp2157
a(S'turn up the tunez please'
p2158
g15
tp2159
a(S"if it's foggy this week"
p2160
g15
tp2161
a(S'would you open mail please'
p2162
g15
tp2163
a(S'turn the tune down'
p2164
g15
tp2165
a(S'dont give me the current events'
p2166
g15
tp2167
a(S"don't i have anything on thursday"
p2168
g15
tp2169
a(S'what do i have to do on tomorrow'
p2170
g15
tp2171
a(S'check google calendar on month'
p2172
g15
tp2173
a(S'check google calendar on monday'
p2174
g15
tp2175
a(S'do i have any events on saturday'
p2176
g15
tp2177
a(S'open mail please'
p2178
g15
tp2179
a(S"not today's news feed"
p2180
g15
tp2181
a(S'please add a new event'
p2182
g15
tp2183
a(S'could you open my mail please'
p2184
g15
tp2185
a(S"don't i have any events in a week"
p2186
g15
tp2187
a(S"please what's in my gmail"
p2188
g15
tp2189
a(S"don't gather information on"
p2190
g15
tp2191
a(S'is there anything i have to do on friday'
p2192
g15
tp2193
a(S"get if it's rainy this week"
p2194
g15
tp2195
a(S'turn it off'
p2196
g15
tp2197
a(S'check events'
p2198
g15
tp2199
a(S'please will you open my gmail'
p2200
g15
tp2201
a(S"get if it's cold this week"
p2202
g15
tp2203
a(S'am i free for this day'
p2204
g15
tp2205
a(S'dont read the current events to me'
p2206
g15
tp2207
a(S'check events for tuesday'
p2208
g15
tp2209
a(S'are there any events on next'
p2210
g15
tp2211
a(S'what do i have on thursday'
p2212
g15
tp2213
a(S'do not read the news to me'
p2214
g15
tp2215
a(S"not today's headlines"
p2216
g15
tp2217
a(S"how's the temperature today"
p2218
g15
tp2219
a(S'please spotify previous'
p2220
g15
tp2221
a(S'check my calendar on this day'
p2222
g15
tp2223
a(S'please search google'
p2224
g15
tp2225
a(S'is there anything i have to do in a month'
p2226
g15
tp2227
a(S'will you open gmail'
p2228
g15
tp2229
a(S'gather the latest headlines please'
p2230
g68
tp2231
a(S"what's new in mail"
p2232
g15
tp2233
a(S'open a default browser please'
p2234
g15
tp2235
a(S'check the current time please'
p2236
g15
tp2237
a(S'please google search for'
p2238
g15
tp2239
a(S'google please for'
p2240
g15
tp2241
a(S'is there anything to do on this day'
p2242
g15
tp2243
a(S'tell me news'
p2244
g68
tp2245
a(S'do i have anything to do next'
p2246
g15
tp2247
a(S'what is in gmail'
p2248
g15
tp2249
a(S'sound higher please'
p2250
g15
tp2251
a(S'kill the active program'
p2252
g15
tp2253
a(S'check calendar for sunday'
p2254
g15
tp2255
a(S'could you check mail please'
p2256
g15
tp2257
a(S'live news'
p2258
g68
tp2259
a(S'what are the live news'
p2260
g68
tp2261
a(S'is there anything i have to do on today'
p2262
g15
tp2263
a(S'what do i have to do on this day'
p2264
g15
tp2265
a(S'intelligence report'
p2266
g68
tp2267
a(S'please what is in inbox'
p2268
g15
tp2269
a(S'read time'
p2270
g15
tp2271
a(S'set the volume zero'
p2272
g15
tp2273
a(S'would you open my inbox please'
p2274
g15
tp2275
a(S"get if it's snowing today"
p2276
g15
tp2277
a(S'stop the tunez'
p2278
g15
tp2279
a(S'start a default browser'
p2280
g15
tp2281
a(S'can you unmute'
p2282
g15
tp2283
a(S'check google calendar for this day'
p2284
g15
tp2285
a(S'what events do i have on this day'
p2286
g15
tp2287
a(S"what're not the live newsfeed"
p2288
g15
tp2289
a(S"what're not the current news"
p2290
g15
tp2291
a(S'get news now'
p2292
g68
tp2293
a(S"what's the live news"
p2294
g68
tp2295
a(S"what's in inbox please"
p2296
g15
tp2297
a(S'do i have any events in a month'
p2298
g15
tp2299
a(S'check google calendar for tuesday'
p2300
g15
tp2301
a(S"get this week's forecast"
p2302
g15
tp2303
a(S'can you check mail please'
p2304
g15
tp2305
a(S'what events are on tuesday'
p2306
g15
tp2307
a(S'open default browser'
p2308
g15
tp2309
a(S"what's not in the news"
p2310
g15
tp2311
a(S'news today'
p2312
g68
tp2313
a(S'create event'
p2314
g15
tp2315
a(S'will you open mail please'
p2316
g15
tp2317
a(S'can you add new event please'
p2318
g15
tp2319
a(S"get if it's foggy this week"
p2320
g15
tp2321
a(S'unmute'
p2322
g15
tp2323
a(S'can you add an event please'
p2324
g15
tp2325
a(S'could you schedule new event please'
p2326
g15
tp2327
a(S'can you add new event'
p2328
g15
tp2329
a(S"don't i have to do anything"
p2330
g15
tp2331
a(S"what's in gmail please"
p2332
g15
tp2333
a(S'please could you check my mail'
p2334
g15
tp2335
a(S'read the clock'
p2336
g15
tp2337
a(S"what's if it's foggy today"
p2338
g15
tp2339
a(S'can you turn up the beat'
p2340
g15
tp2341
a(S"what's the current news"
p2342
g68
tp2343
a(S'check my mail'
p2344
g15
tp2345
a(S'see you'
p2346
g15
tp2347
a(S'alice go ahead please'
p2348
g15
tp2349
a(S'news never please'
p2350
g15
tp2351
a(S'would you open my inbox'
p2352
g15
tp2353
a(S'read the time please'
p2354
g15
tp2355
a(S'please schedule a new event'
p2356
g15
tp2357
a(S'could you create an event'
p2358
g15
tp2359
a(S'please get the news'
p2360
g68
tp2361
a(S'go to dot edu'
p2362
g15
tp2363
a(S'we stick to simple problems in this post for the sake of illustration'
p2364
g15
tp2365
a(S'spotify go back to the last song '
p2366
g15
tp2367
a(S'please do not get teh current events'
p2368
g15
tp2369
a(S'gather information on'
p2370
g68
tp2371
a(S"if it's snowing this week"
p2372
g15
tp2373
a(S'set the volume to zero'
p2374
g15
tp2375
a(S'make the volume softer'
p2376
g15
tp2377
a(S'check google calendar for saturday'
p2378
g15
tp2379
a(S'what do i have to do in a month'
p2380
g15
tp2381
a(S'could you please add new event'
p2382
g15
tp2383
a(S'spotify play last song please'
p2384
g15
tp2385
a(S'retrieve what time it is please'
p2386
g15
tp2387
a(S"what's not the live newsfeed"
p2388
g15
tp2389
a(S'any events on tuesday'
p2390
g15
tp2391
a(S'live news feed today'
p2392
g68
tp2393
a(S'make the sound softer'
p2394
g15
tp2395
a(S"don't i have to do anything"
p2396
g15
tp2397
a(S'current news'
p2398
g68
tp2399
a(S'get current news'
p2400
g68
tp2401
a(S'spotify next'
p2402
g15
tp2403
a(S'what is in inbox'
p2404
g15
tp2405
a(S'create a new event'
p2406
g15
tp2407
a(S'can you close the active window'
p2408
g15
tp2409
a(S"if it's cloudy this week"
p2410
g15
tp2411
a(S'would you open my gmail please'
p2412
g15
tp2413
a(S'anything in mail'
p2414
g15
tp2415
a(S"don't find newsfeed"
p2416
g15
tp2417
a(S'create an event'
p2418
g15
tp2419
a(S"what isn't news feed"
p2420
g15
tp2421
a(S'check calendar on tomorrow'
p2422
g15
tp2423
a(S'could you create event please'
p2424
g15
tp2425
a(S'is there anything i have to do on'
p2426
g15
tp2427
a(S'close current window'
p2428
g15
tp2429
a(S'would you check my inbox'
p2430
g15
tp2431
a(S"don't gather the latest headlines please"
p2432
g15
tp2433
a(S'please could you check my gmail'
p2434
g15
tp2435
a(S'check events on'
p2436
g15
tp2437
a(S'can you put me on the lock screen please'
p2438
g15
tp2439
a(S'could you check gmail please'
p2440
g15
tp2441
a(S'turn yourself off please'
p2442
g15
tp2443
a(S"aren't there any events in a month"
p2444
g15
tp2445
a(S'do i have any events on today'
p2446
g15
tp2447
a(S'can you get information on the current events'
p2448
g68
tp2449
a(S'what do i have on tomorrow'
p2450
g15
tp2451
a(S"what isn't going on in the world today"
p2452
g15
tp2453
a(S'am i free'
p2454
g15
tp2455
a(S'do i have to do anything in a month'
p2456
g15
tp2457
a(S"what's the forecast today"
p2458
g15
tp2459
a(S'please what is in new mail'
p2460
g15
tp2461
a(S'create event please'
p2462
g15
tp2463
a(S'please shut down the computer'
p2464
g15
tp2465
a(S'kill the music'
p2466
g15
tp2467
a(S"what's not the the news"
p2468
g15
tp2469
a(S'time please'
p2470
g15
tp2471
a(S'tell me newsfeed'
p2472
g68
tp2473
a(S'could you add a new event please'
p2474
g15
tp2475
a(S"what's temperature"
p2476
g15
tp2477
a(S'please close active window'
p2478
g15
tp2479
a(S'search google for please'
p2480
g15
tp2481
a(S'retrieve the time please'
p2482
g15
tp2483
a(S'is there anything to do on next'
p2484
g15
tp2485
a(S"don't i have to do anything on tuesday"
p2486
g15
tp2487
a(S'add an event'
p2488
g15
tp2489
a(S'make event'
p2490
g15
tp2491
a(S'can you schedule event please'
p2492
g15
tp2493
a(S'shutdown the computer please'
p2494
g15
tp2495
a(S"aren't there any events on monday"
p2496
g15
tp2497
a(S"don't i have anything to do on monday"
p2498
g15
tp2499
a(S'please what is new in mail'
p2500
g15
tp2501
a(S'please check your watch'
p2502
g15
tp2503
a(S'start browsing please'
p2504
g15
tp2505
a(S'please would you check inbox'
p2506
g15
tp2507
a(S'check my calendar on tuesday'
p2508
g15
tp2509
a(S'find live news feed'
p2510
g68
tp2511
a(S'would you check mail'
p2512
g15
tp2513
a(S'am i free for a week'
p2514
g15
tp2515
a(S'please open my mail'
p2516
g15
tp2517
a(S"don't give me the current events please"
p2518
g15
tp2519
a(S'check calendar for today'
p2520
g15
tp2521
a(S'do not give me the current events'
p2522
g15
tp2523
a(S"please don't give me the news"
p2524
g15
tp2525
a(S'what events do i have on thursday'
p2526
g15
tp2527
a(S"don't i have any events"
p2528
g15
tp2529
a(S'please can you turn the volume higher'
p2530
g15
tp2531
a(S'shutdown my computer please'
p2532
g15
tp2533
a(S'what is live news feed'
p2534
g68
tp2535
a(S'is it cloudy today'
p2536
g15
tp2537
a(S'what is the news today'
p2538
g68
tp2539
a(S"please don't get the news"
p2540
g15
tp2541
a(S'please open gmail'
p2542
g15
tp2543
a(S'retrieve what time it is'
p2544
g15
tp2545
a(S'check calendar on friday'
p2546
g15
tp2547
a(S'please turn it down'
p2548
g15
tp2549
a(S'google please'
p2550
g15
tp2551
a(S"please what's in gmail"
p2552
g15
tp2553
a(S'can you please kill this window'
p2554
g15
tp2555
a(S'current temperature'
p2556
g15
tp2557
a(S'check my calendar for wednesday'
p2558
g15
tp2559
a(S'what is in my gmail'
p2560
g15
tp2561
a(S'check events on saturday'
p2562
g15
tp2563
a(S'anything new in inbox'
p2564
g15
tp2565
a(S'shut up please'
p2566
g15
tp2567
a(S'dont tell me the current events'
p2568
g15
tp2569
a(S'could you check mail'
p2570
g15
tp2571
a(S'please shutdown my computer'
p2572
g15
tp2573
a(S'what events are going on right now'
p2574
g68
tp2575
a(S'current events please'
p2576
g68
tp2577
a(S'is there anything to do on friday'
p2578
g15
tp2579
a(S'check what time it is'
p2580
g15
tp2581
a(S'start the song'
p2582
g15
tp2583
a(S'please read time'
p2584
g15
tp2585
a(S'not briefing'
p2586
g15
tp2587
a(S'start browser'
p2588
g15
tp2589
a(S'will you check my mail'
p2590
g15
tp2591
a(S'get temperature'
p2592
g15
tp2593
a(S'can you create an event'
p2594
g15
tp2595
a(S"don't find live newsfeed"
p2596
g15
tp2597
a(S'do i have anything tomorrow'
p2598
g15
tp2599
a(S"don't i have anything today"
p2600
g15
tp2601
a(S'please open browser'
p2602
g15
tp2603
a(S"don't tell me current news"
p2604
g15
tp2605
a(S"what're the current events"
p2606
g68
tp2607
a(S"don't i have to do anything on saturday"
p2608
g15
tp2609
a(S'could you open inbox please'
p2610
g15
tp2611
a(S'turn the sound down please'
p2612
g15
tp2613
a(S'retrieve the current time'
p2614
g15
tp2615
a(S'anything in gmail'
p2616
g15
tp2617
a(S'please would you check my inbox'
p2618
g15
tp2619
a(S'add a new event please'
p2620
g15
tp2621
a(S'check my calendar on this week'
p2622
g15
tp2623
a(S"this week's forecast"
p2624
g15
tp2625
a(S'do not gather information on todays current events'
p2626
g15
tp2627
a(S'what is current events'
p2628
g68
tp2629
a(S'can you turn up the sound'
p2630
g15
tp2631
a(S'schedule event please'
p2632
g15
tp2633
a(S'can you turn up the volume'
p2634
g15
tp2635
a(S'open dot edu'
p2636
g15
tp2637
a(S"get if it's snowing this week"
p2638
g15
tp2639
a(S'can you please turn up the sound'
p2640
g15
tp2641
a(S"what's in my gmail"
p2642
g15
tp2643
a(S'volume higher please'
p2644
g15
tp2645
a(S'lower the sound'
p2646
g15
tp2647
a(S'would you open my mail please'
p2648
g15
tp2649
a(S'spotify stop playing'
p2650
g15
tp2651
a(S'get the the latest headlines'
p2652
g68
tp2653
a(S"aren't there any events on"
p2654
g15
tp2655
a(S'find the news'
p2656
g68
tp2657
a(S"what's this week's weather"
p2658
g15
tp2659
a(S'make new event please'
p2660
g15
tp2661
a(S'how is the weather'
p2662
g15
tp2663
a(S'check events for sunday'
p2664
g15
tp2665
a(S'please pause song'
p2666
g15
tp2667
a(S'get current weather'
p2668
g15
tp2669
a(S'do i have to do anything tomorrow'
p2670
g15
tp2671
a(S'is it foggy today'
p2672
g15
tp2673
a(S'what is new in new gmail please'
p2674
g15
tp2675
a(S'dont give me news'
p2676
g15
tp2677
a(S"what aren't the current news"
p2678
g15
tp2679
a(S'get clock please'
p2680
g15
tp2681
a(S'shut down my computer'
p2682
g15
tp2683
a(S'not current events please'
p2684
g15
tp2685
a(S'do i have to do anything on saturday'
p2686
g15
tp2687
a(S"what's not in news feed"
p2688
g15
tp2689
a(S'check events for wednesday'
p2690
g15
tp2691
a(S'go to dot com'
p2692
g15
tp2693
a(S'do i have anything on sunday'
p2694
g15
tp2695
a(S'what is on my calendar for tuesday'
p2696
g15
tp2697
a(S"get if it's rainy today"
p2698
g15
tp2699
a(S'what events do i have on friday'
p2700
g15
tp2701
a(S'could you please create a new event'
p2702
g15
tp2703
a(S'what time is it currently'
p2704
g15
tp2705
a(S'am i free in a week'
p2706
g15
tp2707
a(S"don't i have anything to do on next"
p2708
g15
tp2709
a(S'do i have anything on saturday'
p2710
g15
tp2711
a(S'tell me news feed'
p2712
g68
tp2713
a(S'will it snow today'
p2714
g15
tp2715
a(S"don't i have anything on sunday"
p2716
g15
tp2717
a(S'not current events'
p2718
g15
tp2719
a(S'any events on friday'
p2720
g15
tp2721
a(S'any events on wednesday'
p2722
g15
tp2723
a(S'play song'
p2724
g15
tp2725
a(S'can you turn the volume higher please'
p2726
g15
tp2727
a(S'shutdown my computer'
p2728
g15
tp2729
a(S'spotify go to the last song'
p2730
g15
tp2731
a(S'anything in my gmail'
p2732
g15
tp2733
a(S'please dont tell me the latest events'
p2734
g15
tp2735
a(S'please start spotify'
p2736
g15
tp2737
a(S'turn up the volume please'
p2738
g15
tp2739
a(S'what is in my mail please'
p2740
g15
tp2741
a(S'please retrieve the current time'
p2742
g15
tp2743
a(S"what aren't the the news"
p2744
g15
tp2745
a(S'the news'
p2746
g68
tp2747
a(S'do i have any events on friday'
p2748
g15
tp2749
a(S'make the volume zero'
p2750
g15
tp2751
a(S'check events on friday'
p2752
g15
tp2753
a(S'close window'
p2754
g15
tp2755
a(S'open dot net'
p2756
g15
tp2757
a(S'do i have anything on friday'
p2758
g15
tp2759
a(S'please spotify play last song'
p2760
g15
tp2761
a(S'do not find current events'
p2762
g15
tp2763
a(S"what's new in inbox"
p2764
g15
tp2765
a(S'please pause the song'
p2766
g15
tp2767
a(S'what are the current events'
p2768
g68
tp2769
a(S"please what's new in new mail"
p2770
g15
tp2771
a(S'spotify start the song please'
p2772
g15
tp2773
a(S'can you please make an event'
p2774
g15
tp2775
a(S'search google for'
p2776
g15
tp2777
a(S'is it freezing today'
p2778
g15
tp2779
a(S'what are the current events today'
p2780
g68
tp2781
a(S'check events on tuesday'
p2782
g15
tp2783
a(S'can you please turn off the computer'
p2784
g15
tp2785
a(S"what isn't live news"
p2786
g15
tp2787
a(S'could you check new mail please'
p2788
g15
tp2789
a(S'turn off the computer'
p2790
g15
tp2791
a(S"don't give me intel"
p2792
g15
tp2793
a(S'is there anything to do today'
p2794
g15
tp2795
a(S'please spotify pause the song'
p2796
g15
tp2797
a(S'get me the clock'
p2798
g15
tp2799
a(S'can you lock computer'
p2800
g15
tp2801
a(S'will you open gmail please'
p2802
g15
tp2803
a(S'please sound higher'
p2804
g15
tp2805
a(S'is there anything to do on'
p2806
g15
tp2807
a(S'search for please'
p2808
g15
tp2809
a(S"aren't there any events on this day"
p2810
g15
tp2811
a(S'could you check my mail'
p2812
g15
tp2813
a(S'fake news'
p2814
g68
tp2815
a(S'what events do i have on saturday'
p2816
g15
tp2817
a(S'are there any events on friday'
p2818
g15
tp2819
a(S'check my calendar for this day'
p2820
g15
tp2821
a(S'would you check my mail please'
p2822
g15
tp2823
a(S'go ahead'
p2824
g15
tp2825
a(S'not current news'
p2826
g15
tp2827
a(S'how long can this data set get'
p2828
g15
tp2829
a(S'am i free for tomorrow'
p2830
g15
tp2831
a(S'please will you check gmail'
p2832
g15
tp2833
a(S"don't get the news"
p2834
g15
tp2835
a(S'the news today'
p2836
g68
tp2837
a(S'check what time it is please'
p2838
g15
tp2839
a(S'could you add an event'
p2840
g15
tp2841
a(S'are there any events on tomorrow'
p2842
g15
tp2843
a(S'please could you open mail'
p2844
g15
tp2845
a(S"don't tell me headlines"
p2846
g15
tp2847
a(S'please lock the screen'
p2848
g15
tp2849
a(S'schedule new event'
p2850
g15
tp2851
a(S"aren't there any events in a week"
p2852
g15
tp2853
a(S"what's the weather"
p2854
g15
tp2855
a(S'please search'
p2856
g15
tp2857
a(S'can you check my gmail please'
p2858
g15
tp2859
a(S'check events for tomorrow'
p2860
g15
tp2861
a(S'clock'
p2862
g15
tp2863
a(S'good night alice'
p2864
g15
tp2865
a(S"don't tell me newsfeed"
p2866
g15
tp2867
a(S'please check my inbox'
p2868
g15
tp2869
a(S'any events on'
p2870
g15
tp2871
a(S'see ya'
p2872
g15
tp2873
a(S'is there anything i have to do in a week'
p2874
g15
tp2875
a(S"don't give me the news please"
p2876
g15
tp2877
a(S"please what's in new gmail"
p2878
g15
tp2879
a(S'please would you open my inbox'
p2880
g15
tp2881
a(S'what events do i have on tuesday'
p2882
g15
tp2883
a(S'open inbox please'
p2884
g15
tp2885
a(S"what's in my inbox please"
p2886
g15
tp2887
a(S"don't get the current events"
p2888
g15
tp2889
a(S'please close the active window'
p2890
g15
tp2891
a(S'get time please'
p2892
g15
tp2893
a(S'will it rain today'
p2894
g15
tp2895
a(S"what's this week's forecast"
p2896
g15
tp2897
a(S'check your watch please'
p2898
g15
tp2899
a(S'can you turn up the tunez'
p2900
g15
tp2901
a(S'would you open inbox please'
p2902
g15
tp2903
a(S'check mail please'
p2904
g15
tp2905
a(S'am i free'
p2906
g15
tp2907
a(S'could you open my inbox please'
p2908
g15
tp2909
a(S'shut off my computer please'
p2910
g15
tp2911
a(S'please would you check gmail'
p2912
g15
tp2913
a(S"please what's in mail"
p2914
g15
tp2915
a(S"what's not the current events"
p2916
g15
tp2917
a(S'spotify last please'
p2918
g15
tp2919
a(S'play the song before'
p2920
g15
tp2921
a(S'what do i have on tuesday'
p2922
g15
tp2923
a(S'would you check new mail'
p2924
g15
tp2925
a(S'what do i have'
p2926
g15
tp2927
a(S'please give me current events'
p2928
g68
tp2929
a(S'could you check my gmail please'
p2930
g15
tp2931
a(S'am i free on next'
p2932
g15
tp2933
a(S'can you open a browser please'
p2934
g15
tp2935
a(S'add new event'
p2936
g15
tp2937
a(S'could you check new gmail please'
p2938
g15
tp2939
a(S"what's in gmail"
p2940
g15
tp2941
a(S"what's if it's freezing this week"
p2942
g15
tp2943
a(S'am i free on friday'
p2944
g15
tp2945
a(S"get if it's cloudy today"
p2946
g15
tp2947
a(S'please can you make it louder'
p2948
g15
tp2949
a(S'mute'
p2950
g15
tp2951
a(S'please open my gmail'
p2952
g15
tp2953
a(S'please shut down my computer'
p2954
g15
tp2955
a(S"don't get current events"
p2956
g15
tp2957
a(S'please would you check new mail'
p2958
g15
tp2959
a(S'check google calendar on this day'
p2960
g15
tp2961
a(S'please will you check inbox'
p2962
g15
tp2963
a(S'turn up the sound please'
p2964
g15
tp2965
a(S'do i have to do anything next'
p2966
g15
tp2967
a(S'what is on my calendar for'
p2968
g15
tp2969
a(S'check calendar for friday'
p2970
g15
tp2971
a(S'will you check gmail'
p2972
g15
tp2973
a(S'turn up the tunes'
p2974
g15
tp2975
a(S'dont give me information of todays news'
p2976
g15
tp2977
a(S"get today's forecast"
p2978
g15
tp2979
a(S'is there anything i have to do on sunday'
p2980
g15
tp2981
a(S'get weather'
p2982
g15
tp2983
a(S'are there any events on thursday'
p2984
g15
tp2985
a(S'check events for thursday'
p2986
g15
tp2987
a(S'please make event'
p2988
g15
tp2989
a(S'are there any events on sunday'
p2990
g15
tp2991
a(S'what do i have on today'
p2992
g15
tp2993
a(S'check my inbox please'
p2994
g15
tp2995
a(S'what events do i have on sunday'
p2996
g15
tp2997
a(S"how's the forecast"
p2998
g15
tp2999
a(S"what's if it's rainy today"
p3000
g15
tp3001
a(S'open a browser please'
p3002
g15
tp3003
a(S'check calendar for tuesday'
p3004
g15
tp3005
a(S'please could you check gmail'
p3006
g15
tp3007
a(S'can you check mail'
p3008
g15
tp3009
a(S'check my calendar on saturday'
p3010
g15
tp3011
a(S'open browser'
p3012
g15
tp3013
a(S"what's not in live newsfeed"
p3014
g15
tp3015
a(S'check google calendar for tomorrow'
p3016
g15
tp3017
a(S'please kill the current window'
p3018
g15
tp3019
a(S'can you create new event please'
p3020
g15
tp3021
a(S'what is new in gmail please'
p3022
g15
tp3023
a(S'spotify skip'
p3024
g15
tp3025
a(S'check calendar on'
p3026
g15
tp3027
a(S'stop spotify'
p3028
g15
tp3029
a(S'please could you open my mail'
p3030
g15
tp3031
a(S'check my inbox'
p3032
g15
tp3033
a(S'please would you open my mail'
p3034
g15
tp3035
a(S'okay alex'
p3036
g15
tp3037
a(S"what's the temperature"
p3038
g15
tp3039
a(S'what is new in my mail'
p3040
g15
tp3041
a(S'lock the screen'
p3042
g15
tp3043
a(S"if it's cold this week"
p3044
g15
tp3045
a(S'could you check new mail'
p3046
g15
tp3047
a(S'schedule a new event please'
p3048
g15
tp3049
a(S'not whats going on in the world todays please'
p3050
g15
tp3051
a(S'do i have anything on thursday'
p3052
g15
tp3053
a(S"what isn't news"
p3054
g15
tp3055
a(S'do i have any events on next'
p3056
g15
tp3057
a(S'good night'
p3058
g15
tp3059
a(S'can you create a new event please'
p3060
g15
tp3061
a(S'turn the volume to zero'
p3062
g15
tp3063
a(S'please check what time it is'
p3064
g15
tp3065
a(S"what's if it's foggy this week"
p3066
g15
tp3067
a(S'am i free for friday'
p3068
g15
tp3069
a(S'check inbox'
p3070
g15
tp3071
a(S'please spotify start'
p3072
g15
tp3073
a(S"don't gather information on todays current events please"
p3074
g15
tp3075
a(S'could you please make new event'
p3076
g15
tp3077
a(S"what're the current news"
p3078
g68
tp3079
a(S"what're the newsfeed"
p3080
g68
tp3081
a(S'lock computer'
p3082
g15
tp3083
a(S'will it snow this week'
p3084
g15
tp3085
a(S"get if it's raining this week"
p3086
g15
tp3087
a(S'do i have any events on thursday'
p3088
g15
tp3089
a(S'check calendar on thursday'
p3090
g15
tp3091
a(S'exit'
p3092
g15
tp3093
a(S'please pause spotify'
p3094
g15
tp3095
a(S'headlines today'
p3096
g68
tp3097
a(S"please what's new in my gmail"
p3098
g15
tp3099
a(S"aren't there any events on wednesday"
p3100
g15
tp3101
a(S'live newsfeed today'
p3102
g68
tp3103
a(S"if it's cold today"
p3104
g15
tp3105
a(S'do not find the news'
p3106
g15
tp3107
a(S'dont whats going on in the world todays'
p3108
g15
tp3109
a(S'would you open gmail'
p3110
g15
tp3111
a(S"what're the live news"
p3112
g68
tp3113
a(S'open dot gov'
p3114
g15
tp3115
a(S"what's if it's hot today"
p3116
g15
tp3117
a(S'check google calendar for today'
p3118
g15
tp3119
a(S'do i have anything to do on monday'
p3120
g15
tp3121
a(S'can you please turn up the beat'
p3122
g15
tp3123
a(S'please what is new in new gmail'
p3124
g15
tp3125
a(S"what's not the newsfeed"
p3126
g15
tp3127
a(S'get the current events'
p3128
g68
tp3129
a(S'please spotify last song'
p3130
g15
tp3131
a(S'please could you open inbox'
p3132
g15
tp3133
a(S"today's news feed"
p3134
g68
tp3135
a(S'could you open gmail please'
p3136
g15
tp3137
a(S'can you check my mail please'
p3138
g15
tp3139
a(S'do i have any events on sunday'
p3140
g15
tp3141
a(S'what is news'
p3142
g68
tp3143
a(S'any events on next'
p3144
g15
tp3145
a(S'can you open a browser'
p3146
g15
tp3147
a(S'dont find the news'
p3148
g15
tp3149
a(S'please spotify last'
p3150
g15
tp3151
a(S'please what is in mail'
p3152
g15
tp3153
a(S'could you please add a new event'
p3154
g15
tp3155
a(S'what events are on'
p3156
g15
tp3157
a(S'alice next please'
p3158
g15
tp3159
a(S'would you check new gmail'
p3160
g15
tp3161
a(S'do i have anything to do in a month'
p3162
g15
tp3163
a(S'please spotify go '
p3164
g15
tp3165
a(S'find headlines'
p3166
g68
tp3167
a(S'do i have to do anything on this day'
p3168
g15
tp3169
a(S'please google'
p3170
g15
tp3171
a(S'what events do i have on monday'
p3172
g15
tp3173
a(S"don't i have to do anything today"
p3174
g15
tp3175
a(S'can you please schedule a new event'
p3176
g15
tp3177
a(S'what is in my gmail please'
p3178
g15
tp3179
a(S'please will you open my inbox'
p3180
g15
tp3181
a(S'check mail'
p3182
g15
tp3183
a(S'issue commands'
p3184
g15
tp3185
a(S'get live newsfeed'
p3186
g68
tp3187
a(S'can you close the current window'
p3188
g15
tp3189
a(S'what do i have to do on friday'
p3190
g15
tp3191
a(S'can you please open a browser'
p3192
g15
tp3193
a(S'what are the news feed'
p3194
g68
tp3195
a(S'could you make event'
p3196
g15
tp3197
a(S'get the time'
p3198
g15
tp3199
a(S"don't tell me news"
p3200
g15
tp3201
a(S'get clock'
p3202
g15
tp3203
a(S'could you add event please'
p3204
g15
tp3205
a(S'at this point i am writting random stuff '
p3206
g15
tp3207
a(S"what's not in live news"
p3208
g15
tp3209
a(S"what's new in new gmail please"
p3210
g15
tp3211
a(S'turn up the tune'
p3212
g15
tp3213
a(S'check my calendar for sunday'
p3214
g15
tp3215
a(S'could you check my inbox please'
p3216
g15
tp3217
a(S'check google calendar on sunday'
p3218
g15
tp3219
a(S'please go to dot com'
p3220
g15
tp3221
a(S'what are the the news'
p3222
g68
tp3223
a(S'please be quiet'
p3224
g15
tp3225
a(S'can you create event please'
p3226
g15
tp3227
a(S'shut down the computer'
p3228
g15
tp3229
a(S"how's the forecast this week"
p3230
g15
tp3231
a(S'check calendar on today'
p3232
g15
tp3233
a(S'do i have anything to do on tuesday'
p3234
g15
tp3235
a(S'what events do i have on next'
p3236
g15
tp3237
a(S'next'
p3238
g15
tp3239
a(S'create a new event please'
p3240
g15
tp3241
a(S'will you open my mail'
p3242
g15
tp3243
a(S"don't i have to do anything in a week"
p3244
g15
tp3245
a(S'can you please shutdown the computer'
p3246
g15
tp3247
a(S"please what's new in my mail"
p3248
g15
tp3249
a(S'check new mail'
p3250
g15
tp3251
a(S'any events on sunday'
p3252
g15
tp3253
a(S'please could you open my inbox'
p3254
g15
tp3255
a(S'please open'
p3256
g15
tp3257
a(S'could you please create event'
p3258
g15
tp3259
a(S'please go to'
p3260
g15
tp3261
a(S"what's if it's snowing this week"
p3262
g15
tp3263
a(S'what do i have in a week'
p3264
g15
tp3265
a(S'check my calendar'
p3266
g15
tp3267
a(S'turn up the beat'
p3268
g15
tp3269
a(S'please louder'
p3270
g15
tp3271
a(S"don't i have anything to do in a week"
p3272
g15
tp3273
a(S"don't get news"
p3274
g15
tp3275
a(S'read the clock please'
p3276
g15
tp3277
a(S'please check the clock'
p3278
g15
tp3279
a(S'please kill this window'
p3280
g15
tp3281
a(S'go to'
p3282
g15
tp3283
a(S'is it freezing this week'
p3284
g15
tp3285
a(S'do i have anything'
p3286
g15
tp3287
a(S"what's not the news"
p3288
g15
tp3289
a(S"how's the weather"
p3290
g15
tp3291
a(S'pause the song please'
p3292
g15
tp3293
a(S'do i have to do anything on next'
p3294
g15
tp3295
a(S'can you please shut off my computer'
p3296
g15
tp3297
a(S'what is on my calendar for this month'
p3298
g15
tp3299
a(S'please spotify previous song'
p3300
g15
tp3301
a(S"don't i have anything to do on tuesday"
p3302
g15
tp3303
a(S'what are the live newsfeed'
p3304
g68
tp3305
a(S'check my calendar for'
p3306
g15
tp3307
a(S"what's not the news feed"
p3308
g15
tp3309
a(S"what aren't the live newsfeed"
p3310
g15
tp3311
a(S'please will you check mail'
p3312
g15
tp3313
a(S'check calendar on tuesday'
p3314
g15
tp3315
a(S'do not tell me hwat is going on in the world todays'
p3316
g15
tp3317
a(S'read the time'
p3318
g15
tp3319
a(S'what is on my calendar for next'
p3320
g15
tp3321
a(S'anything in my inbox'
p3322
g15
tp3323
a(S'please create event'
p3324
g15
tp3325
a(S"don't i have anything to do on"
p3326
g15
tp3327
a(S'will you not get the current events for me'
p3328
g15
tp3329
a(S"please what's new in my inbox"
p3330
g15
tp3331
a(S'spotify start please'
p3332
g15
tp3333
a(S'can you please add a new event'
p3334
g15
tp3335
a(S'check my gmail'
p3336
g15
tp3337
a(S'will you open inbox please'
p3338
g15
tp3339
a(S'do i have anything in a month'
p3340
g15
tp3341
a(S'check calendar for'
p3342
g15
tp3343
a(S'what do i have to do in a week'
p3344
g15
tp3345
a(S'please will you check my mail'
p3346
g15
tp3347
a(S'is there anything i have to do today'
p3348
g15
tp3349
a(S'can you please create event'
p3350
g15
tp3351
a(S'open inbox'
p3352
g15
tp3353
a(S'do i have to do anything on wednesday'
p3354
g15
tp3355
a(S'please spotify pause'
p3356
g15
tp3357
a(S'what is on my calendar for tomorrow'
p3358
g15
tp3359
a(S'any new mail'
p3360
g15
tp3361
a(S'get me the clock please'
p3362
g15
tp3363
a(S"what's the live newsfeed"
p3364
g68
tp3365
a(S"how's the forecast today"
p3366
g15
tp3367
a(S"don't get live news"
p3368
g15
tp3369
a(S'when is it please'
p3370
g15
tp3371
a(S'turn down the volume'
p3372
g15
tp3373
a(S'any events on today'
p3374
g15
tp3375
a(S'please google search'
p3376
g15
tp3377
a(S'are there any events in a month'
p3378
g15
tp3379
a(S'is there anything i have to do tomorrow'
p3380
g15
tp3381
a(S'give me the news'
p3382
g68
tp3383
a(S'anything new in my gmail'
p3384
g15
tp3385
a(S'spotify play the last song'
p3386
g15
tp3387
a(S"don't get live newsfeed"
p3388
g15
tp3389
a(S'please what is new in gmail'
p3390
g15
tp3391
a(S"what aren't the live news"
p3392
g15
tp3393
a(S'please spotify start the song'
p3394
g15
tp3395
a(S'could you schedule new event'
p3396
g15
tp3397
a(S'can you turn up the volume please'
p3398
g15
tp3399
a(S'todays headlines'
p3400
g68
tp3401
a(S"don't get me the news todays"
p3402
g15
tp3403
a(S'could you please schedule a new event'
p3404
g15
tp3405
a(S'start'
p3406
g15
tp3407
a(S'pause please'
p3408
g15
tp3409
a(S"what's in my mail please"
p3410
g15
tp3411
a(S"don't i have anything on friday"
p3412
g15
tp3413
a(S'can you check my inbox'
p3414
g15
tp3415
a(S'be quiet'
p3416
g15
tp3417
a(S'please add event'
p3418
g15
tp3419
a(S'can you add an event'
p3420
g15
tp3421
a(S"what's not in current news"
p3422
g15
tp3423
a(S'could you make new event'
p3424
g15
tp3425
a(S'search google please for'
p3426
g15
tp3427
a(S'will you check inbox please'
p3428
g15
tp3429
a(S'can you add event please'
p3430
g15
tp3431
a(S'turn up the beat please'
p3432
g15
tp3433
a(S'start a default browser please'
p3434
g15
tp3435
a(S'please get the clock'
p3436
g15
tp3437
a(S'turn off my computer'
p3438
g15
tp3439
a(S'please pause'
p3440
g15
tp3441
a(S'shut down please'
p3442
g15
tp3443
a(S'check google calendar on saturday'
p3444
g15
tp3445
a(S'spotify go back'
p3446
g15
tp3447
a(S'please play spotify '
p3448
g15
tp3449
a(S"what's the weather this week"
p3450
g15
tp3451
a(S'what is in my inbox'
p3452
g15
tp3453
a(S'check calendar on next'
p3454
g15
tp3455
a(S'make the sound higher'
p3456
g15
tp3457
a(S'get current forecast'
p3458
g15
tp3459
a(S'next song'
p3460
g15
tp3461
a(S'please will you open gmail'
p3462
g15
tp3463
a(S'is there anything i have to do on tomorrow'
p3464
g15
tp3465
a(S'could you open inbox'
p3466
g15
tp3467
a(S"don't i have to do anything on friday"
p3468
g15
tp3469
a(S'can you please schedule event'
p3470
g15
tp3471
a(S'can you please close the active window'
p3472
g15
tp3473
a(S'is it snowing today'
p3474
g15
tp3475
a(S'can you please kill active window'
p3476
g15
tp3477
a(S'please add new event'
p3478
g15
tp3479
a(S"what's new in my inbox please"
p3480
g15
tp3481
a(S'is there anything to do on saturday'
p3482
g15
tp3483
a(S'what is on my calendar for sunday'
p3484
g15
tp3485
a(S"if it's cloudy today"
p3486
g15
tp3487
a(S'please could you open my gmail'
p3488
g15
tp3489
a(S'what is news feed'
p3490
g68
tp3491
a(S"what's new in my mail"
p3492
g15
tp3493
a(S'sweet dreams'
p3494
g15
tp3495
a(S'is there anything to do on thursday'
p3496
g15
tp3497
a(S'find current events'
p3498
g68
tp3499
a(S'please start browser'
p3500
g15
tp3501
a(S"what're not the live news"
p3502
g15
tp3503
a(S'check calendar for next'
p3504
g15
tp3505
a(S'mute please'
p3506
g15
tp3507
a(S'is there anything to do in a month'
p3508
g15
tp3509
a(S'shut off my computer'
p3510
g15
tp3511
a(S'search please'
p3512
g15
tp3513
a(S'would you check new gmail please'
p3514
g15
tp3515
a(S'check my calendar on sunday'
p3516
g15
tp3517
a(S'what are the news'
p3518
g68
tp3519
a(S'give me the current events please'
p3520
g68
tp3521
a(S'any new gmail'
p3522
g15
tp3523
a(S'check google calendar on friday'
p3524
g15
tp3525
a(S'forecast'
p3526
g15
tp3527
a(S"what's not in newsfeed"
p3528
g15
tp3529
a(S"if it's foggy today"
p3530
g15
tp3531
a(S"don't i have anything in a month"
p3532
g15
tp3533
a(S'will you check new gmail please'
p3534
g15
tp3535
a(S'what is new in my inbox'
p3536
g15
tp3537
a(S"what's the live news feed"
p3538
g68
tp3539
a(S'what is new in mail'
p3540
g15
tp3541
a(S'turn my computer off please'
p3542
g15
tp3543
a(S'news feed'
p3544
g68
tp3545
a(S"how's the temperature this week"
p3546
g15
tp3547
a(S'am i free for sunday'
p3548
g15
tp3549
a(S'check my calendar for this day'
p3550
g15
tp3551
a(S'make event please'
p3552
g15
tp3553
a(S'can you please kill the active window'
p3554
g15
tp3555
a(S'can you lock computer please'
p3556
g15
tp3557
a(S'turn up the the beat'
p3558
g15
tp3559
a(S'do i have anything today'
p3560
g15
tp3561
a(S'check calendar on monday'
p3562
g15
tp3563
a(S'do i have to do anything today'
p3564
g15
tp3565
a(S'anything in inbox'
p3566
g15
tp3567
a(S'not intelligence report'
p3568
g15
tp3569
a(S'could you open my gmail'
p3570
g15
tp3571
a(S"what're the news"
p3572
g68
tp3573
a(S'schedule event'
p3574
g15
tp3575
a(S'can you put me on the lock screen'
p3576
g15
tp3577
a(S'can you schedule new event'
p3578
g15
tp3579
a(S'please when is it'
p3580
g15
tp3581
a(S"what's if it's hot this week"
p3582
g15
tp3583
a(S'can you shut down my computer'
p3584
g15
tp3585
a(S'could you please make event'
p3586
g15
tp3587
a(S"if it's hot this week"
p3588
g15
tp3589
a(S'check google calendar'
p3590
g15
tp3591
a(S"what's not in live news feed"
p3592
g15
tp3593
a(S"don't i have any events on tomorrow"
p3594
g15
tp3595
a(S'spotify pause please'
p3596
g15
tp3597
a(S'will you check my gmail please'
p3598
g15
tp3599
a(S"what're not the current events"
p3600
g15
tp3601
a(S"what's not the headlines"
p3602
g15
tp3603
a(S"what's new in my gmail please"
p3604
g15
tp3605
a(S'would you open my gmail'
p3606
g15
tp3607
a(S"not today's current news"
p3608
g15
tp3609
a(S"don't i have anything in a week"
p3610
g15
tp3611
a(S"please don't tell me whats going on in the news please"
p3612
g15
tp3613
a(S'please get the time'
p3614
g15
tp3615
a(S'turn up the tunez'
p3616
g15
tp3617
a(S'please would you open inbox'
p3618
g15
tp3619
a(S'could you please make a new event'
p3620
g15
tp3621
a(S"what's the news"
p3622
g68
tp3623
a(S'is there anything i have to do on this day'
p3624
g15
tp3625
a(S'can you turn my computer off'
p3626
g15
tp3627
a(S'go to dot gov'
p3628
g15
tp3629
a(S'do i have anything on'
p3630
g15
tp3631
a(S'check calendar on sunday'
p3632
g15
tp3633
a(S'spotify skip ahead please'
p3634
g15
tp3635
a(S"don't tell me live newsfeed"
p3636
g15
tp3637
a(S'check events on thursday'
p3638
g15
tp3639
a(S'can you lock my computer please'
p3640
g15
tp3641
a(S"what's today's forecast"
p3642
g15
tp3643
a(S"don't i have any events on wednesday"
p3644
g15
tp3645
a(S'could you check my mail please'
p3646
g15
tp3647
a(S'alex'
p3648
g15
tp3649
a(S'add event please'
p3650
g15
tp3651
a(S"what's new in my inbox"
p3652
g15
tp3653
a(S'please what is new in new mail'
p3654
g15
tp3655
a(S'spotify stop'
p3656
g15
tp3657
a(S'get time'
p3658
g15
tp3659
a(S'is there anything to do in a week'
p3660
g15
tp3661
a(S'can you close this window'
p3662
g15
tp3663
a(S'what is on my calendar'
p3664
g15
tp3665
a(S'what is live newsfeed'
p3666
g68
tp3667
a(S'what is on my calendar for thursday'
p3668
g15
tp3669
a(S'can you not get the latest headlines'
p3670
g15
tp3671
a(S'can you please shut down my computer'
p3672
g15
tp3673
a(S"please what's new in mail"
p3674
g15
tp3675
a(S'what is going on in the world today'
p3676
g68
tp3677
a(S'predict the outcome on a new document'
p3678
g15
tp3679
a(S'open my gmail'
p3680
g15
tp3681
a(S'could you add an event please'
p3682
g15
tp3683
a(S'get the clock please'
p3684
g15
tp3685
a(S"please what's new in new gmail"
p3686
g15
tp3687
a(S"don't i have anything on saturday"
p3688
g15
tp3689
a(S"get this week's weather"
p3690
g15
tp3691
a(S'check my calendar on wednesday'
p3692
g15
tp3693
a(S'can you create an event please'
p3694
g15
tp3695
a(S"don't debrief me"
p3696
g15
tp3697
a(S'please close this window'
p3698
g15
tp3699
a(S'can you please shut up'
p3700
g15
tp3701
a(S'headlines'
p3702
g68
tp3703
a(S"what're not the headlines"
p3704
g15
tp3705
a(S'get news'
p3706
g68
tp3707
a(S"what's in my gmail please"
p3708
g15
tp3709
a(S'what is in mail please'
p3710
g15
tp3711
a(S'do not tell me the current events'
p3712
g15
tp3713
a(S'not news'
p3714
g15
tp3715
a(S"not today's live news feed"
p3716
g15
tp3717
a(S'please will you open my mail'
p3718
g15
tp3719
a(S'pause song please'
p3720
g15
tp3721
a(S'am i free on monday'
p3722
g15
tp3723
a(S'find news feed'
p3724
g68
tp3725
asS'classifier'
p3726
ccopy_reg
_reconstructor
p3727
(csklearn.pipeline
Pipeline
p3728
c__builtin__
object
p3729
Ntp3730
Rp3731
(dp3732
S'_sklearn_version'
p3733
S'0.18.1'
p3734
sS'steps'
p3735
(lp3736
(S'vect'
p3737
g3727
(csklearn.feature_extraction.text
CountVectorizer
p3738
g3729
Ntp3739
Rp3740
(dp3741
S'decode_error'
p3742
Vstrict
p3743
sS'lowercase'
p3744
I01
sS'stop_words'
p3745
NsS'vocabulary'
p3746
NsS'tokenizer'
p3747
NsS'encoding'
p3748
Vutf-8
p3749
sS'token_pattern'
p3750
V(?u)\u005cb\u005cw\u005cw+\u005cb
p3751
sS'input'
p3752
Vcontent
p3753
sS'analyzer'
p3754
Vword
p3755
sS'vocabulary_'
p3756
(dp3757
Vraining
p3758
cnumpy.core.multiarray
scalar
p3759
(cnumpy
dtype
p3760
(S'i8'
p3761
I0
I1
tp3762
Rp3763
(I3
S'<'
p3764
NNNI-1
I-1
I0
tp3765
bS'\xab\x00\x00\x00\x00\x00\x00\x00'
p3766
tp3767
Rp3768
sVtodays
p3769
g3759
(g3763
S'\xdf\x00\x00\x00\x00\x00\x00\x00'
p3770
tp3771
Rp3772
sVmute
p3773
g3759
(g3763
S'\x86\x00\x00\x00\x00\x00\x00\x00'
p3774
tp3775
Rp3776
sVbyebye
p3777
g3759
(g3763
S'\x1b\x00\x00\x00\x00\x00\x00\x00'
p3778
tp3779
Rp3780
sVskip
p3781
g3759
(g3763
S'\xc3\x00\x00\x00\x00\x00\x00\x00'
p3782
tp3783
Rp3784
sVrandom
p3785
g3759
(g3763
S'\xad\x00\x00\x00\x00\x00\x00\x00'
p3786
tp3787
Rp3788
sVmonth
p3789
g3759
(g3763
S'\x84\x00\x00\x00\x00\x00\x00\x00'
p3790
tp3791
Rp3792
sVwatch
p3793
g3759
(g3763
S'\xec\x00\x00\x00\x00\x00\x00\x00'
p3794
tp3795
Rp3796
sVnot
p3797
g3759
(g3763
S'\x90\x00\x00\x00\x00\x00\x00\x00'
p3798
tp3799
Rp3800
sVsofter
p3801
g3759
(g3763
S'\xc6\x00\x00\x00\x00\x00\x00\x00'
p3802
tp3803
Rp3804
sVkill
p3805
g3759
(g3763
S'u\x00\x00\x00\x00\x00\x00\x00'
p3806
tp3807
Rp3808
sVusing
p3809
g3759
(g3763
S'\xea\x00\x00\x00\x00\x00\x00\x00'
p3810
tp3811
Rp3812
sVgo
p3813
g3759
(g3763
S'Y\x00\x00\x00\x00\x00\x00\x00'
p3814
tp3815
Rp3816
sVcold
p3817
g3759
(g3763
S'&\x00\x00\x00\x00\x00\x00\x00'
p3818
tp3819
Rp3820
sVfind
p3821
g3759
(g3763
S'K\x00\x00\x00\x00\x00\x00\x00'
p3822
tp3823
Rp3824
sVprevious
p3825
g3759
(g3763
S'\xa2\x00\x00\x00\x00\x00\x00\x00'
p3826
tp3827
Rp3828
sVcell
p3829
g3759
(g3763
S' \x00\x00\x00\x00\x00\x00\x00'
p3830
tp3831
Rp3832
sVpause
p3833
g3759
(g3763
S'\x9a\x00\x00\x00\x00\x00\x00\x00'
p3834
tp3835
Rp3836
sVcall
p3837
g3759
(g3763
S'\x1d\x00\x00\x00\x00\x00\x00\x00'
p3838
tp3839
Rp3840
sVsnowing
p3841
g3759
(g3763
S'\xc5\x00\x00\x00\x00\x00\x00\x00'
p3842
tp3843
Rp3844
sVsend
p3845
g3759
(g3763
S'\xbc\x00\x00\x00\x00\x00\x00\x00'
p3846
tp3847
Rp3848
sVsunday
p3849
g3759
(g3763
S'\xcf\x00\x00\x00\x00\x00\x00\x00'
p3850
tp3851
Rp3852
sVthursday
p3853
g3759
(g3763
S'\xdb\x00\x00\x00\x00\x00\x00\x00'
p3854
tp3855
Rp3856
sVshould
p3857
g3759
(g3763
S'\xbe\x00\x00\x00\x00\x00\x00\x00'
p3858
tp3859
Rp3860
sVto
p3861
g3759
(g3763
S'\xdd\x00\x00\x00\x00\x00\x00\x00'
p3862
tp3863
Rp3864
sVwindow
p3865
g3759
(g3763
S'\xf5\x00\x00\x00\x00\x00\x00\x00'
p3866
tp3867
Rp3868
sVgoing
p3869
g3759
(g3763
S'Z\x00\x00\x00\x00\x00\x00\x00'
p3870
tp3871
Rp3872
sVweather
p3873
g3759
(g3763
S'\xee\x00\x00\x00\x00\x00\x00\x00'
p3874
tp3875
Rp3876
sVmail
p3877
g3759
(g3763
S'~\x00\x00\x00\x00\x00\x00\x00'
p3878
tp3879
Rp3880
sVbye
p3881
g3759
(g3763
S'\x1a\x00\x00\x00\x00\x00\x00\x00'
p3882
tp3883
Rp3884
sVreal
p3885
g3759
(g3763
S'\xb0\x00\x00\x00\x00\x00\x00\x00'
p3886
tp3887
Rp3888
sVdo
p3889
g3759
(g3763
S'7\x00\x00\x00\x00\x00\x00\x00'
p3890
tp3891
Rp3892
sVpredict
p3893
g3759
(g3763
S'\xa0\x00\x00\x00\x00\x00\x00\x00'
p3894
tp3895
Rp3896
sVgood
p3897
g3759
(g3763
S'[\x00\x00\x00\x00\x00\x00\x00'
p3898
tp3899
Rp3900
sVemergency
p3901
g3759
(g3763
S'B\x00\x00\x00\x00\x00\x00\x00'
p3902
tp3903
Rp3904
sVget
p3905
g3759
(g3763
S'U\x00\x00\x00\x00\x00\x00\x00'
p3906
tp3907
Rp3908
sVya
p3909
g3759
(g3763
S'\xf9\x00\x00\x00\x00\x00\x00\x00'
p3910
tp3911
Rp3912
sVmaterial
p3913
g3759
(g3763
S'\x80\x00\x00\x00\x00\x00\x00\x00'
p3914
tp3915
Rp3916
sVfreezing
p3917
g3759
(g3763
S'P\x00\x00\x00\x00\x00\x00\x00'
p3918
tp3919
Rp3920
sVaren
p3921
g3759
(g3763
S'\r\x00\x00\x00\x00\x00\x00\x00'
p3922
tp3923
Rp3924
sVreport
p3925
g3759
(g3763
S'\xb2\x00\x00\x00\x00\x00\x00\x00'
p3926
tp3927
Rp3928
sVworld
p3929
g3759
(g3763
S'\xf6\x00\x00\x00\x00\x00\x00\x00'
p3930
tp3931
Rp3932
sVnow
p3933
g3759
(g3763
S'\x91\x00\x00\x00\x00\x00\x00\x00'
p3934
tp3935
Rp3936
sVday
p3937
g3759
(g3763
S'/\x00\x00\x00\x00\x00\x00\x00'
p3938
tp3939
Rp3940
sVdreams
p3941
g3759
(g3763
S'>\x00\x00\x00\x00\x00\x00\x00'
p3942
tp3943
Rp3944
sVintel
p3945
g3759
(g3763
S'o\x00\x00\x00\x00\x00\x00\x00'
p3946
tp3947
Rp3948
sVshoulder
p3949
g3759
(g3763
S'\xbf\x00\x00\x00\x00\x00\x00\x00'
p3950
tp3951
Rp3952
sVmoderate
p3953
g3759
(g3763
S'\x82\x00\x00\x00\x00\x00\x00\x00'
p3954
tp3955
Rp3956
sValex
p3957
g3759
(g3763
S'\x04\x00\x00\x00\x00\x00\x00\x00'
p3958
tp3959
Rp3960
sVlike
p3961
g3759
(g3763
S'x\x00\x00\x00\x00\x00\x00\x00'
p3962
tp3963
Rp3964
sVgossips
p3965
g3759
(g3763
S']\x00\x00\x00\x00\x00\x00\x00'
p3966
tp3967
Rp3968
sVdidn
p3969
g3759
(g3763
S'6\x00\x00\x00\x00\x00\x00\x00'
p3970
tp3971
Rp3972
sVwednesday
p3973
g3759
(g3763
S'\xef\x00\x00\x00\x00\x00\x00\x00'
p3974
tp3975
Rp3976
sVcloudy
p3977
g3759
(g3763
S'%\x00\x00\x00\x00\x00\x00\x00'
p3978
tp3979
Rp3980
sVtry
p3981
g3759
(g3763
S'\xe2\x00\x00\x00\x00\x00\x00\x00'
p3982
tp3983
Rp3984
sVtunez
p3985
g3759
(g3763
S'\xe6\x00\x00\x00\x00\x00\x00\x00'
p3986
tp3987
Rp3988
sVgimme
p3989
g3759
(g3763
S'V\x00\x00\x00\x00\x00\x00\x00'
p3990
tp3991
Rp3992
sVstuff
p3993
g3759
(g3763
S'\xce\x00\x00\x00\x00\x00\x00\x00'
p3994
tp3995
Rp3996
sVnight
p3997
g3759
(g3763
S'\x8e\x00\x00\x00\x00\x00\x00\x00'
p3998
tp3999
Rp4000
sVtunes
p4001
g3759
(g3763
S'\xe5\x00\x00\x00\x00\x00\x00\x00'
p4002
tp4003
Rp4004
sVhwat
p4005
g3759
(g3763
S'g\x00\x00\x00\x00\x00\x00\x00'
p4006
tp4007
Rp4008
sVout
p4009
g3759
(g3763
S'\x98\x00\x00\x00\x00\x00\x00\x00'
p4010
tp4011
Rp4012
sVclassifier
p4013
g3759
(g3763
S'"\x00\x00\x00\x00\x00\x00\x00'
p4014
tp4015
Rp4016
sVteh
p4017
g3759
(g3763
S'\xd2\x00\x00\x00\x00\x00\x00\x00'
p4018
tp4019
Rp4020
sVset
p4021
g3759
(g3763
S'\xbd\x00\x00\x00\x00\x00\x00\x00'
p4022
tp4023
Rp4024
sVretrieve
p4025
g3759
(g3763
S'\xb3\x00\x00\x00\x00\x00\x00\x00'
p4026
tp4027
Rp4028
sVee
p4029
g3759
(g3763
S'A\x00\x00\x00\x00\x00\x00\x00'
p4030
tp4031
Rp4032
sVintelligence
p4033
g3759
(g3763
S'p\x00\x00\x00\x00\x00\x00\x00'
p4034
tp4035
Rp4036
sVedu
p4037
g3759
(g3763
S'@\x00\x00\x00\x00\x00\x00\x00'
p4038
tp4039
Rp4040
sVback
p4041
g3759
(g3763
S'\x0f\x00\x00\x00\x00\x00\x00\x00'
p4042
tp4043
Rp4044
sVhail
p4045
g3759
(g3763
S'`\x00\x00\x00\x00\x00\x00\x00'
p4046
tp4047
Rp4048
sValice
p4049
g3759
(g3763
S'\x05\x00\x00\x00\x00\x00\x00\x00'
p4050
tp4051
Rp4052
sVsee
p4053
g3759
(g3763
S'\xbb\x00\x00\x00\x00\x00\x00\x00'
p4054
tp4055
Rp4056
sVlouder
p4057
g3759
(g3763
S'|\x00\x00\x00\x00\x00\x00\x00'
p4058
tp4059
Rp4060
sVare
p4061
g3759
(g3763
S'\x0c\x00\x00\x00\x00\x00\x00\x00'
p4062
tp4063
Rp4064
sVclose
p4065
g3759
(g3763
S'$\x00\x00\x00\x00\x00\x00\x00'
p4066
tp4067
Rp4068
sVcalendar
p4069
g3759
(g3763
S'\x1c\x00\x00\x00\x00\x00\x00\x00'
p4070
tp4071
Rp4072
sVextract
p4073
g3759
(g3763
S'F\x00\x00\x00\x00\x00\x00\x00'
p4074
tp4075
Rp4076
sVevent
p4077
g3759
(g3763
S'C\x00\x00\x00\x00\x00\x00\x00'
p4078
tp4079
Rp4080
sVgmail
p4081
g3759
(g3763
S'X\x00\x00\x00\x00\x00\x00\x00'
p4082
tp4083
Rp4084
sVcategory
p4085
g3759
(g3763
S'\x1f\x00\x00\x00\x00\x00\x00\x00'
p4086
tp4087
Rp4088
sVwhat
p4089
g3759
(g3763
S'\xf1\x00\x00\x00\x00\x00\x00\x00'
p4090
tp4091
Rp4092
sVfor
p4093
g3759
(g3763
S'M\x00\x00\x00\x00\x00\x00\x00'
p4094
tp4095
Rp4096
sVclock
p4097
g3759
(g3763
S'#\x00\x00\x00\x00\x00\x00\x00'
p4098
tp4099
Rp4100
sVdebrief
p4101
g3759
(g3763
S'0\x00\x00\x00\x00\x00\x00\x00'
p4102
tp4103
Rp4104
sVcurrently
p4105
g3759
(g3763
S'-\x00\x00\x00\x00\x00\x00\x00'
p4106
tp4107
Rp4108
sVplease
p4109
g3759
(g3763
S'\x9d\x00\x00\x00\x00\x00\x00\x00'
p4110
tp4111
Rp4112
sVbrief
p4113
g3759
(g3763
S'\x16\x00\x00\x00\x00\x00\x00\x00'
p4114
tp4115
Rp4116
sVforecast
p4117
g3759
(g3763
S'N\x00\x00\x00\x00\x00\x00\x00'
p4118
tp4119
Rp4120
sVcurrent
p4121
g3759
(g3763
S',\x00\x00\x00\x00\x00\x00\x00'
p4122
tp4123
Rp4124
sVre
p4125
g3759
(g3763
S'\xae\x00\x00\x00\x00\x00\x00\x00'
p4126
tp4127
Rp4128
sVexit
p4129
g3759
(g3763
S'E\x00\x00\x00\x00\x00\x00\x00'
p4130
tp4131
Rp4132
sVabove
p4133
g3759
(g3763
S'\x00\x00\x00\x00\x00\x00\x00\x00'
p4134
tp4135
Rp4136
sVnew
p4137
g3759
(g3763
S'\x8a\x00\x00\x00\x00\x00\x00\x00'
p4138
tp4139
Rp4140
sVnet
p4141
g3759
(g3763
S'\x88\x00\x00\x00\x00\x00\x00\x00'
p4142
tp4143
Rp4144
sVgov
p4145
g3759
(g3763
S'^\x00\x00\x00\x00\x00\x00\x00'
p4146
tp4147
Rp4148
sVissue
p4149
g3759
(g3763
S's\x00\x00\x00\x00\x00\x00\x00'
p4150
tp4151
Rp4152
sVbe
p4153
g3759
(g3763
S'\x11\x00\x00\x00\x00\x00\x00\x00'
p4154
tp4155
Rp4156
sVshut
p4157
g3759
(g3763
S'\xc0\x00\x00\x00\x00\x00\x00\x00'
p4158
tp4159
Rp4160
sVnoise
p4161
g3759
(g3763
S'\x8f\x00\x00\x00\x00\x00\x00\x00'
p4162
tp4163
Rp4164
sVtomorrow
p4165
g3759
(g3763
S'\xe0\x00\x00\x00\x00\x00\x00\x00'
p4166
tp4167
Rp4168
sVschedule
p4169
g3759
(g3763
S'\xb8\x00\x00\x00\x00\x00\x00\x00'
p4170
tp4171
Rp4172
sVscreen
p4173
g3759
(g3763
S'\xb9\x00\x00\x00\x00\x00\x00\x00'
p4174
tp4175
Rp4176
sVdictates
p4177
g3759
(g3763
S'5\x00\x00\x00\x00\x00\x00\x00'
p4178
tp4179
Rp4180
sVfree
p4181
g3759
(g3763
S'O\x00\x00\x00\x00\x00\x00\x00'
p4182
tp4183
Rp4184
sVhow
p4185
g3759
(g3763
S'f\x00\x00\x00\x00\x00\x00\x00'
p4186
tp4187
Rp4188
sVillustration
p4189
g3759
(g3763
S'i\x00\x00\x00\x00\x00\x00\x00'
p4190
tp4191
Rp4192
sVactive
p4193
g3759
(g3763
S'\x01\x00\x00\x00\x00\x00\x00\x00'
p4194
tp4195
Rp4196
sVnews
p4197
g3759
(g3763
S'\x8b\x00\x00\x00\x00\x00\x00\x00'
p4198
tp4199
Rp4200
sVpost
p4201
g3759
(g3763
S'\x9f\x00\x00\x00\x00\x00\x00\x00'
p4202
tp4203
Rp4204
sVdon
p4205
g3759
(g3763
S':\x00\x00\x00\x00\x00\x00\x00'
p4206
tp4207
Rp4208
sVon
p4209
g3759
(g3763
S'\x95\x00\x00\x00\x00\x00\x00\x00'
p4210
tp4211
Rp4212
sVsearch
p4213
g3759
(g3763
S'\xba\x00\x00\x00\x00\x00\x00\x00'
p4214
tp4215
Rp4216
sVlast
p4217
g3759
(g3763
S'v\x00\x00\x00\x00\x00\x00\x00'
p4218
tp4219
Rp4220
sVahead
p4221
g3759
(g3763
S'\x03\x00\x00\x00\x00\x00\x00\x00'
p4222
tp4223
Rp4224
sVof
p4225
g3759
(g3763
S'\x92\x00\x00\x00\x00\x00\x00\x00'
p4226
tp4227
Rp4228
sVcould
p4229
g3759
(g3763
S'*\x00\x00\x00\x00\x00\x00\x00'
p4230
tp4231
Rp4232
sVquiet
p4233
g3759
(g3763
S'\xa8\x00\x00\x00\x00\x00\x00\x00'
p4234
tp4235
Rp4236
sVturn
p4237
g3759
(g3763
S'\xe7\x00\x00\x00\x00\x00\x00\x00'
p4238
tp4239
Rp4240
sVisn
p4241
g3759
(g3763
S'r\x00\x00\x00\x00\x00\x00\x00'
p4242
tp4243
Rp4244
sVbrowsing
p4245
g3759
(g3763
S'\x19\x00\x00\x00\x00\x00\x00\x00'
p4246
tp4247
Rp4248
sVcom
p4249
g3759
(g3763
S"'\x00\x00\x00\x00\x00\x00\x00"
p4250
tp4251
Rp4252
sVthink
p4253
g3759
(g3763
S'\xd9\x00\x00\x00\x00\x00\x00\x00'
p4254
tp4255
Rp4256
sVfeed
p4257
g3759
(g3763
S'J\x00\x00\x00\x00\x00\x00\x00'
p4258
tp4259
Rp4260
sVthis
p4261
g3759
(g3763
S'\xda\x00\x00\x00\x00\x00\x00\x00'
p4262
tp4263
Rp4264
sVwhats
p4265
g3759
(g3763
S'\xf2\x00\x00\x00\x00\x00\x00\x00'
p4266
tp4267
Rp4268
sVfeatures
p4269
g3759
(g3763
S'I\x00\x00\x00\x00\x00\x00\x00'
p4270
tp4271
Rp4272
sVpoint
p4273
g3759
(g3763
S'\x9e\x00\x00\x00\x00\x00\x00\x00'
p4274
tp4275
Rp4276
sVinfornation
p4277
g3759
(g3763
S'n\x00\x00\x00\x00\x00\x00\x00'
p4278
tp4279
Rp4280
sVsweet
p4281
g3759
(g3763
S'\xd0\x00\x00\x00\x00\x00\x00\x00'
p4282
tp4283
Rp4284
sVtuesday
p4285
g3759
(g3763
S'\xe3\x00\x00\x00\x00\x00\x00\x00'
p4286
tp4287
Rp4288
sVyourself
p4289
g3759
(g3763
S'\xfc\x00\x00\x00\x00\x00\x00\x00'
p4290
tp4291
Rp4292
sVdown
p4293
g3759
(g3763
S'=\x00\x00\x00\x00\x00\x00\x00'
p4294
tp4295
Rp4296
sVput
p4297
g3759
(g3763
S'\xa6\x00\x00\x00\x00\x00\x00\x00'
p4298
tp4299
Rp4300
sVgoogle
p4301
g3759
(g3763
S'\\\x00\x00\x00\x00\x00\x00\x00'
p4302
tp4303
Rp4304
sVdecrease
p4305
g3759
(g3763
S'2\x00\x00\x00\x00\x00\x00\x00'
p4306
tp4307
Rp4308
sVinbox
p4309
g3759
(g3763
S'k\x00\x00\x00\x00\x00\x00\x00'
p4310
tp4311
Rp4312
sVshutdown
p4313
g3759
(g3763
S'\xc1\x00\x00\x00\x00\x00\x00\x00'
p4314
tp4315
Rp4316
sVfake
p4317
g3759
(g3763
S'G\x00\x00\x00\x00\x00\x00\x00'
p4318
tp4319
Rp4320
sVopen
p4321
g3759
(g3763
S'\x96\x00\x00\x00\x00\x00\x00\x00'
p4322
tp4323
Rp4324
sVyour
p4325
g3759
(g3763
S'\xfb\x00\x00\x00\x00\x00\x00\x00'
p4326
tp4327
Rp4328
sVtemperature
p4329
g3759
(g3763
S'\xd4\x00\x00\x00\x00\x00\x00\x00'
p4330
tp4331
Rp4332
sVwould
p4333
g3759
(g3763
S'\xf7\x00\x00\x00\x00\x00\x00\x00'
p4334
tp4335
Rp4336
sVsake
p4337
g3759
(g3763
S'\xb5\x00\x00\x00\x00\x00\x00\x00'
p4338
tp4339
Rp4340
sVdecent
p4341
g3759
(g3763
S'1\x00\x00\x00\x00\x00\x00\x00'
p4342
tp4343
Rp4344
sVcreate
p4345
g3759
(g3763
S'+\x00\x00\x00\x00\x00\x00\x00'
p4346
tp4347
Rp4348
sVthere
p4349
g3759
(g3763
S'\xd8\x00\x00\x00\x00\x00\x00\x00'
p4350
tp4351
Rp4352
sVquestion
p4353
g3759
(g3763
S'\xa7\x00\x00\x00\x00\x00\x00\x00'
p4354
tp4355
Rp4356
sVadd
p4357
g3759
(g3763
S'\x02\x00\x00\x00\x00\x00\x00\x00'
p4358
tp4359
Rp4360
sVlong
p4361
g3759
(g3763
S'{\x00\x00\x00\x00\x00\x00\x00'
p4362
tp4363
Rp4364
sVnext
p4365
g3759
(g3763
S'\x8d\x00\x00\x00\x00\x00\x00\x00'
p4366
tp4367
Rp4368
sVstart
p4369
g3759
(g3763
S'\xcb\x00\x00\x00\x00\x00\x00\x00'
p4370
tp4371
Rp4372
sVlive
p4373
g3759
(g3763
S'y\x00\x00\x00\x00\x00\x00\x00'
p4374
tp4375
Rp4376
sVprogram
p4377
g3759
(g3763
S'\xa5\x00\x00\x00\x00\x00\x00\x00'
p4378
tp4379
Rp4380
sVdont
p4381
g3759
(g3763
S';\x00\x00\x00\x00\x00\x00\x00'
p4382
tp4383
Rp4384
sVmusic
p4385
g3759
(g3763
S'\x85\x00\x00\x00\x00\x00\x00\x00'
p4386
tp4387
Rp4388
sVtell
p4389
g3759
(g3763
S'\xd3\x00\x00\x00\x00\x00\x00\x00'
p4390
tp4391
Rp4392
sVtoday
p4393
g3759
(g3763
S'\xde\x00\x00\x00\x00\x00\x00\x00'
p4394
tp4395
Rp4396
sVpretends
p4397
g3759
(g3763
S'\xa1\x00\x00\x00\x00\x00\x00\x00'
p4398
tp4399
Rp4400
sVfunction
p4401
g3759
(g3763
S'S\x00\x00\x00\x00\x00\x00\x00'
p4402
tp4403
Rp4404
sVthat
p4405
g3759
(g3763
S'\xd6\x00\x00\x00\x00\x00\x00\x00'
p4406
tp4407
Rp4408
sVsound
p4409
g3759
(g3763
S'\xc8\x00\x00\x00\x00\x00\x00\x00'
p4410
tp4411
Rp4412
sVreleasing
p4413
g3759
(g3763
S'\xb1\x00\x00\x00\x00\x00\x00\x00'
p4414
tp4415
Rp4416
sVwritting
p4417
g3759
(g3763
S'\xf8\x00\x00\x00\x00\x00\x00\x00'
p4418
tp4419
Rp4420
sVcommands
p4421
g3759
(g3763
S'(\x00\x00\x00\x00\x00\x00\x00'
p4422
tp4423
Rp4424
sVit
p4425
g3759
(g3763
S't\x00\x00\x00\x00\x00\x00\x00'
p4426
tp4427
Rp4428
sVvolume
p4429
g3759
(g3763
S'\xeb\x00\x00\x00\x00\x00\x00\x00'
p4430
tp4431
Rp4432
sVtrain
p4433
g3759
(g3763
S'\xe1\x00\x00\x00\x00\x00\x00\x00'
p4434
tp4435
Rp4436
sVstick
p4437
g3759
(g3763
S'\xcc\x00\x00\x00\x00\x00\x00\x00'
p4438
tp4439
Rp4440
sVbeat
p4441
g3759
(g3763
S'\x12\x00\x00\x00\x00\x00\x00\x00'
p4442
tp4443
Rp4444
sVfoggy
p4445
g3759
(g3763
S'L\x00\x00\x00\x00\x00\x00\x00'
p4446
tp4447
Rp4448
sVtgive
p4449
g3759
(g3763
S'\xd5\x00\x00\x00\x00\x00\x00\x00'
p4450
tp4451
Rp4452
sVme
p4453
g3759
(g3763
S'\x81\x00\x00\x00\x00\x00\x00\x00'
p4454
tp4455
Rp4456
sVanything
p4457
g3759
(g3763
S'\x0b\x00\x00\x00\x00\x00\x00\x00'
p4458
tp4459
Rp4460
sVfriday
p4461
g3759
(g3763
S'Q\x00\x00\x00\x00\x00\x00\x00'
p4462
tp4463
Rp4464
sVunmute
p4465
g3759
(g3763
S'\xe8\x00\x00\x00\x00\x00\x00\x00'
p4466
tp4467
Rp4468
sVup
p4469
g3759
(g3763
S'\xe9\x00\x00\x00\x00\x00\x00\x00'
p4470
tp4471
Rp4472
sVdogs
p4473
g3759
(g3763
S'9\x00\x00\x00\x00\x00\x00\x00'
p4474
tp4475
Rp4476
sVwill
p4477
g3759
(g3763
S'\xf4\x00\x00\x00\x00\x00\x00\x00'
p4478
tp4479
Rp4480
sVcomputer
p4481
g3759
(g3763
S')\x00\x00\x00\x00\x00\x00\x00'
p4482
tp4483
Rp4484
sVcan
p4485
g3759
(g3763
S'\x1e\x00\x00\x00\x00\x00\x00\x00'
p4486
tp4487
Rp4488
sVbriefing
p4489
g3759
(g3763
S'\x17\x00\x00\x00\x00\x00\x00\x00'
p4490
tp4491
Rp4492
sVproblem
p4493
g3759
(g3763
S'\xa3\x00\x00\x00\x00\x00\x00\x00'
p4494
tp4495
Rp4496
sVoutcome
p4497
g3759
(g3763
S'\x99\x00\x00\x00\x00\x00\x00\x00'
p4498
tp4499
Rp4500
sVmy
p4501
g3759
(g3763
S'\x87\x00\x00\x00\x00\x00\x00\x00'
p4502
tp4503
Rp4504
sVdee
p4505
g3759
(g3763
S'3\x00\x00\x00\x00\x00\x00\x00'
p4506
tp4507
Rp4508
sVfeature
p4509
g3759
(g3763
S'H\x00\x00\x00\x00\x00\x00\x00'
p4510
tp4511
Rp4512
sVbrowser
p4513
g3759
(g3763
S'\x18\x00\x00\x00\x00\x00\x00\x00'
p4514
tp4515
Rp4516
sVbefore
p4517
g3759
(g3763
S'\x14\x00\x00\x00\x00\x00\x00\x00'
p4518
tp4519
Rp4520
sVgive
p4521
g3759
(g3763
S'W\x00\x00\x00\x00\x00\x00\x00'
p4522
tp4523
Rp4524
sValmost
p4525
g3759
(g3763
S'\x06\x00\x00\x00\x00\x00\x00\x00'
p4526
tp4527
Rp4528
sVlock
p4529
g3759
(g3763
S'z\x00\x00\x00\x00\x00\x00\x00'
p4530
tp4531
Rp4532
sVis
p4533
g3759
(g3763
S'q\x00\x00\x00\x00\x00\x00\x00'
p4534
tp4535
Rp4536
sVin
p4537
g3759
(g3763
S'j\x00\x00\x00\x00\x00\x00\x00'
p4538
tp4539
Rp4540
sVam
p4541
g3759
(g3763
S'\x07\x00\x00\x00\x00\x00\x00\x00'
p4542
tp4543
Rp4544
sVfuck
p4545
g3759
(g3763
S'R\x00\x00\x00\x00\x00\x00\x00'
p4546
tp4547
Rp4548
sVbackbone
p4549
g3759
(g3763
S'\x10\x00\x00\x00\x00\x00\x00\x00'
p4550
tp4551
Rp4552
sVan
p4553
g3759
(g3763
S'\x08\x00\x00\x00\x00\x00\x00\x00'
p4554
tp4555
Rp4556
sVheadlines
p4557
g3759
(g3763
S'b\x00\x00\x00\x00\x00\x00\x00'
p4558
tp4559
Rp4560
sVbeats
p4561
g3759
(g3763
S'\x13\x00\x00\x00\x00\x00\x00\x00'
p4562
tp4563
Rp4564
sVright
p4565
g3759
(g3763
S'\xb4\x00\x00\x00\x00\x00\x00\x00'
p4566
tp4567
Rp4568
sVat
p4569
g3759
(g3763
S'\x0e\x00\x00\x00\x00\x00\x00\x00'
p4570
tp4571
Rp4572
sVhave
p4573
g3759
(g3763
S'a\x00\x00\x00\x00\x00\x00\x00'
p4574
tp4575
Rp4576
sVstalls
p4577
g3759
(g3763
S'\xca\x00\x00\x00\x00\x00\x00\x00'
p4578
tp4579
Rp4580
sVany
p4581
g3759
(g3763
S'\n\x00\x00\x00\x00\x00\x00\x00'
p4582
tp4583
Rp4584
sVsimple
p4585
g3759
(g3763
S'\xc2\x00\x00\x00\x00\x00\x00\x00'
p4586
tp4587
Rp4588
sVif
p4589
g3759
(g3763
S'h\x00\x00\x00\x00\x00\x00\x00'
p4590
tp4591
Rp4592
sVinformation
p4593
g3759
(g3763
S'm\x00\x00\x00\x00\x00\x00\x00'
p4594
tp4595
Rp4596
sVrainy
p4597
g3759
(g3763
S'\xac\x00\x00\x00\x00\x00\x00\x00'
p4598
tp4599
Rp4600
sVzero
p4601
g3759
(g3763
S'\xfd\x00\x00\x00\x00\x00\x00\x00'
p4602
tp4603
Rp4604
sVcheck
p4605
g3759
(g3763
S'!\x00\x00\x00\x00\x00\x00\x00'
p4606
tp4607
Rp4608
sVmake
p4609
g3759
(g3763
S'\x7f\x00\x00\x00\x00\x00\x00\x00'
p4610
tp4611
Rp4612
sVsong
p4613
g3759
(g3763
S'\xc7\x00\x00\x00\x00\x00\x00\x00'
p4614
tp4615
Rp4616
sVwhen
p4617
g3759
(g3763
S'\xf3\x00\x00\x00\x00\x00\x00\x00'
p4618
tp4619
Rp4620
sVsnow
p4621
g3759
(g3763
S'\xc4\x00\x00\x00\x00\x00\x00\x00'
p4622
tp4623
Rp4624
sVsame
p4625
g3759
(g3763
S'\xb6\x00\x00\x00\x00\x00\x00\x00'
p4626
tp4627
Rp4628
sVsaturday
p4629
g3759
(g3763
S'\xb7\x00\x00\x00\x00\x00\x00\x00'
p4630
tp4631
Rp4632
sVbeside
p4633
g3759
(g3763
S'\x15\x00\x00\x00\x00\x00\x00\x00'
p4634
tp4635
Rp4636
sVread
p4637
g3759
(g3763
S'\xaf\x00\x00\x00\x00\x00\x00\x00'
p4638
tp4639
Rp4640
sVhot
p4641
g3759
(g3763
S'e\x00\x00\x00\x00\x00\x00\x00'
p4642
tp4643
Rp4644
sVspotify
p4645
g3759
(g3763
S'\xc9\x00\x00\x00\x00\x00\x00\x00'
p4646
tp4647
Rp4648
sVanswer
p4649
g3759
(g3763
S'\t\x00\x00\x00\x00\x00\x00\x00'
p4650
tp4651
Rp4652
sVyou
p4653
g3759
(g3763
S'\xfa\x00\x00\x00\x00\x00\x00\x00'
p4654
tp4655
Rp4656
sVdocument
p4657
g3759
(g3763
S'8\x00\x00\x00\x00\x00\x00\x00'
p4658
tp4659
Rp4660
sVevents
p4661
g3759
(g3763
S'D\x00\x00\x00\x00\x00\x00\x00'
p4662
tp4663
Rp4664
sVhigher
p4665
g3759
(g3763
S'd\x00\x00\x00\x00\x00\x00\x00'
p4666
tp4667
Rp4668
sVweek
p4669
g3759
(g3763
S'\xf0\x00\x00\x00\x00\x00\x00\x00'
p4670
tp4671
Rp4672
sVplay
p4673
g3759
(g3763
S'\x9b\x00\x00\x00\x00\x00\x00\x00'
p4674
tp4675
Rp4676
sVokay
p4677
g3759
(g3763
S'\x94\x00\x00\x00\x00\x00\x00\x00'
p4678
tp4679
Rp4680
sVhey
p4681
g3759
(g3763
S'c\x00\x00\x00\x00\x00\x00\x00'
p4682
tp4683
Rp4684
sVmonday
p4685
g3759
(g3763
S'\x83\x00\x00\x00\x00\x00\x00\x00'
p4686
tp4687
Rp4688
sVdefault
p4689
g3759
(g3763
S'4\x00\x00\x00\x00\x00\x00\x00'
p4690
tp4691
Rp4692
sVstop
p4693
g3759
(g3763
S'\xcd\x00\x00\x00\x00\x00\x00\x00'
p4694
tp4695
Rp4696
sVorg
p4697
g3759
(g3763
S'\x97\x00\x00\x00\x00\x00\x00\x00'
p4698
tp4699
Rp4700
sVearlier
p4701
g3759
(g3763
S'?\x00\x00\x00\x00\x00\x00\x00'
p4702
tp4703
Rp4704
sVproblems
p4705
g3759
(g3763
S'\xa4\x00\x00\x00\x00\x00\x00\x00'
p4706
tp4707
Rp4708
sVquieter
p4709
g3759
(g3763
S'\xa9\x00\x00\x00\x00\x00\x00\x00'
p4710
tp4711
Rp4712
sVrain
p4713
g3759
(g3763
S'\xaa\x00\x00\x00\x00\x00\x00\x00'
p4714
tp4715
Rp4716
sVnever
p4717
g3759
(g3763
S'\x89\x00\x00\x00\x00\x00\x00\x00'
p4718
tp4719
Rp4720
sVdata
p4721
g3759
(g3763
S'.\x00\x00\x00\x00\x00\x00\x00'
p4722
tp4723
Rp4724
sVtune
p4725
g3759
(g3763
S'\xe4\x00\x00\x00\x00\x00\x00\x00'
p4726
tp4727
Rp4728
sVgrief
p4729
g3759
(g3763
S'_\x00\x00\x00\x00\x00\x00\x00'
p4730
tp4731
Rp4732
sVlower
p4733
g3759
(g3763
S'}\x00\x00\x00\x00\x00\x00\x00'
p4734
tp4735
Rp4736
sVoff
p4737
g3759
(g3763
S'\x93\x00\x00\x00\x00\x00\x00\x00'
p4738
tp4739
Rp4740
sVwe
p4741
g3759
(g3763
S'\xed\x00\x00\x00\x00\x00\x00\x00'
p4742
tp4743
Rp4744
sVgather
p4745
g3759
(g3763
S'T\x00\x00\x00\x00\x00\x00\x00'
p4746
tp4747
Rp4748
sVtale
p4749
g3759
(g3763
S'\xd1\x00\x00\x00\x00\x00\x00\x00'
p4750
tp4751
Rp4752
sVtime
p4753
g3759
(g3763
S'\xdc\x00\x00\x00\x00\x00\x00\x00'
p4754
tp4755
Rp4756
sVnewsfeed
p4757
g3759
(g3763
S'\x8c\x00\x00\x00\x00\x00\x00\x00'
p4758
tp4759
Rp4760
sVthe
p4761
g3759
(g3763
S'\xd7\x00\x00\x00\x00\x00\x00\x00'
p4762
tp4763
Rp4764
sVincrease
p4765
g3759
(g3763
S'l\x00\x00\x00\x00\x00\x00\x00'
p4766
tp4767
Rp4768
sVplaying
p4769
g3759
(g3763
S'\x9c\x00\x00\x00\x00\x00\x00\x00'
p4770
tp4771
Rp4772
sVdot
p4773
g3759
(g3763
S'<\x00\x00\x00\x00\x00\x00\x00'
p4774
tp4775
Rp4776
sVlatest
p4777
g3759
(g3763
S'w\x00\x00\x00\x00\x00\x00\x00'
p4778
tp4779
Rp4780
ssS'binary'
p4781
I00
sS'ngram_range'
p4782
(I1
I1
tp4783
sg3733
g3734
sS'max_df'
p4784
F1.0
sS'min_df'
p4785
I1
sS'max_features'
p4786
NsS'fixed_vocabulary_'
p4787
I00
sS'strip_accents'
p4788
NsS'dtype'
p4789
cnumpy
int64
p4790
sS'stop_words_'
p4791
c__builtin__
set
p4792
((lp4793
tp4794
Rp4795
sS'preprocessor'
p4796
Nsbtp4797
a(S'tfidf'
p4798
g3727
(csklearn.feature_extraction.text
TfidfTransformer
p4799
g3729
Ntp4800
Rp4801
(dp4802
S'smooth_idf'
p4803
I01
sg3733
g3734
sS'_idf_diag'
p4804
g3727
(cscipy.sparse.csr
csr_matrix
p4805
g3729
Ntp4806
Rp4807
(dp4808
S'indices'
p4809
cnumpy.core.multiarray
_reconstruct
p4810
(cnumpy
ndarray
p4811
(I0
tp4812
S'b'
p4813
tp4814
Rp4815
(I1
(I254
tp4816
g3760
(S'i4'
p4817
I0
I1
tp4818
Rp4819
(I3
S'<'
p4820
NNNI-1
I-1
I0
tp4821
bI00
S'\x00\x00\x00\x00\x01\x00\x00\x00\x02\x00\x00\x00\x03\x00\x00\x00\x04\x00\x00\x00\x05\x00\x00\x00\x06\x00\x00\x00\x07\x00\x00\x00\x08\x00\x00\x00\t\x00\x00\x00\n\x00\x00\x00\x0b\x00\x00\x00\x0c\x00\x00\x00\r\x00\x00\x00\x0e\x00\x00\x00\x0f\x00\x00\x00\x10\x00\x00\x00\x11\x00\x00\x00\x12\x00\x00\x00\x13\x00\x00\x00\x14\x00\x00\x00\x15\x00\x00\x00\x16\x00\x00\x00\x17\x00\x00\x00\x18\x00\x00\x00\x19\x00\x00\x00\x1a\x00\x00\x00\x1b\x00\x00\x00\x1c\x00\x00\x00\x1d\x00\x00\x00\x1e\x00\x00\x00\x1f\x00\x00\x00 \x00\x00\x00!\x00\x00\x00"\x00\x00\x00#\x00\x00\x00$\x00\x00\x00%\x00\x00\x00&\x00\x00\x00\'\x00\x00\x00(\x00\x00\x00)\x00\x00\x00*\x00\x00\x00+\x00\x00\x00,\x00\x00\x00-\x00\x00\x00.\x00\x00\x00/\x00\x00\x000\x00\x00\x001\x00\x00\x002\x00\x00\x003\x00\x00\x004\x00\x00\x005\x00\x00\x006\x00\x00\x007\x00\x00\x008\x00\x00\x009\x00\x00\x00:\x00\x00\x00;\x00\x00\x00<\x00\x00\x00=\x00\x00\x00>\x00\x00\x00?\x00\x00\x00@\x00\x00\x00A\x00\x00\x00B\x00\x00\x00C\x00\x00\x00D\x00\x00\x00E\x00\x00\x00F\x00\x00\x00G\x00\x00\x00H\x00\x00\x00I\x00\x00\x00J\x00\x00\x00K\x00\x00\x00L\x00\x00\x00M\x00\x00\x00N\x00\x00\x00O\x00\x00\x00P\x00\x00\x00Q\x00\x00\x00R\x00\x00\x00S\x00\x00\x00T\x00\x00\x00U\x00\x00\x00V\x00\x00\x00W\x00\x00\x00X\x00\x00\x00Y\x00\x00\x00Z\x00\x00\x00[\x00\x00\x00\\\x00\x00\x00]\x00\x00\x00^\x00\x00\x00_\x00\x00\x00`\x00\x00\x00a\x00\x00\x00b\x00\x00\x00c\x00\x00\x00d\x00\x00\x00e\x00\x00\x00f\x00\x00\x00g\x00\x00\x00h\x00\x00\x00i\x00\x00\x00j\x00\x00\x00k\x00\x00\x00l\x00\x00\x00m\x00\x00\x00n\x00\x00\x00o\x00\x00\x00p\x00\x00\x00q\x00\x00\x00r\x00\x00\x00s\x00\x00\x00t\x00\x00\x00u\x00\x00\x00v\x00\x00\x00w\x00\x00\x00x\x00\x00\x00y\x00\x00\x00z\x00\x00\x00{\x00\x00\x00|\x00\x00\x00}\x00\x00\x00~\x00\x00\x00\x7f\x00\x00\x00\x80\x00\x00\x00\x81\x00\x00\x00\x82\x00\x00\x00\x83\x00\x00\x00\x84\x00\x00\x00\x85\x00\x00\x00\x86\x00\x00\x00\x87\x00\x00\x00\x88\x00\x00\x00\x89\x00\x00\x00\x8a\x00\x00\x00\x8b\x00\x00\x00\x8c\x00\x00\x00\x8d\x00\x00\x00\x8e\x00\x00\x00\x8f\x00\x00\x00\x90\x00\x00\x00\x91\x00\x00\x00\x92\x00\x00\x00\x93\x00\x00\x00\x94\x00\x00\x00\x95\x00\x00\x00\x96\x00\x00\x00\x97\x00\x00\x00\x98\x00\x00\x00\x99\x00\x00\x00\x9a\x00\x00\x00\x9b\x00\x00\x00\x9c\x00\x00\x00\x9d\x00\x00\x00\x9e\x00\x00\x00\x9f\x00\x00\x00\xa0\x00\x00\x00\xa1\x00\x00\x00\xa2\x00\x00\x00\xa3\x00\x00\x00\xa4\x00\x00\x00\xa5\x00\x00\x00\xa6\x00\x00\x00\xa7\x00\x00\x00\xa8\x00\x00\x00\xa9\x00\x00\x00\xaa\x00\x00\x00\xab\x00\x00\x00\xac\x00\x00\x00\xad\x00\x00\x00\xae\x00\x00\x00\xaf\x00\x00\x00\xb0\x00\x00\x00\xb1\x00\x00\x00\xb2\x00\x00\x00\xb3\x00\x00\x00\xb4\x00\x00\x00\xb5\x00\x00\x00\xb6\x00\x00\x00\xb7\x00\x00\x00\xb8\x00\x00\x00\xb9\x00\x00\x00\xba\x00\x00\x00\xbb\x00\x00\x00\xbc\x00\x00\x00\xbd\x00\x00\x00\xbe\x00\x00\x00\xbf\x00\x00\x00\xc0\x00\x00\x00\xc1\x00\x00\x00\xc2\x00\x00\x00\xc3\x00\x00\x00\xc4\x00\x00\x00\xc5\x00\x00\x00\xc6\x00\x00\x00\xc7\x00\x00\x00\xc8\x00\x00\x00\xc9\x00\x00\x00\xca\x00\x00\x00\xcb\x00\x00\x00\xcc\x00\x00\x00\xcd\x00\x00\x00\xce\x00\x00\x00\xcf\x00\x00\x00\xd0\x00\x00\x00\xd1\x00\x00\x00\xd2\x00\x00\x00\xd3\x00\x00\x00\xd4\x00\x00\x00\xd5\x00\x00\x00\xd6\x00\x00\x00\xd7\x00\x00\x00\xd8\x00\x00\x00\xd9\x00\x00\x00\xda\x00\x00\x00\xdb\x00\x00\x00\xdc\x00\x00\x00\xdd\x00\x00\x00\xde\x00\x00\x00\xdf\x00\x00\x00\xe0\x00\x00\x00\xe1\x00\x00\x00\xe2\x00\x00\x00\xe3\x00\x00\x00\xe4\x00\x00\x00\xe5\x00\x00\x00\xe6\x00\x00\x00\xe7\x00\x00\x00\xe8\x00\x00\x00\xe9\x00\x00\x00\xea\x00\x00\x00\xeb\x00\x00\x00\xec\x00\x00\x00\xed\x00\x00\x00\xee\x00\x00\x00\xef\x00\x00\x00\xf0\x00\x00\x00\xf1\x00\x00\x00\xf2\x00\x00\x00\xf3\x00\x00\x00\xf4\x00\x00\x00\xf5\x00\x00\x00\xf6\x00\x00\x00\xf7\x00\x00\x00\xf8\x00\x00\x00\xf9\x00\x00\x00\xfa\x00\x00\x00\xfb\x00\x00\x00\xfc\x00\x00\x00\xfd\x00\x00\x00'
p4822
tp4823
bsS'indptr'
p4824
g4810
(g4811
(I0
tp4825
g4813
tp4826
Rp4827
(I1
(I255
tp4828
g4819
I00
S'\x00\x00\x00\x00\x01\x00\x00\x00\x02\x00\x00\x00\x03\x00\x00\x00\x04\x00\x00\x00\x05\x00\x00\x00\x06\x00\x00\x00\x07\x00\x00\x00\x08\x00\x00\x00\t\x00\x00\x00\n\x00\x00\x00\x0b\x00\x00\x00\x0c\x00\x00\x00\r\x00\x00\x00\x0e\x00\x00\x00\x0f\x00\x00\x00\x10\x00\x00\x00\x11\x00\x00\x00\x12\x00\x00\x00\x13\x00\x00\x00\x14\x00\x00\x00\x15\x00\x00\x00\x16\x00\x00\x00\x17\x00\x00\x00\x18\x00\x00\x00\x19\x00\x00\x00\x1a\x00\x00\x00\x1b\x00\x00\x00\x1c\x00\x00\x00\x1d\x00\x00\x00\x1e\x00\x00\x00\x1f\x00\x00\x00 \x00\x00\x00!\x00\x00\x00"\x00\x00\x00#\x00\x00\x00$\x00\x00\x00%\x00\x00\x00&\x00\x00\x00\'\x00\x00\x00(\x00\x00\x00)\x00\x00\x00*\x00\x00\x00+\x00\x00\x00,\x00\x00\x00-\x00\x00\x00.\x00\x00\x00/\x00\x00\x000\x00\x00\x001\x00\x00\x002\x00\x00\x003\x00\x00\x004\x00\x00\x005\x00\x00\x006\x00\x00\x007\x00\x00\x008\x00\x00\x009\x00\x00\x00:\x00\x00\x00;\x00\x00\x00<\x00\x00\x00=\x00\x00\x00>\x00\x00\x00?\x00\x00\x00@\x00\x00\x00A\x00\x00\x00B\x00\x00\x00C\x00\x00\x00D\x00\x00\x00E\x00\x00\x00F\x00\x00\x00G\x00\x00\x00H\x00\x00\x00I\x00\x00\x00J\x00\x00\x00K\x00\x00\x00L\x00\x00\x00M\x00\x00\x00N\x00\x00\x00O\x00\x00\x00P\x00\x00\x00Q\x00\x00\x00R\x00\x00\x00S\x00\x00\x00T\x00\x00\x00U\x00\x00\x00V\x00\x00\x00W\x00\x00\x00X\x00\x00\x00Y\x00\x00\x00Z\x00\x00\x00[\x00\x00\x00\\\x00\x00\x00]\x00\x00\x00^\x00\x00\x00_\x00\x00\x00`\x00\x00\x00a\x00\x00\x00b\x00\x00\x00c\x00\x00\x00d\x00\x00\x00e\x00\x00\x00f\x00\x00\x00g\x00\x00\x00h\x00\x00\x00i\x00\x00\x00j\x00\x00\x00k\x00\x00\x00l\x00\x00\x00m\x00\x00\x00n\x00\x00\x00o\x00\x00\x00p\x00\x00\x00q\x00\x00\x00r\x00\x00\x00s\x00\x00\x00t\x00\x00\x00u\x00\x00\x00v\x00\x00\x00w\x00\x00\x00x\x00\x00\x00y\x00\x00\x00z\x00\x00\x00{\x00\x00\x00|\x00\x00\x00}\x00\x00\x00~\x00\x00\x00\x7f\x00\x00\x00\x80\x00\x00\x00\x81\x00\x00\x00\x82\x00\x00\x00\x83\x00\x00\x00\x84\x00\x00\x00\x85\x00\x00\x00\x86\x00\x00\x00\x87\x00\x00\x00\x88\x00\x00\x00\x89\x00\x00\x00\x8a\x00\x00\x00\x8b\x00\x00\x00\x8c\x00\x00\x00\x8d\x00\x00\x00\x8e\x00\x00\x00\x8f\x00\x00\x00\x90\x00\x00\x00\x91\x00\x00\x00\x92\x00\x00\x00\x93\x00\x00\x00\x94\x00\x00\x00\x95\x00\x00\x00\x96\x00\x00\x00\x97\x00\x00\x00\x98\x00\x00\x00\x99\x00\x00\x00\x9a\x00\x00\x00\x9b\x00\x00\x00\x9c\x00\x00\x00\x9d\x00\x00\x00\x9e\x00\x00\x00\x9f\x00\x00\x00\xa0\x00\x00\x00\xa1\x00\x00\x00\xa2\x00\x00\x00\xa3\x00\x00\x00\xa4\x00\x00\x00\xa5\x00\x00\x00\xa6\x00\x00\x00\xa7\x00\x00\x00\xa8\x00\x00\x00\xa9\x00\x00\x00\xaa\x00\x00\x00\xab\x00\x00\x00\xac\x00\x00\x00\xad\x00\x00\x00\xae\x00\x00\x00\xaf\x00\x00\x00\xb0\x00\x00\x00\xb1\x00\x00\x00\xb2\x00\x00\x00\xb3\x00\x00\x00\xb4\x00\x00\x00\xb5\x00\x00\x00\xb6\x00\x00\x00\xb7\x00\x00\x00\xb8\x00\x00\x00\xb9\x00\x00\x00\xba\x00\x00\x00\xbb\x00\x00\x00\xbc\x00\x00\x00\xbd\x00\x00\x00\xbe\x00\x00\x00\xbf\x00\x00\x00\xc0\x00\x00\x00\xc1\x00\x00\x00\xc2\x00\x00\x00\xc3\x00\x00\x00\xc4\x00\x00\x00\xc5\x00\x00\x00\xc6\x00\x00\x00\xc7\x00\x00\x00\xc8\x00\x00\x00\xc9\x00\x00\x00\xca\x00\x00\x00\xcb\x00\x00\x00\xcc\x00\x00\x00\xcd\x00\x00\x00\xce\x00\x00\x00\xcf\x00\x00\x00\xd0\x00\x00\x00\xd1\x00\x00\x00\xd2\x00\x00\x00\xd3\x00\x00\x00\xd4\x00\x00\x00\xd5\x00\x00\x00\xd6\x00\x00\x00\xd7\x00\x00\x00\xd8\x00\x00\x00\xd9\x00\x00\x00\xda\x00\x00\x00\xdb\x00\x00\x00\xdc\x00\x00\x00\xdd\x00\x00\x00\xde\x00\x00\x00\xdf\x00\x00\x00\xe0\x00\x00\x00\xe1\x00\x00\x00\xe2\x00\x00\x00\xe3\x00\x00\x00\xe4\x00\x00\x00\xe5\x00\x00\x00\xe6\x00\x00\x00\xe7\x00\x00\x00\xe8\x00\x00\x00\xe9\x00\x00\x00\xea\x00\x00\x00\xeb\x00\x00\x00\xec\x00\x00\x00\xed\x00\x00\x00\xee\x00\x00\x00\xef\x00\x00\x00\xf0\x00\x00\x00\xf1\x00\x00\x00\xf2\x00\x00\x00\xf3\x00\x00\x00\xf4\x00\x00\x00\xf5\x00\x00\x00\xf6\x00\x00\x00\xf7\x00\x00\x00\xf8\x00\x00\x00\xf9\x00\x00\x00\xfa\x00\x00\x00\xfb\x00\x00\x00\xfc\x00\x00\x00\xfd\x00\x00\x00\xfe\x00\x00\x00'
p4829
tp4830
bsS'maxprint'
p4831
I50
sS'_shape'
p4832
(I254
I254
tp4833
sg12
g4810
(g4811
(I0
tp4834
g4813
tp4835
Rp4836
(I1
(I254
tp4837
g3760
(S'f8'
p4838
I0
I1
tp4839
Rp4840
(I3
S'<'
p4841
NNNI-1
I-1
I0
tp4842
bI00
S'EcCE\x06U\x1f@s\x06|\x88\xc3E\x17@\xa4F\x05.:\xa9\x13@\xed\x13\x96\xf91R\x1a@\x07\x1cd\xe5=\x8f\x1c@\xdd\x0ec\xc9\\\x83\x18@EcCE\x06U\x1f@MF\xc6\xc5\xe4=\x14@\xae\tAB\xeb\x8d\x13@EcCE\x06U\x1f@>*\xaa\xa7\x9c\x93\x10@\x81\xd2\x9d\rG\xf7\x0b@a\x80\xa4\t\xcc\xf7\x12@q\x85\xd79\xa1\xc6\x14@EcCE\x06U\x1f@\xed\x13\x96\xf91R\x1a@EcCE\x06U\x1f@\xc0iw\x06\xd4\xb5\x1d@\xf8\xffG\xc7\xf5\xe4\x18@EcCE\x06U\x1f@\xc0iw\x06\xd4\xb5\x1d@\xc0iw\x06\xd4\xb5\x1d@\xc0iw\x06\xd4\xb5\x1d@\xc0iw\x06\xd4\xb5\x1d@s\xab;?\xb2\xa2\x14@\x07\x1cd\xe5=\x8f\x1c@\x82"\x98\xa6\x0b\xf0\x1a@EcCE\x06U\x1f@N\xc6\xc64\xa9\xd3\x0e@EcCE\x06U\x1f@\xce\x9e\x93\xc9|\x13\x0b@EcCE\x06U\x1f@EcCE\x06U\x1f@\'\xe1PL\x17\xd9\x07@EcCE\x06U\x1f@\x06\x94\xd9\xe6zd\x15@\x9f\xc7\x83i\x94\xbd\x15@\xfe(\xccg\xd9P\x19@\xfe(\xccg\xd9P\x19@6G\'\'\xbe\xaa\x1b@EcCE\x06U\x1f@4>\xf8\xd9\xd8\x00\x12@s~\xf1\x89\x00\x1b\x10@\xa4F\x05.:\xa9\x13@\xb4\x0c7\x82\xad\xa5\r@EcCE\x06U\x1f@EcCE\x06U\x1f@\x88#Fd\xd0\xff\x13@\xc0iw\x06\xd4\xb5\x1d@EcCE\x06U\x1f@\xc0iw\x06\xd4\xb5\x1d@\xc0iw\x06\xd4\xb5\x1d@\xdd\x0ec\xc9\\\x83\x18@EcCE\x06U\x1f@EcCE\x06U\x1f@\xbb)^\'+\xb4\t@EcCE\x06U\x1f@EcCE\x06U\x1f@\x9fs^c\xe7D\r@\xc6j%\xc4\x98\xc5\x16@s\x06|\x88\xc3E\x17@\xa4F\x05.:\xa9\x13@\xc0iw\x06\xd4\xb5\x1d@EcCE\x06U\x1f@\xc0iw\x06\xd4\xb5\x1d@\xc0iw\x06\xd4\xb5\x1d@EcCE\x06U\x1f@M\x90\x80\x82Ce\x0c@\x0b\x9e\xc6\xd14\x8c\t@6G\'\'\xbe\xaa\x1b@EcCE\x06U\x1f@\xc0iw\x06\xd4\xb5\x1d@EcCE\x06U\x1f@EcCE\x06U\x1f@\\T[\x02\x1c@\x13@\x1a\xce\xb7*b\x1e\x14@\xfe(\xccg\xd9P\x19@\xa4\xc8\x10\xd7\x07\x9b\x0e@*\xd3\xeaZ7\xed\x15@\xd6\x14\xda\x80g^\x14@\xfe(\xccg\xd9P\x19@5\xbf\x9c(\xfb\x7f\x14@EcCE\x06U\x1f@EcCE\x06U\x1f@\xfe(\xccg\xd9P\x19@\xbb\xdf\xde\xb9M\xfa\x0e@\xc0iw\x06\xd4\xb5\x1d@q\x85\xd79\xa1\xc6\x14@\xc3\x0b\xb4\x1e\x7f\x88\x0e@\xe9\xe3+\xa9\xad:\x15@Z\xe4\x89\x8fL\xd8\x17@\x07\x1cd\xe5=\x8f\x1c@\xdeU\xcb\xcf\xbbL\x12@EcCE\x06U\x1f@\xc0iw\x06\xd4\xb5\x1d@EcCE\x06U\x1f@\xc0iw\x06\xd4\xb5\x1d@\xf9\xb9\x15\x17\xed\xdc\t@\xa4F\x05.:\xa9\x13@\xc0iw\x06\xd4\xb5\x1d@\xc9\xd4\x84\x85u\xc9\x19@\xfe(\xccg\xd9P\x19@\xaf\xcc\xb6\x99i\x8c\x17@EcCE\x06U\x1f@W}\tN\x95\x89\x12@EcCE\x06U\x1f@c<\xe2\xf3\x94+\x0b@\x01\xc6\xbf\x17\xeam\x10@EcCE\x06U\x1f@Z\xe4\x89\x8fL\xd8\x17@\xc0iw\x06\xd4\xb5\x1d@\xed\x13\x96\xf91R\x1a@\xc0iw\x06\xd4\xb5\x1d@i\x91\x94g\xb5\x81\x0c@\xaf\xcc\xb6\x99i\x8c\x17@EcCE\x06U\x1f@\xc4M\xfd\xe3\xaf\x0f\x10@\x1c\x9d\xaa/\x84\x12\x15@Z\xe4\x89\x8fL\xd8\x17@\xaf\xcc\xb6\x99i\x8c\x17@EcCE\x06U\x1f@v>\x10\xbaE\xa9\x11@\x1c\x9d\xaa/\x84\x12\x15@EcCE\x06U\x1f@\x82"\x98\xa6\x0b\xf0\x1a@\xed\x13\x96\xf91R\x1a@\xeb\xed1\xf4 v\x0e@(2Z\x8dA\xb4\x12@EcCE\x06U\x1f@<\xed8:\x8eI\x10@EcCE\x06U\x1f@5\xbf\x9c(\xfb\x7f\x14@5\xbf\x9c(\xfb\x7f\x14@\xc0iw\x06\xd4\xb5\x1d@6G\'\'\xbe\xaa\x1b@\x1e\xe2\xbf\x08\x17\xa0\t@\xc0iw\x06\xd4\xb5\x1d@EcCE\x06U\x1f@\xfdK\xb3\xb4\x8b\x07\x0b@\xa4c\'wk\xb5\x0b@|q\x89\x07eY\x13@\xa4F\x05.:\xa9\x13@\xc0iw\x06\xd4\xb5\x1d@EcCE\x06U\x1f@<\xed8:\x8eI\x10@\xf8\xffG\xc7\xf5\xe4\x18@6G\'\'\xbe\xaa\x1b@\xae\tAB\xeb\x8d\x13@\xc0iw\x06\xd4\xb5\x1d@\xbc\x9b\x81\xa2\xf1C\x06@\xaf\x1a\x19\x18\xcfr\x0f@\xc0iw\x06\xd4\xb5\x1d@6G\'\'\xbe\xaa\x1b@EcCE\x06U\x1f@\xc6j%\xc4\x98\xc5\x16@\xaf\xcc\xb6\x99i\x8c\x17@\xc0iw\x06\xd4\xb5\x1d@Vs\x03\x03"N\x01@EcCE\x06U\x1f@\xc0iw\x06\xd4\xb5\x1d@\xc0iw\x06\xd4\xb5\x1d@EcCE\x06U\x1f@\xed\x13\x96\xf91R\x1a@EcCE\x06U\x1f@EcCE\x06U\x1f@6G\'\'\xbe\xaa\x1b@6G\'\'\xbe\xaa\x1b@EcCE\x06U\x1f@\xc0iw\x06\xd4\xb5\x1d@EcCE\x06U\x1f@\xc0iw\x06\xd4\xb5\x1d@\xfe(\xccg\xd9P\x19@\xfe(\xccg\xd9P\x19@EcCE\x06U\x1f@*\xd3\xeaZ7\xed\x15@\xba\xb8hg-\x1f\x16@EcCE\x06U\x1f@EcCE\x06U\x1f@\xc0iw\x06\xd4\xb5\x1d@\xf8\xffG\xc7\xf5\xe4\x18@\x82"\x98\xa6\x0b\xf0\x1a@EcCE\x06U\x1f@EcCE\x06U\x1f@5\xbf\x9c(\xfb\x7f\x14@\xa4F\x05.:\xa9\x13@s\x06|\x88\xc3E\x17@\x9f\xc7\x83i\x94\xbd\x15@\x07\x1cd\xe5=\x8f\x1c@\x82"\x98\xa6\x0b\xf0\x1a@6G\'\'\xbe\xaa\x1b@EcCE\x06U\x1f@EcCE\x06U\x1f@\xa4F\x05.:\xa9\x13@\xc6j%\xc4\x98\xc5\x16@EcCE\x06U\x1f@\x82"\x98\xa6\x0b\xf0\x1a@\xc0iw\x06\xd4\xb5\x1d@\xfe(\xccg\xd9P\x19@\xc0iw\x06\xd4\xb5\x1d@\x82\x9a\r\xa8H\xc5\x13@*\xd3\xeaZ7\xed\x15@4>\xf8\xd9\xd8\x00\x12@EcCE\x06U\x1f@\x1c\x9d\xaa/\x84\x12\x15@EcCE\x06U\x1f@D\xdb\xb8FC*\x18@EcCE\x06U\x1f@5\xbf\x9c(\xfb\x7f\x14@\xc0iw\x06\xd4\xb5\x1d@EcCE\x06U\x1f@EcCE\x06U\x1f@s\xab;?\xb2\xa2\x14@*\xd3\xeaZ7\xed\x15@EcCE\x06U\x1f@EcCE\x06U\x1f@\xda\xe0\x04f\x84;\x05@\x0e\x81\x8e\x11<h\x11@EcCE\x06U\x1f@\xd8\x91+G\xe1Q\x0e@5\xbf\x9c(\xfb\x7f\x14@\xec\x8b\x0b\xfbn\'\x13@`T\xd5\xad9\x12\x0c@sa\xbc\xd1\xd4\xe8\r@\xc0\xe1\xec\x07\x11\x8b\x16@MF\xc6\xc5\xe4=\x14@EcCE\x06U\x1f@EcCE\x06U\x1f@5\xbf\x9c(\xfb\x7f\x14@\xed\x13\x96\xf91R\x1a@\xc0iw\x06\xd4\xb5\x1d@\xed\x13\x96\xf91R\x1a@f\xff%\xceq\xe3\x10@6G\'\'\xbe\xaa\x1b@\xae\tAB\xeb\x8d\x13@EcCE\x06U\x1f@\x1c\x9d\xaa/\x84\x12\x15@\xed\x13\x96\xf91R\x1a@EcCE\x06U\x1f@*\xd3\xeaZ7\xed\x15@5\xbf\x9c(\xfb\x7f\x14@\x01\xc6\xbf\x17\xeam\x10@\x9b\x1f\xf8\xc6\x80\x16\x06@\xfe(\xccg\xd9P\x19@\xc0iw\x06\xd4\xb5\x1d@\xf8w\xbd\xc82\xba\x11@\xec\x8b\x0b\xfbn\'\x13@\xc9\xd4\x84\x85u\xc9\x19@z4\x18\x9aV\x0f\x13@EcCE\x06U\x1f@\xc0iw\x06\xd4\xb5\x1d@\xdb&\xdb\xf3\x020\x05@\xed\x13\x96\xf91R\x1a@6G\'\'\xbe\xaa\x1b@6G\'\'\xbe\xaa\x1b@'
p4843
tp4844
bsbsS'use_idf'
p4845
I01
sS'sublinear_tf'
p4846
I00
sS'norm'
p4847
Vl2
p4848
sbtp4849
a(S'clsfr'
p4850
g3727
(csklearn.linear_model.stochastic_gradient
SGDClassifier
p4851
g3729
Ntp4852
Rp4853
(dp4854
S't_'
p4855
F9276.0
sS'n_jobs'
p4856
I1
sS'shuffle'
p4857
I01
sS'verbose'
p4858
I0
sS'classes_'
p4859
g4810
(g4811
(I0
tp4860
g4813
tp4861
Rp4862
(I1
(I2
tp4863
g3760
(S'S5'
p4864
I0
I1
tp4865
Rp4866
(I3
S'|'
p4867
NNNI5
I1
I0
tp4868
bI00
S'FalseTrue\x00'
p4869
tp4870
bsS'class_weight'
p4871
NsS'fit_intercept'
p4872
I01
sg8
g9
sS'random_state'
p4873
I42
sg3733
g3734
sS'loss_function'
p4874
csklearn.linear_model.sgd_fast
Hinge
p4875
(F0.0
tp4876
Rp4877
sS'C'
p4878
F1.0
sg7
I5
sS'epsilon'
p4879
F0.1
sS'learning_rate'
p4880
S'optimal'
p4881
sS'coef_'
p4882
g4810
(g4811
(I0
tp4883
g4813
tp4884
Rp4885
(I1
(I1
I254
tp4886
g4840
I00
S"\x00\x00\x00\x00\x00\x00\x00\x00\x00\x00\x00\x00\x00\x00\x00\x00\x00\x00\x00\x00\x00\x00\x00\x00\x00\x00\x00\x00\x00\x00\x00\x00\x00\x00\x00\x00\x00\x00\x00\x00\x00\x00\x00\x00\x00\x00\x00\x00\x00\x00\x00\x00\x00\x00\x00\x00\x00\x00\x00\x00\x00\x00\x00\x00+\xdebt5}\x04\xc0\x00\x00\x00\x00\x00\x00\x00\x00\x03r-\x1f\xa6\xb3\xfe\xbf\xfb\x1e\x13\x12\x96\x16\xec\xbf\xa6\x11\xb1\xa4e\xb1\xc8?@,b\xd5k\xd9\x08\xc0\x00\x00\x00\x00\x00\x00\x00\x00\x00\x00\x00\x00\x00\x00\x00\x00\x00\x00\x00\x00\x00\x00\x00\x00\x00\x00\x00\x00\x00\x00\x00\x00\x00\x00\x00\x00\x00\x00\x00\x00\x00\x00\x00\x00\x00\x00\x00\x00\x00\x00\x00\x00\x00\x00\x00\x00\x00\x00\x00\x00\x00\x00\x00\x00\xfe\x08\xc9\x84\x9f\xfb\xd6?\xbeZH\xaf\xe8e\x02@\x00\x00\x00\x00\x00\x00\x00\x00\x00\x00\x00\x00\x00\x00\x00\x00\x00\x00\x00\x00\x00\x00\x00\x00\x00\x00\x00\x00\x00\x00\x00\x00\x00\x00\x00\x00\x00\x00\x00\x00\x00\x00\x00\x00\x00\x00\x00\x00d8\xe7\tEl\xde?\x00\x00\x00\x00\x00\x00\x00\x00\x00\x00\x00\x00\x00\x00\x00\x00\xb4ZQ\x8b\x95\xaa\x04\xc0\x00\x00\x00\x00\x00\x00\x00\x00!\x1bk\xaatp\x10\xc0|\xba\xd67`\xd4\xe8\xbf'd\x9b\x0b%\x94\x0c\xc0\x00\x00\x00\x00\x00\x00\x00\x00\x00\x00\x00\x00\x00\x00\x00\x00\x00\x00\x00\x00\x00\x00\x00\x00\x00\x00\x00\x00\x00\x00\x00\x006\xba\x8cX\x16\xe0\x00\xc0O\x0e\x1f\x8d\xd2\x99\x04\xc0\xae\xdco\x17\x87\xf9\xf0?\x00\x00\x00\x00\x00\x00\x00\x00\x00\x00\x00\x00\x00\x00\x00\x00\x1cJd\xb3<\x85\x02\xc0\xe1\xcee\xb4U\xd0\xe8?\x00\x00\x00\x00\x00\x00\x00\x00\x00\x00\x00\x00\x00\x00\x00\x00\x00\x00\x00\x00\x00\x00\x00\x00\x00\x00\x00\x00\x00\x00\x00\x00\x00\x00\x00\x00\x00\x00\x00\x00\x00\x00\x00\x00\x00\x00\x00\x00P\x07\x8e\xd7\xf1\xd0\xe9\xbf\x00\x00\x00\x00\x00\x00\x00\x00\x00\x00\x00\x00\x00\x00\x00\x00\xb0\xc4\xd48Ds\x13\xc0\xfa\x12\xbb\xa5o\x95\x06\xc0\x00\x00\x00\x00\x00\x00\x00\x00\x00\x00\x00\x00\x00\x00\x00\x00\x00\x00\x00\x00\x00\x00\x00\x00\x00\x00\x00\x00\x00\x00\x00\x00\x00\x00\x00\x00\x00\x00\x00\x00\x00\x00\x00\x00\x00\x00\x00\x00\x00\x00\x00\x00\x00\x00\x00\x00\x11\x03\xe0\x99\xbe\xc0\xfd\xbf?\xc2.(\xa7[\xf8?\x00\x00\x00\x00\x00\x00\x00\x00\x00\x00\x00\x00\x00\x00\x00\x00\x00\x00\x00\x00\x00\x00\x00\x00\x00\x00\x00\x00\x00\x00\x00\x00\x00\x00\x00\x00\x00\x00\x00\x00\x0f\x99rR\x08\x86\xef??+\x9dNN\xac\xe8\xbf\x00\x00\x00\x00\x00\x00\x00\x00\x94\xb2\xa2m\xf4\xbc\xdd?\xd5\x94\x7ff\xe4O\x01\xc0\x00\x00\x00\x00\x00\x00\x00\x00\x00\x00\x00\x00\x00\x00\x00\x00\x00\x00\x00\x00\x00\x00\x00\x00\x9b\x03\x06/\x02\xa7\r\xc0\x00\x00\x00\x00\x00\x00\x00\x00\xd1t\n^\x12\xb3\xf0?\xae\x82\x11\xd8Hs\xca?\x00\x00\x00\x00\x00\x00\x00\x00<\x81\xd9$\x9a\xd2\xe3?\x00\x00\x00\x00\x00\x00\x00\x00\x00\x00\x00\x00\x00\x00\x00\x00\xc8\x82(\xab\xe4\x85\xff?\x00\x00\x00\x00\x00\x00\x00\x00\x00\x00\x00\x00\x00\x00\x00\x00\x00\x00\x00\x00\x00\x00\x00\x00\x00\x00\x00\x00\x00\x00\x00\x00\x00\x00\x00\x00\x00\x00\x00\x00\x00\x00\x00\x00\x00\x00\x00\x00\x00\x00\x00\x00\x00\x00\x00\x00a\xb5\x9f\xf8|\xac\x06@\x00\x00\x00\x00\x00\x00\x00\x00\x00\x00\x00\x00\x00\x00\x00\x00\x00\x00\x00\x00\x00\x00\x00\x00\xff5\xd9PG\xcc\xe1\xbf\x00\x00\x00\x00\x00\x00\x00\x00~\x9aY\xd69\xed\x04\xc0\x00\x00\x00\x00\x00\x00\x00\x00\x02\x16%JE+\xe0\xbf[\xa3pe\xb8\xfd\xed\xbf\x00\x00\x00\x00\x00\x00\x00\x00\x87@\xe9\x96\x8f}\xd0?\x00\x00\x00\x00\x00\x00\x00\x00#-\xb4\x1ee\xdf\xe9?\xbau\xa2\x89\xad\xb7\xda?\xb5\x80\xd18\xbe'\xfc?L\xcfUi\x00\xcf\x04\xc0\x00\x00\x00\x00\x00\x00\x00\x00Q\xd5\x89\x04\xa1!\x02\xc0\xa9'\x83\t\xec\xcc\xf1\xbf\x00\x00\x00\x00\x00\x00\x00\x00\x01\xd8\xdagr#\xb1\xbf\x00\x00\x00\x00\x00\x00\x00\x00d\xce\x1c\x94\x89m\xe2?\x00\x00\x00\x00\x00\x00\x00\x00\x00\x00\x00\x00\x00\x00\x00\x00\x00\x00\x00\x00\x00\x00\x00\x00\x00\x00\x00\x00\x00\x00\x00\x00\xd6'\xd1\x0e\xbfe\n\xc0\xd9\xe0c\x97\xf3\xc5\xd8\xbf\x00\x00\x00\x00\x00\x00\x00\x00\xc8\xe5\xbc\x01\xb0\x9d\xe6?\x00\x00\x00\x00\x00\x00\x00\x00v\xc1n\x1dl\xef\x00\xc0\x00\x00\x00\x00\x00\x00\x00\x00\x00\x00\x00\x00\x00\x00\x00\x00\x00\x00\x00\x00\x00\x00\x00\x00\x00\x00\x00\x00\x00\x00\x00\x00\x00\x00\x00\x00\x00\x00\x00\x00i%\x17\x02\x83|\xe8\xbf\x00\x00\x00\x00\x00\x00\x00\x00\x0c\xd6\xaa\x9b\xb1\xc2\x03@b\x0c\xae\xc9\xf19\x05@\x00\x00\x00\x00\x00\x00\x00\x00\x00\x00\x00\x00\x00\x00\x00\x00\x00\x00\x00\x00\x00\x00\x00\x00\xb6?\xeb\x12\xa1e\x19\xc0\xc8\x06z\x1c\xd9.\xf1?\x1e\xbby\x08\xb4\xf4\x02\xc0\x00\x00\x00\x00\x00\x00\x00\x00\x00\x00\x00\x00\x00\x00\x00\x00W\x97\xd8\x1bP\x07\xef\xbf\x00\x00\x00\x00\x00\x00\x00\x00\x00\x00\x00\x00\x00\x00\x00\x00\x00\x00\x00\x00\x00\x00\x00\x00\x00\x00\x00\x00\x00\x00\x00\x00\x00\x00\x00\x00\x00\x00\x00\x00<\xb1\x17\x83\\P\x0f\xc0\x00\x00\x00\x00\x00\x00\x00\x00L\x88\x17\xa2H\x8f\xee\xbf\x00\x00\x00\x00\x00\x00\x00\x00\x00\x00\x00\x00\x00\x00\x00\x00\x00\x00\x00\x00\x00\x00\x00\x00\x00\x00\x00\x00\x00\x00\x00\x00\x00\x00\x00\x00\x00\x00\x00\x00\x00\x00\x00\x00\x00\x00\x00\x00\x00\x00\x00\x00\x00\x00\x00\x00h`\xb5\xa1\x1b\x99\xef\xbf\x00\x00\x00\x00\x00\x00\x00\x00\x00\x00\x00\x00\x00\x00\x00\x00\x00\x00\x00\x00\x00\x00\x00\x00\x00\x00\x00\x00\x00\x00\x00\x00\x00\x00\x00\x00\x00\x00\x00\x00\x00\x00\x00\x00\x00\x00\x00\x00\x00\x00\x00\x00\x00\x00\x00\x00\x00\x00\x00\x00\x00\x00\x00\x00\x96\xc5L\xec\xa1\xc1\xd1\xbf\x00\x00\x00\x00\x00\x00\x00\x00\x00\x00\x00\x00\x00\x00\x00\x00\x00\x00\x00\x00\x00\x00\x00\x00\xbau\xa2\x89\xad\xb7\xda?\x00\x00\x00\x00\x00\x00\x00\x00\x00\x00\x00\x00\x00\x00\x00\x00\x00\x00\x00\x00\x00\x00\x00\x00\x00\x00\x00\x00\x00\x00\x00\x00\x00\x00\x00\x00\x00\x00\x00\x00\x00\x00\x00\x00\x00\x00\x00\x00\x00\x00\x00\x00\x00\x00\x00\x00\x00\x00\x00\x00\x00\x00\x00\x00\x00\x00\x00\x00\x00\x00\x00\x00\x00\x00\x00\x00\x00\x00\x00\x00\x00\x00\x00\x00\x00\x00\x00\x00\x00\x00\x00\x00\x00\x00\x00\x00\x00\x00\x00\x00\x00\x00\x00\x00h)v\xf1c\x9b\x02\xc0\x00\x00\x00\x00\x00\x00\x00\x00\x00\x00\x00\x00\x00\x00\x00\x00\x00\x00\x00\x00\x00\x00\x00\x00\x00\x00\x00\x00\x00\x00\x00\x00\x00\x00\x00\x00\x00\x00\x00\x00\x00\x00\x00\x00\x00\x00\x00\x00\x00\x00\x00\x00\x00\x00\x00\x00\x00\x00\x00\x00\x00\x00\x00\x00\xb5\xe0\x19\xea\xac\xf0\x07\xc0\x00\x00\x00\x00\x00\x00\x00\x00\x00\x00\x00\x00\x00\x00\x00\x00\x00\x00\x00\x00\x00\x00\x00\x00\x00\x00\x00\x00\x00\x00\x00\x00\x00\x00\x00\x00\x00\x00\x00\x00\x00\x00\x00\x00\x00\x00\x00\x00\x00\x00\x00\x00\x00\x00\x00\x00\x00\x00\x00\x00\x00\x00\x00\x00\x00\x00\x00\x00\x00\x00\x00\x00\x8d\xfe+l\xa1&\xf2\xbfhq\xd4\xef=\xbb\xfd\xbf\x00\x00\x00\x00\x00\x00\x00\x00\x00\x00\x00\x00\x00\x00\x00\x00u\x08\x02\\\xd6f\xe7?\x8br\x05\x1a\x96\xdc\x08\xc0\x00\x00\x00\x00\x00\x00\x00\x00\x10A\xd4\x82\xf0\x13\xfc\xbf\x00\x00\x00\x00\x00\x00\x00\x00\x0cT^\x11(\x8f\xfe\xbf\xaex\x80\xdd\xa61\xec\xbf\xd0\x95\xd7\x98\x06[\xc1\xbf.=3,D\x87\xf5\xbf\x9c'h\xe5Ls\xd6\xbf\x00\x00\x00\x00\x00\x00\x00\x00\x00\x00\x00\x00\x00\x00\x00\x00\x00\x00\x00\x00\x00\x00\x00\x00\x00\x00\x00\x00\x00\x00\x00\x00\x00\x00\x00\x00\x00\x00\x00\x00\x00\x00\x00\x00\x00\x00\x00\x00\x00\x00\x00\x00\x00\x00\x00\x00\x00\x00\x00\x00\x00\x00\x00\x00W\x7f/\xd0\x8b\x81\x02\xc0\x00\x00\x00\x00\x00\x00\x00\x00o`\x06r\xee\xe8\xdb\xbf\x00\x00\x00\x00\x00\x00\x00\x00\x00\x00\x00\x00\x00\x00\x00\x004\xbf\xcc\xfd\xe3A\xfc\xbf\x00\x00\x00\x00\x00\x00\x00\x00$\xc8/\xbcN\x80\xf0\xbf\x88\xcb\xd2\x961\x00\xf8\xbf\x00\x00\x00\x00\x00\x00\x00\x00\x00\x00\x00\x00\x00\x00\x00\x00\xf6\xb6-^\x919\xe1?{\xe4C\xa8\x16.\xf0\xbf9rE\xdd\x91\x0b\x01@\x00\x00\x00\x00\x00\x00\x00\x00\x00\x00\x00\x00\x00\x00\x00\x00\x00\x00\x00\x00\x00\x00\x00\x00\x8axj\x1554\xe6\xbf\x00\x00\x00\x00\x00\x00\x00\x00\x00\x00\x00\x00\x00\x00\x00\x00\x00\x00\x00\x00\x00\x00\x00\x00"
p4887
tp4888
bsg11
F0.001
sS'intercept_'
p4889
g4810
(g4811
(I0
tp4890
g4813
tp4891
Rp4892
(I1
(I1
tp4893
g4840
I00
S'\xf5\xc1\x8c\xeb3}\xd4\xbf'
p4894
tp4895
bsS'_expanded_class_weight'
p4896
g4810
(g4811
(I0
tp4897
g4813
tp4898
Rp4899
(I1
(I2
tp4900
g4840
I00
S'\x00\x00\x00\x00\x00\x00\xf0?\x00\x00\x00\x00\x00\x00\xf0?'
p4901
tp4902
bsS'warm_start'
p4903
I00
sg2
g3
sS'eta0'
p4904
F0.0
sS'l1_ratio'
p4905
F0.15
sS'average'
p4906
I00
sS'power_t'
p4907
F0.5
sbtp4908
asbsb.