(ialicized_models
CommandMatchingModel
p0
(dp1
S'loss'
p2
S'hinge'
p3
sS'grammar'
p4
NsS'name'
p5
S'GET_TIME.model'
p6
sS'n_iter'
p7
I5
sS'penalty'
p8
S'none'
p9
sS'trained'
p10
I01
sS'alpha'
p11
F0.001
sS'data'
p12
(lp13
(S'pause please'
p14
S'False'
p15
tp16
a(S'please sound up'
p17
g15
tp18
a(S'start default browser please'
p19
g15
tp20
a(S'google search please for'
p21
g15
tp22
a(S"don't i have anything on this day"
p23
g15
tp24
a(S"don't i have to do anything on this day"
p25
g15
tp26
a(S"please what's new in mail"
p27
g15
tp28
a(S'can you please kill this window'
p29
g15
tp30
a(S'what is on my calendar for this week'
p31
g15
tp32
a(S'am i free for thursday'
p33
g15
tp34
a(S'add event please'
p35
g15
tp36
a(S'get newsfeed'
p37
g15
tp38
a(S"what's new in gmail please"
p39
g15
tp40
a(S'tell me live newsfeed'
p41
g15
tp42
a(S'tell me newsfeed'
p43
g15
tp44
a(S'increase the volume'
p45
g15
tp46
a(S'turn up the sound'
p47
g15
tp48
a(S'do i have to do anything today'
p49
g15
tp50
a(S'please schedule event'
p51
g15
tp52
a(S'turn up the tunez'
p53
g15
tp54
a(S'what is on my calendar for wednesday'
p55
g15
tp56
a(S"don't get current time"
p57
g15
tp58
a(S'skip spotify please'
p59
g15
tp60
a(S"don't i have to do anything on thursday"
p61
g15
tp62
a(S'please open my mail'
p63
g15
tp64
a(S'please would you open inbox'
p65
g15
tp66
a(S'quit'
p67
g15
tp68
a(S"how's the forecast"
p69
g15
tp70
a(S'what do i have to do on sunday'
p71
g15
tp72
a(S'what is on my calendar for today'
p73
g15
tp74
a(S'kill active window'
p75
g15
tp76
a(S"what's if it's hot today"
p77
g15
tp78
a(S'can you add a new event'
p79
g15
tp80
a(S'retrieve what time it is'
p81
S'True'
p82
tp83
a(S'what are the live news'
p84
g15
tp85
a(S"please what's new in inbox"
p86
g15
tp87
a(S'can you please schedule an event'
p88
g15
tp89
a(S'anything new in mail'
p90
g15
tp91
a(S'get the current time please'
p92
g82
tp93
a(S'find live news feed'
p94
g15
tp95
a(S'check google calendar for this day'
p96
g15
tp97
a(S'read the time please'
p98
g82
tp99
a(S'please can you check inbox'
p100
g15
tp101
a(S'what events are in a week'
p102
g15
tp103
a(S"don't i have anything today"
p104
g15
tp105
a(S'stop song please'
p106
g15
tp107
a(S'please make an event'
p108
g15
tp109
a(S'close current window'
p110
g15
tp111
a(S'can you please exit'
p112
g15
tp113
a(S'what is in new gmail please'
p114
g15
tp115
a(S"get today's forecast"
p116
g15
tp117
a(S'check my gmail'
p118
g15
tp119
a(S'add an event'
p120
g15
tp121
a(S'can you lock the screen please'
p122
g15
tp123
a(S'do i have any events on this day'
p124
g15
tp125
a(S'please could you check new mail'
p126
g15
tp127
a(S'do not check what time it is'
p128
g15
tp129
a(S"get if it's freezing this week"
p130
g15
tp131
a(S'what are the current events today'
p132
g15
tp133
a(S'do i have any events on thursday'
p134
g15
tp135
a(S'please do not get current time'
p136
g15
tp137
a(S'open gmail please'
p138
g15
tp139
a(S'shut my computer down'
p140
g15
tp141
a(S'am i free for wednesday'
p142
g15
tp143
a(S'please shutdown my computer'
p144
g15
tp145
a(S'can you make it louder please'
p146
g15
tp147
a(S'do i have any events on next'
p148
g15
tp149
a(S'get the time'
p150
g82
tp151
a(S'good bye'
p152
g15
tp153
a(S'can you check if i have anything in my inbox'
p154
g15
tp155
a(S'please will you open my mail'
p156
g15
tp157
a(S'make an event please'
p158
g15
tp159
a(S"what're the current events"
p160
g15
tp161
a(S'will you check new gmail please'
p162
g15
tp163
a(S'please read your watch'
p164
g82
tp165
a(S'please google search'
p166
g15
tp167
a(S'please start'
p168
g15
tp169
a(S'what events do i have on tuesday'
p170
g15
tp171
a(S'do not retrieve what time it is please'
p172
g15
tp173
a(S'do i have to do anything on next'
p174
g15
tp175
a(S'is there anything i have to do on this day'
p176
g15
tp177
a(S"get if it's freezing today"
p178
g15
tp179
a(S'can you mute'
p180
g15
tp181
a(S'please start a browser'
p182
g15
tp183
a(S'spotify go back'
p184
g15
tp185
a(S'please could you check new gmail'
p186
g15
tp187
a(S'please open a browser'
p188
g15
tp189
a(S'shutdown my computer'
p190
g15
tp191
a(S'can you please kill the window'
p192
g15
tp193
a(S'get the time please'
p194
g82
tp195
a(S'volume higher please'
p196
g15
tp197
a(S"what's the news"
p198
g15
tp199
a(S"what's if it's freezing this week"
p200
g15
tp201
a(S'could you please add an event'
p202
g15
tp203
a(S'please do not check the clock'
p204
g15
tp205
a(S'please go to dot com'
p206
g15
tp207
a(S'please spotify start'
p208
g15
tp209
a(S'turn up the the beat'
p210
g15
tp211
a(S'any events on monday'
p212
g15
tp213
a(S"what's temperature"
p214
g15
tp215
a(S'do not check the clock please'
p216
g15
tp217
a(S"what time isn't it now"
p218
g15
tp219
a(S"today's live news feed"
p220
g15
tp221
a(S'issue commands'
p222
g15
tp223
a(S'please will you open my inbox'
p224
g15
tp225
a(S'please check gmail'
p226
g15
tp227
a(S'resume'
p228
g15
tp229
a(S'go ahead spotify please'
p230
g15
tp231
a(S'are there any events on'
p232
g15
tp233
a(S"what's the temperature today"
p234
g15
tp235
a(S'check calendar on monday'
p236
g15
tp237
a(S'would you check my inbox'
p238
g15
tp239
a(S'turn up the beat please'
p240
g15
tp241
a(S'check calendar on wednesday'
p242
g15
tp243
a(S'open mail'
p244
g15
tp245
a(S"please don't get the current time"
p246
g15
tp247
a(S'please get the current events'
p248
g15
tp249
a(S'could you make a new event'
p250
g15
tp251
a(S"don't get the current time please"
p252
g15
tp253
a(S'what events do i have on monday'
p254
g15
tp255
a(S'could you please add new event'
p256
g15
tp257
a(S"don't i have any events on friday"
p258
g15
tp259
a(S'do not retrieve the time please'
p260
g15
tp261
a(S'could you add event'
p262
g15
tp263
a(S"don't check your watch please"
p264
g15
tp265
a(S'bye bye'
p266
g15
tp267
a(S"today's forecast"
p268
g15
tp269
a(S'am i free on wednesday'
p270
g15
tp271
a(S'can you please turn up the tunez'
p272
g15
tp273
a(S'good night'
p274
g15
tp275
a(S'spotify play'
p276
g15
tp277
a(S'check calendar on this day'
p278
g15
tp279
a(S'what events are in a month'
p280
g15
tp281
a(S'retrieve what time it is please'
p282
g82
tp283
a(S'what do i have to do on tomorrow'
p284
g15
tp285
a(S'please will you check my inbox'
p286
g15
tp287
a(S'spotify pause please'
p288
g15
tp289
a(S"what's new in gmail"
p290
g15
tp291
a(S'do not get the current time please'
p292
g15
tp293
a(S'spotify stop playing'
p294
g15
tp295
a(S'schedule event please'
p296
g15
tp297
a(S'see ya alice'
p298
g15
tp299
a(S'what do i have to do on saturday'
p300
g15
tp301
a(S'please spotify pause the song'
p302
g15
tp303
a(S'could you please schedule an event'
p304
g15
tp305
a(S'emergency shutdown'
p306
g15
tp307
a(S"don't retrieve the time"
p308
g15
tp309
a(S'is it cloudy this week'
p310
g15
tp311
a(S'please kill current window'
p312
g15
tp313
a(S"this week's temperature"
p314
g15
tp315
a(S'do i have any events on today'
p316
g15
tp317
a(S'will you check gmail please'
p318
g15
tp319
a(S'get news now'
p320
g15
tp321
a(S"don't i have anything to do on"
p322
g15
tp323
a(S'open my inbox please'
p324
g15
tp325
a(S'check events for wednesday'
p326
g15
tp327
a(S'would you check my gmail'
p328
g15
tp329
a(S'what is in gmail'
p330
g15
tp331
a(S'turn up the volume'
p332
g15
tp333
a(S'can you please kill current window'
p334
g15
tp335
a(S'do i have to do anything on this day'
p336
g15
tp337
a(S'turn off the computer please'
p338
g15
tp339
a(S'is there anything to do'
p340
g15
tp341
a(S'is it hot today'
p342
g15
tp343
a(S'can you please add new event'
p344
g15
tp345
a(S'check my calendar on this day'
p346
g15
tp347
a(S"please what's in inbox"
p348
g15
tp349
a(S'what is new in my inbox please'
p350
g15
tp351
a(S'check the current time please'
p352
g82
tp353
a(S'can you schedule an event please'
p354
g15
tp355
a(S'can you lock my computer please'
p356
g15
tp357
a(S'shut off my computer please'
p358
g15
tp359
a(S'is there anything i have to do tomorrow'
p360
g15
tp361
a(S'please get the current time'
p362
g82
tp363
a(S'what are the current news'
p364
g15
tp365
a(S'briefing'
p366
g15
tp367
a(S'is there anything to do on friday'
p368
g15
tp369
a(S'do i have anything to do next'
p370
g15
tp371
a(S'debrief me'
p372
g15
tp373
a(S'do i have anything in my inbox'
p374
g15
tp375
a(S'can you please shut off'
p376
g15
tp377
a(S'shut my computer down please'
p378
g15
tp379
a(S"what're the headlines"
p380
g15
tp381
a(S'is it raining today'
p382
g15
tp383
a(S'what is in new mail please'
p384
g15
tp385
a(S"aren't there any events on wednesday"
p386
g15
tp387
a(S'what is headlines'
p388
g15
tp389
a(S"what's new in my mail please"
p390
g15
tp391
a(S"please don't retrieve what time it is"
p392
g15
tp393
a(S'decrease the volume'
p394
g15
tp395
a(S'extract the features using almost the same feature'
p396
g15
tp397
a(S'could you schedule a new event please'
p398
g15
tp399
a(S'am i free today'
p400
g15
tp401
a(S"what're the current news"
p402
g15
tp403
a(S'please get clock'
p404
g82
tp405
a(S'can you create a new event'
p406
g15
tp407
a(S'current events'
p408
g15
tp409
a(S'get current events'
p410
g15
tp411
a(S'please shut down'
p412
g15
tp413
a(S'are there any events on next'
p414
g15
tp415
a(S"how's the temperature today"
p416
g15
tp417
a(S'please shut down my computer'
p418
g15
tp419
a(S'close window'
p420
g15
tp421
a(S"don't get clock please"
p422
g15
tp423
a(S'what events are going on right now'
p424
g15
tp425
a(S'could you schedule new event please'
p426
g15
tp427
a(S"don't i have to do anything in a month"
p428
g15
tp429
a(S"please don't check the current time"
p430
g15
tp431
a(S'could you open inbox please'
p432
g15
tp433
a(S'turn the beat down'
p434
g15
tp435
a(S'are there any events on sunday'
p436
g15
tp437
a(S'spotify last song please'
p438
g15
tp439
a(S'read your watch please'
p440
g82
tp441
a(S'turn up the tune'
p442
g15
tp443
a(S"what's if it's foggy this week"
p444
g15
tp445
a(S'please add new event'
p446
g15
tp447
a(S'live news'
p448
g15
tp449
a(S'spotify play the song before'
p450
g15
tp451
a(S'can you close this window'
p452
g15
tp453
a(S"what's if it's hot this week"
p454
g15
tp455
a(S'please check new mail'
p456
g15
tp457
a(S'could you check my mail please'
p458
g15
tp459
a(S'open a browser please'
p460
g15
tp461
a(S"what's this week's weather"
p462
g15
tp463
a(S'schedule a new event please'
p464
g15
tp465
a(S'check events on thursday'
p466
g15
tp467
a(S'will you open my mail'
p468
g15
tp469
a(S'do not when is it please'
p470
g15
tp471
a(S'can you send me to the lock screen'
p472
g15
tp473
a(S'please check inbox'
p474
g15
tp475
a(S'can you add new event please'
p476
g15
tp477
a(S'is there anything i have to do on thursday'
p478
g15
tp479
a(S'what events do i have in a week'
p480
g15
tp481
a(S"get if it's foggy today"
p482
g15
tp483
a(S'do i have to do anything in a month'
p484
g15
tp485
a(S'please open mail'
p486
g15
tp487
a(S'anything in my gmail'
p488
g15
tp489
a(S'open my mail'
p490
g15
tp491
a(S'we stick to simple problems in this post for the sake of illustration'
p492
g15
tp493
a(S'what do i have to do in a month'
p494
g15
tp495
a(S"don't i have anything on friday"
p496
g15
tp497
a(S'news feed'
p498
g15
tp499
a(S'what do i have to do on tuesday'
p500
g15
tp501
a(S'check my calendar on this week'
p502
g15
tp503
a(S'check what time it is please'
p504
g82
tp505
a(S'is there anything to do on sunday'
p506
g15
tp507
a(S'can you please turn off'
p508
g15
tp509
a(S'turn off the computer'
p510
g15
tp511
a(S"what's new in inbox please"
p512
g15
tp513
a(S'would you check my gmail please'
p514
g15
tp515
a(S'do i have anything'
p516
g15
tp517
a(S"don't check the current time please"
p518
g15
tp519
a(S'do i have any events in a week'
p520
g15
tp521
a(S'please open my inbox'
p522
g15
tp523
a(S"get today's temperature"
p524
g15
tp525
a(S"don't check the clock"
p526
g15
tp527
a(S"today's forecast"
p528
g15
tp529
a(S'how is the forecast'
p530
g15
tp531
a(S'could you add new event'
p532
g15
tp533
a(S'create an event please'
p534
g15
tp535
a(S'whats going on in the world todays please'
p536
g15
tp537
a(S'check the current time'
p538
g82
tp539
a(S'check the clock right now'
p540
g82
tp541
a(S'shut off'
p542
g15
tp543
a(S'add new event'
p544
g15
tp545
a(S"please don't read the time"
p546
g15
tp547
a(S"please don't read time"
p548
g15
tp549
a(S"what's the clock"
p550
g82
tp551
a(S'please would you open my mail'
p552
g15
tp553
a(S'what is news'
p554
g15
tp555
a(S"please don't check your watch"
p556
g15
tp557
a(S'please do not check your watch'
p558
g15
tp559
a(S'intel'
p560
g15
tp561
a(S'read the clock please'
p562
g82
tp563
a(S'how is the temperature'
p564
g15
tp565
a(S'please spotify play last song'
p566
g15
tp567
a(S'check the clock right now please'
p568
g82
tp569
a(S'please get the news'
p570
g15
tp571
a(S'alice go ahead please'
p572
g15
tp573
a(S"what's new in my gmail please"
p574
g15
tp575
a(S'what events do i have on tomorrow'
p576
g15
tp577
a(S'send me to the lock screen'
p578
g15
tp579
a(S'please spotify pause'
p580
g15
tp581
a(S"how's the temperature"
p582
g15
tp583
a(S'tell me live news'
p584
g15
tp585
a(S'what is new in new mail please'
p586
g15
tp587
a(S'current events today'
p588
g15
tp589
a(S'close the active window'
p590
g15
tp591
a(S'will you open my inbox please'
p592
g15
tp593
a(S'tell me news'
p594
g15
tp595
a(S'find live news'
p596
g15
tp597
a(S'are there any events on monday'
p598
g15
tp599
a(S'turn my computer off please'
p600
g15
tp601
a(S'what do i have to do on today'
p602
g15
tp603
a(S'please start default browser'
p604
g15
tp605
a(S"what's the headlines"
p606
g15
tp607
a(S'check my calendar for this day'
p608
g15
tp609
a(S'current events please'
p610
g15
tp611
a(S'open dot org'
p612
g15
tp613
a(S'lock my computer please'
p614
g15
tp615
a(S'can you please schedule event'
p616
g15
tp617
a(S'weather'
p618
g15
tp619
a(S'please could you check my gmail'
p620
g15
tp621
a(S'any events'
p622
g15
tp623
a(S'check my calendar on friday'
p624
g15
tp625
a(S'can you check my gmail please'
p626
g15
tp627
a(S'pause spotify'
p628
g15
tp629
a(S'music down'
p630
g15
tp631
a(S'am i free for tuesday'
p632
g15
tp633
a(S'news feed today'
p634
g15
tp635
a(S"i think i didn't answer an earlier question"
p636
g15
tp637
a(S'could you add a new event please'
p638
g15
tp639
a(S"what's if it's cloudy this week"
p640
g15
tp641
a(S"get if it's snowing today"
p642
g15
tp643
a(S"please what's new in new mail"
p644
g15
tp645
a(S'will you open inbox please'
p646
g15
tp647
a(S'please do not read your watch'
p648
g15
tp649
a(S'go back to the last song'
p650
g15
tp651
a(S'check my calendar on thursday'
p652
g15
tp653
a(S'please get me the clock'
p654
g82
tp655
a(S'what are the the news'
p656
g15
tp657
a(S'next'
p658
g15
tp659
a(S"aren't there any events on tomorrow"
p660
g15
tp661
a(S'could you check inbox please'
p662
g15
tp663
a(S"don't i have to do anything in a week"
p664
g15
tp665
a(S'check google calendar on month'
p666
g15
tp667
a(S"aren't there any events on today"
p668
g15
tp669
a(S'check events for tuesday'
p670
g15
tp671
a(S'please go back'
p672
g15
tp673
a(S'can you make an event'
p674
g15
tp675
a(S'can you add a new event please'
p676
g15
tp677
a(S'please could you open my gmail'
p678
g15
tp679
a(S'please kill the window'
p680
g15
tp681
a(S'would you open my gmail'
p682
g15
tp683
a(S'what do i have to do on next'
p684
g15
tp685
a(S'the news today'
p686
g15
tp687
a(S"don't i have any events on this day"
p688
g15
tp689
a(S'any events on next'
p690
g15
tp691
a(S'check calendar for next'
p692
g15
tp693
a(S'do i have to do anything on wednesday'
p694
g15
tp695
a(S'what is the news today'
p696
g15
tp697
a(S"what's new in my gmail"
p698
g15
tp699
a(S"don't get current time please"
p700
g15
tp701
a(S'what time is it currently'
p702
g82
tp703
a(S'close this window'
p704
g15
tp705
a(S"don't retrieve the current time"
p706
g15
tp707
a(S'what events do i have on thursday'
p708
g15
tp709
a(S'can you open browser please'
p710
g15
tp711
a(S'check calendar for tomorrow'
p712
g15
tp713
a(S'what do i have on'
p714
g15
tp715
a(S'give me the current events please'
p716
g15
tp717
a(S"don't when is it please"
p718
g15
tp719
a(S"what's if it's raining this week"
p720
g15
tp721
a(S'is there anything i have to do on next'
p722
g15
tp723
a(S'check calendar for'
p724
g15
tp725
a(S'read me the clock'
p726
g82
tp727
a(S'shutdown the computer'
p728
g15
tp729
a(S'any events on today'
p730
g15
tp731
a(S'what is in my inbox please'
p732
g15
tp733
a(S'check my calendar for wednesday'
p734
g15
tp735
a(S'create an event'
p736
g15
tp737
a(S'please could you open inbox'
p738
g15
tp739
a(S'get me the clock'
p740
g82
tp741
a(S"how's the temperature this week"
p742
g15
tp743
a(S"don't check the clock please"
p744
g15
tp745
a(S'could you check my inbox'
p746
g15
tp747
a(S'do not check your watch'
p748
g15
tp749
a(S"what's if it's cloudy today"
p750
g15
tp751
a(S'spotify stop the song'
p752
g15
tp753
a(S'check my calendar on'
p754
g15
tp755
a(S'please do not retrieve the current time'
p756
g15
tp757
a(S"don't i have any events on saturday"
p758
g15
tp759
a(S'shut down please'
p760
g15
tp761
a(S'start spotify please'
p762
g15
tp763
a(S'train a classifier to try to predict the category of a post'
p764
g15
tp765
a(S"what's new in inbox"
p766
g15
tp767
a(S"please don't get the clock"
p768
g15
tp769
a(S"don't i have any events on wednesday"
p770
g15
tp771
a(S'read the time'
p772
g82
tp773
a(S'open my gmail'
p774
g15
tp775
a(S'headlines'
p776
g15
tp777
a(S'anything new in inbox'
p778
g15
tp779
a(S"what's in my inbox"
p780
g15
tp781
a(S'turn it down'
p782
g15
tp783
a(S'would you check mail please'
p784
g15
tp785
a(S'start a default browser please'
p786
g15
tp787
a(S'kill the music'
p788
g15
tp789
a(S"get if it's hot this week"
p790
g15
tp791
a(S'make the sound louder'
p792
g15
tp793
a(S'time please'
p794
g82
tp795
a(S'will you get the current events for me'
p796
g15
tp797
a(S'could you make an event please'
p798
g15
tp799
a(S'check my mail please'
p800
g15
tp801
a(S'do i have any events on friday'
p802
g15
tp803
a(S'what is on my calendar for sunday'
p804
g15
tp805
a(S"what're the live news"
p806
g15
tp807
a(S"don't i have to do anything today"
p808
g15
tp809
a(S'spotify go please'
p810
g15
tp811
a(S'do i have any events on monday'
p812
g15
tp813
a(S'please lock computer'
p814
g15
tp815
a(S'can you turn up the volume please'
p816
g15
tp817
a(S"what's the current news"
p818
g15
tp819
a(S'could you schedule event please'
p820
g15
tp821
a(S'please check my gmail'
p822
g15
tp823
a(S"if it's rainy this week"
p824
g15
tp825
a(S"what're the newsfeed"
p826
g15
tp827
a(S"aren't there any events on this day"
p828
g15
tp829
a(S'please would you check gmail'
p830
g15
tp831
a(S'can you check my mail please'
p832
g15
tp833
a(S'check inbox'
p834
g15
tp835
a(S'will you get the news for me'
p836
g15
tp837
a(S'spotify pause'
p838
g15
tp839
a(S'check google calendar'
p840
g15
tp841
a(S'can you please shut down my computer'
p842
g15
tp843
a(S'will it rain this week'
p844
g15
tp845
a(S'please read time'
p846
g82
tp847
a(S'check google calendar on this day'
p848
g15
tp849
a(S"don't i have anything on next"
p850
g15
tp851
a(S"don't i have to do anything in a month"
p852
g15
tp853
a(S'do not get me the clock'
p854
g15
tp855
a(S'please what is in gmail'
p856
g15
tp857
a(S'check events on monday'
p858
g15
tp859
a(S'is it freezing today'
p860
g15
tp861
a(S'give me the news please'
p862
g15
tp863
a(S'please go to'
p864
g15
tp865
a(S"what's the temperature this week"
p866
g15
tp867
a(S'check gmail please'
p868
g15
tp869
a(S'is there anything i have to do on monday'
p870
g15
tp871
a(S'what is on my calendar for monday'
p872
g15
tp873
a(S'check events on tomorrow'
p874
g15
tp875
a(S'can you lock my computer please'
p876
g15
tp877
a(S'do not check the clock'
p878
g15
tp879
a(S"don't time please"
p880
g15
tp881
a(S'fake news'
p882
g15
tp883
a(S'will you open mail'
p884
g15
tp885
a(S"get if it's hot today"
p886
g15
tp887
a(S'check my calendar for today'
p888
g15
tp889
a(S"don't check the clock right now"
p890
g15
tp891
a(S"what's new in new mail"
p892
g15
tp893
a(S'give me the news'
p894
g15
tp895
a(S"don't read me the clock please"
p896
g15
tp897
a(S'get current time please'
p898
g82
tp899
a(S"don't read time please"
p900
g15
tp901
a(S'will you check my mail'
p902
g15
tp903
a(S'please would you open mail'
p904
g15
tp905
a(S'can you make a new event'
p906
g15
tp907
a(S'i like dogs'
p908
g15
tp909
a(S'do not retrieve what time it is'
p910
g15
tp911
a(S'stop playing'
p912
g15
tp913
a(S'sound up please'
p914
g15
tp915
a(S'could you add a new event'
p916
g15
tp917
a(S'turn up the sound please'
p918
g15
tp919
a(S'mute'
p920
g15
tp921
a(S'check my calendar for tomorrow'
p922
g15
tp923
a(S'do i have to do anything on thursday'
p924
g15
tp925
a(S'schedule a new event'
p926
g15
tp927
a(S"don't i have anything to do today"
p928
g15
tp929
a(S'make an event'
p930
g15
tp931
a(S'what do i have to do on wednesday'
p932
g15
tp933
a(S'lower the volume'
p934
g15
tp935
a(S'can you schedule a new event'
p936
g15
tp937
a(S"if it's foggy this week"
p938
g15
tp939
a(S'what do i have on saturday'
p940
g15
tp941
a(S'check google calendar on tomorrow'
p942
g15
tp943
a(S'what are the news'
p944
g15
tp945
a(S'do i have to do anything on tuesday'
p946
g15
tp947
a(S'can you check my inbox'
p948
g15
tp949
a(S'would you check new gmail'
p950
g15
tp951
a(S'check events for this month'
p952
g15
tp953
a(S'set volume 0'
p954
g15
tp955
a(S'please tell me whats going on in the news please'
p956
g15
tp957
a(S'could you open my inbox'
p958
g15
tp959
a(S'what is going on in the world today'
p960
g15
tp961
a(S'check events on friday'
p962
g15
tp963
a(S'read me the clock please'
p964
g82
tp965
a(S'gather the latest headlines please'
p966
g15
tp967
a(S'please louder'
p968
g15
tp969
a(S'do i have anything tomorrow'
p970
g15
tp971
a(S'check google calendar for thursday'
p972
g15
tp973
a(S'can you exit'
p974
g15
tp975
a(S'check calendar for sunday'
p976
g15
tp977
a(S'can you add new event'
p978
g15
tp979
a(S'do i have anything in a week'
p980
g15
tp981
a(S'can you add an event please'
p982
g15
tp983
a(S'spotify start please'
p984
g15
tp985
a(S"don't i have to do anything on this day"
p986
g15
tp987
a(S'can you kill the window'
p988
g15
tp989
a(S'are there any events on tuesday'
p990
g15
tp991
a(S"what's in mail"
p992
g15
tp993
a(S'get the the latest headlines'
p994
g15
tp995
a(S'start browsing please'
p996
g15
tp997
a(S"don't get the clock please"
p998
g15
tp999
a(S'can you check my inbox please'
p1000
g15
tp1001
a(S"don't get the time please"
p1002
g15
tp1003
a(S'please what is new in new mail'
p1004
g15
tp1005
a(S'check google calendar on monday'
p1006
g15
tp1007
a(S'please schedule a new event'
p1008
g15
tp1009
a(S'last song please'
p1010
g15
tp1011
a(S"don't i have anything to do on wednesday"
p1012
g15
tp1013
a(S'check my calendar on today'
p1014
g15
tp1015
a(S'get the information'
p1016
g15
tp1017
a(S'turn it off'
p1018
g15
tp1019
a(S'can you check gmail'
p1020
g15
tp1021
a(S'please add an event'
p1022
g15
tp1023
a(S"don't i have to do anything on tuesday"
p1024
g15
tp1025
a(S'turn the beat down please'
p1026
g15
tp1027
a(S'find the news'
p1028
g15
tp1029
a(S'put me on the lock screen'
p1030
g15
tp1031
a(S'do not check what time it is please'
p1032
g15
tp1033
a(S'any mail'
p1034
g15
tp1035
a(S'will you check new mail please'
p1036
g15
tp1037
a(S'get clock please'
p1038
g82
tp1039
a(S'get current news'
p1040
g15
tp1041
a(S'what is live news'
p1042
g15
tp1043
a(S'kill window'
p1044
g15
tp1045
a(S'please turn off'
p1046
g15
tp1047
a(S'is there anything to do on wednesday'
p1048
g15
tp1049
a(S'lower the volume'
p1050
g15
tp1051
a(S'please add a new event'
p1052
g15
tp1053
a(S'could you make an event'
p1054
g15
tp1055
a(S'what is in gmail please'
p1056
g15
tp1057
a(S'do not check the current time please'
p1058
g15
tp1059
a(S'could you please make a new event'
p1060
g15
tp1061
a(S'what events are on this day'
p1062
g15
tp1063
a(S'please check the clock'
p1064
g82
tp1065
a(S'get the current events'
p1066
g15
tp1067
a(S'clock'
p1068
g82
tp1069
a(S'will you check mail'
p1070
g15
tp1071
a(S"if it's cloudy this week"
p1072
g15
tp1073
a(S'current temperature'
p1074
g15
tp1075
a(S'is there anything to do today'
p1076
g15
tp1077
a(S"what's if it's freezing today"
p1078
g15
tp1079
a(S"don't i have anything to do on monday"
p1080
g15
tp1081
a(S'go spotify please'
p1082
g15
tp1083
a(S'google search for please'
p1084
g15
tp1085
a(S"what's the the news"
p1086
g15
tp1087
a(S'check google calendar for next'
p1088
g15
tp1089
a(S'will you check inbox please'
p1090
g15
tp1091
a(S'please do not retrieve what time it is'
p1092
g15
tp1093
a(S"don't i have any events on sunday"
p1094
g15
tp1095
a(S'check calendar for today'
p1096
g15
tp1097
a(S'can you create a new event please'
p1098
g15
tp1099
a(S'what is in inbox'
p1100
g15
tp1101
a(S"don't i have any events in a month"
p1102
g15
tp1103
a(S'check calendar for saturday'
p1104
g15
tp1105
a(S'please open'
p1106
g15
tp1107
a(S'is it foggy today'
p1108
g15
tp1109
a(S'can you check mail'
p1110
g15
tp1111
a(S"don't get time please"
p1112
g15
tp1113
a(S"what's the live news"
p1114
g15
tp1115
a(S'can you check gmail please'
p1116
g15
tp1117
a(S'please spotify play previous song'
p1118
g15
tp1119
a(S'check calendar for friday'
p1120
g15
tp1121
a(S"get if it's rainy this week"
p1122
g15
tp1123
a(S'am i free on this day'
p1124
g15
tp1125
a(S'please what is in new mail'
p1126
g15
tp1127
a(S'what is on my calendar for friday'
p1128
g15
tp1129
a(S'please will you open mail'
p1130
g15
tp1131
a(S'check events for friday'
p1132
g15
tp1133
a(S'any events on tuesday'
p1134
g15
tp1135
a(S'lock'
p1136
g15
tp1137
a(S"today's current events"
p1138
g15
tp1139
a(S"what's the temperature"
p1140
g15
tp1141
a(S'am i free for next'
p1142
g15
tp1143
a(S'any events on wednesday'
p1144
g15
tp1145
a(S'please find out the latest headlines'
p1146
g15
tp1147
a(S"today's current news "
p1148
g15
tp1149
a(S'do i have anything to do today'
p1150
g15
tp1151
a(S'please kill the current window'
p1152
g15
tp1153
a(S'please close current window'
p1154
g15
tp1155
a(S'open default browser please'
p1156
g15
tp1157
a(S'check calendar'
p1158
g15
tp1159
a(S'please could you open gmail'
p1160
g15
tp1161
a(S'what is new in my mail please'
p1162
g15
tp1163
a(S"what's if it's raining today"
p1164
g15
tp1165
a(S"if it's cloudy today"
p1166
g15
tp1167
a(S"what're the live newsfeed"
p1168
g15
tp1169
a(S"get this week's weather"
p1170
g15
tp1171
a(S'what do i have on wednesday'
p1172
g15
tp1173
a(S'could you create event'
p1174
g15
tp1175
a(S'do i have anything on friday'
p1176
g15
tp1177
a(S'please check new gmail'
p1178
g15
tp1179
a(S'what is new in inbox'
p1180
g15
tp1181
a(S'any events on'
p1182
g15
tp1183
a(S'please will you open gmail'
p1184
g15
tp1185
a(S'turn my computer off'
p1186
g15
tp1187
a(S"don't i have any events on thursday"
p1188
g15
tp1189
a(S'please could you check inbox'
p1190
g15
tp1191
a(S"don't read time"
p1192
g15
tp1193
a(S'could you add event please'
p1194
g15
tp1195
a(S'please will you check new gmail'
p1196
g15
tp1197
a(S'please what is in mail'
p1198
g15
tp1199
a(S"don't i have anything to do on this day"
p1200
g15
tp1201
a(S'can you please close the current window'
p1202
g15
tp1203
a(S"don't read the clock"
p1204
g15
tp1205
a(S'tell me headlines'
p1206
g15
tp1207
a(S"what's in inbox"
p1208
g15
tp1209
a(S'make the volume zero'
p1210
g15
tp1211
a(S'would you check new gmail please'
p1212
g15
tp1213
a(S'could you open gmail please'
p1214
g15
tp1215
a(S'check my calendar on sunday'
p1216
g15
tp1217
a(S'forecast'
p1218
g15
tp1219
a(S'check events on'
p1220
g15
tp1221
a(S"don't check what time it is please"
p1222
g15
tp1223
a(S'open dot net'
p1224
g15
tp1225
a(S"don't i have anything to do on saturday"
p1226
g15
tp1227
a(S'could you make event please'
p1228
g15
tp1229
a(S'will you open inbox'
p1230
g15
tp1231
a(S'can you close the active window'
p1232
g15
tp1233
a(S'do not get clock please'
p1234
g15
tp1235
a(S'do not check the clock right now'
p1236
g15
tp1237
a(S"what's the weather this week"
p1238
g15
tp1239
a(S'can you make a new event please'
p1240
g15
tp1241
a(S'is it snowing this week'
p1242
g15
tp1243
a(S'check my calendar for sunday'
p1244
g15
tp1245
a(S"don't read the time"
p1246
g15
tp1247
a(S'check events on tuesday'
p1248
g15
tp1249
a(S"what's the news feed"
p1250
g15
tp1251
a(S'what are the headlines'
p1252
g15
tp1253
a(S'please retrieve what time it is'
p1254
g82
tp1255
a(S'the tale pretends'
p1256
g15
tp1257
a(S"please what's in my mail"
p1258
g15
tp1259
a(S'could you open my mail'
p1260
g15
tp1261
a(S'please can you check gmail'
p1262
g15
tp1263
a(S'can you please shut off my computer'
p1264
g15
tp1265
a(S"what time isn't it right now"
p1266
g15
tp1267
a(S'google search for'
p1268
g15
tp1269
a(S'get news'
p1270
g15
tp1271
a(S'can you please make an event'
p1272
g15
tp1273
a(S'news now please'
p1274
g15
tp1275
a(S"get if it's cloudy this week"
p1276
g15
tp1277
a(S'check events for today'
p1278
g15
tp1279
a(S"what's in new gmail please"
p1280
g15
tp1281
a(S'can you please turn off my computer'
p1282
g15
tp1283
a(S"what's in new gmail"
p1284
g15
tp1285
a(S'do i have anything to do on monday'
p1286
g15
tp1287
a(S"don't i have to do anything on sunday"
p1288
g15
tp1289
a(S'what events are on today'
p1290
g15
tp1291
a(S'please create new event'
p1292
g15
tp1293
a(S'anything in mail'
p1294
g15
tp1295
a(S'please would you check new gmail'
p1296
g15
tp1297
a(S'find news feed'
p1298
g15
tp1299
a(S'is there anything i have to do on'
p1300
g15
tp1301
a(S'can you please turn the sound down'
p1302
g15
tp1303
a(S'check events for'
p1304
g15
tp1305
a(S'please create an event'
p1306
g15
tp1307
a(S"aren't there any events on friday"
p1308
g15
tp1309
a(S'am i free on friday'
p1310
g15
tp1311
a(S'will you get the current headlines'
p1312
g15
tp1313
a(S'check calendar on this week'
p1314
g15
tp1315
a(S'is there anything to do on thursday'
p1316
g15
tp1317
a(S'any events on sunday'
p1318
g15
tp1319
a(S'spotify play the song'
p1320
g15
tp1321
a(S'check what time it is'
p1322
g82
tp1323
a(S'check new gmail'
p1324
g15
tp1325
a(S'please will you check my mail'
p1326
g15
tp1327
a(S'read your watch'
p1328
g82
tp1329
a(S'please will you check gmail'
p1330
g15
tp1331
a(S'do i have any events on'
p1332
g15
tp1333
a(S'what events do i have on saturday'
p1334
g15
tp1335
a(S'could you please add a new event'
p1336
g15
tp1337
a(S"today's weather"
p1338
g15
tp1339
a(S'spotify skip ahead'
p1340
g15
tp1341
a(S"don't i have to do anything tomorrow"
p1342
g15
tp1343
a(S'will you open my mail please'
p1344
g15
tp1345
a(S'find news'
p1346
g15
tp1347
a(S"don't i have to do anything"
p1348
g15
tp1349
a(S"what's new in mail"
p1350
g15
tp1351
a(S'can you open this program'
p1352
g15
tp1353
a(S'what is in my gmail'
p1354
g15
tp1355
a(S"aren't there any events on tuesday"
p1356
g15
tp1357
a(S"how's the weather this week"
p1358
g15
tp1359
a(S'do i have to do anything to do'
p1360
g15
tp1361
a(S'get temperature'
p1362
g15
tp1363
a(S'spotify play the last song'
p1364
g15
tp1365
a(S'do not retrieve the current time'
p1366
g15
tp1367
a(S"if it's foggy today"
p1368
g15
tp1369
a(S'please retrieve the time'
p1370
g82
tp1371
a(S"don't i have to do anything on friday"
p1372
g15
tp1373
a(S'check my calendar on saturday'
p1374
g15
tp1375
a(S"what's today's temperature"
p1376
g15
tp1377
a(S"don't read me the clock"
p1378
g15
tp1379
a(S'do i have any events on wednesday'
p1380
g15
tp1381
a(S'please turn off my computer'
p1382
g15
tp1383
a(S'bye alice'
p1384
g15
tp1385
a(S"if it's raining this week"
p1386
g15
tp1387
a(S'will you get the current events'
p1388
g15
tp1389
a(S'would you open my mail please'
p1390
g15
tp1391
a(S'do not read the clock please'
p1392
g15
tp1393
a(S'get live newsfeed'
p1394
g15
tp1395
a(S'will you open a browser'
p1396
g15
tp1397
a(S"what's in mail please"
p1398
g15
tp1399
a(S'go to dot net'
p1400
g15
tp1401
a(S'search google please for'
p1402
g15
tp1403
a(S'check events for thursday'
p1404
g15
tp1405
a(S'read the clock'
p1406
g82
tp1407
a(S'do i have to do anything next'
p1408
g15
tp1409
a(S'is there anything to do on tuesday'
p1410
g15
tp1411
a(S'please can you check my inbox'
p1412
g15
tp1413
a(S'am i free in a month'
p1414
g15
tp1415
a(S"please what's new in my mail"
p1416
g15
tp1417
a(S'turn the volume to zero'
p1418
g15
tp1419
a(S'please will you check my gmail'
p1420
g15
tp1421
a(S'spotify play previous song please'
p1422
g15
tp1423
a(S'check calendar for this week'
p1424
g15
tp1425
a(S'will it hail this week'
p1426
g15
tp1427
a(S'can you schedule event please'
p1428
g15
tp1429
a(S'open a default browser'
p1430
g15
tp1431
a(S"today's temperature"
p1432
g15
tp1433
a(S"what's if it's snowing today"
p1434
g15
tp1435
a(S'can you schedule a new event please'
p1436
g15
tp1437
a(S'open default browser'
p1438
g15
tp1439
a(S'check google calendar for'
p1440
g15
tp1441
a(S'could you check my gmail please'
p1442
g15
tp1443
a(S'get headlines'
p1444
g15
tp1445
a(S'check calendar on next'
p1446
g15
tp1447
a(S'mute please'
p1448
g15
tp1449
a(S'what is the news'
p1450
g15
tp1451
a(S'please search google'
p1452
g15
tp1453
a(S'open mail please'
p1454
g15
tp1455
a(S'google for'
p1456
g15
tp1457
a(S'current forecast'
p1458
g15
tp1459
a(S'check calendar on tomorrow'
p1460
g15
tp1461
a(S'spotify skip'
p1462
g15
tp1463
a(S'when is it please'
p1464
g82
tp1465
a(S'unpause the song'
p1466
g15
tp1467
a(S'what is live newsfeed'
p1468
g15
tp1469
a(S"don't i have anything to do"
p1470
g15
tp1471
a(S'open my inbox'
p1472
g15
tp1473
a(S'google'
p1474
g15
tp1475
a(S'what events are on tuesday'
p1476
g15
tp1477
a(S"please what's new in new gmail"
p1478
g15
tp1479
a(S'could you create new event'
p1480
g15
tp1481
a(S"what's new in my inbox"
p1482
g15
tp1483
a(S'turn off my computer'
p1484
g15
tp1485
a(S"aren't there any events"
p1486
g15
tp1487
a(S'turn up'
p1488
g15
tp1489
a(S'volume up'
p1490
g15
tp1491
a(S'please shut down the computer'
p1492
g15
tp1493
a(S'do i have anything on wednesday'
p1494
g15
tp1495
a(S'check google calendar on sunday'
p1496
g15
tp1497
a(S'current events'
p1498
g15
tp1499
a(S'please would you open my inbox'
p1500
g15
tp1501
a(S'headlines today'
p1502
g15
tp1503
a(S'please can you turn the volume higher'
p1504
g15
tp1505
a(S'could you make new event'
p1506
g15
tp1507
a(S"don't i have any events on"
p1508
g15
tp1509
a(S"don't get me the clock"
p1510
g15
tp1511
a(S'would you check mail'
p1512
g15
tp1513
a(S'please close the current window'
p1514
g15
tp1515
a(S"don't i have to do anything on saturday"
p1516
g15
tp1517
a(S'please get time'
p1518
g82
tp1519
a(S'check calendar on thursday'
p1520
g15
tp1521
a(S"this week's weather"
p1522
g15
tp1523
a(S'what is new in my gmail please'
p1524
g15
tp1525
a(S'could you open my mail please'
p1526
g15
tp1527
a(S"get if it's cloudy today"
p1528
g15
tp1529
a(S'check google calendar on saturday'
p1530
g15
tp1531
a(S'check google calendar on wednesday'
p1532
g15
tp1533
a(S'please will you check inbox'
p1534
g15
tp1535
a(S'please what is new in inbox'
p1536
g15
tp1537
a(S'spotify play last song please'
p1538
g15
tp1539
a(S'kill the current window'
p1540
g15
tp1541
a(S'retrieve the current time please'
p1542
g82
tp1543
a(S"don't i have to do anything on next"
p1544
g15
tp1545
a(S"don't i have anything on saturday"
p1546
g15
tp1547
a(S'can you please turn the beat down'
p1548
g15
tp1549
a(S"get this week's temperature"
p1550
g15
tp1551
a(S"what's in my mail"
p1552
g15
tp1553
a(S"don't i have any events on tuesday"
p1554
g15
tp1555
a(S'is there anything to do on today'
p1556
g15
tp1557
a(S'get time'
p1558
g82
tp1559
a(S"if it's raining today"
p1560
g15
tp1561
a(S'schedule new event'
p1562
g15
tp1563
a(S'do not check the clock right now please'
p1564
g15
tp1565
a(S'lower the sound'
p1566
g15
tp1567
a(S'do not read the time'
p1568
g15
tp1569
a(S'can you create new event'
p1570
g15
tp1571
a(S"what's if it's rainy today"
p1572
g15
tp1573
a(S'lock my computer'
p1574
g15
tp1575
a(S'what do i have on monday'
p1576
g15
tp1577
a(S'google for please'
p1578
g15
tp1579
a(S"what're the live news feed"
p1580
g15
tp1581
a(S'live newsfeed today'
p1582
g15
tp1583
a(S'check google calendar for this day'
p1584
g15
tp1585
a(S'play the song before'
p1586
g15
tp1587
a(S'good night alice'
p1588
g15
tp1589
a(S'can you please add a new event'
p1590
g15
tp1591
a(S'can you unmute'
p1592
g15
tp1593
a(S"how's the weather"
p1594
g15
tp1595
a(S'can you please shut up'
p1596
g15
tp1597
a(S'check google calendar for this month'
p1598
g15
tp1599
a(S'can you check new gmail please'
p1600
g15
tp1601
a(S'could you check gmail please'
p1602
g15
tp1603
a(S"what's new in new mail please"
p1604
g15
tp1605
a(S'get the current events'
p1606
g15
tp1607
a(S'please schedule new event'
p1608
g15
tp1609
a(S"don't i have to do anything on"
p1610
g15
tp1611
a(S'please shutdown the computer'
p1612
g15
tp1613
a(S'start a browser'
p1614
g15
tp1615
a(S'is there anything i have to do on sunday'
p1616
g15
tp1617
a(S'anything new in my inbox'
p1618
g15
tp1619
a(S"please what's in gmail"
p1620
g15
tp1621
a(S'can you create event please'
p1622
g15
tp1623
a(S'can you schedule new event please'
p1624
g15
tp1625
a(S'get current time'
p1626
g82
tp1627
a(S'can you make event'
p1628
g15
tp1629
a(S"aren't there any events on monday"
p1630
g15
tp1631
a(S'check google calendar on today'
p1632
g15
tp1633
a(S'check google calendar for sunday'
p1634
g15
tp1635
a(S"what's new in my mail"
p1636
g15
tp1637
a(S'check calendar on saturday'
p1638
g15
tp1639
a(S'sound higher please'
p1640
g15
tp1641
a(S'search google'
p1642
g15
tp1643
a(S'can you lock computer please'
p1644
g15
tp1645
a(S"what's new in my inbox please"
p1646
g15
tp1647
a(S'do i have anything on saturday'
p1648
g15
tp1649
a(S'open dot edu'
p1650
g15
tp1651
a(S'make the sound higher'
p1652
g15
tp1653
a(S'do i have anything to do on sunday'
p1654
g15
tp1655
a(S'please make a new event'
p1656
g15
tp1657
a(S'check my mail'
p1658
g15
tp1659
a(S'do i have anything to do on thursday'
p1660
g15
tp1661
a(S'retrieve the time please'
p1662
g82
tp1663
a(S"don't i have to do anything on next"
p1664
g15
tp1665
a(S"what's today's forecast"
p1666
g15
tp1667
a(S'please volume higher'
p1668
g15
tp1669
a(S'set the volume zero'
p1670
g15
tp1671
a(S'please spotify last'
p1672
g15
tp1673
a(S'am i free in a week'
p1674
g15
tp1675
a(S'add new event please'
p1676
g15
tp1677
a(S'would you check gmail please'
p1678
g15
tp1679
a(S'can you schedule new event'
p1680
g15
tp1681
a(S'what is new in inbox please'
p1682
g15
tp1683
a(S'lock computer'
p1684
g15
tp1685
a(S'please start browsing'
p1686
g15
tp1687
a(S'what is in my gmail please'
p1688
g15
tp1689
a(S'check my calendar for monday'
p1690
g15
tp1691
a(S'turn up the beat'
p1692
g15
tp1693
a(S'what are the news feed'
p1694
g15
tp1695
a(S'please close the window'
p1696
g15
tp1697
a(S"today's live newsfeed"
p1698
g15
tp1699
a(S'retrieve the time'
p1700
g82
tp1701
a(S'could you please make event'
p1702
g15
tp1703
a(S'shut down my computer'
p1704
g15
tp1705
a(S'open my gmail please'
p1706
g15
tp1707
a(S"today's news"
p1708
g15
tp1709
a(S'spotify go back to the last song'
p1710
g15
tp1711
a(S'check calendar on tuesday'
p1712
g15
tp1713
a(S'unpause'
p1714
g15
tp1715
a(S"aren't there any events on next"
p1716
g15
tp1717
a(S"what's the newsfeed"
p1718
g15
tp1719
a(S'go to'
p1720
g15
tp1721
a(S'what is current news'
p1722
g15
tp1723
a(S'please can you turn up the volume'
p1724
g15
tp1725
a(S'okay alice'
p1726
g15
tp1727
a(S'please will you open inbox'
p1728
g15
tp1729
a(S'could you schedule an event'
p1730
g15
tp1731
a(S"don't i have to do anything on sunday"
p1732
g15
tp1733
a(S'do i have any events on tomorrow'
p1734
g15
tp1735
a(S'turn off'
p1736
g15
tp1737
a(S'could you check my gmail'
p1738
g15
tp1739
a(S'am i free for'
p1740
g15
tp1741
a(S'will you check my inbox please'
p1742
g15
tp1743
a(S'what is on my calendar for next'
p1744
g15
tp1745
a(S'is there anything to do on monday'
p1746
g15
tp1747
a(S'could you open my gmail'
p1748
g15
tp1749
a(S'check my calendar for tuesday'
p1750
g15
tp1751
a(S'search please'
p1752
g15
tp1753
a(S"what's if it's foggy today"
p1754
g15
tp1755
a(S'hey alex'
p1756
g15
tp1757
a(S"please what's in mail"
p1758
g15
tp1759
a(S"if it's rainy today"
p1760
g15
tp1761
a(S'current news today'
p1762
g15
tp1763
a(S'could you create an event please'
p1764
g15
tp1765
a(S'get news feed'
p1766
g15
tp1767
a(S'can you please turn up the volume'
p1768
g15
tp1769
a(S'can you turn off'
p1770
g15
tp1771
a(S'what events are on monday'
p1772
g15
tp1773
a(S'please what is in my mail'
p1774
g15
tp1775
a(S'are there any events on friday'
p1776
g15
tp1777
a(S'any events on friday'
p1778
g15
tp1779
a(S"don't retrieve the current time please"
p1780
g15
tp1781
a(S"what's in gmail"
p1782
g15
tp1783
a(S"what's in my gmail"
p1784
g15
tp1785
a(S"don't i have anything"
p1786
g15
tp1787
a(S'turn up the sound'
p1788
g15
tp1789
a(S"don't i have anything to do in a week"
p1790
g15
tp1791
a(S'please do not get the time'
p1792
g15
tp1793
a(S'next spotify please'
p1794
g15
tp1795
a(S'check google calendar for wednesday'
p1796
g15
tp1797
a(S'google please'
p1798
g15
tp1799
a(S"what's the time"
p1800
g82
tp1801
a(S'can you please turn up the tune'
p1802
g15
tp1803
a(S"today's headlines"
p1804
g15
tp1805
a(S'can you turn up the beat'
p1806
g15
tp1807
a(S'send me to the lock screen please'
p1808
g15
tp1809
a(S'please check my mail'
p1810
g15
tp1811
a(S'next song'
p1812
g15
tp1813
a(S'start'
p1814
g15
tp1815
a(S'what are the latest events '
p1816
g15
tp1817
a(S'what is new in new mail'
p1818
g15
tp1819
a(S'spotify stop'
p1820
g15
tp1821
a(S"don't i have any events on next"
p1822
g15
tp1823
a(S'will you check inbox'
p1824
g15
tp1825
a(S'any events on tomorrow'
p1826
g15
tp1827
a(S'do i have anything to do tomorrow'
p1828
g15
tp1829
a(S'what is in mail'
p1830
g15
tp1831
a(S'can you open a browser'
p1832
g15
tp1833
a(S'check google calendar for this week'
p1834
g15
tp1835
a(S'can you please mute'
p1836
g15
tp1837
a(S"don't i have anything to do on sunday"
p1838
g15
tp1839
a(S'lower the tunes please'
p1840
g15
tp1841
a(S'can you add event please'
p1842
g15
tp1843
a(S"if it's cold this week"
p1844
g15
tp1845
a(S'spotify previous song please'
p1846
g15
tp1847
a(S'be quiet'
p1848
g15
tp1849
a(S'please check the clock right now'
p1850
g82
tp1851
a(S'check google calendar on next'
p1852
g15
tp1853
a(S'please do not check the clock right now'
p1854
g15
tp1855
a(S'anything new in my gmail'
p1856
g15
tp1857
a(S'turn off my computer please'
p1858
g15
tp1859
a(S'tell me live news feed'
p1860
g15
tp1861
a(S'can you shut up'
p1862
g15
tp1863
a(S'close the current window'
p1864
g15
tp1865
a(S'please get the clock'
p1866
g82
tp1867
a(S'is there anything i have to do on saturday'
p1868
g15
tp1869
a(S'please do not get clock'
p1870
g15
tp1871
a(S"please what's in new mail"
p1872
g15
tp1873
a(S'start song'
p1874
g15
tp1875
a(S'continue the song'
p1876
g15
tp1877
a(S'open browser please'
p1878
g15
tp1879
a(S'check calendar on today'
p1880
g15
tp1881
a(S'can you check new mail please'
p1882
g15
tp1883
a(S'read time please'
p1884
g82
tp1885
a(S'get live news feed'
p1886
g15
tp1887
a(S'schedule an event'
p1888
g15
tp1889
a(S'get current temperature'
p1890
g15
tp1891
a(S'please spotify go'
p1892
g15
tp1893
a(S'what do i have to do on thursday'
p1894
g15
tp1895
a(S'do not get the clock please'
p1896
g15
tp1897
a(S'am i free for this day'
p1898
g15
tp1899
a(S'turn off the beats'
p1900
g15
tp1901
a(S'get the current time'
p1902
g82
tp1903
a(S'search'
p1904
g15
tp1905
a(S'what time is it'
p1906
g82
tp1907
a(S'sweet dreams alice'
p1908
g15
tp1909
a(S'do i have anything on'
p1910
g15
tp1911
a(S'can you create an event'
p1912
g15
tp1913
a(S'can you add event'
p1914
g15
tp1915
a(S'are there any events on saturday'
p1916
g15
tp1917
a(S"don't i have any events on monday"
p1918
g15
tp1919
a(S"get if it's foggy this week"
p1920
g15
tp1921
a(S'start a default browser'
p1922
g15
tp1923
a(S'please would you check my mail'
p1924
g15
tp1925
a(S'check calendar'
p1926
g15
tp1927
a(S'please be quiet'
p1928
g15
tp1929
a(S"please what's new in my inbox"
p1930
g15
tp1931
a(S'find the current events'
p1932
g15
tp1933
a(S'find current news'
p1934
g15
tp1935
a(S'is there anything i have to do in a week'
p1936
g15
tp1937
a(S'do not read your watch'
p1938
g15
tp1939
a(S'what are the newsfeed'
p1940
g15
tp1941
a(S'start the song'
p1942
g15
tp1943
a(S'current news'
p1944
g15
tp1945
a(S'make a new event please'
p1946
g15
tp1947
a(S"aren't there any events on sunday"
p1948
g15
tp1949
a(S"don't get time"
p1950
g15
tp1951
a(S'anything in my inbox'
p1952
g15
tp1953
a(S'would you open my gmail please'
p1954
g15
tp1955
a(S"please what's new in gmail"
p1956
g15
tp1957
a(S'please search google for'
p1958
g15
tp1959
a(S'create a new event please'
p1960
g15
tp1961
a(S'do not get the time please'
p1962
g15
tp1963
a(S"don't get the current time"
p1964
g15
tp1965
a(S'are there any events'
p1966
g15
tp1967
a(S'can you turn off the computer'
p1968
g15
tp1969
a(S'spotify last please'
p1970
g15
tp1971
a(S'stop the tunez'
p1972
g15
tp1973
a(S'play'
p1974
g15
tp1975
a(S'current time'
p1976
g82
tp1977
a(S'please what is in my gmail'
p1978
g15
tp1979
a(S'do not read time please'
p1980
g15
tp1981
a(S"don't check the current time"
p1982
g15
tp1983
a(S'make the sound softer'
p1984
g15
tp1985
a(S'can you lock computer'
p1986
g15
tp1987
a(S'please turn it up'
p1988
g15
tp1989
a(S'kill current window'
p1990
g15
tp1991
a(S"what's the clock not"
p1992
g15
tp1993
a(S'do not time please'
p1994
g15
tp1995
a(S'please create a new event'
p1996
g15
tp1997
a(S"please what's in new gmail"
p1998
g15
tp1999
a(S'can you please open a browser'
p2000
g15
tp2001
a(S'create new event'
p2002
g15
tp2003
a(S'please could you open my mail'
p2004
g15
tp2005
a(S'am i free for friday'
p2006
g15
tp2007
a(S'turn yourself off'
p2008
g15
tp2009
a(S'please pause'
p2010
g15
tp2011
a(S'do i have anything to do'
p2012
g15
tp2013
a(S'do i have anything to do on friday'
p2014
g15
tp2015
a(S"please don't read me the clock"
p2016
g15
tp2017
a(S"don't i have to do anything in a week"
p2018
g15
tp2019
a(S'turn up the volume'
p2020
g15
tp2021
a(S'louder please'
p2022
g15
tp2023
a(S'kill the program'
p2024
g15
tp2025
a(S'could you make event'
p2026
g15
tp2027
a(S'todays headlines'
p2028
g15
tp2029
a(S'any events in a month'
p2030
g15
tp2031
a(S'open dot gov'
p2032
g15
tp2033
a(S'is it cloudy today'
p2034
g15
tp2035
a(S"don't check what time it is"
p2036
g15
tp2037
a(S"what's not the time"
p2038
g15
tp2039
a(S'anything new in my mail'
p2040
g15
tp2041
a(S'can you shut down'
p2042
g15
tp2043
a(S'check my calendar on tuesday'
p2044
g15
tp2045
a(S'get live news'
p2046
g15
tp2047
a(S"get today's weather"
p2048
g15
tp2049
a(S'can you kill this window'
p2050
g15
tp2051
a(S'please can you check new mail'
p2052
g15
tp2053
a(S'check events for monday'
p2054
g15
tp2055
a(S'do i have to do anything on sunday'
p2056
g15
tp2057
a(S'please check your watch'
p2058
g82
tp2059
a(S'are there any events on tomorrow'
p2060
g15
tp2061
a(S'what events do i have on wednesday'
p2062
g15
tp2063
a(S'please could you check gmail'
p2064
g15
tp2065
a(S"get if it's raining today"
p2066
g15
tp2067
a(S'what is new in gmail please'
p2068
g15
tp2069
a(S'do i have anything to do on this day'
p2070
g15
tp2071
a(S'will you open mail please'
p2072
g15
tp2073
a(S'any events on thursday'
p2074
g15
tp2075
a(S"what's the weather today"
p2076
g15
tp2077
a(S'is it raining this week'
p2078
g15
tp2079
a(S"don't i have to do anything on thursday"
p2080
g15
tp2081
a(S'any gmail'
p2082
g15
tp2083
a(S'could you create a new event'
p2084
g15
tp2085
a(S"if it's freezing this week"
p2086
g15
tp2087
a(S'alice'
p2088
g15
tp2089
a(S'go back'
p2090
g15
tp2091
a(S'would you check my inbox please'
p2092
g15
tp2093
a(S'can you schedule event'
p2094
g15
tp2095
a(S'can you create event'
p2096
g15
tp2097
a(S'check google calendar on tuesday'
p2098
g15
tp2099
a(S'please can you check my gmail'
p2100
g15
tp2101
a(S'could you check new mail please'
p2102
g15
tp2103
a(S'open dot com'
p2104
g15
tp2105
a(S'please do not read the clock'
p2106
g15
tp2107
a(S'alex'
p2108
g15
tp2109
a(S'would you open gmail'
p2110
g15
tp2111
a(S'check my calendar on this month'
p2112
g15
tp2113
a(S'can you shutdown the computer'
p2114
g15
tp2115
a(S'check google calendar on'
p2116
g15
tp2117
a(S'can you make new event'
p2118
g15
tp2119
a(S'please pause song'
p2120
g15
tp2121
a(S"don't i have to do anything on saturday"
p2122
g15
tp2123
a(S'can you put me on the lock screen'
p2124
g15
tp2125
a(S'are there any events on wednesday'
p2126
g15
tp2127
a(S"what time isn't it"
p2128
g15
tp2129
a(S'can you please shutdown'
p2130
g15
tp2131
a(S"don't i have anything to do on next"
p2132
g15
tp2133
a(S"don't i have anything on"
p2134
g15
tp2135
a(S'do i have to do anything in a week'
p2136
g15
tp2137
a(S'check your watch'
p2138
g82
tp2139
a(S'can you check new gmail'
p2140
g15
tp2141
a(S'check my calendar on monday'
p2142
g15
tp2143
a(S'check events'
p2144
g15
tp2145
a(S'do i have anything to do in a week'
p2146
g15
tp2147
a(S'could you create new event please'
p2148
g15
tp2149
a(S'shut the fuck up'
p2150
g15
tp2151
a(S'get the news'
p2152
g15
tp2153
a(S'what do i have to do on monday'
p2154
g15
tp2155
a(S'check the clock'
p2156
g82
tp2157
a(S'please will you open my gmail'
p2158
g15
tp2159
a(S'is it hot this week'
p2160
g15
tp2161
a(S'can you make event please'
p2162
g15
tp2163
a(S'news today'
p2164
g15
tp2165
a(S'close current program'
p2166
g15
tp2167
a(S'is it cold today'
p2168
g15
tp2169
a(S'could you schedule event'
p2170
g15
tp2171
a(S'could you open mail please'
p2172
g15
tp2173
a(S'please what is new in my inbox'
p2174
g15
tp2175
a(S"don't get the clock"
p2176
g15
tp2177
a(S'check my calendar for this day'
p2178
g15
tp2179
a(S'would you check new mail please'
p2180
g15
tp2181
a(S'anything in inbox'
p2182
g15
tp2183
a(S'can you please make new event'
p2184
g15
tp2185
a(S'hey alice'
p2186
g15
tp2187
a(S'gather information on'
p2188
g15
tp2189
a(S'can you turn the sound down'
p2190
g15
tp2191
a(S"if it's snowing this week"
p2192
g15
tp2193
a(S'spotify previous please'
p2194
g15
tp2195
a(S'give me intel on current events'
p2196
g15
tp2197
a(S'will you open my inbox'
p2198
g15
tp2199
a(S'what is on my calendar for this day'
p2200
g15
tp2201
a(S'do not read the time please'
p2202
g15
tp2203
a(S"today's newsfeed"
p2204
g15
tp2205
a(S'could you please create new event'
p2206
g15
tp2207
a(S'spotify go ahead'
p2208
g15
tp2209
a(S"this week's forecast"
p2210
g15
tp2211
a(S"get if it's snowing this week"
p2212
g15
tp2213
a(S'anything in gmail'
p2214
g15
tp2215
a(S'check events for sunday'
p2216
g15
tp2217
a(S'can you please kill active window'
p2218
g15
tp2219
a(S'please shutdown'
p2220
g15
tp2221
a(S'what is new in my mail'
p2222
g15
tp2223
a(S'schedule new event please'
p2224
g15
tp2225
a(S'add a new event please'
p2226
g15
tp2227
a(S'do not read the clock'
p2228
g15
tp2229
a(S'are there any events on thursday'
p2230
g15
tp2231
a(S'could you schedule an event please'
p2232
g15
tp2233
a(S'please play spotify'
p2234
g15
tp2235
a(S'turn the tune down'
p2236
g15
tp2237
a(S"don't i have any events on tomorrow"
p2238
g15
tp2239
a(S'play spotify please'
p2240
g15
tp2241
a(S'please search'
p2242
g15
tp2243
a(S'do not read time'
p2244
g15
tp2245
a(S'do not get the time'
p2246
g15
tp2247
a(S'will you check new gmail'
p2248
g15
tp2249
a(S'turn up the volume please'
p2250
g15
tp2251
a(S'please what is in my inbox'
p2252
g15
tp2253
a(S'check calendar for tuesday'
p2254
g15
tp2255
a(S'do not get current time'
p2256
g15
tp2257
a(S'live newsfeed'
p2258
g15
tp2259
a(S'find current events'
p2260
g15
tp2261
a(S'get time please'
p2262
g82
tp2263
a(S'am i free for a month'
p2264
g15
tp2265
a(S'please add event'
p2266
g15
tp2267
a(S'get me the news todays'
p2268
g15
tp2269
a(S'exit please'
p2270
g15
tp2271
a(S'could you make a new event please'
p2272
g15
tp2273
a(S'do i have anything in a month'
p2274
g15
tp2275
a(S'check events on wednesday'
p2276
g15
tp2277
a(S'can you kill the current window'
p2278
g15
tp2279
a(S'check events for this day'
p2280
g15
tp2281
a(S'will it snow today'
p2282
g15
tp2283
a(S'current weather'
p2284
g15
tp2285
a(S'am i free for sunday'
p2286
g15
tp2287
a(S'please lock the screen'
p2288
g15
tp2289
a(S'can you please make event'
p2290
g15
tp2291
a(S'do i have anything on this day'
p2292
g15
tp2293
a(S'check calendar for this day'
p2294
g15
tp2295
a(S"don't read the clock please"
p2296
g15
tp2297
a(S'could you add an event please'
p2298
g15
tp2299
a(S'will you check my gmail'
p2300
g15
tp2301
a(S'make event please'
p2302
g15
tp2303
a(S'what do i have on this day'
p2304
g15
tp2305
a(S'what is new in new gmail please'
p2306
g15
tp2307
a(S'could you check inbox'
p2308
g15
tp2309
a(S'would you open inbox'
p2310
g15
tp2311
a(S'unmute please'
p2312
g15
tp2313
a(S'check calendar for wednesday'
p2314
g15
tp2315
a(S'please spotify last song'
p2316
g15
tp2317
a(S'could you please schedule event'
p2318
g15
tp2319
a(S'can you please shutdown the computer'
p2320
g15
tp2321
a(S'get forecast'
p2322
g15
tp2323
a(S'can you please close the active window'
p2324
g15
tp2325
a(S"how's the forecast this week"
p2326
g15
tp2327
a(S'can you please create a new event'
p2328
g15
tp2329
a(S"don't retrieve what time it is"
p2330
g15
tp2331
a(S'are there any events in a week'
p2332
g15
tp2333
a(S'what events do i have on sunday'
p2334
g15
tp2335
a(S'do i have anything to do on saturday'
p2336
g15
tp2337
a(S'spotify shut up'
p2338
g15
tp2339
a(S'can you get the latest headlines'
p2340
g15
tp2341
a(S"don't i have to do anything on monday"
p2342
g15
tp2343
a(S'open inbox please'
p2344
g15
tp2345
a(S'spotify next'
p2346
g15
tp2347
a(S'what is in my mail'
p2348
g15
tp2349
a(S'please lock my computer'
p2350
g15
tp2351
a(S'am i free on tomorrow'
p2352
g15
tp2353
a(S'could you open gmail'
p2354
g15
tp2355
a(S'tell me the news'
p2356
g15
tp2357
a(S'could you check new gmail'
p2358
g15
tp2359
a(S'can you create new event please'
p2360
g15
tp2361
a(S"what's new in mail please"
p2362
g15
tp2363
a(S'do not get time'
p2364
g15
tp2365
a(S'check google calendar on this week'
p2366
g15
tp2367
a(S'check calendar for monday'
p2368
g15
tp2369
a(S'what is on my calendar for this month'
p2370
g15
tp2371
a(S'could you please create event'
p2372
g15
tp2373
a(S'pause the song please'
p2374
g15
tp2375
a(S'gather information on todays current events please'
p2376
g15
tp2377
a(S'please read the clock'
p2378
g82
tp2379
a(S'please close the active window'
p2380
g15
tp2381
a(S'open dot ee dee you'
p2382
g15
tp2383
a(S'could you create a new event please'
p2384
g15
tp2385
a(S'please retrieve the current time'
p2386
g82
tp2387
a(S'what is live news feed'
p2388
g15
tp2389
a(S'please can you make it louder'
p2390
g15
tp2391
a(S'what do i have in a month'
p2392
g15
tp2393
a(S'what do i have on next'
p2394
g15
tp2395
a(S'please open dot com'
p2396
g15
tp2397
a(S"please what's in my gmail"
p2398
g15
tp2399
a(S"don't read the time please"
p2400
g15
tp2401
a(S"don't check your watch"
p2402
g15
tp2403
a(S'could you open inbox'
p2404
g15
tp2405
a(S'please google search for'
p2406
g15
tp2407
a(S"don't i have to do anything today"
p2408
g15
tp2409
a(S'shutdown'
p2410
g15
tp2411
a(S'shutdown please'
p2412
g15
tp2413
a(S'shut down the computer please'
p2414
g15
tp2415
a(S'google search please'
p2416
g15
tp2417
a(S"what's if it's rainy this week"
p2418
g15
tp2419
a(S'can you shut down my computer'
p2420
g15
tp2421
a(S'turn off please'
p2422
g15
tp2423
a(S'live news today'
p2424
g15
tp2425
a(S'what do i have on today'
p2426
g15
tp2427
a(S"this week's temperature"
p2428
g15
tp2429
a(S'can you please turn up the sound'
p2430
g15
tp2431
a(S'add event'
p2432
g15
tp2433
a(S'create a new event'
p2434
g15
tp2435
a(S'could you create event please'
p2436
g15
tp2437
a(S'open inbox'
p2438
g15
tp2439
a(S'can you shutdown my computer'
p2440
g15
tp2441
a(S"aren't there any events on thursday"
p2442
g15
tp2443
a(S'check events for tomorrow'
p2444
g15
tp2445
a(S"don't i have anything in a week"
p2446
g15
tp2447
a(S'what is on my calendar for tomorrow'
p2448
g15
tp2449
a(S'please google'
p2450
g15
tp2451
a(S'check my inbox'
p2452
g15
tp2453
a(S'please shut off'
p2454
g15
tp2455
a(S'please read the time'
p2456
g82
tp2457
a(S'do not retrieve the time'
p2458
g15
tp2459
a(S"please what's in my inbox"
p2460
g15
tp2461
a(S'search google for please'
p2462
g15
tp2463
a(S'please schedule an event'
p2464
g15
tp2465
a(S'what events do i have in a month'
p2466
g15
tp2467
a(S'check events for next'
p2468
g15
tp2469
a(S'can you check my mail'
p2470
g15
tp2471
a(S'please open inbox'
p2472
g15
tp2473
a(S'will you get the headlines'
p2474
g15
tp2475
a(S'please what is new in new gmail'
p2476
g15
tp2477
a(S'brief me'
p2478
g15
tp2479
a(S'news'
p2480
g15
tp2481
a(S"don't i have anything to do on thursday"
p2482
g15
tp2483
a(S'can you check inbox'
p2484
g15
tp2485
a(S'am i free'
p2486
g15
tp2487
a(S'please what is new in gmail'
p2488
g15
tp2489
a(S"today's news feed"
p2490
g15
tp2491
a(S'open browser'
p2492
g15
tp2493
a(S'anything new in gmail'
p2494
g15
tp2495
a(S'what are the current events'
p2496
g15
tp2497
a(S'resume the song'
p2498
g15
tp2499
a(S'add a new event'
p2500
g15
tp2501
a(S'please get current time'
p2502
g82
tp2503
a(S'please would you check mail'
p2504
g15
tp2505
a(S"how's the forecast today"
p2506
g15
tp2507
a(S"if it's snowing today"
p2508
g15
tp2509
a(S'can you please shut down'
p2510
g15
tp2511
a(S"please don't get the time"
p2512
g15
tp2513
a(S'is there anything i have to do in a month'
p2514
g15
tp2515
a(S'anything in my mail'
p2516
g15
tp2517
a(S"don't read your watch"
p2518
g15
tp2519
a(S'spotify start the song please'
p2520
g15
tp2521
a(S'please turn it down'
p2522
g15
tp2523
a(S'will you open my gmail'
p2524
g15
tp2525
a(S'get the clock please'
p2526
g82
tp2527
a(S"don't i have anything in a month"
p2528
g15
tp2529
a(S"don't i have to do anything on monday"
p2530
g15
tp2531
a(S'check events on month'
p2532
g15
tp2533
a(S'would you open my mail'
p2534
g15
tp2535
a(S'check events for this day'
p2536
g15
tp2537
a(S'could you check my inbox please'
p2538
g15
tp2539
a(S"get if it's rainy today"
p2540
g15
tp2541
a(S'check google calendar for friday'
p2542
g15
tp2543
a(S'can you turn up the volume'
p2544
g15
tp2545
a(S"today's temperature"
p2546
g15
tp2547
a(S'find newsfeed'
p2548
g15
tp2549
a(S'do not get clock'
p2550
g15
tp2551
a(S'can you turn up the tune'
p2552
g15
tp2553
a(S'a backbone dictates above my grief'
p2554
g15
tp2555
a(S'check google calendar for monday'
p2556
g15
tp2557
a(S"what's the forecast"
p2558
g15
tp2559
a(S'what events are on friday'
p2560
g15
tp2561
a(S"don't i have any events on today"
p2562
g15
tp2563
a(S'please open browser'
p2564
g15
tp2565
a(S'am i free on'
p2566
g15
tp2567
a(S'would you check inbox'
p2568
g15
tp2569
a(S'alice next please'
p2570
g15
tp2571
a(S"what's weather"
p2572
g15
tp2573
a(S'what is in my inbox'
p2574
g15
tp2575
a(S'kill the active window'
p2576
g15
tp2577
a(S'song stop'
p2578
g15
tp2579
a(S'stop the song'
p2580
g15
tp2581
a(S'search for'
p2582
g15
tp2583
a(S'check google calendar for tuesday'
p2584
g15
tp2585
a(S"if it's cold today"
p2586
g15
tp2587
a(S'would you check new mail'
p2588
g15
tp2589
a(S'search please for'
p2590
g15
tp2591
a(S'check google calendar on friday'
p2592
g15
tp2593
a(S"get if it's cold this week"
p2594
g15
tp2595
a(S"don't i have anything on monday"
p2596
g15
tp2597
a(S'do i have any events on tuesday'
p2598
g15
tp2599
a(S'can you please shutdown my computer'
p2600
g15
tp2601
a(S'do i have anything on next'
p2602
g15
tp2603
a(S'check your watch please'
p2604
g82
tp2605
a(S'please open gmail'
p2606
g15
tp2607
a(S'will you check my mail please'
p2608
g15
tp2609
a(S'please turn off the computer'
p2610
g15
tp2611
a(S'a decent problem gossips beside the shoulder'
p2612
g15
tp2613
a(S'would you check my mail'
p2614
g15
tp2615
a(S'make the volume lower'
p2616
g15
tp2617
a(S"please don't check the clock right now"
p2618
g15
tp2619
a(S'can you check new mail'
p2620
g15
tp2621
a(S'can you please kill the active window'
p2622
g15
tp2623
a(S'live news feed today'
p2624
g15
tp2625
a(S'shut off please'
p2626
g15
tp2627
a(S'can you turn my computer off'
p2628
g15
tp2629
a(S'can you shut off'
p2630
g15
tp2631
a(S'see ya'
p2632
g15
tp2633
a(S'am i free for saturday'
p2634
g15
tp2635
a(S"how's the weather today"
p2636
g15
tp2637
a(S'please stop song'
p2638
g15
tp2639
a(S'do i have any events on sunday'
p2640
g15
tp2641
a(S'check new mail'
p2642
g15
tp2643
a(S'please do not get the clock'
p2644
g15
tp2645
a(S'turn down the sound'
p2646
g15
tp2647
a(S'predict the outcome on a new document'
p2648
g15
tp2649
a(S'please start a default browser'
p2650
g15
tp2651
a(S'get current weather'
p2652
g15
tp2653
a(S"don't i have anything to do on tuesday"
p2654
g15
tp2655
a(S'what time is it now'
p2656
g82
tp2657
a(S'check events for saturday'
p2658
g15
tp2659
a(S'what is newsfeed'
p2660
g15
tp2661
a(S'is there anything i have to do on tuesday'
p2662
g15
tp2663
a(S'open my mail please'
p2664
g15
tp2665
a(S'could you check mail'
p2666
g15
tp2667
a(S'check events on this day'
p2668
g15
tp2669
a(S"what're the news"
p2670
g15
tp2671
a(S"please don't get time"
p2672
g15
tp2673
a(S'please can you check my mail'
p2674
g15
tp2675
a(S'do not check the current time'
p2676
g15
tp2677
a(S'please do not check what time it is'
p2678
g15
tp2679
a(S'can you check inbox please'
p2680
g15
tp2681
a(S'shutdown the computer please'
p2682
g15
tp2683
a(S'check google calendar for today'
p2684
g15
tp2685
a(S'exit'
p2686
g15
tp2687
a(S'can you please add event'
p2688
g15
tp2689
a(S'can you turn yourself off please'
p2690
g15
tp2691
a(S'make the volume 0'
p2692
g15
tp2693
a(S'find headlines'
p2694
g15
tp2695
a(S'how is the weather'
p2696
g15
tp2697
a(S'could you open my gmail please'
p2698
g15
tp2699
a(S'please when is it'
p2700
g82
tp2701
a(S'can you please shut down the computer'
p2702
g15
tp2703
a(S'what are the live news feed'
p2704
g15
tp2705
a(S'start browser'
p2706
g15
tp2707
a(S"don't i have anything on wednesday"
p2708
g15
tp2709
a(S'would you check inbox please'
p2710
g15
tp2711
a(S'intelligence report'
p2712
g15
tp2713
a(S'can you please close current window'
p2714
g15
tp2715
a(S'see you'
p2716
g15
tp2717
a(S'a releasing moderate stalls beside the material cell'
p2718
g15
tp2719
a(S'what events are'
p2720
g15
tp2721
a(S'could you make new event please'
p2722
g15
tp2723
a(S'check new mail please'
p2724
g15
tp2725
a(S'what is new in gmail'
p2726
g15
tp2727
a(S'would you open gmail please'
p2728
g15
tp2729
a(S'would you check my mail please'
p2730
g15
tp2731
a(S"don't i have anything on sunday"
p2732
g15
tp2733
a(S'please pause the song'
p2734
g15
tp2735
a(S'do not get current time please'
p2736
g15
tp2737
a(S'pause song please'
p2738
g15
tp2739
a(S'please would you check my inbox'
p2740
g15
tp2741
a(S"this week's weather"
p2742
g15
tp2743
a(S'what do i have in a week'
p2744
g15
tp2745
a(S"what's in my inbox please"
p2746
g15
tp2747
a(S'is there anything to do on saturday'
p2748
g15
tp2749
a(S'am i free on sunday'
p2750
g15
tp2751
a(S'shut up'
p2752
g15
tp2753
a(S'check my calendar for friday'
p2754
g15
tp2755
a(S'please google for'
p2756
g15
tp2757
a(S'will you open my gmail please'
p2758
g15
tp2759
a(S'what is new in my gmail'
p2760
g15
tp2761
a(S'create new event please'
p2762
g15
tp2763
a(S'turn yourself off please'
p2764
g15
tp2765
a(S'read time'
p2766
g82
tp2767
a(S'is there anything i have to do on today'
p2768
g15
tp2769
a(S'please open a browser'
p2770
g15
tp2771
a(S'can you lock the screen'
p2772
g15
tp2773
a(S'could you check mail please'
p2774
g15
tp2775
a(S'bye bye alice'
p2776
g15
tp2777
a(S'what do i have on tomorrow'
p2778
g15
tp2779
a(S'what do i have to do on this day'
p2780
g15
tp2781
a(S'start a browser please'
p2782
g15
tp2783
a(S'can you shut off my computer'
p2784
g15
tp2785
a(S'go to dot ee dee you'
p2786
g15
tp2787
a(S'please spotify pause'
p2788
g15
tp2789
a(S'please do not when is it'
p2790
g15
tp2791
a(S'check calendar for this month'
p2792
g15
tp2793
a(S'stop'
p2794
g15
tp2795
a(S'make a new event'
p2796
g15
tp2797
a(S'what events are on saturday'
p2798
g15
tp2799
a(S"what's today's weather"
p2800
g15
tp2801
a(S'can you please close active window'
p2802
g15
tp2803
a(S'search google please'
p2804
g15
tp2805
a(S'what events do i have on'
p2806
g15
tp2807
a(S'could you schedule new event'
p2808
g15
tp2809
a(S'check my calendar for thursday'
p2810
g15
tp2811
a(S'please close this window'
p2812
g15
tp2813
a(S"please don't retrieve the current time"
p2814
g15
tp2815
a(S'can you make new event please'
p2816
g15
tp2817
a(S'check the clock please'
p2818
g82
tp2819
a(S'do i have to do anything on friday'
p2820
g15
tp2821
a(S'will you check new mail'
p2822
g15
tp2823
a(S'what is in the news today'
p2824
g15
tp2825
a(S'can you turn yourself off'
p2826
g15
tp2827
a(S"what's new in new gmail please"
p2828
g15
tp2829
a(S'will you check mail please'
p2830
g15
tp2831
a(S"what's if it's cold today"
p2832
g15
tp2833
a(S"don't i have anything to do on friday"
p2834
g15
tp2835
a(S"what's if it's cold this week"
p2836
g15
tp2837
a(S'what events do i have on this day'
p2838
g15
tp2839
a(S'please would you open my gmail'
p2840
g15
tp2841
a(S'search google for'
p2842
g15
tp2843
a(S'open'
p2844
g15
tp2845
a(S"don't i have anything on tuesday"
p2846
g15
tp2847
a(S"don't i have anything to do tomorrow"
p2848
g15
tp2849
a(S"please don't read your watch"
p2850
g15
tp2851
a(S'will you open gmail please'
p2852
g15
tp2853
a(S'make event'
p2854
g15
tp2855
a(S'please give me the current events please'
p2856
g15
tp2857
a(S'am i free on next'
p2858
g15
tp2859
a(S'am i free on saturday'
p2860
g15
tp2861
a(S'please do not check the current time'
p2862
g15
tp2863
a(S'can you close the current window'
p2864
g15
tp2865
a(S'make the sound quieter'
p2866
g15
tp2867
a(S'please check mail'
p2868
g15
tp2869
a(S'sweet dreams'
p2870
g15
tp2871
a(S'what events do i have on today'
p2872
g15
tp2873
a(S'check calendar on'
p2874
g15
tp2875
a(S'check events on this week'
p2876
g15
tp2877
a(S'can you unmute please'
p2878
g15
tp2879
a(S'please spotify start the song'
p2880
g15
tp2881
a(S'what do i have on thursday'
p2882
g15
tp2883
a(S'check calendar on sunday'
p2884
g15
tp2885
a(S'start default browser'
p2886
g15
tp2887
a(S'would you open inbox please'
p2888
g15
tp2889
a(S'are there any events on this day'
p2890
g15
tp2891
a(S'check my calendar on tomorrow'
p2892
g15
tp2893
a(S'would you open my inbox'
p2894
g15
tp2895
a(S'please do not read time'
p2896
g15
tp2897
a(S'am i free for a week'
p2898
g15
tp2899
a(S'check my calendar on wednesday'
p2900
g15
tp2901
a(S'spotify pause the song please'
p2902
g15
tp2903
a(S'could you add an event'
p2904
g15
tp2905
a(S"what's in gmail please"
p2906
g15
tp2907
a(S'any events on this day'
p2908
g15
tp2909
a(S'do not read me the clock please'
p2910
g15
tp2911
a(S'please do not read the time'
p2912
g15
tp2913
a(S'what is in new gmail'
p2914
g15
tp2915
a(S'what is new in mail'
p2916
g15
tp2917
a(S'am i free for monday'
p2918
g15
tp2919
a(S'can you shutdown'
p2920
g15
tp2921
a(S'do i have anything on thursday'
p2922
g15
tp2923
a(S'is there anything i have to do on tomorrow'
p2924
g15
tp2925
a(S"don't i have anything tomorrow"
p2926
g15
tp2927
a(S'lock the screen'
p2928
g15
tp2929
a(S'what do i have to do'
p2930
g15
tp2931
a(S'what do i have on tuesday'
p2932
g15
tp2933
a(S'am i free'
p2934
g15
tp2935
a(S"please don't check the clock"
p2936
g15
tp2937
a(S'can you check my gmail'
p2938
g15
tp2939
a(S'go back please'
p2940
g15
tp2941
a(S"aren't there any events in a week"
p2942
g15
tp2943
a(S'will you check my inbox'
p2944
g15
tp2945
a(S'shut down'
p2946
g15
tp2947
a(S"what're the the news"
p2948
g15
tp2949
a(S'do i have anything to do on wednesday'
p2950
g15
tp2951
a(S'will you open gmail'
p2952
g15
tp2953
a(S'what events are on next'
p2954
g15
tp2955
a(S'please will you check new mail'
p2956
g15
tp2957
a(S'what do i have'
p2958
g15
tp2959
a(S'please what is in inbox'
p2960
g15
tp2961
a(S'lock the screen please'
p2962
g15
tp2963
a(S'can you please turn up the beat'
p2964
g15
tp2965
a(S'am i free for today'
p2966
g15
tp2967
a(S'what is current events'
p2968
g15
tp2969
a(S'is there anything to do on this day'
p2970
g15
tp2971
a(S'turn off the sound please'
p2972
g15
tp2973
a(S'set the volume to zero'
p2974
g15
tp2975
a(S'temperature'
p2976
g15
tp2977
a(S"aren't there any events on"
p2978
g15
tp2979
a(S'make new event please'
p2980
g15
tp2981
a(S'make the volume softer'
p2982
g15
tp2983
a(S'can you check mail please'
p2984
g15
tp2985
a(S"don't i have to do anything on wednesday"
p2986
g15
tp2987
a(S'please get the time'
p2988
g82
tp2989
a(S'stop spotify'
p2990
g15
tp2991
a(S'what do i have on sunday'
p2992
g15
tp2993
a(S'gimme the news'
p2994
g15
tp2995
a(S"what's the weather"
p2996
g15
tp2997
a(S'check my inbox please'
p2998
g15
tp2999
a(S'turn down the volume'
p3000
g15
tp3001
a(S'please pause spotify'
p3002
g15
tp3003
a(S"if it's freezing today"
p3004
g15
tp3005
a(S'do not get time please'
p3006
g15
tp3007
a(S'is there anything i have to do on wednesday'
p3008
g15
tp3009
a(S'is it foggy this week'
p3010
g15
tp3011
a(S'turn it down'
p3012
g15
tp3013
a(S'time'
p3014
g82
tp3015
a(S'tell me current events'
p3016
g15
tp3017
a(S'please do not get me the clock'
p3018
g15
tp3019
a(S'can you please schedule a new event'
p3020
g15
tp3021
a(S"what's in new mail"
p3022
g15
tp3023
a(S'check if i have anything in my inbox'
p3024
g15
tp3025
a(S"don't get clock"
p3026
g15
tp3027
a(S'do i have anything to do in a month'
p3028
g15
tp3029
a(S'kill the noise'
p3030
g15
tp3031
a(S"what's in my gmail please"
p3032
g15
tp3033
a(S'do not check your watch please'
p3034
g15
tp3035
a(S"what's this week's forecast"
p3036
g15
tp3037
a(S"what's the forecast today"
p3038
g15
tp3039
a(S'please do not get time'
p3040
g15
tp3041
a(S'skip'
p3042
g15
tp3043
a(S"don't get me the clock please"
p3044
g15
tp3045
a(S'the news'
p3046
g15
tp3047
a(S'please give me the news'
p3048
g15
tp3049
a(S'please could you check my mail'
p3050
g15
tp3051
a(S'am i free on tuesday'
p3052
g15
tp3053
a(S'please sound higher'
p3054
g15
tp3055
a(S'check calendar for thursday'
p3056
g15
tp3057
a(S"what's the forecast this week"
p3058
g15
tp3059
a(S"what's if it's snowing this week"
p3060
g15
tp3061
a(S"today's live news"
p3062
g15
tp3063
a(S'pause spotify please'
p3064
g15
tp3065
a(S'check mail'
p3066
g15
tp3067
a(S'please go spotify'
p3068
g15
tp3069
a(S"don't i have to do anything on wednesday"
p3070
g15
tp3071
a(S"please don't retrieve the time"
p3072
g15
tp3073
a(S'check my calendar for this month'
p3074
g15
tp3075
a(S'check events on saturday'
p3076
g15
tp3077
a(S'do i have any events in a month'
p3078
g15
tp3079
a(S"don't i have anything on thursday"
p3080
g15
tp3081
a(S'lower the tunez please'
p3082
g15
tp3083
a(S'please what is new in my gmail'
p3084
g15
tp3085
a(S'create event please'
p3086
g15
tp3087
a(S'any events in a week'
p3088
g15
tp3089
a(S'will you check my gmail please'
p3090
g15
tp3091
a(S'what events are on tomorrow'
p3092
g15
tp3093
a(S'what do i have to do in a week'
p3094
g15
tp3095
a(S"please don't read the clock"
p3096
g15
tp3097
a(S'go to dot org'
p3098
g15
tp3099
a(S'please start spotify'
p3100
g15
tp3101
a(S'is it cold this week'
p3102
g15
tp3103
a(S"what's the current events"
p3104
g15
tp3105
a(S'could you open my inbox please'
p3106
g15
tp3107
a(S'can you please shut my computer down'
p3108
g15
tp3109
a(S'please what is new in my mail'
p3110
g15
tp3111
a(S'check google calendar for saturday'
p3112
g15
tp3113
a(S'get clock'
p3114
g82
tp3115
a(S'okay alex'
p3116
g15
tp3117
a(S'do i have to do anything on saturday'
p3118
g15
tp3119
a(S'retrieve the current time'
p3120
g82
tp3121
a(S'could you check new mail'
p3122
g15
tp3123
a(S'could you add new event please'
p3124
g15
tp3125
a(S'search for please'
p3126
g15
tp3127
a(S'byebye'
p3128
g15
tp3129
a(S'please check my inbox'
p3130
g15
tp3131
a(S'check gmail'
p3132
g15
tp3133
a(S'newsfeed'
p3134
g15
tp3135
a(S'turn it up please'
p3136
g15
tp3137
a(S"don't get the time"
p3138
g15
tp3139
a(S"please don't check what time it is"
p3140
g15
tp3141
a(S'what events are on thursday'
p3142
g15
tp3143
a(S'please make new event'
p3144
g15
tp3145
a(S'get current forecast'
p3146
g15
tp3147
a(S'open gmail'
p3148
g15
tp3149
a(S"please don't when is it"
p3150
g15
tp3151
a(S'what is on my calendar for saturday'
p3152
g15
tp3153
a(S'would you open mail please'
p3154
g15
tp3155
a(S'what are the live newsfeed'
p3156
g15
tp3157
a(S'is there anything i have to do on friday'
p3158
g15
tp3159
a(S'spotify next song'
p3160
g15
tp3161
a(S'can you shut down the computer'
p3162
g15
tp3163
a(S'please read me the clock'
p3164
g82
tp3165
a(S'what is new in mail please'
p3166
g15
tp3167
a(S'spotify pause please'
p3168
g15
tp3169
a(S'any new mail'
p3170
g15
tp3171
a(S'please shut my computer down'
p3172
g15
tp3173
a(S'turn up the tunes'
p3174
g15
tp3175
a(S'live news feed'
p3176
g15
tp3177
a(S'can you please make a new event'
p3178
g15
tp3179
a(S'please check what time it is'
p3180
g82
tp3181
a(S"don't retrieve the time please"
p3182
g15
tp3183
a(S'unmute'
p3184
g15
tp3185
a(S'is it freezing this week'
p3186
g15
tp3187
a(S"don't check the clock right now please"
p3188
g15
tp3189
a(S'can you get information on the current events'
p3190
g15
tp3191
a(S'will you check gmail'
p3192
g15
tp3193
a(S'what events do i have on friday'
p3194
g15
tp3195
a(S'shutdown my computer please'
p3196
g15
tp3197
a(S'is there anything to do in a month'
p3198
g15
tp3199
a(S'what is in new mail'
p3200
g15
tp3201
a(S'is there anything i have to do'
p3202
g15
tp3203
a(S'could you please add event'
p3204
g15
tp3205
a(S'can you turn up the tunez'
p3206
g15
tp3207
a(S'check mail please'
p3208
g15
tp3209
a(S'please would you open gmail'
p3210
g15
tp3211
a(S'can you shut my computer down'
p3212
g15
tp3213
a(S'are there any events on today'
p3214
g15
tp3215
a(S"don't read your watch please"
p3216
g15
tp3217
a(S'check my calendar for saturday'
p3218
g15
tp3219
a(S'turn the sound down please'
p3220
g15
tp3221
a(S"what's in inbox please"
p3222
g15
tp3223
a(S'do i have anything to do on next'
p3224
g15
tp3225
a(S'check calendar for this day'
p3226
g15
tp3227
a(S'could you please schedule a new event'
p3228
g15
tp3229
a(S'do not get the clock'
p3230
g15
tp3231
a(S'do i have any events'
p3232
g15
tp3233
a(S'can you please turn my computer off'
p3234
g15
tp3235
a(S'check google calendar on thursday'
p3236
g15
tp3237
a(S'get me the clock please'
p3238
g82
tp3239
a(S'play song'
p3240
g15
tp3241
a(S'shut off my computer'
p3242
g15
tp3243
a(S'do i have anything to do on tuesday'
p3244
g15
tp3245
a(S'check google calendar for tomorrow'
p3246
g15
tp3247
a(S'do not retrieve the current time please'
p3248
g15
tp3249
a(S"aren't there any events in a month"
p3250
g15
tp3251
a(S'please last song'
p3252
g15
tp3253
a(S'google please for'
p3254
g15
tp3255
a(S'please will you check mail'
p3256
g15
tp3257
a(S'go to dot gov'
p3258
g15
tp3259
a(S"what's new in new gmail"
p3260
g15
tp3261
a(S'any events on saturday'
p3262
g15
tp3263
a(S'can you turn the tune down'
p3264
g15
tp3265
a(S'go ahead'
p3266
g15
tp3267
a(S'lock computer please'
p3268
g15
tp3269
a(S'is there anything to do tomorrow'
p3270
g15
tp3271
a(S'put me on the lock screen please'
p3272
g15
tp3273
a(S'can you turn off my computer'
p3274
g15
tp3275
a(S'is there anything to do on'
p3276
g15
tp3277
a(S'check my calendar for next'
p3278
g15
tp3279
a(S'do i have anything on monday'
p3280
g15
tp3281
a(S'can you turn up the sound'
p3282
g15
tp3283
a(S'please spotify previous song'
p3284
g15
tp3285
a(S'please shut off my computer'
p3286
g15
tp3287
a(S'do not get me the clock please'
p3288
g15
tp3289
a(S'please could you open my inbox'
p3290
g15
tp3291
a(S'is there anything to do in a week'
p3292
g15
tp3293
a(S"don't retrieve what time it is please"
p3294
g15
tp3295
a(S'am i free on monday'
p3296
g15
tp3297
a(S"don't i have to do anything on"
p3298
g15
tp3299
a(S'please would you check my gmail'
p3300
g15
tp3301
a(S'can you make an event please'
p3302
g15
tp3303
a(S'close active window'
p3304
g15
tp3305
a(S'could you open mail'
p3306
g15
tp3307
a(S'can you quit'
p3308
g15
tp3309
a(S'what is on my calendar for thursday'
p3310
g15
tp3311
a(S'could you please make an event'
p3312
g15
tp3313
a(S"don't i have to do anything on friday"
p3314
g15
tp3315
a(S'check events for this week'
p3316
g15
tp3317
a(S'check events on'
p3318
g15
tp3319
a(S'tell me news feed'
p3320
g15
tp3321
a(S"if it's hot this week"
p3322
g15
tp3323
a(S'what events do i have on next'
p3324
g15
tp3325
a(S'please what is in new gmail'
p3326
g15
tp3327
a(S"if it's hot today"
p3328
g15
tp3329
a(S'could you schedule a new event'
p3330
g15
tp3331
a(S'could you please create a new event'
p3332
g15
tp3333
a(S'shut down my computer please'
p3334
g15
tp3335
a(S"get this week's forecast"
p3336
g15
tp3337
a(S'will it rain today'
p3338
g15
tp3339
a(S'shut up please'
p3340
g15
tp3341
a(S'is it snowing today'
p3342
g15
tp3343
a(S'open a browser'
p3344
g15
tp3345
a(S'can you turn the volume higher please'
p3346
g15
tp3347
a(S'what is on my calendar for'
p3348
g15
tp3349
a(S'check my calendar'
p3350
g15
tp3351
a(S'spotify go to the last song'
p3352
g15
tp3353
a(S'what is in my mail please'
p3354
g15
tp3355
a(S"aren't there any events on saturday"
p3356
g15
tp3357
a(S'can you please kill the current window'
p3358
g15
tp3359
a(S'kill this window'
p3360
g15
tp3361
a(S'check my calendar for this week'
p3362
g15
tp3363
a(S"what's in new mail please"
p3364
g15
tp3365
a(S'can you open a browser please'
p3366
g15
tp3367
a(S"don't i have to do anything"
p3368
g15
tp3369
a(S'check calendar on month'
p3370
g15
tp3371
a(S'do i have to do anything on monday'
p3372
g15
tp3373
a(S'what events are on'
p3374
g15
tp3375
a(S'please give me current events'
p3376
g15
tp3377
a(S'please make event'
p3378
g15
tp3379
a(S"please don't get current time"
p3380
g15
tp3381
a(S'go to dot com'
p3382
g15
tp3383
a(S'what is new in my inbox'
p3384
g15
tp3385
a(S'could you please make new event'
p3386
g15
tp3387
a(S'give me the current events'
p3388
g15
tp3389
a(S'get weather'
p3390
g15
tp3391
a(S'add an event please'
p3392
g15
tp3393
a(S'please turn my computer off'
p3394
g15
tp3395
a(S"what's in my mail please"
p3396
g15
tp3397
a(S'what is on my calendar for tuesday'
p3398
g15
tp3399
a(S'please close active window'
p3400
g15
tp3401
a(S'please start browser'
p3402
g15
tp3403
a(S'could you please schedule new event'
p3404
g15
tp3405
a(S'check calendar on friday'
p3406
g15
tp3407
a(S'is there anything to do on next'
p3408
g15
tp3409
a(S"get if it's cold today"
p3410
g15
tp3411
a(S'please open my gmail'
p3412
g15
tp3413
a(S'get the clock'
p3414
g82
tp3415
a(S"what's the live news feed"
p3416
g15
tp3417
a(S'can you create an event please'
p3418
g15
tp3419
a(S'what is news feed'
p3420
g15
tp3421
a(S'would you open mail'
p3422
g15
tp3423
a(S'bye'
p3424
g15
tp3425
a(S'is there anything i have to do today'
p3426
g15
tp3427
a(S'google search'
p3428
g15
tp3429
a(S'can you please turn off the computer'
p3430
g15
tp3431
a(S"don't i have any events"
p3432
g15
tp3433
a(S'can you please close this window'
p3434
g15
tp3435
a(S'do i have any events on saturday'
p3436
g15
tp3437
a(S'please could you open mail'
p3438
g15
tp3439
a(S'check my calendar on next'
p3440
g15
tp3441
a(S'what is in inbox please'
p3442
g15
tp3443
a(S'is it rainy today'
p3444
g15
tp3445
a(S'can you please create an event'
p3446
g15
tp3447
a(S"please don't get me the clock"
p3448
g15
tp3449
a(S'go to dot edu'
p3450
g15
tp3451
a(S'please would you check inbox'
p3452
g15
tp3453
a(S'please kill active window'
p3454
g15
tp3455
a(S'can you send me to the lock screen please'
p3456
g15
tp3457
a(S'can you get the current events'
p3458
g15
tp3459
a(S'what events are on wednesday'
p3460
g15
tp3461
a(S'what do i have on friday'
p3462
g15
tp3463
a(S"what's this week's temperature"
p3464
g15
tp3465
a(S'what time is it right now'
p3466
g82
tp3467
a(S'what is in mail please'
p3468
g15
tp3469
a(S"what's forecast"
p3470
g15
tp3471
a(S'schedule event'
p3472
g15
tp3473
a(S"don't i have to do anything tomorrow"
p3474
g15
tp3475
a(S'can you decrease the sound'
p3476
g15
tp3477
a(S'do i have anything today'
p3478
g15
tp3479
a(S'check my gmail please'
p3480
g15
tp3481
a(S'turn up the tunez please'
p3482
g15
tp3483
a(S'can you add an event'
p3484
g15
tp3485
a(S"what's the live newsfeed"
p3486
g15
tp3487
a(S'will it snow this week'
p3488
g15
tp3489
a(S'can you put me on the lock screen please'
p3490
g15
tp3491
a(S'tell me current news'
p3492
g15
tp3493
a(S'open a default browser please'
p3494
g15
tp3495
a(S"what're the news feed"
p3496
g15
tp3497
a(S'can you please schedule new event'
p3498
g15
tp3499
a(S'what is new in new gmail'
p3500
g15
tp3501
a(S'could you create an event'
p3502
g15
tp3503
a(S'can you turn the beat down'
p3504
g15
tp3505
a(S'check events on sunday'
p3506
g15
tp3507
a(S'please could you check my inbox'
p3508
g15
tp3509
a(S"don't i have any events in a week"
p3510
g15
tp3511
a(S'check events on today'
p3512
g15
tp3513
a(S'check my calendar for'
p3514
g15
tp3515
a(S'please can you check mail'
p3516
g15
tp3517
a(S"today's weather"
p3518
g15
tp3519
a(S'can you please create new event'
p3520
g15
tp3521
a(S'please can you check new gmail'
p3522
g15
tp3523
a(S"please don't get clock"
p3524
g15
tp3525
a(S'create event'
p3526
g15
tp3527
a(S"this week's forecast"
p3528
g15
tp3529
a(S'do i have anything on tuesday'
p3530
g15
tp3531
a(S"get if it's raining this week"
p3532
g15
tp3533
a(S'please check the current time'
p3534
g82
tp3535
a(S'make new event'
p3536
g15
tp3537
a(S'please kill the active window'
p3538
g15
tp3539
a(S'could you check new gmail please'
p3540
g15
tp3541
a(S'would you open my inbox please'
p3542
g15
tp3543
a(S'shut down the computer'
p3544
g15
tp3545
a(S'find live newsfeed'
p3546
g15
tp3547
a(S'can you please turn the tune down'
p3548
g15
tp3549
a(S'what events do i have'
p3550
g15
tp3551
a(S'am i free on thursday'
p3552
g15
tp3553
a(S'can you please add an event'
p3554
g15
tp3555
a(S'please spotify previous'
p3556
g15
tp3557
a(S'am i free for tomorrow'
p3558
g15
tp3559
a(S'what do i have to do on'
p3560
g15
tp3561
a(S'kill the active program'
p3562
g15
tp3563
a(S'spotify skip ahead please'
p3564
g15
tp3565
a(S'do i have to do anything'
p3566
g15
tp3567
a(S'please could you check mail'
p3568
g15
tp3569
a(S'start browser please'
p3570
g15
tp3571
a(S'do i have anything on sunday'
p3572
g15
tp3573
a(S'schedule an event please'
p3574
g15
tp3575
a(S'what do i have to do on friday'
p3576
g15
tp3577
a(S'do not get the current time'
p3578
g15
tp3579
a(S'will it hail today'
p3580
g15
tp3581
a(S'is it rainy this week'
p3582
g15
tp3583
a(S'do not read me the clock'
p3584
g15
tp3585
a(S'please do not retrieve the time'
p3586
g15
tp3587
a(S"what time isn't it currently"
p3588
g15
tp3589
a(S'please send me to the lock screen'
p3590
g15
tp3591
a(S'please would you check new mail'
p3592
g15
tp3593
a(S'what is on my calendar'
p3594
g15
tp3595
a(S'can you please create event'
p3596
g15
tp3597
a(S'please create event'
p3598
g15
tp3599
a(S'do not read your watch please'
p3600
g15
tp3601
a(S'could you please create an event'
p3602
g15
tp3603
a(S"please what's new in my gmail"
p3604
g15
tp3605
a(S'what events are on sunday'
p3606
g15
tp3607
a(S'please kill this window'
p3608
g15
tp3609
a(S'check inbox please'
p3610
g15
tp3611
a(S'would you check gmail'
p3612
g15
tp3613
a(S"don't i have anything to do in a month"
p3614
g15
tp3615
a(S'can you schedule an event'
p3616
g15
tp3617
a(S'please do not read me the clock'
p3618
g15
tp3619
a(S'please do not get the current time'
p3620
g15
tp3621
a(S'check new gmail please'
p3622
g15
tp3623
a(S'do i have to do anything tomorrow'
p3624
g15
tp3625
a(S'any new gmail'
p3626
g15
tp3627
a(S'start browsing'
p3628
g15
tp3629
a(S"don't i have to do anything on tuesday"
p3630
g15
tp3631
a(S'please search for'
p3632
g15
tp3633
a(S'are there any events in a month'
p3634
g15
tp3635
a(S'give me intel'
p3636
g15
tp3637
a(S'could you check my mail'
p3638
g15
tp3639
a(S'is there anything to do on tomorrow'
p3640
g15
tp3641
a(S'please what is new in mail'
p3642
g15
tp3643
asS'classifier'
p3644
ccopy_reg
_reconstructor
p3645
(csklearn.pipeline
Pipeline
p3646
c__builtin__
object
p3647
Ntp3648
Rp3649
(dp3650
S'_sklearn_version'
p3651
S'0.18.1'
p3652
sS'steps'
p3653
(lp3654
(S'vect'
p3655
g3645
(csklearn.feature_extraction.text
CountVectorizer
p3656
g3647
Ntp3657
Rp3658
(dp3659
S'decode_error'
p3660
Vstrict
p3661
sS'lowercase'
p3662
I01
sS'stop_words'
p3663
NsS'vocabulary'
p3664
NsS'tokenizer'
p3665
NsS'encoding'
p3666
Vutf-8
p3667
sS'token_pattern'
p3668
V(?u)\u005cb\u005cw\u005cw+\u005cb
p3669
sS'input'
p3670
Vcontent
p3671
sS'analyzer'
p3672
Vword
p3673
sS'vocabulary_'
p3674
(dp3675
Vraining
p3676
cnumpy.core.multiarray
scalar
p3677
(cnumpy
dtype
p3678
(S'i8'
p3679
I0
I1
tp3680
Rp3681
(I3
S'<'
p3682
NNNI-1
I-1
I0
tp3683
bS'\xa3\x00\x00\x00\x00\x00\x00\x00'
p3684
tp3685
Rp3686
sVtodays
p3687
g3677
(g3681
S'\xd1\x00\x00\x00\x00\x00\x00\x00'
p3688
tp3689
Rp3690
sVmute
p3691
g3677
(g3681
S'\x7f\x00\x00\x00\x00\x00\x00\x00'
p3692
tp3693
Rp3694
sVskip
p3695
g3677
(g3681
S'\xb9\x00\x00\x00\x00\x00\x00\x00'
p3696
tp3697
Rp3698
sVmonth
p3699
g3677
(g3681
S'}\x00\x00\x00\x00\x00\x00\x00'
p3700
tp3701
Rp3702
sVnot
p3703
g3677
(g3681
S'\x88\x00\x00\x00\x00\x00\x00\x00'
p3704
tp3705
Rp3706
sVsofter
p3707
g3677
(g3681
S'\xbc\x00\x00\x00\x00\x00\x00\x00'
p3708
tp3709
Rp3710
sVkill
p3711
g3677
(g3681
S'o\x00\x00\x00\x00\x00\x00\x00'
p3712
tp3713
Rp3714
sVusing
p3715
g3677
(g3681
S'\xdd\x00\x00\x00\x00\x00\x00\x00'
p3716
tp3717
Rp3718
sVgo
p3719
g3677
(g3681
S'U\x00\x00\x00\x00\x00\x00\x00'
p3720
tp3721
Rp3722
sVheadlines
p3723
g3677
(g3681
S'^\x00\x00\x00\x00\x00\x00\x00'
p3724
tp3725
Rp3726
sVfind
p3727
g3677
(g3681
S'H\x00\x00\x00\x00\x00\x00\x00'
p3728
tp3729
Rp3730
sVbefore
p3731
g3677
(g3681
S'\x13\x00\x00\x00\x00\x00\x00\x00'
p3732
tp3733
Rp3734
sVcurrent
p3735
g3677
(g3681
S'+\x00\x00\x00\x00\x00\x00\x00'
p3736
tp3737
Rp3738
sVpause
p3739
g3677
(g3681
S'\x92\x00\x00\x00\x00\x00\x00\x00'
p3740
tp3741
Rp3742
sVsnowing
p3743
g3677
(g3681
S'\xbb\x00\x00\x00\x00\x00\x00\x00'
p3744
tp3745
Rp3746
sVsunday
p3747
g3677
(g3681
S'\xc4\x00\x00\x00\x00\x00\x00\x00'
p3748
tp3749
Rp3750
sVsend
p3751
g3677
(g3681
S'\xb3\x00\x00\x00\x00\x00\x00\x00'
p3752
tp3753
Rp3754
sVaren
p3755
g3677
(g3681
S'\r\x00\x00\x00\x00\x00\x00\x00'
p3756
tp3757
Rp3758
sVto
p3759
g3677
(g3681
S'\xcf\x00\x00\x00\x00\x00\x00\x00'
p3760
tp3761
Rp3762
sVadd
p3763
g3677
(g3681
S'\x02\x00\x00\x00\x00\x00\x00\x00'
p3764
tp3765
Rp3766
sVgoing
p3767
g3677
(g3681
S'V\x00\x00\x00\x00\x00\x00\x00'
p3768
tp3769
Rp3770
sVmail
p3771
g3677
(g3681
S'w\x00\x00\x00\x00\x00\x00\x00'
p3772
tp3773
Rp3774
sVbye
p3775
g3677
(g3681
S'\x19\x00\x00\x00\x00\x00\x00\x00'
p3776
tp3777
Rp3778
sVdo
p3779
g3677
(g3681
S'5\x00\x00\x00\x00\x00\x00\x00'
p3780
tp3781
Rp3782
sVgood
p3783
g3677
(g3681
S'W\x00\x00\x00\x00\x00\x00\x00'
p3784
tp3785
Rp3786
sVemergency
p3787
g3677
(g3681
S'?\x00\x00\x00\x00\x00\x00\x00'
p3788
tp3789
Rp3790
sVget
p3791
g3677
(g3681
S'Q\x00\x00\x00\x00\x00\x00\x00'
p3792
tp3793
Rp3794
sVya
p3795
g3677
(g3681
S'\xeb\x00\x00\x00\x00\x00\x00\x00'
p3796
tp3797
Rp3798
sVmaterial
p3799
g3677
(g3681
S'y\x00\x00\x00\x00\x00\x00\x00'
p3800
tp3801
Rp3802
sVwatch
p3803
g3677
(g3681
S'\xdf\x00\x00\x00\x00\x00\x00\x00'
p3804
tp3805
Rp3806
sVreport
p3807
g3677
(g3681
S'\xa8\x00\x00\x00\x00\x00\x00\x00'
p3808
tp3809
Rp3810
sVworld
p3811
g3677
(g3681
S'\xe9\x00\x00\x00\x00\x00\x00\x00'
p3812
tp3813
Rp3814
sVnow
p3815
g3677
(g3681
S'\x89\x00\x00\x00\x00\x00\x00\x00'
p3816
tp3817
Rp3818
sVday
p3819
g3677
(g3681
S'-\x00\x00\x00\x00\x00\x00\x00'
p3820
tp3821
Rp3822
sVdreams
p3823
g3677
(g3681
S';\x00\x00\x00\x00\x00\x00\x00'
p3824
tp3825
Rp3826
sVintel
p3827
g3677
(g3681
S'i\x00\x00\x00\x00\x00\x00\x00'
p3828
tp3829
Rp3830
sVshoulder
p3831
g3677
(g3681
S'\xb5\x00\x00\x00\x00\x00\x00\x00'
p3832
tp3833
Rp3834
sVmoderate
p3835
g3677
(g3681
S'{\x00\x00\x00\x00\x00\x00\x00'
p3836
tp3837
Rp3838
sValex
p3839
g3677
(g3681
S'\x04\x00\x00\x00\x00\x00\x00\x00'
p3840
tp3841
Rp3842
sVlike
p3843
g3677
(g3681
S'r\x00\x00\x00\x00\x00\x00\x00'
p3844
tp3845
Rp3846
sVgossips
p3847
g3677
(g3681
S'Y\x00\x00\x00\x00\x00\x00\x00'
p3848
tp3849
Rp3850
sVdidn
p3851
g3677
(g3681
S'4\x00\x00\x00\x00\x00\x00\x00'
p3852
tp3853
Rp3854
sVwednesday
p3855
g3677
(g3681
S'\xe2\x00\x00\x00\x00\x00\x00\x00'
p3856
tp3857
Rp3858
sVcloudy
p3859
g3677
(g3681
S'#\x00\x00\x00\x00\x00\x00\x00'
p3860
tp3861
Rp3862
sVtry
p3863
g3677
(g3681
S'\xd4\x00\x00\x00\x00\x00\x00\x00'
p3864
tp3865
Rp3866
sVtunez
p3867
g3677
(g3681
S'\xd8\x00\x00\x00\x00\x00\x00\x00'
p3868
tp3869
Rp3870
sVgimme
p3871
g3677
(g3681
S'R\x00\x00\x00\x00\x00\x00\x00'
p3872
tp3873
Rp3874
sVcontinue
p3875
g3677
(g3681
S'(\x00\x00\x00\x00\x00\x00\x00'
p3876
tp3877
Rp3878
sVnight
p3879
g3677
(g3681
S'\x86\x00\x00\x00\x00\x00\x00\x00'
p3880
tp3881
Rp3882
sVtunes
p3883
g3677
(g3681
S'\xd7\x00\x00\x00\x00\x00\x00\x00'
p3884
tp3885
Rp3886
sVout
p3887
g3677
(g3681
S'\x90\x00\x00\x00\x00\x00\x00\x00'
p3888
tp3889
Rp3890
sVclassifier
p3891
g3677
(g3681
S' \x00\x00\x00\x00\x00\x00\x00'
p3892
tp3893
Rp3894
sVinbox
p3895
g3677
(g3681
S'f\x00\x00\x00\x00\x00\x00\x00'
p3896
tp3897
Rp3898
sVset
p3899
g3677
(g3681
S'\xb4\x00\x00\x00\x00\x00\x00\x00'
p3900
tp3901
Rp3902
sVretrieve
p3903
g3677
(g3681
S'\xaa\x00\x00\x00\x00\x00\x00\x00'
p3904
tp3905
Rp3906
sVee
p3907
g3677
(g3681
S'>\x00\x00\x00\x00\x00\x00\x00'
p3908
tp3909
Rp3910
sVintelligence
p3911
g3677
(g3681
S'j\x00\x00\x00\x00\x00\x00\x00'
p3912
tp3913
Rp3914
sVedu
p3915
g3677
(g3681
S'=\x00\x00\x00\x00\x00\x00\x00'
p3916
tp3917
Rp3918
sVback
p3919
g3677
(g3681
S'\x0e\x00\x00\x00\x00\x00\x00\x00'
p3920
tp3921
Rp3922
sVhail
p3923
g3677
(g3681
S'\\\x00\x00\x00\x00\x00\x00\x00'
p3924
tp3925
Rp3926
sValice
p3927
g3677
(g3681
S'\x05\x00\x00\x00\x00\x00\x00\x00'
p3928
tp3929
Rp3930
sVsee
p3931
g3677
(g3681
S'\xb2\x00\x00\x00\x00\x00\x00\x00'
p3932
tp3933
Rp3934
sVcomputer
p3935
g3677
(g3681
S"'\x00\x00\x00\x00\x00\x00\x00"
p3936
tp3937
Rp3938
sVare
p3939
g3677
(g3681
S'\x0c\x00\x00\x00\x00\x00\x00\x00'
p3940
tp3941
Rp3942
sVclose
p3943
g3677
(g3681
S'"\x00\x00\x00\x00\x00\x00\x00'
p3944
tp3945
Rp3946
sVcalendar
p3947
g3677
(g3681
S'\x1b\x00\x00\x00\x00\x00\x00\x00'
p3948
tp3949
Rp3950
sVextract
p3951
g3677
(g3681
S'C\x00\x00\x00\x00\x00\x00\x00'
p3952
tp3953
Rp3954
sVcold
p3955
g3677
(g3681
S'$\x00\x00\x00\x00\x00\x00\x00'
p3956
tp3957
Rp3958
sVgmail
p3959
g3677
(g3681
S'T\x00\x00\x00\x00\x00\x00\x00'
p3960
tp3961
Rp3962
sVcategory
p3963
g3677
(g3681
S'\x1d\x00\x00\x00\x00\x00\x00\x00'
p3964
tp3965
Rp3966
sVwhat
p3967
g3677
(g3681
S'\xe4\x00\x00\x00\x00\x00\x00\x00'
p3968
tp3969
Rp3970
sVfor
p3971
g3677
(g3681
S'J\x00\x00\x00\x00\x00\x00\x00'
p3972
tp3973
Rp3974
sVclock
p3975
g3677
(g3681
S'!\x00\x00\x00\x00\x00\x00\x00'
p3976
tp3977
Rp3978
sVdebrief
p3979
g3677
(g3681
S'.\x00\x00\x00\x00\x00\x00\x00'
p3980
tp3981
Rp3982
sVcurrently
p3983
g3677
(g3681
S',\x00\x00\x00\x00\x00\x00\x00'
p3984
tp3985
Rp3986
sVplease
p3987
g3677
(g3681
S'\x95\x00\x00\x00\x00\x00\x00\x00'
p3988
tp3989
Rp3990
sVbrief
p3991
g3677
(g3681
S'\x15\x00\x00\x00\x00\x00\x00\x00'
p3992
tp3993
Rp3994
sVforecast
p3995
g3677
(g3681
S'K\x00\x00\x00\x00\x00\x00\x00'
p3996
tp3997
Rp3998
sVincrease
p3999
g3677
(g3681
S'g\x00\x00\x00\x00\x00\x00\x00'
p4000
tp4001
Rp4002
sVre
p4003
g3677
(g3681
S'\xa5\x00\x00\x00\x00\x00\x00\x00'
p4004
tp4005
Rp4006
sVexit
p4007
g3677
(g3681
S'B\x00\x00\x00\x00\x00\x00\x00'
p4008
tp4009
Rp4010
sVabove
p4011
g3677
(g3681
S'\x00\x00\x00\x00\x00\x00\x00\x00'
p4012
tp4013
Rp4014
sVnew
p4015
g3677
(g3681
S'\x82\x00\x00\x00\x00\x00\x00\x00'
p4016
tp4017
Rp4018
sVnet
p4019
g3677
(g3681
S'\x81\x00\x00\x00\x00\x00\x00\x00'
p4020
tp4021
Rp4022
sVgov
p4023
g3677
(g3681
S'Z\x00\x00\x00\x00\x00\x00\x00'
p4024
tp4025
Rp4026
sVissue
p4027
g3677
(g3681
S'm\x00\x00\x00\x00\x00\x00\x00'
p4028
tp4029
Rp4030
sVunpause
p4031
g3677
(g3681
S'\xdb\x00\x00\x00\x00\x00\x00\x00'
p4032
tp4033
Rp4034
sVbe
p4035
g3677
(g3681
S'\x10\x00\x00\x00\x00\x00\x00\x00'
p4036
tp4037
Rp4038
sVshut
p4039
g3677
(g3681
S'\xb6\x00\x00\x00\x00\x00\x00\x00'
p4040
tp4041
Rp4042
sVfriday
p4043
g3677
(g3681
S'N\x00\x00\x00\x00\x00\x00\x00'
p4044
tp4045
Rp4046
sVschedule
p4047
g3677
(g3681
S'\xaf\x00\x00\x00\x00\x00\x00\x00'
p4048
tp4049
Rp4050
sVscreen
p4051
g3677
(g3681
S'\xb0\x00\x00\x00\x00\x00\x00\x00'
p4052
tp4053
Rp4054
sVdictates
p4055
g3677
(g3681
S'3\x00\x00\x00\x00\x00\x00\x00'
p4056
tp4057
Rp4058
sVfree
p4059
g3677
(g3681
S'L\x00\x00\x00\x00\x00\x00\x00'
p4060
tp4061
Rp4062
sVwe
p4063
g3677
(g3681
S'\xe0\x00\x00\x00\x00\x00\x00\x00'
p4064
tp4065
Rp4066
sVillustration
p4067
g3677
(g3681
S'd\x00\x00\x00\x00\x00\x00\x00'
p4068
tp4069
Rp4070
sVactive
p4071
g3677
(g3681
S'\x01\x00\x00\x00\x00\x00\x00\x00'
p4072
tp4073
Rp4074
sVnews
p4075
g3677
(g3681
S'\x83\x00\x00\x00\x00\x00\x00\x00'
p4076
tp4077
Rp4078
sVpost
p4079
g3677
(g3681
S'\x96\x00\x00\x00\x00\x00\x00\x00'
p4080
tp4081
Rp4082
sVdon
p4083
g3677
(g3681
S'8\x00\x00\x00\x00\x00\x00\x00'
p4084
tp4085
Rp4086
sVearlier
p4087
g3677
(g3681
S'<\x00\x00\x00\x00\x00\x00\x00'
p4088
tp4089
Rp4090
sVon
p4091
g3677
(g3681
S'\x8d\x00\x00\x00\x00\x00\x00\x00'
p4092
tp4093
Rp4094
sVsearch
p4095
g3677
(g3681
S'\xb1\x00\x00\x00\x00\x00\x00\x00'
p4096
tp4097
Rp4098
sVlast
p4099
g3677
(g3681
S'p\x00\x00\x00\x00\x00\x00\x00'
p4100
tp4101
Rp4102
sVanything
p4103
g3677
(g3681
S'\x0b\x00\x00\x00\x00\x00\x00\x00'
p4104
tp4105
Rp4106
sVof
p4107
g3677
(g3681
S'\x8a\x00\x00\x00\x00\x00\x00\x00'
p4108
tp4109
Rp4110
sVcould
p4111
g3677
(g3681
S')\x00\x00\x00\x00\x00\x00\x00'
p4112
tp4113
Rp4114
sVquiet
p4115
g3677
(g3681
S'\x9f\x00\x00\x00\x00\x00\x00\x00'
p4116
tp4117
Rp4118
sVturn
p4119
g3677
(g3681
S'\xd9\x00\x00\x00\x00\x00\x00\x00'
p4120
tp4121
Rp4122
sVisn
p4123
g3677
(g3681
S'l\x00\x00\x00\x00\x00\x00\x00'
p4124
tp4125
Rp4126
sVbrowsing
p4127
g3677
(g3681
S'\x18\x00\x00\x00\x00\x00\x00\x00'
p4128
tp4129
Rp4130
sVnoise
p4131
g3677
(g3681
S'\x87\x00\x00\x00\x00\x00\x00\x00'
p4132
tp4133
Rp4134
sVcom
p4135
g3677
(g3681
S'%\x00\x00\x00\x00\x00\x00\x00'
p4136
tp4137
Rp4138
sVthink
p4139
g3677
(g3681
S'\xcb\x00\x00\x00\x00\x00\x00\x00'
p4140
tp4141
Rp4142
sVfeed
p4143
g3677
(g3681
S'G\x00\x00\x00\x00\x00\x00\x00'
p4144
tp4145
Rp4146
sVwhats
p4147
g3677
(g3681
S'\xe5\x00\x00\x00\x00\x00\x00\x00'
p4148
tp4149
Rp4150
sVfeatures
p4151
g3677
(g3681
S'F\x00\x00\x00\x00\x00\x00\x00'
p4152
tp4153
Rp4154
sVsimple
p4155
g3677
(g3681
S'\xb8\x00\x00\x00\x00\x00\x00\x00'
p4156
tp4157
Rp4158
sVsweet
p4159
g3677
(g3681
S'\xc5\x00\x00\x00\x00\x00\x00\x00'
p4160
tp4161
Rp4162
sVtuesday
p4163
g3677
(g3681
S'\xd5\x00\x00\x00\x00\x00\x00\x00'
p4164
tp4165
Rp4166
sVunmute
p4167
g3677
(g3681
S'\xda\x00\x00\x00\x00\x00\x00\x00'
p4168
tp4169
Rp4170
sVyourself
p4171
g3677
(g3681
S'\xee\x00\x00\x00\x00\x00\x00\x00'
p4172
tp4173
Rp4174
sVdown
p4175
g3677
(g3681
S':\x00\x00\x00\x00\x00\x00\x00'
p4176
tp4177
Rp4178
sVput
p4179
g3677
(g3681
S'\x9d\x00\x00\x00\x00\x00\x00\x00'
p4180
tp4181
Rp4182
sVweather
p4183
g3677
(g3681
S'\xe1\x00\x00\x00\x00\x00\x00\x00'
p4184
tp4185
Rp4186
sVdecrease
p4187
g3677
(g3681
S'0\x00\x00\x00\x00\x00\x00\x00'
p4188
tp4189
Rp4190
sVthursday
p4191
g3677
(g3681
S'\xcd\x00\x00\x00\x00\x00\x00\x00'
p4192
tp4193
Rp4194
sVshutdown
p4195
g3677
(g3681
S'\xb7\x00\x00\x00\x00\x00\x00\x00'
p4196
tp4197
Rp4198
sVfake
p4199
g3677
(g3681
S'D\x00\x00\x00\x00\x00\x00\x00'
p4200
tp4201
Rp4202
sVopen
p4203
g3677
(g3681
S'\x8e\x00\x00\x00\x00\x00\x00\x00'
p4204
tp4205
Rp4206
sVtomorrow
p4207
g3677
(g3681
S'\xd2\x00\x00\x00\x00\x00\x00\x00'
p4208
tp4209
Rp4210
sVbeats
p4211
g3677
(g3681
S'\x12\x00\x00\x00\x00\x00\x00\x00'
p4212
tp4213
Rp4214
sVquit
p4215
g3677
(g3681
S'\xa1\x00\x00\x00\x00\x00\x00\x00'
p4216
tp4217
Rp4218
sVtemperature
p4219
g3677
(g3681
S'\xc8\x00\x00\x00\x00\x00\x00\x00'
p4220
tp4221
Rp4222
sVwould
p4223
g3677
(g3681
S'\xea\x00\x00\x00\x00\x00\x00\x00'
p4224
tp4225
Rp4226
sVsake
p4227
g3677
(g3681
S'\xac\x00\x00\x00\x00\x00\x00\x00'
p4228
tp4229
Rp4230
sVdecent
p4231
g3677
(g3681
S'/\x00\x00\x00\x00\x00\x00\x00'
p4232
tp4233
Rp4234
sVcreate
p4235
g3677
(g3681
S'*\x00\x00\x00\x00\x00\x00\x00'
p4236
tp4237
Rp4238
sVthere
p4239
g3677
(g3681
S'\xca\x00\x00\x00\x00\x00\x00\x00'
p4240
tp4241
Rp4242
sVquestion
p4243
g3677
(g3681
S'\x9e\x00\x00\x00\x00\x00\x00\x00'
p4244
tp4245
Rp4246
sVhey
p4247
g3677
(g3681
S'_\x00\x00\x00\x00\x00\x00\x00'
p4248
tp4249
Rp4250
sVnext
p4251
g3677
(g3681
S'\x85\x00\x00\x00\x00\x00\x00\x00'
p4252
tp4253
Rp4254
sVstart
p4255
g3677
(g3681
S'\xc1\x00\x00\x00\x00\x00\x00\x00'
p4256
tp4257
Rp4258
sVlive
p4259
g3677
(g3681
S's\x00\x00\x00\x00\x00\x00\x00'
p4260
tp4261
Rp4262
sVwindow
p4263
g3677
(g3681
S'\xe8\x00\x00\x00\x00\x00\x00\x00'
p4264
tp4265
Rp4266
sVmusic
p4267
g3677
(g3681
S'~\x00\x00\x00\x00\x00\x00\x00'
p4268
tp4269
Rp4270
sVtell
p4271
g3677
(g3681
S'\xc7\x00\x00\x00\x00\x00\x00\x00'
p4272
tp4273
Rp4274
sVtoday
p4275
g3677
(g3681
S'\xd0\x00\x00\x00\x00\x00\x00\x00'
p4276
tp4277
Rp4278
sVpretends
p4279
g3677
(g3681
S'\x98\x00\x00\x00\x00\x00\x00\x00'
p4280
tp4281
Rp4282
sValmost
p4283
g3677
(g3681
S'\x06\x00\x00\x00\x00\x00\x00\x00'
p4284
tp4285
Rp4286
sVsound
p4287
g3677
(g3681
S'\xbe\x00\x00\x00\x00\x00\x00\x00'
p4288
tp4289
Rp4290
sVreleasing
p4291
g3677
(g3681
S'\xa7\x00\x00\x00\x00\x00\x00\x00'
p4292
tp4293
Rp4294
sVcommands
p4295
g3677
(g3681
S'&\x00\x00\x00\x00\x00\x00\x00'
p4296
tp4297
Rp4298
sVit
p4299
g3677
(g3681
S'n\x00\x00\x00\x00\x00\x00\x00'
p4300
tp4301
Rp4302
sVvolume
p4303
g3677
(g3681
S'\xde\x00\x00\x00\x00\x00\x00\x00'
p4304
tp4305
Rp4306
sVtrain
p4307
g3677
(g3681
S'\xd3\x00\x00\x00\x00\x00\x00\x00'
p4308
tp4309
Rp4310
sVstick
p4311
g3677
(g3681
S'\xc2\x00\x00\x00\x00\x00\x00\x00'
p4312
tp4313
Rp4314
sVbeat
p4315
g3677
(g3681
S'\x11\x00\x00\x00\x00\x00\x00\x00'
p4316
tp4317
Rp4318
sVfoggy
p4319
g3677
(g3681
S'I\x00\x00\x00\x00\x00\x00\x00'
p4320
tp4321
Rp4322
sVgoogle
p4323
g3677
(g3681
S'X\x00\x00\x00\x00\x00\x00\x00'
p4324
tp4325
Rp4326
sVme
p4327
g3677
(g3681
S'z\x00\x00\x00\x00\x00\x00\x00'
p4328
tp4329
Rp4330
sVahead
p4331
g3677
(g3681
S'\x03\x00\x00\x00\x00\x00\x00\x00'
p4332
tp4333
Rp4334
sVthis
p4335
g3677
(g3681
S'\xcc\x00\x00\x00\x00\x00\x00\x00'
p4336
tp4337
Rp4338
sVup
p4339
g3677
(g3681
S'\xdc\x00\x00\x00\x00\x00\x00\x00'
p4340
tp4341
Rp4342
sVresume
p4343
g3677
(g3681
S'\xa9\x00\x00\x00\x00\x00\x00\x00'
p4344
tp4345
Rp4346
sVdogs
p4347
g3677
(g3681
S'7\x00\x00\x00\x00\x00\x00\x00'
p4348
tp4349
Rp4350
sVwill
p4351
g3677
(g3681
S'\xe7\x00\x00\x00\x00\x00\x00\x00'
p4352
tp4353
Rp4354
sVlouder
p4355
g3677
(g3681
S'u\x00\x00\x00\x00\x00\x00\x00'
p4356
tp4357
Rp4358
sVcan
p4359
g3677
(g3681
S'\x1c\x00\x00\x00\x00\x00\x00\x00'
p4360
tp4361
Rp4362
sVbriefing
p4363
g3677
(g3681
S'\x16\x00\x00\x00\x00\x00\x00\x00'
p4364
tp4365
Rp4366
sVproblem
p4367
g3677
(g3681
S'\x9a\x00\x00\x00\x00\x00\x00\x00'
p4368
tp4369
Rp4370
sVoutcome
p4371
g3677
(g3681
S'\x91\x00\x00\x00\x00\x00\x00\x00'
p4372
tp4373
Rp4374
sVmy
p4375
g3677
(g3681
S'\x80\x00\x00\x00\x00\x00\x00\x00'
p4376
tp4377
Rp4378
sVdee
p4379
g3677
(g3681
S'1\x00\x00\x00\x00\x00\x00\x00'
p4380
tp4381
Rp4382
sVfeature
p4383
g3677
(g3681
S'E\x00\x00\x00\x00\x00\x00\x00'
p4384
tp4385
Rp4386
sVbrowser
p4387
g3677
(g3681
S'\x17\x00\x00\x00\x00\x00\x00\x00'
p4388
tp4389
Rp4390
sVsaturday
p4391
g3677
(g3681
S'\xae\x00\x00\x00\x00\x00\x00\x00'
p4392
tp4393
Rp4394
sVprogram
p4395
g3677
(g3681
S'\x9c\x00\x00\x00\x00\x00\x00\x00'
p4396
tp4397
Rp4398
sVstop
p4399
g3677
(g3681
S'\xc3\x00\x00\x00\x00\x00\x00\x00'
p4400
tp4401
Rp4402
sVcell
p4403
g3677
(g3681
S'\x1e\x00\x00\x00\x00\x00\x00\x00'
p4404
tp4405
Rp4406
sVgive
p4407
g3677
(g3681
S'S\x00\x00\x00\x00\x00\x00\x00'
p4408
tp4409
Rp4410
sVpredict
p4411
g3677
(g3681
S'\x97\x00\x00\x00\x00\x00\x00\x00'
p4412
tp4413
Rp4414
sVlock
p4415
g3677
(g3681
S't\x00\x00\x00\x00\x00\x00\x00'
p4416
tp4417
Rp4418
sVis
p4419
g3677
(g3681
S'k\x00\x00\x00\x00\x00\x00\x00'
p4420
tp4421
Rp4422
sVin
p4423
g3677
(g3681
S'e\x00\x00\x00\x00\x00\x00\x00'
p4424
tp4425
Rp4426
sVam
p4427
g3677
(g3681
S'\x07\x00\x00\x00\x00\x00\x00\x00'
p4428
tp4429
Rp4430
sVfuck
p4431
g3677
(g3681
S'O\x00\x00\x00\x00\x00\x00\x00'
p4432
tp4433
Rp4434
sVan
p4435
g3677
(g3681
S'\x08\x00\x00\x00\x00\x00\x00\x00'
p4436
tp4437
Rp4438
sVdefault
p4439
g3677
(g3681
S'2\x00\x00\x00\x00\x00\x00\x00'
p4440
tp4441
Rp4442
sVright
p4443
g3677
(g3681
S'\xab\x00\x00\x00\x00\x00\x00\x00'
p4444
tp4445
Rp4446
sVhave
p4447
g3677
(g3681
S']\x00\x00\x00\x00\x00\x00\x00'
p4448
tp4449
Rp4450
sVstalls
p4451
g3677
(g3681
S'\xc0\x00\x00\x00\x00\x00\x00\x00'
p4452
tp4453
Rp4454
sVcheck
p4455
g3677
(g3681
S'\x1f\x00\x00\x00\x00\x00\x00\x00'
p4456
tp4457
Rp4458
sVif
p4459
g3677
(g3681
S'c\x00\x00\x00\x00\x00\x00\x00'
p4460
tp4461
Rp4462
sVinformation
p4463
g3677
(g3681
S'h\x00\x00\x00\x00\x00\x00\x00'
p4464
tp4465
Rp4466
sVrainy
p4467
g3677
(g3681
S'\xa4\x00\x00\x00\x00\x00\x00\x00'
p4468
tp4469
Rp4470
sVzero
p4471
g3677
(g3681
S'\xef\x00\x00\x00\x00\x00\x00\x00'
p4472
tp4473
Rp4474
sVmake
p4475
g3677
(g3681
S'x\x00\x00\x00\x00\x00\x00\x00'
p4476
tp4477
Rp4478
sVsong
p4479
g3677
(g3681
S'\xbd\x00\x00\x00\x00\x00\x00\x00'
p4480
tp4481
Rp4482
sVwhen
p4483
g3677
(g3681
S'\xe6\x00\x00\x00\x00\x00\x00\x00'
p4484
tp4485
Rp4486
sVsnow
p4487
g3677
(g3681
S'\xba\x00\x00\x00\x00\x00\x00\x00'
p4488
tp4489
Rp4490
sVsame
p4491
g3677
(g3681
S'\xad\x00\x00\x00\x00\x00\x00\x00'
p4492
tp4493
Rp4494
sVevent
p4495
g3677
(g3681
S'@\x00\x00\x00\x00\x00\x00\x00'
p4496
tp4497
Rp4498
sVbeside
p4499
g3677
(g3681
S'\x14\x00\x00\x00\x00\x00\x00\x00'
p4500
tp4501
Rp4502
sVhow
p4503
g3677
(g3681
S'b\x00\x00\x00\x00\x00\x00\x00'
p4504
tp4505
Rp4506
sVhot
p4507
g3677
(g3681
S'a\x00\x00\x00\x00\x00\x00\x00'
p4508
tp4509
Rp4510
sVspotify
p4511
g3677
(g3681
S'\xbf\x00\x00\x00\x00\x00\x00\x00'
p4512
tp4513
Rp4514
sVanswer
p4515
g3677
(g3681
S'\t\x00\x00\x00\x00\x00\x00\x00'
p4516
tp4517
Rp4518
sVyou
p4519
g3677
(g3681
S'\xec\x00\x00\x00\x00\x00\x00\x00'
p4520
tp4521
Rp4522
sVdocument
p4523
g3677
(g3681
S'6\x00\x00\x00\x00\x00\x00\x00'
p4524
tp4525
Rp4526
sVevents
p4527
g3677
(g3681
S'A\x00\x00\x00\x00\x00\x00\x00'
p4528
tp4529
Rp4530
sVhigher
p4531
g3677
(g3681
S'`\x00\x00\x00\x00\x00\x00\x00'
p4532
tp4533
Rp4534
sVweek
p4535
g3677
(g3681
S'\xe3\x00\x00\x00\x00\x00\x00\x00'
p4536
tp4537
Rp4538
sVplay
p4539
g3677
(g3681
S'\x93\x00\x00\x00\x00\x00\x00\x00'
p4540
tp4541
Rp4542
sVokay
p4543
g3677
(g3681
S'\x8c\x00\x00\x00\x00\x00\x00\x00'
p4544
tp4545
Rp4546
sVmonday
p4547
g3677
(g3681
S'|\x00\x00\x00\x00\x00\x00\x00'
p4548
tp4549
Rp4550
sVany
p4551
g3677
(g3681
S'\n\x00\x00\x00\x00\x00\x00\x00'
p4552
tp4553
Rp4554
sVfreezing
p4555
g3677
(g3681
S'M\x00\x00\x00\x00\x00\x00\x00'
p4556
tp4557
Rp4558
sVorg
p4559
g3677
(g3681
S'\x8f\x00\x00\x00\x00\x00\x00\x00'
p4560
tp4561
Rp4562
sVbackbone
p4563
g3677
(g3681
S'\x0f\x00\x00\x00\x00\x00\x00\x00'
p4564
tp4565
Rp4566
sVproblems
p4567
g3677
(g3681
S'\x9b\x00\x00\x00\x00\x00\x00\x00'
p4568
tp4569
Rp4570
sVquieter
p4571
g3677
(g3681
S'\xa0\x00\x00\x00\x00\x00\x00\x00'
p4572
tp4573
Rp4574
sVrain
p4575
g3677
(g3681
S'\xa2\x00\x00\x00\x00\x00\x00\x00'
p4576
tp4577
Rp4578
sVbyebye
p4579
g3677
(g3681
S'\x1a\x00\x00\x00\x00\x00\x00\x00'
p4580
tp4581
Rp4582
sVprevious
p4583
g3677
(g3681
S'\x99\x00\x00\x00\x00\x00\x00\x00'
p4584
tp4585
Rp4586
sVtune
p4587
g3677
(g3681
S'\xd6\x00\x00\x00\x00\x00\x00\x00'
p4588
tp4589
Rp4590
sVyour
p4591
g3677
(g3681
S'\xed\x00\x00\x00\x00\x00\x00\x00'
p4592
tp4593
Rp4594
sVgrief
p4595
g3677
(g3681
S'[\x00\x00\x00\x00\x00\x00\x00'
p4596
tp4597
Rp4598
sVlower
p4599
g3677
(g3681
S'v\x00\x00\x00\x00\x00\x00\x00'
p4600
tp4601
Rp4602
sVoff
p4603
g3677
(g3681
S'\x8b\x00\x00\x00\x00\x00\x00\x00'
p4604
tp4605
Rp4606
sVread
p4607
g3677
(g3681
S'\xa6\x00\x00\x00\x00\x00\x00\x00'
p4608
tp4609
Rp4610
sVgather
p4611
g3677
(g3681
S'P\x00\x00\x00\x00\x00\x00\x00'
p4612
tp4613
Rp4614
sVtale
p4615
g3677
(g3681
S'\xc6\x00\x00\x00\x00\x00\x00\x00'
p4616
tp4617
Rp4618
sVtime
p4619
g3677
(g3681
S'\xce\x00\x00\x00\x00\x00\x00\x00'
p4620
tp4621
Rp4622
sVnewsfeed
p4623
g3677
(g3681
S'\x84\x00\x00\x00\x00\x00\x00\x00'
p4624
tp4625
Rp4626
sVthe
p4627
g3677
(g3681
S'\xc9\x00\x00\x00\x00\x00\x00\x00'
p4628
tp4629
Rp4630
sVplaying
p4631
g3677
(g3681
S'\x94\x00\x00\x00\x00\x00\x00\x00'
p4632
tp4633
Rp4634
sVdot
p4635
g3677
(g3681
S'9\x00\x00\x00\x00\x00\x00\x00'
p4636
tp4637
Rp4638
sVlatest
p4639
g3677
(g3681
S'q\x00\x00\x00\x00\x00\x00\x00'
p4640
tp4641
Rp4642
ssS'binary'
p4643
I00
sS'ngram_range'
p4644
(I1
I1
tp4645
sg3651
g3652
sS'max_df'
p4646
F1.0
sS'min_df'
p4647
I1
sS'max_features'
p4648
NsS'fixed_vocabulary_'
p4649
I00
sS'strip_accents'
p4650
NsS'dtype'
p4651
cnumpy
int64
p4652
sS'stop_words_'
p4653
c__builtin__
set
p4654
((lp4655
tp4656
Rp4657
sS'preprocessor'
p4658
Nsbtp4659
a(S'tfidf'
p4660
g3645
(csklearn.feature_extraction.text
TfidfTransformer
p4661
g3647
Ntp4662
Rp4663
(dp4664
S'smooth_idf'
p4665
I01
sg3651
g3652
sS'_idf_diag'
p4666
g3645
(cscipy.sparse.csr
csr_matrix
p4667
g3647
Ntp4668
Rp4669
(dp4670
S'indices'
p4671
cnumpy.core.multiarray
_reconstruct
p4672
(cnumpy
ndarray
p4673
(I0
tp4674
S'b'
p4675
tp4676
Rp4677
(I1
(I240
tp4678
g3678
(S'i4'
p4679
I0
I1
tp4680
Rp4681
(I3
S'<'
p4682
NNNI-1
I-1
I0
tp4683
bI00
S'\x00\x00\x00\x00\x01\x00\x00\x00\x02\x00\x00\x00\x03\x00\x00\x00\x04\x00\x00\x00\x05\x00\x00\x00\x06\x00\x00\x00\x07\x00\x00\x00\x08\x00\x00\x00\t\x00\x00\x00\n\x00\x00\x00\x0b\x00\x00\x00\x0c\x00\x00\x00\r\x00\x00\x00\x0e\x00\x00\x00\x0f\x00\x00\x00\x10\x00\x00\x00\x11\x00\x00\x00\x12\x00\x00\x00\x13\x00\x00\x00\x14\x00\x00\x00\x15\x00\x00\x00\x16\x00\x00\x00\x17\x00\x00\x00\x18\x00\x00\x00\x19\x00\x00\x00\x1a\x00\x00\x00\x1b\x00\x00\x00\x1c\x00\x00\x00\x1d\x00\x00\x00\x1e\x00\x00\x00\x1f\x00\x00\x00 \x00\x00\x00!\x00\x00\x00"\x00\x00\x00#\x00\x00\x00$\x00\x00\x00%\x00\x00\x00&\x00\x00\x00\'\x00\x00\x00(\x00\x00\x00)\x00\x00\x00*\x00\x00\x00+\x00\x00\x00,\x00\x00\x00-\x00\x00\x00.\x00\x00\x00/\x00\x00\x000\x00\x00\x001\x00\x00\x002\x00\x00\x003\x00\x00\x004\x00\x00\x005\x00\x00\x006\x00\x00\x007\x00\x00\x008\x00\x00\x009\x00\x00\x00:\x00\x00\x00;\x00\x00\x00<\x00\x00\x00=\x00\x00\x00>\x00\x00\x00?\x00\x00\x00@\x00\x00\x00A\x00\x00\x00B\x00\x00\x00C\x00\x00\x00D\x00\x00\x00E\x00\x00\x00F\x00\x00\x00G\x00\x00\x00H\x00\x00\x00I\x00\x00\x00J\x00\x00\x00K\x00\x00\x00L\x00\x00\x00M\x00\x00\x00N\x00\x00\x00O\x00\x00\x00P\x00\x00\x00Q\x00\x00\x00R\x00\x00\x00S\x00\x00\x00T\x00\x00\x00U\x00\x00\x00V\x00\x00\x00W\x00\x00\x00X\x00\x00\x00Y\x00\x00\x00Z\x00\x00\x00[\x00\x00\x00\\\x00\x00\x00]\x00\x00\x00^\x00\x00\x00_\x00\x00\x00`\x00\x00\x00a\x00\x00\x00b\x00\x00\x00c\x00\x00\x00d\x00\x00\x00e\x00\x00\x00f\x00\x00\x00g\x00\x00\x00h\x00\x00\x00i\x00\x00\x00j\x00\x00\x00k\x00\x00\x00l\x00\x00\x00m\x00\x00\x00n\x00\x00\x00o\x00\x00\x00p\x00\x00\x00q\x00\x00\x00r\x00\x00\x00s\x00\x00\x00t\x00\x00\x00u\x00\x00\x00v\x00\x00\x00w\x00\x00\x00x\x00\x00\x00y\x00\x00\x00z\x00\x00\x00{\x00\x00\x00|\x00\x00\x00}\x00\x00\x00~\x00\x00\x00\x7f\x00\x00\x00\x80\x00\x00\x00\x81\x00\x00\x00\x82\x00\x00\x00\x83\x00\x00\x00\x84\x00\x00\x00\x85\x00\x00\x00\x86\x00\x00\x00\x87\x00\x00\x00\x88\x00\x00\x00\x89\x00\x00\x00\x8a\x00\x00\x00\x8b\x00\x00\x00\x8c\x00\x00\x00\x8d\x00\x00\x00\x8e\x00\x00\x00\x8f\x00\x00\x00\x90\x00\x00\x00\x91\x00\x00\x00\x92\x00\x00\x00\x93\x00\x00\x00\x94\x00\x00\x00\x95\x00\x00\x00\x96\x00\x00\x00\x97\x00\x00\x00\x98\x00\x00\x00\x99\x00\x00\x00\x9a\x00\x00\x00\x9b\x00\x00\x00\x9c\x00\x00\x00\x9d\x00\x00\x00\x9e\x00\x00\x00\x9f\x00\x00\x00\xa0\x00\x00\x00\xa1\x00\x00\x00\xa2\x00\x00\x00\xa3\x00\x00\x00\xa4\x00\x00\x00\xa5\x00\x00\x00\xa6\x00\x00\x00\xa7\x00\x00\x00\xa8\x00\x00\x00\xa9\x00\x00\x00\xaa\x00\x00\x00\xab\x00\x00\x00\xac\x00\x00\x00\xad\x00\x00\x00\xae\x00\x00\x00\xaf\x00\x00\x00\xb0\x00\x00\x00\xb1\x00\x00\x00\xb2\x00\x00\x00\xb3\x00\x00\x00\xb4\x00\x00\x00\xb5\x00\x00\x00\xb6\x00\x00\x00\xb7\x00\x00\x00\xb8\x00\x00\x00\xb9\x00\x00\x00\xba\x00\x00\x00\xbb\x00\x00\x00\xbc\x00\x00\x00\xbd\x00\x00\x00\xbe\x00\x00\x00\xbf\x00\x00\x00\xc0\x00\x00\x00\xc1\x00\x00\x00\xc2\x00\x00\x00\xc3\x00\x00\x00\xc4\x00\x00\x00\xc5\x00\x00\x00\xc6\x00\x00\x00\xc7\x00\x00\x00\xc8\x00\x00\x00\xc9\x00\x00\x00\xca\x00\x00\x00\xcb\x00\x00\x00\xcc\x00\x00\x00\xcd\x00\x00\x00\xce\x00\x00\x00\xcf\x00\x00\x00\xd0\x00\x00\x00\xd1\x00\x00\x00\xd2\x00\x00\x00\xd3\x00\x00\x00\xd4\x00\x00\x00\xd5\x00\x00\x00\xd6\x00\x00\x00\xd7\x00\x00\x00\xd8\x00\x00\x00\xd9\x00\x00\x00\xda\x00\x00\x00\xdb\x00\x00\x00\xdc\x00\x00\x00\xdd\x00\x00\x00\xde\x00\x00\x00\xdf\x00\x00\x00\xe0\x00\x00\x00\xe1\x00\x00\x00\xe2\x00\x00\x00\xe3\x00\x00\x00\xe4\x00\x00\x00\xe5\x00\x00\x00\xe6\x00\x00\x00\xe7\x00\x00\x00\xe8\x00\x00\x00\xe9\x00\x00\x00\xea\x00\x00\x00\xeb\x00\x00\x00\xec\x00\x00\x00\xed\x00\x00\x00\xee\x00\x00\x00\xef\x00\x00\x00'
p4684
tp4685
bsS'indptr'
p4686
g4672
(g4673
(I0
tp4687
g4675
tp4688
Rp4689
(I1
(I241
tp4690
g4681
I00
S'\x00\x00\x00\x00\x01\x00\x00\x00\x02\x00\x00\x00\x03\x00\x00\x00\x04\x00\x00\x00\x05\x00\x00\x00\x06\x00\x00\x00\x07\x00\x00\x00\x08\x00\x00\x00\t\x00\x00\x00\n\x00\x00\x00\x0b\x00\x00\x00\x0c\x00\x00\x00\r\x00\x00\x00\x0e\x00\x00\x00\x0f\x00\x00\x00\x10\x00\x00\x00\x11\x00\x00\x00\x12\x00\x00\x00\x13\x00\x00\x00\x14\x00\x00\x00\x15\x00\x00\x00\x16\x00\x00\x00\x17\x00\x00\x00\x18\x00\x00\x00\x19\x00\x00\x00\x1a\x00\x00\x00\x1b\x00\x00\x00\x1c\x00\x00\x00\x1d\x00\x00\x00\x1e\x00\x00\x00\x1f\x00\x00\x00 \x00\x00\x00!\x00\x00\x00"\x00\x00\x00#\x00\x00\x00$\x00\x00\x00%\x00\x00\x00&\x00\x00\x00\'\x00\x00\x00(\x00\x00\x00)\x00\x00\x00*\x00\x00\x00+\x00\x00\x00,\x00\x00\x00-\x00\x00\x00.\x00\x00\x00/\x00\x00\x000\x00\x00\x001\x00\x00\x002\x00\x00\x003\x00\x00\x004\x00\x00\x005\x00\x00\x006\x00\x00\x007\x00\x00\x008\x00\x00\x009\x00\x00\x00:\x00\x00\x00;\x00\x00\x00<\x00\x00\x00=\x00\x00\x00>\x00\x00\x00?\x00\x00\x00@\x00\x00\x00A\x00\x00\x00B\x00\x00\x00C\x00\x00\x00D\x00\x00\x00E\x00\x00\x00F\x00\x00\x00G\x00\x00\x00H\x00\x00\x00I\x00\x00\x00J\x00\x00\x00K\x00\x00\x00L\x00\x00\x00M\x00\x00\x00N\x00\x00\x00O\x00\x00\x00P\x00\x00\x00Q\x00\x00\x00R\x00\x00\x00S\x00\x00\x00T\x00\x00\x00U\x00\x00\x00V\x00\x00\x00W\x00\x00\x00X\x00\x00\x00Y\x00\x00\x00Z\x00\x00\x00[\x00\x00\x00\\\x00\x00\x00]\x00\x00\x00^\x00\x00\x00_\x00\x00\x00`\x00\x00\x00a\x00\x00\x00b\x00\x00\x00c\x00\x00\x00d\x00\x00\x00e\x00\x00\x00f\x00\x00\x00g\x00\x00\x00h\x00\x00\x00i\x00\x00\x00j\x00\x00\x00k\x00\x00\x00l\x00\x00\x00m\x00\x00\x00n\x00\x00\x00o\x00\x00\x00p\x00\x00\x00q\x00\x00\x00r\x00\x00\x00s\x00\x00\x00t\x00\x00\x00u\x00\x00\x00v\x00\x00\x00w\x00\x00\x00x\x00\x00\x00y\x00\x00\x00z\x00\x00\x00{\x00\x00\x00|\x00\x00\x00}\x00\x00\x00~\x00\x00\x00\x7f\x00\x00\x00\x80\x00\x00\x00\x81\x00\x00\x00\x82\x00\x00\x00\x83\x00\x00\x00\x84\x00\x00\x00\x85\x00\x00\x00\x86\x00\x00\x00\x87\x00\x00\x00\x88\x00\x00\x00\x89\x00\x00\x00\x8a\x00\x00\x00\x8b\x00\x00\x00\x8c\x00\x00\x00\x8d\x00\x00\x00\x8e\x00\x00\x00\x8f\x00\x00\x00\x90\x00\x00\x00\x91\x00\x00\x00\x92\x00\x00\x00\x93\x00\x00\x00\x94\x00\x00\x00\x95\x00\x00\x00\x96\x00\x00\x00\x97\x00\x00\x00\x98\x00\x00\x00\x99\x00\x00\x00\x9a\x00\x00\x00\x9b\x00\x00\x00\x9c\x00\x00\x00\x9d\x00\x00\x00\x9e\x00\x00\x00\x9f\x00\x00\x00\xa0\x00\x00\x00\xa1\x00\x00\x00\xa2\x00\x00\x00\xa3\x00\x00\x00\xa4\x00\x00\x00\xa5\x00\x00\x00\xa6\x00\x00\x00\xa7\x00\x00\x00\xa8\x00\x00\x00\xa9\x00\x00\x00\xaa\x00\x00\x00\xab\x00\x00\x00\xac\x00\x00\x00\xad\x00\x00\x00\xae\x00\x00\x00\xaf\x00\x00\x00\xb0\x00\x00\x00\xb1\x00\x00\x00\xb2\x00\x00\x00\xb3\x00\x00\x00\xb4\x00\x00\x00\xb5\x00\x00\x00\xb6\x00\x00\x00\xb7\x00\x00\x00\xb8\x00\x00\x00\xb9\x00\x00\x00\xba\x00\x00\x00\xbb\x00\x00\x00\xbc\x00\x00\x00\xbd\x00\x00\x00\xbe\x00\x00\x00\xbf\x00\x00\x00\xc0\x00\x00\x00\xc1\x00\x00\x00\xc2\x00\x00\x00\xc3\x00\x00\x00\xc4\x00\x00\x00\xc5\x00\x00\x00\xc6\x00\x00\x00\xc7\x00\x00\x00\xc8\x00\x00\x00\xc9\x00\x00\x00\xca\x00\x00\x00\xcb\x00\x00\x00\xcc\x00\x00\x00\xcd\x00\x00\x00\xce\x00\x00\x00\xcf\x00\x00\x00\xd0\x00\x00\x00\xd1\x00\x00\x00\xd2\x00\x00\x00\xd3\x00\x00\x00\xd4\x00\x00\x00\xd5\x00\x00\x00\xd6\x00\x00\x00\xd7\x00\x00\x00\xd8\x00\x00\x00\xd9\x00\x00\x00\xda\x00\x00\x00\xdb\x00\x00\x00\xdc\x00\x00\x00\xdd\x00\x00\x00\xde\x00\x00\x00\xdf\x00\x00\x00\xe0\x00\x00\x00\xe1\x00\x00\x00\xe2\x00\x00\x00\xe3\x00\x00\x00\xe4\x00\x00\x00\xe5\x00\x00\x00\xe6\x00\x00\x00\xe7\x00\x00\x00\xe8\x00\x00\x00\xe9\x00\x00\x00\xea\x00\x00\x00\xeb\x00\x00\x00\xec\x00\x00\x00\xed\x00\x00\x00\xee\x00\x00\x00\xef\x00\x00\x00\xf0\x00\x00\x00'
p4691
tp4692
bsS'maxprint'
p4693
I50
sS'_shape'
p4694
(I240
I240
tp4695
sg12
g4672
(g4673
(I0
tp4696
g4675
tp4697
Rp4698
(I1
(I240
tp4699
g3678
(S'f8'
p4700
I0
I1
tp4701
Rp4702
(I3
S'<'
p4703
NNNI-1
I-1
I0
tp4704
bI00
S'\x1d\x94Ft&>\x1f@L7\x7f\xb7\xe3.\x17@|w\x08]Z\x92\x13@\xc5D\x99(R;\x1a@\xdfLg\x14^x\x1c@\xb5?f\xf8|l\x18@\x1d\x94Ft&>\x1f@\xaeE\xdd\xaf\x87G\x14@\x87:Dq\x0bw\x13@\x1d\x94Ft&>\x1f@\x17[\xad\xd6\xbc|\x10@\xe9\x8bF\xc0\xc2\xa1\x0b@:\xb1\xa78\xec\xe0\x12@d\xbe\xa8T\xcd\xec\x16@\xc5D\x99(R;\x1a@\x1d\x94Ft&>\x1f@\x99\x9az5\xf4\x9e\x1d@\xd00K\xf6\x15\xce\x18@\x1d\x94Ft&>\x1f@\x99\x9az5\xf4\x9e\x1d@\x99\x9az5\xf4\x9e\x1d@\x1d\x94Ft&>\x1f@\x1d\x94Ft&>\x1f@L\xdc>n\xd2\x8b\x14@\xdfLg\x14^x\x1c@[S\x9b\xd5+\xd9\x1a@\x1d\x94Ft&>\x1f@\x00(\xcd\x92\xe9\xa5\x0e@\x14\x9e\xe8Q\xd5\xfd\n@\x1d\x94Ft&>\x1f@\x1d\x94Ft&>\x1f@@\xeb\xe5n\x1f\xba\x06@\x1d\x94Ft&>\x1f@.\xca\xfd\xe2S2\x11@w\xf8\x86\x98\xb4\xa6\x15@\xd6Y\xcf\x96\xf99\x19@\xd6Y\xcf\x96\xf99\x19@\x0ex*V\xde\x93\x1b@\x1d\x94Ft&>\x1f@\x0co\xfb\x08\xf9\xe9\x11@\x1d\x94Ft&>\x1f@K\xaf\xf4\xb8 \x04\x10@|w\x08]Z\x92\x13@\xc7\x1e\x81\x96\xdbn\x0f@\x99\x9az5\xf4\x9e\x1d@`TI\x93\xf0\xe8\x13@\x1d\x94Ft&>\x1f@\x1d\x94Ft&>\x1f@\x99\x9az5\xf4\x9e\x1d@\x99\x9az5\xf4\x9e\x1d@\xb5?f\xf8|l\x18@\x1d\x94Ft&>\x1f@\x1d\x94Ft&>\x1f@n\xd4\xa8\xf4\xe9\xdb\x07@\x1d\x94Ft&>\x1f@\x1d\x94Ft&>\x1f@\x92\xa0\x1d0\x10\x8e\x0c@L7\x7f\xb7\xe3.\x17@|w\x08]Z\x92\x13@\x99\x9az5\xf4\x9e\x1d@\x1d\x94Ft&>\x1f@\x99\x9az5\xf4\x9e\x1d@\x99\x9az5\xf4\x9e\x1d@\x1d\x94Ft&>\x1f@\xfe\xf1\x86\xe0\x837\x0c@L7\x7f\xb7\xe3.\x0b@\x0ex*V\xde\x93\x1b@\x1d\x94Ft&>\x1f@\x1d\x94Ft&>\x1f@\x1d\x94Ft&>\x1f@\x1d\x94Ft&>\x1f@\x03\x04\xee\x89W\xd6\x15@3\x15\x8d\xbel\xc1\x17@\xd6Y\xcf\x96\xf99\x19@/\x15\xcbp\xdc\x92\x0e@\x03\x04\xee\x89W\xd6\x15@\xaeE\xdd\xaf\x87G\x14@\xd6Y\xcf\x96\xf99\x19@\x0e\xf0\x9fW\x1bi\x14@\x1d\x94Ft&>\x1f@\xdfLg\x14^x\x1c@I\xd5\xfe\xf4\x80\xdd\r@\x1d\x94Ft&>\x1f@\xd00K\xf6\x15\xce\x18@tm\xba|\xbfZ\x0e@\xc1\x14/\xd8\xcd#\x15@\x0ex*V\xde\x93\x1b@\xdfLg\x14^x\x1c@\xb7\x86\xce\xfe\xdb5\x12@\x1d\x94Ft&>\x1f@\x99\x9az5\xf4\x9e\x1d@\x1d\x94Ft&>\x1f@\x99\x9az5\xf4\x9e\x1d@\xd9\xb3U\x9a\x88\x90\t@\x98\x12\xf061t\x16@\x99\x9az5\xf4\x9e\x1d@\xa2\x05\x88\xb4\x95\xb2\x19@\xd6Y\xcf\x96\xf99\x19@3\x15\x8d\xbel\xc1\x17@\xdcZ}T\xbeI\x12@\x1d\x94Ft&>\x1f@\xc3\xc4\xc3c\xee\xae\x0b@\x15\x1e<i\xae2\x10@\x1d\x94Ft&>\x1f@\x0ex*V\xde\x93\x1b@\xdfLg\x14^x\x1c@\x1d\x94Ft&>\x1f@U\xc5-\xd5\xab\x87\x0b@\x0ex*V\xde\x93\x1b@\x1d\x94Ft&>\x1f@tm\xba|\xbfZ\x0e@\xf5\xcd\xad^\xa4\xfb\x14@3\x15\x8d\xbel\xc1\x17@[S\x9b\xd5+\xd9\x1a@\x1d\x94Ft&>\x1f@\xaeE\xdd\xaf\x87G\x14@\xf5\xcd\xad^\xa4\xfb\x14@[S\x9b\xd5+\xd9\x1a@\xc5D\x99(R;\x1a@\x9bO8RaH\x0e@\x00c]\xbca\x9d\x12@\x1d\x94Ft&>\x1f@\x06\xbd\x14\xa0Z"\x12@\x1d\x94Ft&>\x1f@\x0e\xf0\x9fW\x1bi\x14@\x0e\xf0\x9fW\x1bi\x14@\x99\x9az5\xf4\x9e\x1d@\x0ex*V\xde\x93\x1b@v\xf0\x1f~\x96T\t@\x99\x9az5\xf4\x9e\x1d@\xae\xad\xb9\x12\xcc\xd9\n@u\xab\x03\xa1\x80\xda\x10@\x93\xe9k\x96M\x08\x16@|w\x08]Z\x92\x13@\x99\x9az5\xf4\x9e\x1d@\x1d\x94Ft&>\x1f@\xb5\xb7\xdb\xf9\xb9A\x11@\x9e\x9b(\xf3\xb8\xae\x16@\x99\x9az5\xf4\x9e\x1d@\x87:Dq\x0bw\x13@\x99\x9az5\xf4\x9e\x1d@\x86C\xd5z\x02\x82\x06@`|\x1fv\x0fE\x0f@\x99\x9az5\xf4\x9e\x1d@\x1d\x94Ft&>\x1f@\x1d\x94Ft&>\x1f@\x9e\x9b(\xf3\xb8\xae\x16@\x87\xfd\xb9\xc8\x89u\x17@\x99\x9az5\xf4\x9e\x1d@z,>\xfd-:\x00@\x99\x9az5\xf4\x9e\x1d@\x99\x9az5\xf4\x9e\x1d@\x1d\x94Ft&>\x1f@\xc5D\x99(R;\x1a@\x1d\x94Ft&>\x1f@\x1d\x94Ft&>\x1f@\x0ex*V\xde\x93\x1b@\x0ex*V\xde\x93\x1b@\x1d\x94Ft&>\x1f@\x99\x9az5\xf4\x9e\x1d@\x1d\x94Ft&>\x1f@\x99\x9az5\xf4\x9e\x1d@\x99\x9az5\xf4\x9e\x1d@\xd6Y\xcf\x96\xf99\x19@\xd6Y\xcf\x96\xf99\x19@\xb5?f\xf8|l\x18@&\xba]ug\xb3\x12@\x1d\x94Ft&>\x1f@\x1d\x94Ft&>\x1f@\x99\x9az5\xf4\x9e\x1d@J\xb6\xdah\xc1\xaf\x14@3\x15\x8d\xbel\xc1\x17@\x1d\x94Ft&>\x1f@\x1d\x94Ft&>\x1f@\x0e\xf0\x9fW\x1bi\x14@|w\x08]Z\x92\x13@L7\x7f\xb7\xe3.\x17@w\xf8\x86\x98\xb4\xa6\x15@\xdfLg\x14^x\x1c@[S\x9b\xd5+\xd9\x1a@\xdfLg\x14^x\x1c@\x1d\x94Ft&>\x1f@|w\x08]Z\x92\x13@\x9e\x9b(\xf3\xb8\xae\x16@\x1d\x94Ft&>\x1f@[S\x9b\xd5+\xd9\x1a@\x99\x9az5\xf4\x9e\x1d@\xd6Y\xcf\x96\xf99\x19@\x99\x9az5\xf4\x9e\x1d@p\xd4\xe1\x1fr\\\x13@\x03\x04\xee\x89W\xd6\x15@\x0co\xfb\x08\xf9\xe9\x11@\x1d\x94Ft&>\x1f@\xf5\xcd\xad^\xa4\xfb\x14@\x1d\x94Ft&>\x1f@\x1d\x0c\xbcuc\x13\x18@\x0e\xf0\x9fW\x1bi\x14@\x99\x9az5\xf4\x9e\x1d@\x1d\x94Ft&>\x1f@\x1d\x0c\xbcuc\x13\x18@\x03\x04\xee\x89W\xd6\x15@\x04r\xdbg,Z\x05@\xe6\xb1\x91@\\Q\x11@\x1d\x94Ft&>\x1f@\x9bO8RaH\x0e@\x0e\xf0\x9fW\x1bi\x14@-<\x83\xae>\x12\x0e@\xda\xda\xc2\xbcu\x1b\x0c@\x00(\xcd\x92\xe9\xa5\x0e@\x0ex*V\xde\x93\x1b@&w\xc9\xf4\x04\'\x14@\x1d\x94Ft&>\x1f@\x1d\x94Ft&>\x1f@\x0e\xf0\x9fW\x1bi\x14@\xc5D\x99(R;\x1a@\x99\x9az5\xf4\x9e\x1d@\xc5D\x99(R;\x1a@?0)\xfd\x91\xcc\x10@\x0ex*V\xde\x93\x1b@\x99\x9az5\xf4\x9e\x1d@\x87:Dq\x0bw\x13@\x1d\x94Ft&>\x1f@\xf5\xcd\xad^\xa4\xfb\x14@\xc5\x81#\xd1\xd3<\x16@\x1d\x94Ft&>\x1f@\x03\x04\xee\x89W\xd6\x15@\x0e\xf0\x9fW\x1bi\x14@\xda\xf6\xc2F\nW\x10@\xff\xb5\xa5{=\xe5\x06@\x99\x9az5\xf4\x9e\x1d@\xc5D\x99(R;\x1a@h\xdcjzl\xfc\x11@\xc5\xbc\x0e*\x8f\x10\x13@\x99\x9az5\xf4\x9e\x1d@Re\x1b\xc9v\xf8\x12@\x99\x9az5\xf4\x9e\x1d@\xd6\xa5\x16\xc5\xf9$\x05@\xc5\x81#\xd1\xd3<\x16@\x0ex*V\xde\x93\x1b@\x0ex*V\xde\x93\x1b@'
p4705
tp4706
bsbsS'use_idf'
p4707
I01
sS'sublinear_tf'
p4708
I00
sS'norm'
p4709
Vl2
p4710
sbtp4711
a(S'clsfr'
p4712
g3645
(csklearn.linear_model.stochastic_gradient
SGDClassifier
p4713
g3647
Ntp4714
Rp4715
(dp4716
S't_'
p4717
F9071.0
sS'n_jobs'
p4718
I1
sS'shuffle'
p4719
I01
sS'verbose'
p4720
I0
sS'classes_'
p4721
g4672
(g4673
(I0
tp4722
g4675
tp4723
Rp4724
(I1
(I2
tp4725
g3678
(S'S5'
p4726
I0
I1
tp4727
Rp4728
(I3
S'|'
p4729
NNNI5
I1
I0
tp4730
bI00
S'FalseTrue\x00'
p4731
tp4732
bsS'class_weight'
p4733
NsS'fit_intercept'
p4734
I01
sg8
g9
sS'random_state'
p4735
I703
sg3651
g3652
sS'loss_function'
p4736
csklearn.linear_model.sgd_fast
Hinge
p4737
(F1.0
tp4738
Rp4739
sS'C'
p4740
F1.0
sg7
I5
sS'epsilon'
p4741
F0.1
sS'learning_rate'
p4742
S'optimal'
p4743
sS'coef_'
p4744
g4672
(g4673
(I0
tp4745
g4675
tp4746
Rp4747
(I1
(I1
I240
tp4748
g4702
I00
S'\x00\x00\x00\x00\x00\x00\x00\x00=J\xed\xb7\x16\xfc\xe7\xbf\x00\x00\x00\x00\x00\x00\x00\x00\x00\x00\x00\x00\x00\x00\x00\x00w\xc4B}\x93\xa9\xfc\xbf\xc6\x95\xdd\x19\xf6\xd5\x01\xc0\x00\x00\x00\x00\x00\x00\x00\x00yct\xe7\xcc`\x07\xc0\x00\x00\x00\x00\x00\x00\x00\x00\x00\x00\x00\x00\x00\x00\x00\x00\xbe\x0e\xa9\x0eB\xef\xf7\xbf\xb2t\xe4\x08a\x1c\x04\xc0n\xb2}\x140\x1f\x06\xc0\x00\x00\x00\x00\x00\x00\x00\x00\x00\x00\x00\x00\x00\x00\x00\x00\x00\x00\x00\x00\x00\x00\x00\x00\x03\x11\xab\x8fB\x1f\x03\xc0\x00\x00\x00\x00\x00\x00\x00\x00\x00\x00\x00\x00\x00\x00\x00\x00\x00\x00\x00\x00\x00\x00\x00\x00\x00\x00\x00\x00\x00\x00\x00\x00\xc6\xb8\xaa\xbb\x17\x85\xe3\xbf\x00\x00\x00\x00\x00\x00\x00\x00iX#\xc83l\x10\xc0\x00\x00\x00\x00\x00\x00\x00\x00fz\xd4\'9\x9b\x03\xc0p\xb73?\x83\xfe\xf6\xbf\xa6\x14]\x11-7\xcb\xbf\x92\xefL\x95\x84\xdf\xfb\xbf\x00\x00\x00\x00\x00\x00\x00\x00\x00\x00\x00\x00\x00\x00\x00\x00\x9d\xab\xeak\x02%\xa5\xbf\x00\x00\x00\x00\x00\x00\x00\x00\x83\xed2\x98\x8b\x99\x12@x:j6\x0e!\x08\xc0\x00\x00\x00\x00\x00\x00\x00\x00\x00\x00\x00\x00\x00\x00\x00\x00\x00\x00\x00\x00\x00\x00\x00\x00\x00\x00\x00\x00\x00\x00\x00\x00\xf7_\xc3\x94\xd3&\t\xc0\x00\x00\x00\x00\x00\x00\x00\x00\x8bV\xdd\x8c\xe2\x9d\x04\xc0\x00\x00\x00\x00\x00\x00\x00\x00\xec\x7f\xda\'\xbe\x10\xe4\xbf\xe8\x89\x90\x13\x1b3\xc2?\x00\x00\x00\x00\x00\x00\x00\x00\xb7\x15\x00[\xcb\xc5\x06\xc0\x00\x00\x00\x00\x00\x00\x00\x00\x00\x00\x00\x00\x00\x00\x00\x00\x00\x00\x00\x00\x00\x00\x00\x00\x00\x00\x00\x00\x00\x00\x00\x00\x00\x00\x00\x00\x00\x00\x00\x00\x00\x00\x00\x00\x00\x00\x00\x00\xd7\xef\xbcI\xb9Q\x14\xc0\x00\x00\x00\x00\x00\x00\x00\x00\x00\x00\x00\x00\x00\x00\x00\x00\xa3@\xb36\n\\\x1e\xc0\x00\x00\x00\x00\x00\x00\x00\x00|\x81Zu\xd9\x1e\xf1\xbf\x00\x00\x00\x00\x00\x00\x00\x00\x00\x00\x00\x00\x00\x00\x00\x00\x00\x00\x00\x00\x00\x00\x00\x00\x00\x00\x00\x00\x00\x00\x00\x00\x00\x00\x00\x00\x00\x00\x00\x00\xbe!v\x1c;)\x02\xc0\x1e\x07\xd2\x8c\x84\x07\t\xc0\xab\xfd\x9d\xcd\r\x89\xf7\xbf\x00\x00\x00\x00\x00\x00\x00\x00\x00\x00\x00\x00\x00\x00\x00\x00\x00\x00\x00\x00\x00\x00\x00\x00\x00\x00\x00\x00\x00\x00\x00\x00\xdb\xcb\x83)u\xf4\x02\xc0\x00\x00\x00\x00\x00\x00\x00\x00\x00\x00\x00\x00\x00\x00\x00\x003\x1b\x83\xfcg\x9f\x01\xc0\xa6\xfd\xe1Jy\x86\x15\xc0yct\xe7\xcc`\x07\xc0\x00\x00\x00\x00\x00\x00\x00\x00\x00\x00\x00\x00\x00\x00\x00\x00\x00\x00\x00\x00\x00\x00\x00\x00\x00\x00\x00\x00\x00\x00\x00\x00\x17\xa7\x90\xda|\x1c\xd0?\x00\x00\x00\x00\x00\x00\x00\x00\xc6\xdc\xe2\xec\x03\x89\xd5\xbfx\xee\xdc\xd9h\x08\xf6\xbf\x00\x00\x00\x00\x00\x00\x00\x00\x00\x00\x00\x00\x00\x00\x00\x00\x00\x00\x00\x00\x00\x00\x00\x00O\x010\xbd\xfc\xa6\x00\xc0\x00\x00\x00\x00\x00\x00\x00\x00\x00\x00\x00\x00\x00\x00\x00\x00\x00\x00\x00\x00\x00\x00\x00\x00\x00\x00\x00\x00\x00\x00\x00\x000\xc8\x06J3\x9b\x02\xc0\xff\x1c\xdc\xa2\xef/\x07\xc0\x14\x15#\xca&\xd2\xfd\xbf\x00\x00\x00\x00\x00\x00\x00\x00\x00\x00\x00\x00\x00\x00\x00\x00\'\xaaP\xb9\x07\x98\xd2\xbf\x00\x00\x00\x00\x00\x00\x00\x00\x00\x00\x00\x00\x00\x00\x00\x00\xa3\xdf\x85\xf5\xf6%\x04\xc0BV@F7\xe0\xef\xbf\x00\x00\x00\x00\x00\x00\x00\x00\x18\xf7]~o\xde\xe6\xbf\xf0\xe3?\xc8\x9c\xb7\xd8\xbf\x00\x00\x00\x00\x00\x00\x00\x00\x8a\xe9\x8c\x06\xd2\x12\xff?\x93\xd6\xaf\xc4\xcdg\x04\xc0\x00\x00\x00\x00\x00\x00\x00\x00\xa4\x9e\x87\x8bF\xd5\xdf\xbf\x05\x99\x0b\xf2]\xb5\xe5\xbf\x00\x00\x00\x00\x00\x00\x00\x00\xaa\x93\t\x8e\xa8\xb9\x0b\xc0\x00\x00\x00\x00\x00\x00\x00\x00tG.\xc7k$\t\xc0w^p\xa1\x0bZ\xf6\xbfoZ\x04\x87\x9fR\xf9\xbf,"\x8b\xdaN\xba\xf9\xbfL\x08f\xe0RX\t\xc0\xb2k\xe5\x93\xaa\xb0\xe4\xbf\x00\x00\x00\x00\x00\x00\x00\x00\xa6C\xe7\xc2\xa0\xb7\xc3\xbf\x00\x00\x00\x00\x00\x00\x00\x00\x00\x00\x00\x00\x00\x00\x00\x00\x00\x00\x00\x00\x00\x00\x00\x00\x00\x00\x00\x00\x00\x00\x00\x00\x00\x00\x00\x00\x00\x00\x00\x00\xa6\x7f\x01\x01@3\x05\xc0\x00\x00\x00\x00\x00\x00\x00\x00j(\x0f\xd4$H\x01\xc0\x0e"1\x11\nB\xfd\xbfW\x18~z\xceP\x0b\xc0\x00\x00\x00\x00\x00\x00\x00\x00\x00\x00\x00\x00\x00\x00\x00\x00\x00\x00\x00\x00\x00\x00\x00\x00\xc2C\'\xa0P\xd5\x10\xc0\t\x82+\xee\xa2\xf5\xd5?\x00\x00\x00\x00\x00\x00\x00\x000\xdb\x83\xa0\xa6&\xfd\xbf\x00\x00\x00\x00\x00\x00\x00\x00\xcaJ)\xcc\xe2_\xfa\xbff\xea\x185|\xfe\x08\xc0\x00\x00\x00\x00\x00\x00\x00\x00\x00\x00\x00\x00\x00\x00\x00\x00\x00\x00\x00\x00\x00\x00\x00\x00\xdc\x10c\xb4C=\xf1\xbf\x8fg\xe8\xf2oc\x11\xc0\x87P \x86\x9a\xb6\xec\xbf\xcf9u\x9d\x94\xc3\xd5\xbf\x00\x00\x00\x00\x00\x00\x00\x00\x00\x00\x00\x00\x00\x00\x00\x00\x98\x94\\\xb3\x1c\xd0\xbc\xbf\x00\x00\x00\x00\x00\x00\x00\x00\x00\x00\x00\x00\x00\x00\x00\x00\x00\x00\x00\x00\x00\x00\x00\x00I\xbfc\xbc\xda\xbb\x0e\xc0\x00\x00\x00\x00\x00\x00\x00\x00\x00\x00\x00\x00\x00\x00\x00\x00\x03\x11\xab\x8fB\x1f\x03\xc0\x00\x00\x00\x00\x00\x00\x00\x00\xdbNL\xf6\x19\x01\xf4\xbf\x00\x00\x00\x00\x00\x00\x00\x00\x00\x00\x00\x00\x00\x00\x00\x00\x00\x00\x00\x00\x00\x00\x00\x00\x00\x00\x00\x00\x00\x00\x00\x00\xd69\xa6\tq\x8f\xee?\x00\x00\x00\x00\x00\x00\x00\x00\x00\x00\x00\x00\x00\x00\x00\x00\x00\x00\x00\x00\x00\x00\x00\x00\xb0~P\x9f\x97K\xee?\xb3\x9fU\xd8<\xac\xc4?\x00\x00\x00\x00\x00\x00\x00\x00\x00\x00\x00\x00\x00\x00\x00\x00\x00\x00\x00\x00\x00\x00\x00\x00\xb0q\x97?\x921\t\xc0\x00\x00\x00\x00\x00\x00\x00\x00J\x95\xb0\x14&\xf6\x10\xc0\x00\x00\x00\x00\x00\x00\x00\x00\x00\x00\x00\x00\x00\x00\x00\x00\x00\x00\x00\x00\x00\x00\x00\x00\x00\x00\x00\x00\x00\x00\x00\x00|\x81Zu\xd9\x1e\xf1\xbf\x10\x18\x9d\x88\xca\xd8\x0f\xc0\x00\x00\x00\x00\x00\x00\x00\x00\xbeih\xad\\\xcb\x0b\xc0\x00\x00\x00\x00\x00\x00\x00\x00\x00\x00\x00\x00\x00\x00\x00\x00`\xaau\xb6.v\xf0\xbfB\xea\xa3\x1a\x10n\xed\xbfYa2\x95\x99E\xe8\xbfy\xf1v\xbfr\x8e\n\xc0\x00\x00\x00\x00\x00\x00\x00\x00\x00\x00\x00\x00\x00\x00\x00\x00\x00\x00\x00\x00\x00\x00\x00\x00\x05\x1fB\x08\x89V\xe7\xbf\x00\x00\x00\x00\x00\x00\x00\x00\x00\x00\x00\x00\x00\x00\x00\x00\x98\x94\\\xb3\x1c\xd0\xbc\xbf\x00\x00\x00\x00\x00\x00\x00\x00\t\x8d\xac\x18\xef]\x06\xc0\x1e\x18`u\xc8\n\xb7?\x00\x00\x00\x00\x00\x00\x00\x00\x00\x00\x00\x00\x00\x00\x00\x00\x00\x00\x00\x00\x00\x00\x00\x00\xf3\xe0\xb0\xfb\x81\x87\x07\xc0\xe2\x93U*\xa6\xe8\x14@\x00\x00\x00\x00\x00\x00\x00\x00d"X\x06\xa7\xff\x02\xc0\x00\x00\x00\x00\x00\x00\x00\x00\x00\x00\x00\x00\x00\x00\x00\x00\x00\x00\x00\x00\x00\x00\x00\x00\x00\x00\x00\x00\x00\x00\x00\x00\x00\x00\x00\x00\x00\x00\x00\x00\x00\x00\x00\x00\x00\x00\x00\x00\x00\x00\x00\x00\x00\x00\x00\x00\x00\x00\x00\x00\x00\x00\x00\x00\x7f\x18\x03?\x92(\xf9\xbf\x00\x00\x00\x00\x00\x00\x00\x00\x00\x00\x00\x00\x00\x00\x00\x00\x00\x00\x00\x00\x00\x00\x00\x00\x00\x00\x00\x00\x00\x00\x00\x00;e\x8c\x8cq\x94\xf4\xbf6\x88\x073\xf2\xa9\xff?\x00\x00\x00\x00\x00\x00\x00\x00\xeaA\xd2\xc6\xf9\xc7\xf4\xbfRG\xf9\x1f\xbf\xea\x07\xc0\xcf\xcc6]\xf2\xc8\x07\xc0\x0es0\xc2\xdc\x9a\xf3\xbf\x00\x00\x00\x00\x00\x00\x00\x00\xf2vMyN\x0c\x03@\x00\x00\x00\x00\x00\x00\x00\x00\xcf\xf7\x03\x0fN\xb9\xe3\xbf\x00\x00\x00\x00\x00\x00\x00\x00\x00\x00\x00\x00\x00\x00\x00\x00\x00\x00\x00\x00\x00\x00\x00\x00`\x02F\x12\xcf\x86\x08\xc06\x88\x073\xf2\xa9\xff?\x00\x00\x00\x00\x00\x00\x00\x00\x00\x00\x00\x00\x00\x00\x00\x00'
p4749
tp4750
bsg11
F0.001
sS'intercept_'
p4751
g4672
(g4673
(I0
tp4752
g4675
tp4753
Rp4754
(I1
(I1
tp4755
g4702
I00
S'\xc2\x9f\xfdj\x02r\xf0\xbf'
p4756
tp4757
bsS'_expanded_class_weight'
p4758
g4672
(g4673
(I0
tp4759
g4675
tp4760
Rp4761
(I1
(I2
tp4762
g4702
I00
S'\x00\x00\x00\x00\x00\x00\xf0?\x00\x00\x00\x00\x00\x00\xf0?'
p4763
tp4764
bsS'warm_start'
p4765
I00
sg2
g3
sS'eta0'
p4766
F0.0
sS'l1_ratio'
p4767
F0.15
sS'average'
p4768
I00
sS'power_t'
p4769
F0.5
sbtp4770
asbsb.