(ialicized_models
CommandMatchingModel
p0
(dp1
S'loss'
p2
S'hinge'
p3
sS'grammar'
p4
NsS'name'
p5
S'GET_WEATHER.model'
p6
sS'n_iter'
p7
I5
sS'penalty'
p8
S'none'
p9
sS'trained'
p10
I01
sS'alpha'
p11
F0.001
sS'data'
p12
(lp13
(S'turn up the volume'
p14
S'False'
p15
tp16
a(S'what is in mail'
p17
g15
tp18
a(S'tell me live newsfeed'
p19
g15
tp20
a(S'retrieve the time please'
p21
g15
tp22
a(S'could you check new gmail'
p23
g15
tp24
a(S'make the volume softer'
p25
g15
tp26
a(S'any events on tuesday'
p27
g15
tp28
a(S'am i free for sunday'
p29
g15
tp30
a(S"what's not the forecast this week"
p31
g15
tp32
a(S'would you open gmail'
p33
g15
tp34
a(S'please schedule new event'
p35
g15
tp36
a(S'is there anything to do on next'
p37
g15
tp38
a(S'will you check mail please'
p39
g15
tp40
a(S'please shut down my computer'
p41
g15
tp42
a(S'can you put me on the lock screen please'
p43
g15
tp44
a(S"aren't there any events in a month"
p45
g15
tp46
a(S'any events in a week'
p47
g15
tp48
a(S'live news'
p49
g15
tp50
a(S'get live newsfeed'
p51
g15
tp52
a(S'can you please shut down'
p53
g15
tp54
a(S'what is in my mail'
p55
g15
tp56
a(S'turn off the sound please'
p57
g15
tp58
a(S'spotify start please'
p59
g15
tp60
a(S'can you please turn up the beat'
p61
g15
tp62
a(S'please could you open inbox'
p63
g15
tp64
a(S"don't i have anything on thursday"
p65
g15
tp66
a(S"what's not if it's cloudy this week"
p67
g15
tp68
a(S'find news'
p69
g15
tp70
a(S'is it foggy this week'
p71
S'True'
p72
tp73
a(S"get if it's rainy today"
p74
g72
tp75
a(S'please open gmail'
p76
g15
tp77
a(S'can you please close current window'
p78
g15
tp79
a(S'turn off the computer please'
p80
g15
tp81
a(S'get time please'
p82
g15
tp83
a(S"what's the newsfeed"
p84
g15
tp85
a(S"aren't there any events on sunday"
p86
g15
tp87
a(S"don't i have anything to do on this day"
p88
g15
tp89
a(S'please would you check my gmail'
p90
g15
tp91
a(S"don't i have any events on tomorrow"
p92
g15
tp93
a(S"how's the weather not today"
p94
g15
tp95
a(S"not this week's temperature"
p96
g15
tp97
a(S"don't i have anything to do on friday"
p98
g15
tp99
a(S'what is new in my mail please'
p100
g15
tp101
a(S"how's the forecast this week not"
p102
g15
tp103
a(S'what events do i have on thursday'
p104
g15
tp105
a(S'check calendar for this week'
p106
g15
tp107
a(S'do i have anything on'
p108
g15
tp109
a(S"what's new in new gmail"
p110
g15
tp111
a(S'can you exit'
p112
g15
tp113
a(S'close the current window'
p114
g15
tp115
a(S"don't i have to do anything tomorrow"
p116
g15
tp117
a(S'could you check new gmail please'
p118
g15
tp119
a(S"what's in new mail please"
p120
g15
tp121
a(S'what is new in my mail'
p122
g15
tp123
a(S'do i have to do anything on sunday'
p124
g15
tp125
a(S"get if it's foggy today"
p126
g72
tp127
a(S'could you please create an event'
p128
g15
tp129
a(S'can you shut up'
p130
g15
tp131
a(S"don't i have any events on sunday"
p132
g15
tp133
a(S'do i have anything on wednesday'
p134
g15
tp135
a(S'can you check if i have anything in my inbox'
p136
g15
tp137
a(S'can you please shut down my computer'
p138
g15
tp139
a(S'is there anything to do on friday'
p140
g15
tp141
a(S'what is the news today'
p142
g15
tp143
a(S'pause song please'
p144
g15
tp145
a(S'issue commands'
p146
g15
tp147
a(S'check my calendar on sunday'
p148
g15
tp149
a(S'please would you check new mail'
p150
g15
tp151
a(S"i think i didn't answer an earlier question"
p152
g15
tp153
a(S'check google calendar for this week'
p154
g15
tp155
a(S'make the sound softer'
p156
g15
tp157
a(S'please check new gmail'
p158
g15
tp159
a(S'please could you open my gmail'
p160
g15
tp161
a(S'get news feed'
p162
g15
tp163
a(S'please could you check inbox'
p164
g15
tp165
a(S'check my inbox please'
p166
g15
tp167
a(S'turn up the the beat'
p168
g15
tp169
a(S'please shutdown the computer'
p170
g15
tp171
a(S'can you please shut off my computer'
p172
g15
tp173
a(S"this week's temperature"
p174
g72
tp175
a(S'get headlines'
p176
g15
tp177
a(S"don't i have anything to do today"
p178
g15
tp179
a(S'schedule new event please'
p180
g15
tp181
a(S'any events on friday'
p182
g15
tp183
a(S'could you check my mail'
p184
g15
tp185
a(S'can you check mail'
p186
g15
tp187
a(S"don't i have anything tomorrow"
p188
g15
tp189
a(S'will you open mail'
p190
g15
tp191
a(S'open dot gov'
p192
g15
tp193
a(S'make the sound quieter'
p194
g15
tp195
a(S'hey alice'
p196
g15
tp197
a(S'will it snow this week'
p198
g72
tp199
a(S'get the current time please'
p200
g15
tp201
a(S'check events on sunday'
p202
g15
tp203
a(S'can you check my mail'
p204
g15
tp205
a(S'could you add a new event'
p206
g15
tp207
a(S'what is new in mail please'
p208
g15
tp209
a(S'check the clock right now please'
p210
g15
tp211
a(S"don't i have to do anything on sunday"
p212
g15
tp213
a(S'could you please add event'
p214
g15
tp215
a(S'lower the tunes please'
p216
g15
tp217
a(S'can you please turn off'
p218
g15
tp219
a(S'search google please'
p220
g15
tp221
a(S'get the current events'
p222
g15
tp223
a(S'please will you open my mail'
p224
g15
tp225
a(S'am i free on friday'
p226
g15
tp227
a(S"what's not if it's hot this week"
p228
g15
tp229
a(S'spotify pause please'
p230
g15
tp231
a(S"please what's in new mail"
p232
g15
tp233
a(S'am i free for tuesday'
p234
g15
tp235
a(S"what's the temperature"
p236
g72
tp237
a(S'do i have to do anything tomorrow'
p238
g15
tp239
a(S'can you please close this window'
p240
g15
tp241
a(S"don't i have anything in a month"
p242
g15
tp243
a(S'current events today'
p244
g15
tp245
a(S'could you open my gmail please'
p246
g15
tp247
a(S"what's new in mail please"
p248
g15
tp249
a(S'is there anything i have to do on tuesday'
p250
g15
tp251
a(S'read your watch'
p252
g15
tp253
a(S'please close the current window'
p254
g15
tp255
a(S'please check what time it is'
p256
g15
tp257
a(S'find news feed'
p258
g15
tp259
a(S'see you'
p260
g15
tp261
a(S'open my inbox please'
p262
g15
tp263
a(S'check calendar for tomorrow'
p264
g15
tp265
a(S'how is the weather not'
p266
g15
tp267
a(S'is there anything to do today'
p268
g15
tp269
a(S'check events for friday'
p270
g15
tp271
a(S'turn the sound down please'
p272
g15
tp273
a(S'do i have anything to do'
p274
g15
tp275
a(S'could you please make event'
p276
g15
tp277
a(S'can you lock the screen'
p278
g15
tp279
a(S'can you unmute please'
p280
g15
tp281
a(S'can you add an event'
p282
g15
tp283
a(S"what's the weather today"
p284
g72
tp285
a(S'please spotify last song'
p286
g15
tp287
a(S"aren't there any events on this day"
p288
g15
tp289
a(S'quit'
p290
g15
tp291
a(S'please close the active window'
p292
g15
tp293
a(S'please retrieve what time it is'
p294
g15
tp295
a(S'do i have anything to do on thursday'
p296
g15
tp297
a(S'what is on my calendar for'
p298
g15
tp299
a(S'check google calendar on month'
p300
g15
tp301
a(S'unmute'
p302
g15
tp303
a(S'check my calendar for saturday'
p304
g15
tp305
a(S'do i have anything to do in a month'
p306
g15
tp307
a(S'do i have anything on saturday'
p308
g15
tp309
a(S'could you schedule an event'
p310
g15
tp311
a(S'please shutdown'
p312
g15
tp313
a(S'what is in inbox please'
p314
g15
tp315
a(S'could you open my mail please'
p316
g15
tp317
a(S"don't i have anything to do on monday"
p318
g15
tp319
a(S"don't get if it's raining this week"
p320
g15
tp321
a(S'check calendar on tuesday'
p322
g15
tp323
a(S'what events are in a month'
p324
g15
tp325
a(S'please can you turn the volume higher'
p326
g15
tp327
a(S'am i free for saturday'
p328
g15
tp329
a(S'could you create event please'
p330
g15
tp331
a(S"don't i have anything on tuesday"
p332
g15
tp333
a(S'find live news feed'
p334
g15
tp335
a(S'open gmail please'
p336
g15
tp337
a(S'can you make a new event'
p338
g15
tp339
a(S"get if it's freezing this week"
p340
g72
tp341
a(S'please read the clock'
p342
g15
tp343
a(S'what events do i have on friday'
p344
g15
tp345
a(S'please spotify play previous song'
p346
g15
tp347
a(S'check events on thursday'
p348
g15
tp349
a(S'shutdown the computer'
p350
g15
tp351
a(S'spotify pause please'
p352
g15
tp353
a(S'will you open gmail please'
p354
g15
tp355
a(S'find the current events'
p356
g15
tp357
a(S'please retrieve the current time'
p358
g15
tp359
a(S'get news now'
p360
g15
tp361
a(S"what're the news feed"
p362
g15
tp363
a(S'play song'
p364
g15
tp365
a(S'can you open a browser'
p366
g15
tp367
a(S'turn the volume to zero'
p368
g15
tp369
a(S'anything in my mail'
p370
g15
tp371
a(S'please give me the current events please'
p372
g15
tp373
a(S'can you get the current events'
p374
g15
tp375
a(S'is it freezing this week'
p376
g72
tp377
a(S'start a default browser'
p378
g15
tp379
a(S'can you please kill the window'
p380
g15
tp381
a(S'please open inbox'
p382
g15
tp383
a(S'find live news'
p384
g15
tp385
a(S'spotify previous song please'
p386
g15
tp387
a(S'check my gmail please'
p388
g15
tp389
a(S'can you check new mail'
p390
g15
tp391
a(S"what's if it's raining today"
p392
g72
tp393
a(S'can you schedule an event'
p394
g15
tp395
a(S'please would you check new gmail'
p396
g15
tp397
a(S"today's forecast"
p398
g72
tp399
a(S"how's the forecast not"
p400
g15
tp401
a(S'what events do i have'
p402
g15
tp403
a(S'please what is new in mail'
p404
g15
tp405
a(S'go to dot net'
p406
g15
tp407
a(S'do i have to do anything to do'
p408
g15
tp409
a(S'tell me newsfeed'
p410
g15
tp411
a(S'close window'
p412
g15
tp413
a(S'could you please create event'
p414
g15
tp415
a(S"how's the temperature today"
p416
g72
tp417
a(S'make the sound louder'
p418
g15
tp419
a(S'could you check new mail'
p420
g15
tp421
a(S'please will you check inbox'
p422
g15
tp423
a(S'check mail please'
p424
g15
tp425
a(S"not what's not the weather today"
p426
g15
tp427
a(S'can you lock my computer please'
p428
g15
tp429
a(S'what is on my calendar for sunday'
p430
g15
tp431
a(S'could you check my gmail please'
p432
g15
tp433
a(S'make a new event please'
p434
g15
tp435
a(S'close the active window'
p436
g15
tp437
a(S'live news feed'
p438
g15
tp439
a(S"what's if it's freezing this week"
p440
g72
tp441
a(S'check my calendar on tuesday'
p442
g15
tp443
a(S'get live news feed'
p444
g15
tp445
a(S'check your watch please'
p446
g15
tp447
a(S'can you please schedule new event'
p448
g15
tp449
a(S'can you add a new event'
p450
g15
tp451
a(S'shutdown please'
p452
g15
tp453
a(S'could you open gmail please'
p454
g15
tp455
a(S'open my mail'
p456
g15
tp457
a(S'what events are on today'
p458
g15
tp459
a(S'what is in gmail please'
p460
g15
tp461
a(S'can you turn off'
p462
g15
tp463
a(S'open my gmail please'
p464
g15
tp465
a(S'could you schedule new event please'
p466
g15
tp467
a(S'get live news'
p468
g15
tp469
a(S'what is new in new gmail'
p470
g15
tp471
a(S'can you please schedule a new event'
p472
g15
tp473
a(S'please could you open gmail'
p474
g15
tp475
a(S'check calendar'
p476
g15
tp477
a(S"what's the temperature this week"
p478
g72
tp479
a(S'turn my computer off'
p480
g15
tp481
a(S'please close current window'
p482
g15
tp483
a(S"what're the current events"
p484
g15
tp485
a(S'what do i have to do on monday'
p486
g15
tp487
a(S'stop playing'
p488
g15
tp489
a(S'can you please create a new event'
p490
g15
tp491
a(S'shut off my computer'
p492
g15
tp493
a(S'set the volume to zero'
p494
g15
tp495
a(S'make an event please'
p496
g15
tp497
a(S'what are the live news feed'
p498
g15
tp499
a(S'anything in gmail'
p500
g15
tp501
a(S'do i have any events'
p502
g15
tp503
a(S'what is on my calendar for thursday'
p504
g15
tp505
a(S'is there anything to do on this day'
p506
g15
tp507
a(S'check google calendar on monday'
p508
g15
tp509
a(S'turn up the sound'
p510
g15
tp511
a(S"get if it's cold this week"
p512
g72
tp513
a(S"don't i have to do anything on tuesday"
p514
g15
tp515
a(S'get time'
p516
g15
tp517
a(S'check calendar for this day'
p518
g15
tp519
a(S"not today's weather"
p520
g15
tp521
a(S'can you create an event'
p522
g15
tp523
a(S'google search please for'
p524
g15
tp525
a(S"what's new in mail"
p526
g15
tp527
a(S'close current window'
p528
g15
tp529
a(S'shutdown'
p530
g15
tp531
a(S'am i free in a week'
p532
g15
tp533
a(S"don't i have to do anything on wednesday"
p534
g15
tp535
a(S'what is new in my inbox'
p536
g15
tp537
a(S"don't get this week's forecast"
p538
g15
tp539
a(S"don't get today's weather"
p540
g15
tp541
a(S'any events'
p542
g15
tp543
a(S'google search for'
p544
g15
tp545
a(S'is it foggy today'
p546
g72
tp547
a(S"what's not the weather this week"
p548
g15
tp549
a(S'please would you open mail'
p550
g15
tp551
a(S'emergency shutdown'
p552
g15
tp553
a(S"don't i have to do anything on sunday"
p554
g15
tp555
a(S'spotify play previous song please'
p556
g15
tp557
a(S"what's not forecast"
p558
g15
tp559
a(S'check calendar for next'
p560
g15
tp561
a(S"don't i have anything on monday"
p562
g15
tp563
a(S"today's news"
p564
g15
tp565
a(S'intelligence report'
p566
g15
tp567
a(S"don't i have anything on friday"
p568
g15
tp569
a(S'is there anything i have to do on friday'
p570
g15
tp571
a(S'the tale pretends'
p572
g15
tp573
a(S'please shut down'
p574
g15
tp575
a(S'open dot edu'
p576
g15
tp577
a(S"what's not the temperature"
p578
g15
tp579
a(S'what is new in mail'
p580
g15
tp581
a(S'please check gmail'
p582
g15
tp583
a(S"what's in gmail please"
p584
g15
tp585
a(S'please check the clock'
p586
g15
tp587
a(S'please last song'
p588
g15
tp589
a(S'can you please turn up the tune'
p590
g15
tp591
a(S'do i have any events on tomorrow'
p592
g15
tp593
a(S"what's the headlines"
p594
g15
tp595
a(S'can you please close active window'
p596
g15
tp597
a(S'could you open inbox please'
p598
g15
tp599
a(S'create an event'
p600
g15
tp601
a(S"don't i have any events on monday"
p602
g15
tp603
a(S"if it's raining this week"
p604
g72
tp605
a(S'will you open my mail'
p606
g15
tp607
a(S"what's if it's cloudy today"
p608
g72
tp609
a(S'add a new event please'
p610
g15
tp611
a(S"what're the live newsfeed"
p612
g15
tp613
a(S"what's not if it's freezing today"
p614
g15
tp615
a(S'time'
p616
g15
tp617
a(S'please check new mail'
p618
g15
tp619
a(S'is it hot today'
p620
g72
tp621
a(S'check calendar for wednesday'
p622
g15
tp623
a(S'skip spotify please'
p624
g15
tp625
a(S'is there anything to do in a week'
p626
g15
tp627
a(S'can you add a new event please'
p628
g15
tp629
a(S"if it's cloudy today"
p630
g72
tp631
a(S'extract the features using almost the same feature'
p632
g15
tp633
a(S'will you check new mail please'
p634
g15
tp635
a(S'please what is in my gmail'
p636
g15
tp637
a(S'check my mail'
p638
g15
tp639
a(S'what is in gmail'
p640
g15
tp641
a(S"if it's hot today"
p642
g72
tp643
a(S'search google please for'
p644
g15
tp645
a(S'please add new event'
p646
g15
tp647
a(S"today's headlines"
p648
g15
tp649
a(S'what do i have in a month'
p650
g15
tp651
a(S"please what's new in my gmail"
p652
g15
tp653
a(S"what's in mail"
p654
g15
tp655
a(S'what events do i have on saturday'
p656
g15
tp657
a(S"don't i have anything today"
p658
g15
tp659
a(S'can you decrease the sound'
p660
g15
tp661
a(S'check events for tuesday'
p662
g15
tp663
a(S'anything new in mail'
p664
g15
tp665
a(S'start the song'
p666
g15
tp667
a(S'check events on saturday'
p668
g15
tp669
a(S'am i free on wednesday'
p670
g15
tp671
a(S'please check the clock right now'
p672
g15
tp673
a(S'am i free for tomorrow'
p674
g15
tp675
a(S'can you make an event please'
p676
g15
tp677
a(S'please what is new in my gmail'
p678
g15
tp679
a(S'please spotify pause the song'
p680
g15
tp681
a(S'check events for sunday'
p682
g15
tp683
a(S'open'
p684
g15
tp685
a(S'can you check my inbox'
p686
g15
tp687
a(S'please could you open my inbox'
p688
g15
tp689
a(S'create event'
p690
g15
tp691
a(S'will you open inbox please'
p692
g15
tp693
a(S'please turn off the computer'
p694
g15
tp695
a(S'spotify previous please'
p696
g15
tp697
a(S"what're the live news feed"
p698
g15
tp699
a(S'do i have to do anything on next'
p700
g15
tp701
a(S'can you please create new event'
p702
g15
tp703
a(S'close current program'
p704
g15
tp705
a(S'good bye'
p706
g15
tp707
a(S'search please for'
p708
g15
tp709
a(S'can you check inbox please'
p710
g15
tp711
a(S'spotify play the last song'
p712
g15
tp713
a(S'can you make new event please'
p714
g15
tp715
a(S'will it snow today'
p716
g72
tp717
a(S'is there anything to do in a month'
p718
g15
tp719
a(S'can you schedule new event please'
p720
g15
tp721
a(S'please spotify previous song'
p722
g15
tp723
a(S'open inbox'
p724
g15
tp725
a(S'could you schedule new event'
p726
g15
tp727
a(S'live news today'
p728
g15
tp729
a(S'please go spotify '
p730
g15
tp731
a(S'what time is it now'
p732
g15
tp733
a(S'check calendar for this day'
p734
g15
tp735
a(S'shut my computer down please'
p736
g15
tp737
a(S'check events on wednesday'
p738
g15
tp739
a(S"what's the the news"
p740
g15
tp741
a(S'please kill the current window'
p742
g15
tp743
a(S'can you please turn the sound down'
p744
g15
tp745
a(S'is it freezing today'
p746
g72
tp747
a(S"don't i have to do anything in a week"
p748
g15
tp749
a(S"what's not if it's snowing this week"
p750
g15
tp751
a(S'what do i have on wednesday'
p752
g15
tp753
a(S"if it's cold this week"
p754
g72
tp755
a(S'lock the screen please'
p756
g15
tp757
a(S'could you make an event please'
p758
g15
tp759
a(S'search for please'
p760
g15
tp761
a(S'please check my gmail'
p762
g15
tp763
a(S"aren't there any events on"
p764
g15
tp765
a(S"what's if it's snowing today"
p766
g72
tp767
a(S"today's temperature"
p768
g72
tp769
a(S'can you unmute'
p770
g15
tp771
a(S"what's not if it's cold this week"
p772
g15
tp773
a(S'can you open a browser please'
p774
g15
tp775
a(S'please spotify previous'
p776
g15
tp777
a(S'current events'
p778
g15
tp779
a(S"don't i have anything to do on next"
p780
g15
tp781
a(S'check calendar for this month'
p782
g15
tp783
a(S'do i have anything'
p784
g15
tp785
a(S'please get the current time'
p786
g15
tp787
a(S'is there anything i have to do on tomorrow'
p788
g15
tp789
a(S"what's new in inbox please"
p790
g15
tp791
a(S'are there any events on wednesday'
p792
g15
tp793
a(S'do i have anything to do next'
p794
g15
tp795
a(S'can you check mail please'
p796
g15
tp797
a(S"this week's weather"
p798
g72
tp799
a(S'what events do i have on this day'
p800
g15
tp801
a(S"what's the temperature today"
p802
g72
tp803
a(S'please spotify pause'
p804
g15
tp805
a(S'will you check gmail'
p806
g15
tp807
a(S'get the clock please'
p808
g15
tp809
a(S'what events are on thursday'
p810
g15
tp811
a(S'a decent problem gossips beside the shoulder'
p812
g15
tp813
a(S'can you please close the current window'
p814
g15
tp815
a(S"don't i have anything to do on thursday"
p816
g15
tp817
a(S"what's the live newsfeed"
p818
g15
tp819
a(S"what's not today's weather"
p820
g15
tp821
a(S'what do i have on'
p822
g15
tp823
a(S"don't i have any events"
p824
g15
tp825
a(S'what is going on in the world today'
p826
g15
tp827
a(S'can you turn the tune down'
p828
g15
tp829
a(S'could you add event'
p830
g15
tp831
a(S'time please'
p832
g15
tp833
a(S'please spotify last'
p834
g15
tp835
a(S'check my calendar on wednesday'
p836
g15
tp837
a(S'what events are on tuesday'
p838
g15
tp839
a(S'what is on my calendar for tuesday'
p840
g15
tp841
a(S'do i have to do anything on saturday'
p842
g15
tp843
a(S'what is new in new mail'
p844
g15
tp845
a(S"don't i have anything in a week"
p846
g15
tp847
a(S'do i have to do anything next'
p848
g15
tp849
a(S'can you please kill current window'
p850
g15
tp851
a(S'bye alice'
p852
g15
tp853
a(S"how's the temperature not"
p854
g15
tp855
a(S'check calendar on'
p856
g15
tp857
a(S'check calendar on this week'
p858
g15
tp859
a(S'am i free today'
p860
g15
tp861
a(S"not what's not the temperature today"
p862
g15
tp863
a(S'please would you open my mail'
p864
g15
tp865
a(S'can you shut my computer down'
p866
g15
tp867
a(S'shut down please'
p868
g15
tp869
a(S'will you open mail please'
p870
g15
tp871
a(S"what's today's forecast"
p872
g72
tp873
a(S'what is in my mail please'
p874
g15
tp875
a(S'retrieve the time'
p876
g15
tp877
a(S"don't i have anything on"
p878
g15
tp879
a(S'check inbox'
p880
g15
tp881
a(S'am i free for next'
p882
g15
tp883
a(S"how's the temperature this week not"
p884
g15
tp885
a(S'get current time'
p886
g15
tp887
a(S'am i free on monday'
p888
g15
tp889
a(S'please make an event'
p890
g15
tp891
a(S'open a default browser'
p892
g15
tp893
a(S'anything new in my mail'
p894
g15
tp895
a(S'get the time'
p896
g15
tp897
a(S'tell me live news'
p898
g15
tp899
a(S"don't i have any events on"
p900
g15
tp901
a(S'what is headlines'
p902
g15
tp903
a(S'what do i have to do on saturday'
p904
g15
tp905
a(S'could you add a new event please'
p906
g15
tp907
a(S'check google calendar on tomorrow'
p908
g15
tp909
a(S'can you mute'
p910
g15
tp911
a(S'please what is in my inbox'
p912
g15
tp913
a(S'do i have any events in a month'
p914
g15
tp915
a(S'please add a new event'
p916
g15
tp917
a(S'do i have anything to do today'
p918
g15
tp919
a(S"don't i have to do anything on saturday"
p920
g15
tp921
a(S'turn my computer off please'
p922
g15
tp923
a(S'kill active window'
p924
g15
tp925
a(S'check my calendar for this week'
p926
g15
tp927
a(S'could you open my inbox please'
p928
g15
tp929
a(S'please could you check new mail'
p930
g15
tp931
a(S'what do i have to do on tomorrow'
p932
g15
tp933
a(S"please what's new in gmail"
p934
g15
tp935
a(S'do i have anything to do in a week'
p936
g15
tp937
a(S'could you please schedule a new event'
p938
g15
tp939
a(S'open mail please'
p940
g15
tp941
a(S'do i have to do anything in a month'
p942
g15
tp943
a(S"what's the weather this week"
p944
g72
tp945
a(S'lower the tunez please'
p946
g15
tp947
a(S'will it rain today'
p948
g72
tp949
a(S'could you make a new event'
p950
g15
tp951
a(S'spotify stop playing'
p952
g15
tp953
a(S"what's not if it's raining today"
p954
g15
tp955
a(S'news today'
p956
g15
tp957
a(S'get current forecast'
p958
g72
tp959
a(S"what's in gmail"
p960
g15
tp961
a(S'are there any events'
p962
g15
tp963
a(S'please create event'
p964
g15
tp965
a(S"what's in my gmail"
p966
g15
tp967
a(S'what time is it currently'
p968
g15
tp969
a(S'check events for today'
p970
g15
tp971
a(S"don't get forecast"
p972
g15
tp973
a(S'make new event'
p974
g15
tp975
a(S"what's if it's foggy today"
p976
g72
tp977
a(S'spotify go to the last song'
p978
g15
tp979
a(S'can you please schedule an event'
p980
g15
tp981
a(S'check my calendar for tuesday'
p982
g15
tp983
a(S'please start a default browser'
p984
g15
tp985
a(S"what's in inbox please"
p986
g15
tp987
a(S'turn up the volume'
p988
g15
tp989
a(S'create new event please'
p990
g15
tp991
a(S'please sound higher'
p992
g15
tp993
a(S'could you check mail'
p994
g15
tp995
a(S'what are the news'
p996
g15
tp997
a(S'briefing'
p998
g15
tp999
a(S'last song please'
p1000
g15
tp1001
a(S'please could you check my inbox'
p1002
g15
tp1003
a(S"what's today's temperature"
p1004
g72
tp1005
a(S'shut down my computer'
p1006
g15
tp1007
a(S'am i free for today'
p1008
g15
tp1009
a(S'what events are on wednesday'
p1010
g15
tp1011
a(S'current news'
p1012
g15
tp1013
a(S'please will you check my mail'
p1014
g15
tp1015
a(S'spotify play'
p1016
g15
tp1017
a(S'current weather'
p1018
g72
tp1019
a(S'will you open inbox'
p1020
g15
tp1021
a(S'please what is new in new mail'
p1022
g15
tp1023
a(S'what are the the news'
p1024
g15
tp1025
a(S'please could you open my mail'
p1026
g15
tp1027
a(S'please be quiet'
p1028
g15
tp1029
a(S'can you close this window'
p1030
g15
tp1031
a(S"today's forecast"
p1032
g72
tp1033
a(S'open my gmail'
p1034
g15
tp1035
a(S'please turn off my computer'
p1036
g15
tp1037
a(S'could you please add a new event'
p1038
g15
tp1039
a(S'would you check new mail'
p1040
g15
tp1041
a(S'what is on my calendar for today'
p1042
g15
tp1043
a(S'please open mail'
p1044
g15
tp1045
a(S'kill current window'
p1046
g15
tp1047
a(S'any events on monday'
p1048
g15
tp1049
a(S"don't i have any events in a month"
p1050
g15
tp1051
a(S'is there anything i have to do on sunday'
p1052
g15
tp1053
a(S'good night'
p1054
g15
tp1055
a(S'lower the volume'
p1056
g15
tp1057
a(S"don't i have anything to do on sunday"
p1058
g15
tp1059
a(S'check new mail please'
p1060
g15
tp1061
a(S'can you please create an event'
p1062
g15
tp1063
a(S'shut the fuck up'
p1064
g15
tp1065
a(S'check google calendar for this day'
p1066
g15
tp1067
a(S'could you schedule an event please'
p1068
g15
tp1069
a(S'please will you check my inbox'
p1070
g15
tp1071
a(S'what do i have to do on friday'
p1072
g15
tp1073
a(S'check calendar on saturday'
p1074
g15
tp1075
a(S'would you check my mail'
p1076
g15
tp1077
a(S"aren't there any events on today"
p1078
g15
tp1079
a(S'what is on my calendar'
p1080
g15
tp1081
a(S"what's the clock"
p1082
g15
tp1083
a(S'headlines today'
p1084
g15
tp1085
a(S'google please'
p1086
g15
tp1087
a(S'any events on this day'
p1088
g15
tp1089
a(S"don't get if it's cloudy this week"
p1090
g15
tp1091
a(S'what is new in my gmail please'
p1092
g15
tp1093
a(S"what're the newsfeed"
p1094
g15
tp1095
a(S'am i free in a month'
p1096
g15
tp1097
a(S'current forecast'
p1098
g72
tp1099
a(S'please make event'
p1100
g15
tp1101
a(S'please louder'
p1102
g15
tp1103
a(S'check my calendar for friday'
p1104
g15
tp1105
a(S'check gmail please'
p1106
g15
tp1107
a(S"aren't there any events in a week"
p1108
g15
tp1109
a(S'what is live news'
p1110
g15
tp1111
a(S"don't get current weather"
p1112
g15
tp1113
a(S'open default browser please'
p1114
g15
tp1115
a(S'make the volume zero'
p1116
g15
tp1117
a(S'spotify go back to the last song '
p1118
g15
tp1119
a(S"don't i have anything on wednesday"
p1120
g15
tp1121
a(S'do i have to do anything on monday'
p1122
g15
tp1123
a(S'check my calendar'
p1124
g15
tp1125
a(S'go spotify please'
p1126
g15
tp1127
a(S"what's the forecast"
p1128
g72
tp1129
a(S'schedule event please'
p1130
g15
tp1131
a(S"don't get if it's rainy this week"
p1132
g15
tp1133
a(S'check events for tomorrow'
p1134
g15
tp1135
a(S"what're the headlines"
p1136
g15
tp1137
a(S'open my inbox'
p1138
g15
tp1139
a(S'brief me'
p1140
g15
tp1141
a(S"get this week's weather"
p1142
g72
tp1143
a(S'what do i have on this day'
p1144
g15
tp1145
a(S'do i have any events on wednesday'
p1146
g15
tp1147
a(S"what's not if it's rainy this week"
p1148
g15
tp1149
a(S"get if it's foggy this week"
p1150
g72
tp1151
a(S'add new event'
p1152
g15
tp1153
a(S"what's the forecast today"
p1154
g72
tp1155
a(S'would you check gmail please'
p1156
g15
tp1157
a(S'can you get information on the current events'
p1158
g15
tp1159
a(S'please give me the news'
p1160
g15
tp1161
a(S'is it cloudy today'
p1162
g72
tp1163
a(S'read me the clock'
p1164
g15
tp1165
a(S'will you open my inbox please'
p1166
g15
tp1167
a(S'next spotify please'
p1168
g15
tp1169
a(S'do i have to do anything on tuesday'
p1170
g15
tp1171
a(S'is there anything to do'
p1172
g15
tp1173
a(S'will you open my gmail'
p1174
g15
tp1175
a(S'play spotify please'
p1176
g15
tp1177
a(S'is there anything to do on monday'
p1178
g15
tp1179
a(S'please play spotify '
p1180
g15
tp1181
a(S'please shutdown my computer'
p1182
g15
tp1183
a(S"what's weather"
p1184
g72
tp1185
a(S'what events are on this day'
p1186
g15
tp1187
a(S'can you please shut down the computer'
p1188
g15
tp1189
a(S'spotify go back'
p1190
g15
tp1191
a(S"get if it's freezing today"
p1192
g72
tp1193
a(S"how's the forecast"
p1194
g72
tp1195
a(S'check events for saturday'
p1196
g15
tp1197
a(S'turn up the sound please'
p1198
g15
tp1199
a(S'please make a new event'
p1200
g15
tp1201
a(S'what do i have on friday'
p1202
g15
tp1203
a(S'what are the news feed'
p1204
g15
tp1205
a(S"what's not if it's rainy today"
p1206
g15
tp1207
a(S'increase the volume'
p1208
g15
tp1209
a(S'what events do i have on wednesday'
p1210
g15
tp1211
a(S"how's the weather this week not"
p1212
g15
tp1213
a(S'alice'
p1214
g15
tp1215
a(S'live newsfeed today'
p1216
g15
tp1217
a(S'can you shutdown my computer'
p1218
g15
tp1219
a(S'check google calendar on'
p1220
g15
tp1221
a(S'can you please kill active window'
p1222
g15
tp1223
a(S'do i have anything on thursday'
p1224
g15
tp1225
a(S'can you please mute'
p1226
g15
tp1227
a(S'send me to the lock screen please'
p1228
g15
tp1229
a(S'check my calendar on tomorrow'
p1230
g15
tp1231
a(S'get newsfeed'
p1232
g15
tp1233
a(S'check google calendar on this week'
p1234
g15
tp1235
a(S'can you please make a new event'
p1236
g15
tp1237
a(S'can you schedule a new event'
p1238
g15
tp1239
a(S'please could you check my mail'
p1240
g15
tp1241
a(S'do i have any events on next'
p1242
g15
tp1243
a(S'tell me live news feed'
p1244
g15
tp1245
a(S'am i free'
p1246
g15
tp1247
a(S'what events do i have on'
p1248
g15
tp1249
a(S'get current weather'
p1250
g72
tp1251
a(S'turn up the volume please'
p1252
g15
tp1253
a(S'check the clock'
p1254
g15
tp1255
a(S'please shut off'
p1256
g15
tp1257
a(S'can you please shutdown'
p1258
g15
tp1259
a(S'can you turn off the computer'
p1260
g15
tp1261
a(S'can you shut down'
p1262
g15
tp1263
a(S'could you schedule a new event'
p1264
g15
tp1265
a(S'is it cold this week'
p1266
g72
tp1267
a(S'check my calendar on monday'
p1268
g15
tp1269
a(S'can you turn up the volume please'
p1270
g15
tp1271
a(S'could you check my inbox please'
p1272
g15
tp1273
a(S'what is on my calendar for this month'
p1274
g15
tp1275
a(S'can you add new event please'
p1276
g15
tp1277
a(S'could you check inbox'
p1278
g15
tp1279
a(S'are there any events in a month'
p1280
g15
tp1281
a(S'what is new in new mail please'
p1282
g15
tp1283
a(S'what is current news'
p1284
g15
tp1285
a(S'what is current events'
p1286
g15
tp1287
a(S'sweet dreams'
p1288
g15
tp1289
a(S'could you add event please'
p1290
g15
tp1291
a(S'start'
p1292
g15
tp1293
a(S"what's if it's rainy this week"
p1294
g72
tp1295
a(S'pause spotify'
p1296
g15
tp1297
a(S'google for'
p1298
g15
tp1299
a(S'check mail'
p1300
g15
tp1301
a(S'can you turn my computer off'
p1302
g15
tp1303
a(S'what do i have on thursday'
p1304
g15
tp1305
a(S'please go back'
p1306
g15
tp1307
a(S'please get the current events'
p1308
g15
tp1309
a(S'check google calendar on thursday'
p1310
g15
tp1311
a(S'how is the temperature'
p1312
g72
tp1313
a(S"don't i have to do anything today"
p1314
g15
tp1315
a(S'check my calendar for wednesday'
p1316
g15
tp1317
a(S'do i have anything in a month'
p1318
g15
tp1319
a(S'what do i have to do on today'
p1320
g15
tp1321
a(S'could you please make an event'
p1322
g15
tp1323
a(S'please will you open mail'
p1324
g15
tp1325
a(S'please pause spotify'
p1326
g15
tp1327
a(S'check calendar for monday'
p1328
g15
tp1329
a(S'can you please turn the tune down'
p1330
g15
tp1331
a(S'do i have anything today'
p1332
g15
tp1333
a(S'check events for wednesday'
p1334
g15
tp1335
a(S'shut off'
p1336
g15
tp1337
a(S'spotify go ahead'
p1338
g15
tp1339
a(S'will you open gmail'
p1340
g15
tp1341
a(S'could you check my inbox'
p1342
g15
tp1343
a(S'send me to the lock screen'
p1344
g15
tp1345
a(S'play '
p1346
g15
tp1347
a(S"what's this week's temperature"
p1348
g72
tp1349
a(S"what's in my gmail please"
p1350
g15
tp1351
a(S'please can you check new mail'
p1352
g15
tp1353
a(S'what events are on saturday'
p1354
g15
tp1355
a(S'can you make a new event please'
p1356
g15
tp1357
a(S'can you please turn up the sound'
p1358
g15
tp1359
a(S'do i have anything on monday'
p1360
g15
tp1361
a(S'please open my inbox'
p1362
g15
tp1363
a(S'please would you check my inbox'
p1364
g15
tp1365
a(S'do i have anything in my inbox'
p1366
g15
tp1367
a(S'tell me current events'
p1368
g15
tp1369
a(S'can you please kill this window'
p1370
g15
tp1371
a(S'lock'
p1372
g15
tp1373
a(S"what's in new gmail please"
p1374
g15
tp1375
a(S'could you add an event'
p1376
g15
tp1377
a(S'are there any events on thursday'
p1378
g15
tp1379
a(S'stop spotify'
p1380
g15
tp1381
a(S'check the current time please'
p1382
g15
tp1383
a(S'anything in inbox'
p1384
g15
tp1385
a(S'check what time it is please'
p1386
g15
tp1387
a(S'would you check my gmail please'
p1388
g15
tp1389
a(S'are there any events on friday'
p1390
g15
tp1391
a(S'can you send me to the lock screen'
p1392
g15
tp1393
a(S'please google search for'
p1394
g15
tp1395
a(S'byebye'
p1396
g15
tp1397
a(S'please schedule event'
p1398
g15
tp1399
a(S'can you make an event'
p1400
g15
tp1401
a(S"what's not if it's freezing this week"
p1402
g15
tp1403
a(S'do i have to do anything on this day'
p1404
g15
tp1405
a(S'check calendar for today'
p1406
g15
tp1407
a(S'open dot net'
p1408
g15
tp1409
a(S'can you please schedule event'
p1410
g15
tp1411
a(S'any events on next'
p1412
g15
tp1413
a(S'find current news'
p1414
g15
tp1415
a(S"how's the forecast not today"
p1416
g15
tp1417
a(S"please what's in my gmail"
p1418
g15
tp1419
a(S'news now please'
p1420
g15
tp1421
a(S"don't get current forecast"
p1422
g15
tp1423
a(S"what's this week's forecast"
p1424
g72
tp1425
a(S'check gmail'
p1426
g15
tp1427
a(S'is there anything i have to do on wednesday'
p1428
g15
tp1429
a(S'turn up the tunez please'
p1430
g15
tp1431
a(S'open my mail please'
p1432
g15
tp1433
a(S'kill the active window'
p1434
g15
tp1435
a(S'any events on tomorrow'
p1436
g15
tp1437
a(S'can you lock computer please'
p1438
g15
tp1439
a(S"don't i have to do anything in a month"
p1440
g15
tp1441
a(S'tell me news'
p1442
g15
tp1443
a(S'please kill active window'
p1444
g15
tp1445
a(S"please what's new in my mail"
p1446
g15
tp1447
a(S'could you create new event please'
p1448
g15
tp1449
a(S'can you create new event please'
p1450
g15
tp1451
a(S'please what is new in my mail'
p1452
g15
tp1453
a(S'please kill current window'
p1454
g15
tp1455
a(S'find headlines'
p1456
g15
tp1457
a(S'next'
p1458
g15
tp1459
a(S'please would you check my mail'
p1460
g15
tp1461
a(S'go to'
p1462
g15
tp1463
a(S"what're the live news"
p1464
g15
tp1465
a(S'can you lock my computer please'
p1466
g15
tp1467
a(S'not current weather'
p1468
g15
tp1469
a(S'check events on this day'
p1470
g15
tp1471
a(S'check events on month'
p1472
g15
tp1473
a(S'what are the live news'
p1474
g15
tp1475
a(S"don't get if it's cloudy today"
p1476
g15
tp1477
a(S'turn the beat down'
p1478
g15
tp1479
a(S'check google calendar for tomorrow'
p1480
g15
tp1481
a(S'what do i have to do on'
p1482
g15
tp1483
a(S"get if it's snowing today"
p1484
g72
tp1485
a(S'please can you check my mail'
p1486
g15
tp1487
a(S'please open my gmail'
p1488
g15
tp1489
a(S'schedule an event please'
p1490
g15
tp1491
a(S'could you create a new event please'
p1492
g15
tp1493
a(S'what is on my calendar for friday'
p1494
g15
tp1495
a(S"don't i have any events on saturday"
p1496
g15
tp1497
a(S'what is new in my gmail'
p1498
g15
tp1499
a(S'check events for monday'
p1500
g15
tp1501
a(S'would you open mail'
p1502
g15
tp1503
a(S"don't i have to do anything on friday"
p1504
g15
tp1505
a(S"get this week's temperature"
p1506
g72
tp1507
a(S'search google for please'
p1508
g15
tp1509
a(S'please what is in new mail'
p1510
g15
tp1511
a(S"don't get this week's weather"
p1512
g15
tp1513
a(S'turn up the tunez'
p1514
g15
tp1515
a(S'any new mail'
p1516
g15
tp1517
a(S"what's not this week's temperature"
p1518
g15
tp1519
a(S"don't i have any events on friday"
p1520
g15
tp1521
a(S'could you schedule a new event please'
p1522
g15
tp1523
a(S'can you schedule event'
p1524
g15
tp1525
a(S'schedule an event'
p1526
g15
tp1527
a(S'could you please make a new event'
p1528
g15
tp1529
a(S'check events on today'
p1530
g15
tp1531
a(S"today's temperature"
p1532
g72
tp1533
a(S'what is new in gmail please'
p1534
g15
tp1535
a(S'stop song please'
p1536
g15
tp1537
a(S"this week's forecast"
p1538
g72
tp1539
a(S"what's forecast"
p1540
g72
tp1541
a(S'google search please'
p1542
g15
tp1543
a(S'what is new in gmail'
p1544
g15
tp1545
a(S'exit'
p1546
g15
tp1547
a(S'do i have to do anything on wednesday'
p1548
g15
tp1549
a(S'check my calendar on friday'
p1550
g15
tp1551
a(S'check calendar on month'
p1552
g15
tp1553
a(S'will you check inbox please'
p1554
g15
tp1555
a(S"what's today's weather"
p1556
g72
tp1557
a(S"aren't there any events on monday"
p1558
g15
tp1559
a(S'put me on the lock screen please'
p1560
g15
tp1561
a(S'can you schedule an event please'
p1562
g15
tp1563
a(S'please check my inbox'
p1564
g15
tp1565
a(S'get the news'
p1566
g15
tp1567
a(S"get today's weather"
p1568
g72
tp1569
a(S'what do i have on sunday'
p1570
g15
tp1571
a(S'check calendar for friday'
p1572
g15
tp1573
a(S'what events are going on right now'
p1574
g15
tp1575
a(S'will you check my gmail please'
p1576
g15
tp1577
a(S"don't get if it's snowing today"
p1578
g15
tp1579
a(S'add event'
p1580
g15
tp1581
a(S'could you add new event'
p1582
g15
tp1583
a(S'what do i have to do on next'
p1584
g15
tp1585
a(S'will you check gmail please'
p1586
g15
tp1587
a(S'please could you check my gmail'
p1588
g15
tp1589
a(S'please close this window'
p1590
g15
tp1591
a(S'please turn it up'
p1592
g15
tp1593
a(S'check events on friday'
p1594
g15
tp1595
a(S'could you make event'
p1596
g15
tp1597
a(S'will you get the headlines'
p1598
g15
tp1599
a(S'go to dot com'
p1600
g15
tp1601
a(S'lower the sound'
p1602
g15
tp1603
a(S'start default browser'
p1604
g15
tp1605
a(S'will you check my mail please'
p1606
g15
tp1607
a(S'live news feed today'
p1608
g15
tp1609
a(S'do i have anything to do on friday'
p1610
g15
tp1611
a(S"not today's weather"
p1612
g15
tp1613
a(S'is it raining this week'
p1614
g72
tp1615
a(S"don't get today's temperature"
p1616
g15
tp1617
a(S'what do i have to do on this day'
p1618
g15
tp1619
a(S'will you check my mail'
p1620
g15
tp1621
a(S"aren't there any events on tomorrow"
p1622
g15
tp1623
a(S'please search'
p1624
g15
tp1625
a(S'put me on the lock screen'
p1626
g15
tp1627
a(S'what do i have in a week'
p1628
g15
tp1629
a(S'any events on today'
p1630
g15
tp1631
a(S'could you create a new event'
p1632
g15
tp1633
a(S"how's the temperature"
p1634
g72
tp1635
a(S"what're the current news"
p1636
g15
tp1637
a(S'check calendar on tomorrow'
p1638
g15
tp1639
a(S"what's the news"
p1640
g15
tp1641
a(S'go to dot gov'
p1642
g15
tp1643
a(S'search please'
p1644
g15
tp1645
a(S'would you open mail please'
p1646
g15
tp1647
a(S'set volume 0'
p1648
g15
tp1649
a(S'what events are on'
p1650
g15
tp1651
a(S'what is in my inbox'
p1652
g15
tp1653
a(S"don't i have any events on next"
p1654
g15
tp1655
a(S"not today's temperature"
p1656
g15
tp1657
a(S'would you check my mail please'
p1658
g15
tp1659
a(S'add an event please'
p1660
g15
tp1661
a(S'would you check my inbox'
p1662
g15
tp1663
a(S"get if it's snowing this week"
p1664
g72
tp1665
a(S'read the time'
p1666
g15
tp1667
a(S"don't get if it's cold today"
p1668
g15
tp1669
a(S'are there any events on sunday'
p1670
g15
tp1671
a(S'go back please'
p1672
g15
tp1673
a(S"what's new in inbox"
p1674
g15
tp1675
a(S'get the current time'
p1676
g15
tp1677
a(S'what do i have to do in a month'
p1678
g15
tp1679
a(S'the news'
p1680
g15
tp1681
a(S'are there any events on this day'
p1682
g15
tp1683
a(S'please read me the clock'
p1684
g15
tp1685
a(S'could you check my gmail'
p1686
g15
tp1687
a(S'what are the live newsfeed'
p1688
g15
tp1689
a(S'open a default browser please'
p1690
g15
tp1691
a(S'what do i have on next'
p1692
g15
tp1693
a(S'am i free for'
p1694
g15
tp1695
a(S"what's not if it's cloudy today"
p1696
g15
tp1697
a(S'is there anything to do on today'
p1698
g15
tp1699
a(S"what's the live news"
p1700
g15
tp1701
a(S'what is new in new gmail please'
p1702
g15
tp1703
a(S'current time'
p1704
g15
tp1705
a(S'check calendar on monday'
p1706
g15
tp1707
a(S'please open dot com'
p1708
g15
tp1709
a(S'can you check inbox'
p1710
g15
tp1711
a(S"what's if it's hot this week"
p1712
g72
tp1713
a(S'any events on'
p1714
g15
tp1715
a(S'are there any events on tuesday'
p1716
g15
tp1717
a(S'current events'
p1718
g15
tp1719
a(S'alice next please'
p1720
g15
tp1721
a(S'could you schedule event'
p1722
g15
tp1723
a(S'please add an event'
p1724
g15
tp1725
a(S"don't i have anything to do"
p1726
g15
tp1727
a(S"don't i have to do anything on saturday"
p1728
g15
tp1729
a(S'what do i have on saturday'
p1730
g15
tp1731
a(S"aren't there any events on next"
p1732
g15
tp1733
a(S"get if it's raining this week"
p1734
g72
tp1735
a(S'retrieve what time it is'
p1736
g15
tp1737
a(S"if it's hot this week"
p1738
g72
tp1739
a(S'check calendar for saturday'
p1740
g15
tp1741
a(S"what's not this week's weather"
p1742
g15
tp1743
a(S"don't i have to do anything in a week"
p1744
g15
tp1745
a(S"don't get if it's snowing this week"
p1746
g15
tp1747
a(S'check my inbox'
p1748
g15
tp1749
a(S'turn yourself off please'
p1750
g15
tp1751
a(S"what's new in my gmail"
p1752
g15
tp1753
a(S"what're the the news"
p1754
g15
tp1755
a(S'anything in my gmail'
p1756
g15
tp1757
a(S'please can you check inbox'
p1758
g15
tp1759
a(S'mute'
p1760
g15
tp1761
a(S'go ahead'
p1762
g15
tp1763
a(S"don't get this week's temperature"
p1764
g15
tp1765
a(S'add event please'
p1766
g15
tp1767
a(S'check my calendar on thursday'
p1768
g15
tp1769
a(S'check google calendar for friday'
p1770
g15
tp1771
a(S'anything new in my inbox'
p1772
g15
tp1773
a(S'pause spotify please'
p1774
g15
tp1775
a(S'is there anything to do on tuesday'
p1776
g15
tp1777
a(S"what's this week's weather"
p1778
g72
tp1779
a(S'what is on my calendar for this day'
p1780
g15
tp1781
a(S'please check your watch'
p1782
g15
tp1783
a(S'please can you check my inbox'
p1784
g15
tp1785
a(S'i like dogs'
p1786
g15
tp1787
a(S'get the current events'
p1788
g15
tp1789
a(S'hey alex'
p1790
g15
tp1791
a(S'go ahead spotify please'
p1792
g15
tp1793
a(S'could you make new event'
p1794
g15
tp1795
a(S'do i have to do anything in a week'
p1796
g15
tp1797
a(S'can you make event please'
p1798
g15
tp1799
a(S"what's in my mail please"
p1800
g15
tp1801
a(S"what's not if it's foggy today"
p1802
g15
tp1803
a(S'start browsing'
p1804
g15
tp1805
a(S'turn up the tune'
p1806
g15
tp1807
a(S'can you create an event please'
p1808
g15
tp1809
a(S'can you turn up the tunez'
p1810
g15
tp1811
a(S'what time is it right now'
p1812
g15
tp1813
a(S"what's not the weather"
p1814
g15
tp1815
a(S'will you check my inbox'
p1816
g15
tp1817
a(S'check my calendar for monday'
p1818
g15
tp1819
a(S'can you please turn off my computer'
p1820
g15
tp1821
a(S'make the sound higher'
p1822
g15
tp1823
a(S'can you turn the volume higher please'
p1824
g15
tp1825
a(S'set the volume zero'
p1826
g15
tp1827
a(S'stop'
p1828
g15
tp1829
a(S'what do i have'
p1830
g15
tp1831
a(S'would you check my gmail'
p1832
g15
tp1833
a(S'give me the news'
p1834
g15
tp1835
a(S'okay alex'
p1836
g15
tp1837
a(S'check google calendar on friday'
p1838
g15
tp1839
a(S'please search for'
p1840
g15
tp1841
a(S'schedule a new event'
p1842
g15
tp1843
a(S'please read time'
p1844
g15
tp1845
a(S"get if it's cloudy today"
p1846
g72
tp1847
a(S'is there anything i have to do in a month'
p1848
g15
tp1849
a(S"not what's not the forecast today"
p1850
g15
tp1851
a(S"what's if it's foggy this week"
p1852
g72
tp1853
a(S'next song'
p1854
g15
tp1855
a(S'shut off my computer please'
p1856
g15
tp1857
a(S'please get the time'
p1858
g15
tp1859
a(S'exit please'
p1860
g15
tp1861
a(S'is there anything i have to do on this day'
p1862
g15
tp1863
a(S'is it cold today'
p1864
g72
tp1865
a(S'can you check my gmail please'
p1866
g15
tp1867
a(S'could you check inbox please'
p1868
g15
tp1869
a(S'schedule event'
p1870
g15
tp1871
a(S'create a new event'
p1872
g15
tp1873
a(S'please close active window'
p1874
g15
tp1875
a(S'turn off please'
p1876
g15
tp1877
a(S'what events are in a week'
p1878
g15
tp1879
a(S'please google'
p1880
g15
tp1881
a(S'spotify stop'
p1882
g15
tp1883
a(S"get this week's forecast"
p1884
g72
tp1885
a(S"what's temperature"
p1886
g72
tp1887
a(S"today's current news "
p1888
g15
tp1889
a(S'please shut off my computer'
p1890
g15
tp1891
a(S"don't i have to do anything"
p1892
g15
tp1893
a(S'create a new event please'
p1894
g15
tp1895
a(S'shut down'
p1896
g15
tp1897
a(S'am i free on saturday'
p1898
g15
tp1899
a(S'check google calendar for next'
p1900
g15
tp1901
a(S'can you please close the active window'
p1902
g15
tp1903
a(S'turn off my computer please'
p1904
g15
tp1905
a(S'do i have to do anything'
p1906
g15
tp1907
a(S"please what's new in new gmail"
p1908
g15
tp1909
a(S'will you get the news for me'
p1910
g15
tp1911
a(S'any events in a month'
p1912
g15
tp1913
a(S'is it snowing today'
p1914
g72
tp1915
a(S'anything new in my gmail'
p1916
g15
tp1917
a(S'will you check my gmail'
p1918
g15
tp1919
a(S'check calendar'
p1920
g15
tp1921
a(S'go to dot org'
p1922
g15
tp1923
a(S'do i have anything on tuesday'
p1924
g15
tp1925
a(S'can you close the active window'
p1926
g15
tp1927
a(S'what are the headlines'
p1928
g15
tp1929
a(S'what events do i have in a week'
p1930
g15
tp1931
a(S'are there any events on'
p1932
g15
tp1933
a(S"get if it's hot this week"
p1934
g72
tp1935
a(S'check calendar on thursday'
p1936
g15
tp1937
a(S'what events are'
p1938
g15
tp1939
a(S'what events are on tomorrow'
p1940
g15
tp1941
a(S'could you make an event'
p1942
g15
tp1943
a(S'check events for next'
p1944
g15
tp1945
a(S"don't i have to do anything on thursday"
p1946
g15
tp1947
a(S'start spotify please'
p1948
g15
tp1949
a(S'please google for'
p1950
g15
tp1951
a(S'please get the clock'
p1952
g15
tp1953
a(S"don't i have any events on today"
p1954
g15
tp1955
a(S"don't i have anything to do in a week"
p1956
g15
tp1957
a(S'check my calendar for this day'
p1958
g15
tp1959
a(S'can you lock the screen please'
p1960
g15
tp1961
a(S'please what is in mail'
p1962
g15
tp1963
a(S'do i have any events on monday'
p1964
g15
tp1965
a(S'can you please make event'
p1966
g15
tp1967
a(S"if it's cold today"
p1968
g72
tp1969
a(S'can you shutdown the computer'
p1970
g15
tp1971
a(S'debrief me'
p1972
g15
tp1973
a(S'what events are on sunday'
p1974
g15
tp1975
a(S'are there any events in a week'
p1976
g15
tp1977
a(S'do i have anything on next'
p1978
g15
tp1979
a(S"what's in new mail"
p1980
g15
tp1981
a(S'sound up please'
p1982
g15
tp1983
a(S'can you turn up the sound'
p1984
g15
tp1985
a(S'can you send me to the lock screen please'
p1986
g15
tp1987
a(S'get clock please'
p1988
g15
tp1989
a(S'shut my computer down'
p1990
g15
tp1991
a(S'spotify skip ahead'
p1992
g15
tp1993
a(S'what do i have on tomorrow'
p1994
g15
tp1995
a(S'check new gmail please'
p1996
g15
tp1997
a(S"what's if it's freezing today"
p1998
g72
tp1999
a(S'could you create an event please'
p2000
g15
tp2001
a(S'would you check gmail'
p2002
g15
tp2003
a(S'please start browsing'
p2004
g15
tp2005
a(S'please create an event'
p2006
g15
tp2007
a(S'would you check new mail please'
p2008
g15
tp2009
a(S"please what's in mail"
p2010
g15
tp2011
a(S'get clock'
p2012
g15
tp2013
a(S'will you open my mail please'
p2014
g15
tp2015
a(S'do i have any events on'
p2016
g15
tp2017
a(S"how's the temperature not today"
p2018
g15
tp2019
a(S'could you add new event please'
p2020
g15
tp2021
a(S'spotify start the song please'
p2022
g15
tp2023
a(S'check events for this day'
p2024
g15
tp2025
a(S'can you turn the beat down'
p2026
g15
tp2027
a(S'open dot org'
p2028
g15
tp2029
a(S'what is in new gmail'
p2030
g15
tp2031
a(S'kill the noise'
p2032
g15
tp2033
a(S'do i have anything to do tomorrow'
p2034
g15
tp2035
a(S'make new event please'
p2036
g15
tp2037
a(S'what is in new gmail please'
p2038
g15
tp2039
a(S'be quiet'
p2040
g15
tp2041
a(S'please schedule a new event'
p2042
g15
tp2043
a(S'what is news'
p2044
g15
tp2045
a(S'please start spotify'
p2046
g15
tp2047
a(S'shutdown my computer'
p2048
g15
tp2049
a(S'shut off please'
p2050
g15
tp2051
a(S'please could you check mail'
p2052
g15
tp2053
a(S'do i have any events on saturday'
p2054
g15
tp2055
a(S'live newsfeed'
p2056
g15
tp2057
a(S'please start browser'
p2058
g15
tp2059
a(S'is it hot this week'
p2060
g72
tp2061
a(S'can you please kill the current window'
p2062
g15
tp2063
a(S'will you get the current headlines'
p2064
g15
tp2065
a(S'okay alice'
p2066
g15
tp2067
a(S'get me the news todays'
p2068
g15
tp2069
a(S'is there anything i have to do'
p2070
g15
tp2071
a(S'tell me headlines'
p2072
g15
tp2073
a(S'please check inbox'
p2074
g15
tp2075
a(S'check new mail'
p2076
g15
tp2077
a(S'go back'
p2078
g15
tp2079
a(S'turn off the computer'
p2080
g15
tp2081
a(S'check calendar on this day'
p2082
g15
tp2083
a(S'please what is in new gmail'
p2084
g15
tp2085
a(S'please will you check gmail'
p2086
g15
tp2087
a(S'newsfeed'
p2088
g15
tp2089
a(S'please turn it down'
p2090
g15
tp2091
a(S'google search for please'
p2092
g15
tp2093
a(S'is it raining today'
p2094
g72
tp2095
a(S"don't i have to do anything tomorrow"
p2096
g15
tp2097
a(S"not this week's weather"
p2098
g15
tp2099
a(S'what events are on monday'
p2100
g15
tp2101
a(S"what's if it's cold today"
p2102
g72
tp2103
a(S'what events do i have on monday'
p2104
g15
tp2105
a(S"not this week's forecast"
p2106
g15
tp2107
a(S'make the volume lower'
p2108
g15
tp2109
a(S"don't i have any events on thursday"
p2110
g15
tp2111
a(S'check calendar on sunday'
p2112
g15
tp2113
a(S"what's not today's forecast"
p2114
g15
tp2115
a(S'spotify stop the song '
p2116
g15
tp2117
a(S"don't i have anything on sunday"
p2118
g15
tp2119
a(S'kill window'
p2120
g15
tp2121
a(S"what's in my inbox please"
p2122
g15
tp2123
a(S'check the current time'
p2124
g15
tp2125
a(S'will you check my inbox please'
p2126
g15
tp2127
a(S'anything new in inbox'
p2128
g15
tp2129
a(S'read the clock please'
p2130
g15
tp2131
a(S"don't get weather"
p2132
g15
tp2133
a(S'can you turn up the tune'
p2134
g15
tp2135
a(S'please kill the window'
p2136
g15
tp2137
a(S'lower the volume'
p2138
g15
tp2139
a(S'what are the current events'
p2140
g15
tp2141
a(S'can you please kill the active window'
p2142
g15
tp2143
a(S"what's new in my inbox"
p2144
g15
tp2145
a(S"what's in new gmail"
p2146
g15
tp2147
a(S"what's in inbox"
p2148
g15
tp2149
a(S"what's the current events"
p2150
g15
tp2151
a(S'check my calendar for sunday'
p2152
g15
tp2153
a(S'would you open inbox please'
p2154
g15
tp2155
a(S"get if it's cold today"
p2156
g72
tp2157
a(S"get if it's cloudy this week"
p2158
g72
tp2159
a(S"what's new in new gmail please"
p2160
g15
tp2161
a(S'do i have any events on friday'
p2162
g15
tp2163
a(S'volume higher please'
p2164
g15
tp2165
a(S'open a browser please'
p2166
g15
tp2167
a(S'open mail'
p2168
g15
tp2169
a(S'get forecast'
p2170
g72
tp2171
a(S'could you open gmail'
p2172
g15
tp2173
a(S'can you please make new event'
p2174
g15
tp2175
a(S'is there anything to do on wednesday'
p2176
g15
tp2177
a(S'can you shut off my computer'
p2178
g15
tp2179
a(S'turn up the tunes'
p2180
g15
tp2181
a(S'check events for this day'
p2182
g15
tp2183
a(S"what's not the temperature this week"
p2184
g15
tp2185
a(S'am i free for wednesday'
p2186
g15
tp2187
a(S"don't i have to do anything on thursday"
p2188
g15
tp2189
a(S'unmute please'
p2190
g15
tp2191
a(S'song stop'
p2192
g15
tp2193
a(S'can you please turn my computer off'
p2194
g15
tp2195
a(S'please will you check new gmail'
p2196
g15
tp2197
a(S'check the clock please'
p2198
g15
tp2199
a(S'do i have anything to do on saturday'
p2200
g15
tp2201
a(S'can you please shut my computer down'
p2202
g15
tp2203
a(S'can you turn off my computer'
p2204
g15
tp2205
a(S'check events on tuesday'
p2206
g15
tp2207
a(S'will you get the current events for me'
p2208
g15
tp2209
a(S"don't i have anything on saturday"
p2210
g15
tp2211
a(S'read the clock'
p2212
g15
tp2213
a(S'is it snowing this week'
p2214
g72
tp2215
a(S'kill this window'
p2216
g15
tp2217
a(S'will you check new mail'
p2218
g15
tp2219
a(S'would you check new gmail'
p2220
g15
tp2221
a(S'mute please'
p2222
g15
tp2223
a(S"today's weather"
p2224
g72
tp2225
a(S'am i free on tomorrow'
p2226
g15
tp2227
a(S'please pause'
p2228
g15
tp2229
a(S"what's if it's hot today"
p2230
g72
tp2231
a(S'please could you check gmail'
p2232
g15
tp2233
a(S"how's the forecast today"
p2234
g72
tp2235
a(S'please kill the active window'
p2236
g15
tp2237
a(S'can you check new mail please'
p2238
g15
tp2239
a(S'check calendar on wednesday'
p2240
g15
tp2241
a(S'skip'
p2242
g15
tp2243
a(S'turn it down'
p2244
g15
tp2245
a(S'do i have any events on sunday'
p2246
g15
tp2247
a(S'good night alice'
p2248
g15
tp2249
a(S'is there anything to do on'
p2250
g15
tp2251
a(S'check google calendar on wednesday'
p2252
g15
tp2253
a(S'when is it please'
p2254
g15
tp2255
a(S'check calendar for sunday'
p2256
g15
tp2257
a(S'get current events'
p2258
g15
tp2259
a(S'am i free for thursday'
p2260
g15
tp2261
a(S"don't i have to do anything on tuesday"
p2262
g15
tp2263
a(S'is there anything to do on sunday'
p2264
g15
tp2265
a(S'find newsfeed'
p2266
g15
tp2267
a(S'please lock the screen'
p2268
g15
tp2269
a(S'check my calendar for'
p2270
g15
tp2271
a(S'would you open my gmail'
p2272
g15
tp2273
a(S'what do i have to do'
p2274
g15
tp2275
a(S'could you create event'
p2276
g15
tp2277
a(S'please sound up'
p2278
g15
tp2279
a(S"what's new in my mail"
p2280
g15
tp2281
a(S'please start'
p2282
g15
tp2283
a(S'please create a new event'
p2284
g15
tp2285
a(S'anything in my inbox'
p2286
g15
tp2287
a(S'start a browser please'
p2288
g15
tp2289
a(S'what do i have to do on sunday'
p2290
g15
tp2291
a(S'spotify next song '
p2292
g15
tp2293
a(S'make a new event'
p2294
g15
tp2295
a(S'check my calendar for tomorrow'
p2296
g15
tp2297
a(S'kill the active program'
p2298
g15
tp2299
a(S'please open my mail'
p2300
g15
tp2301
a(S'check google calendar for wednesday'
p2302
g15
tp2303
a(S'is there anything i have to do on today'
p2304
g15
tp2305
a(S'what do i have to do on wednesday'
p2306
g15
tp2307
a(S'please check mail'
p2308
g15
tp2309
a(S'please what is new in new gmail'
p2310
g15
tp2311
a(S"today's current events"
p2312
g15
tp2313
a(S'stop the tunez'
p2314
g15
tp2315
a(S'can you please shut up'
p2316
g15
tp2317
a(S'can you turn up the volume'
p2318
g15
tp2319
a(S'not current forecast'
p2320
g15
tp2321
a(S'any new gmail'
p2322
g15
tp2323
a(S'please will you open my gmail'
p2324
g15
tp2325
a(S'spotify go please'
p2326
g15
tp2327
a(S"this week's temperature"
p2328
g72
tp2329
a(S'what events do i have on tuesday'
p2330
g15
tp2331
a(S'check google calendar on next'
p2332
g15
tp2333
a(S"what's new in new mail"
p2334
g15
tp2335
a(S'any events on wednesday'
p2336
g15
tp2337
a(S'kill the program'
p2338
g15
tp2339
a(S'do i have to do anything on thursday'
p2340
g15
tp2341
a(S'temperature'
p2342
g72
tp2343
a(S'turn the beat down please'
p2344
g15
tp2345
a(S'shut up'
p2346
g15
tp2347
a(S'spotify pause'
p2348
g15
tp2349
a(S"not today's temperature"
p2350
g15
tp2351
a(S'is there anything i have to do on'
p2352
g15
tp2353
a(S'check if i have anything in my inbox'
p2354
g15
tp2355
a(S'can you check my inbox please'
p2356
g15
tp2357
a(S'do i have anything to do on wednesday'
p2358
g15
tp2359
a(S'get me the clock'
p2360
g15
tp2361
a(S'please make new event'
p2362
g15
tp2363
a(S'open inbox please'
p2364
g15
tp2365
a(S"aren't there any events on tuesday"
p2366
g15
tp2367
a(S"what's the weather"
p2368
g72
tp2369
a(S"don't i have anything to do tomorrow"
p2370
g15
tp2371
a(S'please search google'
p2372
g15
tp2373
a(S'will you check new gmail please'
p2374
g15
tp2375
a(S'can you please add new event'
p2376
g15
tp2377
a(S'current temperature'
p2378
g72
tp2379
a(S'please get time'
p2380
g15
tp2381
a(S'what is live newsfeed'
p2382
g15
tp2383
a(S'check google calendar for'
p2384
g15
tp2385
a(S'can you get the latest headlines'
p2386
g15
tp2387
a(S"please what's in gmail"
p2388
g15
tp2389
a(S'do i have any events on tuesday'
p2390
g15
tp2391
a(S"don't get temperature"
p2392
g15
tp2393
a(S'is there anything to do on thursday'
p2394
g15
tp2395
a(S'can you please add an event'
p2396
g15
tp2397
a(S'what events do i have on tomorrow'
p2398
g15
tp2399
a(S'what is news feed'
p2400
g15
tp2401
a(S'stop the song'
p2402
g15
tp2403
a(S'please kill this window'
p2404
g15
tp2405
a(S'please tell me whats going on in the news please'
p2406
g15
tp2407
a(S'would you check inbox'
p2408
g15
tp2409
a(S'please can you check new gmail'
p2410
g15
tp2411
a(S"if it's snowing this week"
p2412
g72
tp2413
a(S'give me the current events'
p2414
g15
tp2415
a(S"please what's in my mail"
p2416
g15
tp2417
a(S'please get clock'
p2418
g15
tp2419
a(S'please would you check mail'
p2420
g15
tp2421
a(S'is there anything i have to do tomorrow'
p2422
g15
tp2423
a(S'can you add an event please'
p2424
g15
tp2425
a(S'can you check new gmail please'
p2426
g15
tp2427
a(S'google search'
p2428
g15
tp2429
a(S'forecast'
p2430
g72
tp2431
a(S"what's not today's temperature"
p2432
g15
tp2433
a(S'train a classifier to try to predict the category of a post'
p2434
g15
tp2435
a(S"don't i have anything on this day"
p2436
g15
tp2437
a(S'news feed today'
p2438
g15
tp2439
a(S'sound higher please'
p2440
g15
tp2441
a(S'could you please schedule event'
p2442
g15
tp2443
a(S"aren't there any events on thursday"
p2444
g15
tp2445
a(S'please get the news'
p2446
g15
tp2447
a(S"don't i have to do anything on next"
p2448
g15
tp2449
a(S"what's if it's cold this week"
p2450
g72
tp2451
a(S'please turn my computer off'
p2452
g15
tp2453
a(S'gimme the news'
p2454
g15
tp2455
a(S'check my calendar on'
p2456
g15
tp2457
a(S"please what's new in inbox"
p2458
g15
tp2459
a(S'can you open this program'
p2460
g15
tp2461
a(S'any events on saturday'
p2462
g15
tp2463
a(S'would you check inbox please'
p2464
g15
tp2465
a(S"today's news feed"
p2466
g15
tp2467
a(S'please google search'
p2468
g15
tp2469
a(S'please will you check new mail'
p2470
g15
tp2471
a(S'lock my computer'
p2472
g15
tp2473
a(S"what's in my mail"
p2474
g15
tp2475
a(S'google'
p2476
g15
tp2477
a(S'please create new event'
p2478
g15
tp2479
a(S'create new event'
p2480
g15
tp2481
a(S'schedule a new event please'
p2482
g15
tp2483
a(S'please would you open my inbox'
p2484
g15
tp2485
a(S'do i have anything on this day'
p2486
g15
tp2487
a(S'turn off the beats'
p2488
g15
tp2489
a(S'give me intel on current events'
p2490
g15
tp2491
a(S"don't get if it's freezing this week"
p2492
g15
tp2493
a(S'do i have anything tomorrow'
p2494
g15
tp2495
a(S'what do i have on today'
p2496
g15
tp2497
a(S'start a browser'
p2498
g15
tp2499
a(S"aren't there any events"
p2500
g15
tp2501
a(S'add an event'
p2502
g15
tp2503
a(S"what's new in my inbox please"
p2504
g15
tp2505
a(S'turn up'
p2506
g15
tp2507
a(S'get the the latest headlines'
p2508
g15
tp2509
a(S'what events do i have on today'
p2510
g15
tp2511
a(S"how's the weather this week"
p2512
g72
tp2513
a(S'please what is new in my inbox'
p2514
g15
tp2515
a(S'do i have any events on this day'
p2516
g15
tp2517
a(S'kill the current window'
p2518
g15
tp2519
a(S'check google calendar for this day'
p2520
g15
tp2521
a(S'can you shut down the computer'
p2522
g15
tp2523
a(S"what's not if it's raining this week"
p2524
g15
tp2525
a(S'gather the latest headlines please'
p2526
g15
tp2527
a(S'please close the window'
p2528
g15
tp2529
a(S"get if it's raining today"
p2530
g72
tp2531
a(S'can you kill the window'
p2532
g15
tp2533
a(S'turn off my computer'
p2534
g15
tp2535
a(S"if it's cloudy this week"
p2536
g72
tp2537
a(S"how's the weather"
p2538
g72
tp2539
a(S'can you quit'
p2540
g15
tp2541
a(S'find the news'
p2542
g15
tp2543
a(S"what's new in my mail please"
p2544
g15
tp2545
a(S'can you schedule a new event please'
p2546
g15
tp2547
a(S'can you add event please'
p2548
g15
tp2549
a(S'open browser'
p2550
g15
tp2551
a(S'pause the song please'
p2552
g15
tp2553
a(S'could you create new event'
p2554
g15
tp2555
a(S'add a new event'
p2556
g15
tp2557
a(S'we stick to simple problems in this post for the sake of illustration'
p2558
g15
tp2559
a(S'please give me current events'
p2560
g15
tp2561
a(S'fake news'
p2562
g15
tp2563
a(S"what's not weather"
p2564
g15
tp2565
a(S"don't i have anything on next"
p2566
g15
tp2567
a(S'bye bye'
p2568
g15
tp2569
a(S"don't i have any events on tuesday"
p2570
g15
tp2571
a(S'please lock my computer'
p2572
g15
tp2573
a(S"don't get if it's foggy this week"
p2574
g15
tp2575
a(S"what's not if it's foggy this week"
p2576
g15
tp2577
a(S'spotify play last song please'
p2578
g15
tp2579
a(S'is there anything i have to do today'
p2580
g15
tp2581
a(S'how is the temperature not'
p2582
g15
tp2583
a(S'please could you check new gmail'
p2584
g15
tp2585
a(S'could you please create new event'
p2586
g15
tp2587
a(S"don't get current temperature"
p2588
g15
tp2589
a(S'please what is new in inbox'
p2590
g15
tp2591
a(S'read me the clock please'
p2592
g15
tp2593
a(S'spotify skip'
p2594
g15
tp2595
a(S"if it's foggy today"
p2596
g72
tp2597
a(S"how's the weather not"
p2598
g15
tp2599
a(S'can you please exit'
p2600
g15
tp2601
a(S'am i free on this day'
p2602
g15
tp2603
a(S"what's the time"
p2604
g15
tp2605
a(S'give me intel'
p2606
g15
tp2607
a(S'kill the music'
p2608
g15
tp2609
a(S"if it's freezing today"
p2610
g72
tp2611
a(S'please pause song'
p2612
g15
tp2613
a(S'please would you check gmail'
p2614
g15
tp2615
a(S"what's new in my gmail please"
p2616
g15
tp2617
a(S'can you please add event'
p2618
g15
tp2619
a(S'check my calendar for today'
p2620
g15
tp2621
a(S'what is live news feed'
p2622
g15
tp2623
a(S'get the clock'
p2624
g15
tp2625
a(S'what are the newsfeed'
p2626
g15
tp2627
a(S'can you please make an event'
p2628
g15
tp2629
a(S"don't i have to do anything on monday"
p2630
g15
tp2631
a(S'what do i have to do in a week'
p2632
g15
tp2633
a(S'get current temperature'
p2634
g72
tp2635
a(S'please open a browser'
p2636
g15
tp2637
a(S'can you please turn off the computer'
p2638
g15
tp2639
a(S"don't i have any events on wednesday"
p2640
g15
tp2641
a(S'check my calendar for next'
p2642
g15
tp2643
a(S"today's live news feed"
p2644
g15
tp2645
a(S'will it rain this week'
p2646
g72
tp2647
a(S'can you kill the current window'
p2648
g15
tp2649
a(S'go to dot ee dee you'
p2650
g15
tp2651
a(S'find current events'
p2652
g15
tp2653
a(S'check google calendar for tuesday'
p2654
g15
tp2655
a(S'am i free for a month'
p2656
g15
tp2657
a(S"how's the weather today"
p2658
g72
tp2659
a(S"if it's raining today"
p2660
g72
tp2661
a(S'what are the current news'
p2662
g15
tp2663
a(S'check google calendar for monday'
p2664
g15
tp2665
a(S'turn down the volume'
p2666
g15
tp2667
a(S'could you please schedule an event'
p2668
g15
tp2669
a(S'what is in my inbox please'
p2670
g15
tp2671
a(S'do i have anything on friday'
p2672
g15
tp2673
a(S"don't i have to do anything on this day"
p2674
g15
tp2675
a(S'could you open mail'
p2676
g15
tp2677
a(S'am i free for a week'
p2678
g15
tp2679
a(S"don't get if it's hot this week"
p2680
g15
tp2681
a(S'check my calendar on this day'
p2682
g15
tp2683
a(S'can you turn yourself off please'
p2684
g15
tp2685
a(S'what is new in inbox'
p2686
g15
tp2687
a(S"if it's rainy this week"
p2688
g72
tp2689
a(S'can you make event'
p2690
g15
tp2691
a(S'please can you check mail'
p2692
g15
tp2693
a(S'what events do i have in a month'
p2694
g15
tp2695
a(S'check events for'
p2696
g15
tp2697
a(S'what do i have to do on tuesday'
p2698
g15
tp2699
a(S'please will you check mail'
p2700
g15
tp2701
a(S'alex'
p2702
g15
tp2703
a(S'can you create event please'
p2704
g15
tp2705
a(S"don't i have anything to do on"
p2706
g15
tp2707
a(S'are there any events on today'
p2708
g15
tp2709
a(S'do i have anything on sunday'
p2710
g15
tp2711
a(S"please what's new in new mail"
p2712
g15
tp2713
a(S'get current time please'
p2714
g15
tp2715
a(S'do i have anything to do on monday'
p2716
g15
tp2717
a(S'check google calendar on tuesday'
p2718
g15
tp2719
a(S'am i free on next'
p2720
g15
tp2721
a(S'open gmail'
p2722
g15
tp2723
a(S'open a browser'
p2724
g15
tp2725
a(S'please volume higher'
p2726
g15
tp2727
a(S'please schedule an event'
p2728
g15
tp2729
a(S'spotify pause the song please'
p2730
g15
tp2731
a(S'shut down the computer'
p2732
g15
tp2733
a(S'could you check mail please'
p2734
g15
tp2735
a(S'do i have anything to do on tuesday'
p2736
g15
tp2737
a(S'check events for thursday'
p2738
g15
tp2739
a(S'check google calendar for sunday'
p2740
g15
tp2741
a(S'schedule new event'
p2742
g15
tp2743
a(S'please shut my computer down'
p2744
g15
tp2745
a(S'gather information on todays current events please'
p2746
g15
tp2747
a(S"if it's snowing today"
p2748
g72
tp2749
a(S'check google calendar for thursday'
p2750
g15
tp2751
a(S'intel'
p2752
g15
tp2753
a(S'todays headlines'
p2754
g15
tp2755
a(S"don't i have to do anything on"
p2756
g15
tp2757
a(S'check my mail please'
p2758
g15
tp2759
a(S'spotify play the song'
p2760
g15
tp2761
a(S'check events on'
p2762
g15
tp2763
a(S'find live newsfeed'
p2764
g15
tp2765
a(S'make event'
p2766
g15
tp2767
a(S"don't i have to do anything today"
p2768
g15
tp2769
a(S'please can you turn up the volume'
p2770
g15
tp2771
a(S'please can you check my gmail'
p2772
g15
tp2773
a(S"what's the current news"
p2774
g15
tp2775
a(S'spotify last song please'
p2776
g15
tp2777
a(S'can you shut off'
p2778
g15
tp2779
a(S'headlines'
p2780
g15
tp2781
a(S"don't get today's forecast"
p2782
g15
tp2783
a(S'can you check my mail please'
p2784
g15
tp2785
a(S'create event please'
p2786
g15
tp2787
a(S'turn yourself off'
p2788
g15
tp2789
a(S'would you open my mail'
p2790
g15
tp2791
a(S'check google calendar'
p2792
g15
tp2793
a(S"what's if it's snowing this week"
p2794
g72
tp2795
a(S'lock the screen'
p2796
g15
tp2797
a(S'will you get the current events'
p2798
g15
tp2799
a(S'please would you check inbox'
p2800
g15
tp2801
a(S"what's the live news feed"
p2802
g15
tp2803
a(S'what is on my calendar for next'
p2804
g15
tp2805
a(S'do i have anything to do on this day'
p2806
g15
tp2807
a(S'is there anything i have to do on thursday'
p2808
g15
tp2809
a(S'check events for this week'
p2810
g15
tp2811
a(S'can you turn yourself off'
p2812
g15
tp2813
a(S'what is in my gmail please'
p2814
g15
tp2815
a(S'check calendar on next'
p2816
g15
tp2817
a(S"today's live newsfeed"
p2818
g15
tp2819
a(S'can you please add a new event'
p2820
g15
tp2821
a(S'is there anything i have to do on monday'
p2822
g15
tp2823
a(S'turn off'
p2824
g15
tp2825
a(S'check my calendar on next'
p2826
g15
tp2827
a(S'anything in mail'
p2828
g15
tp2829
a(S'get the time please'
p2830
g15
tp2831
a(S'can you turn the sound down'
p2832
g15
tp2833
a(S"don't i have to do anything"
p2834
g15
tp2835
a(S'check my calendar on this month'
p2836
g15
tp2837
a(S'please would you open inbox'
p2838
g15
tp2839
a(S'bye'
p2840
g15
tp2841
a(S'will it hail today'
p2842
g72
tp2843
a(S'please pause the song'
p2844
g15
tp2845
a(S"please what's in inbox"
p2846
g15
tp2847
a(S'am i free for monday'
p2848
g15
tp2849
a(S'not temperature'
p2850
g15
tp2851
a(S'would you check mail please'
p2852
g15
tp2853
a(S"aren't there any events on friday"
p2854
g15
tp2855
a(S"get if it's rainy this week"
p2856
g72
tp2857
a(S'shut down my computer please'
p2858
g15
tp2859
a(S'please open a browser'
p2860
g15
tp2861
a(S'could you check my mail please'
p2862
g15
tp2863
a(S'please retrieve the time'
p2864
g15
tp2865
a(S'is there anything i have to do on next'
p2866
g15
tp2867
a(S'what is new in my inbox please'
p2868
g15
tp2869
a(S'will you check inbox'
p2870
g15
tp2871
a(S"don't i have any events in a week"
p2872
g15
tp2873
a(S'do i have anything in a week'
p2874
g15
tp2875
a(S'weather'
p2876
g72
tp2877
a(S'spotify skip ahead please'
p2878
g15
tp2879
a(S'go back to the last song '
p2880
g15
tp2881
a(S'news'
p2882
g15
tp2883
a(S'can you make it louder please'
p2884
g15
tp2885
a(S'check events on'
p2886
g15
tp2887
a(S"how's the temperature this week"
p2888
g72
tp2889
a(S"this week's weather"
p2890
g72
tp2891
a(S'please will you open gmail'
p2892
g15
tp2893
a(S'please spotify play last song'
p2894
g15
tp2895
a(S'can you please turn the beat down'
p2896
g15
tp2897
a(S'search for'
p2898
g15
tp2899
a(S'please read your watch'
p2900
g15
tp2901
a(S'check your watch'
p2902
g15
tp2903
a(S'start default browser please'
p2904
g15
tp2905
a(S'shutdown my computer please'
p2906
g15
tp2907
a(S'search'
p2908
g15
tp2909
a(S'what is the news'
p2910
g15
tp2911
a(S"what's new in gmail please"
p2912
g15
tp2913
a(S"don't i have to do anything in a month"
p2914
g15
tp2915
a(S'do i have to do anything today'
p2916
g15
tp2917
a(S'check google calendar for saturday'
p2918
g15
tp2919
a(S'start browsing please'
p2920
g15
tp2921
a(S'turn down the sound'
p2922
g15
tp2923
a(S'can you please turn up the tunez'
p2924
g15
tp2925
a(S'can you please shut off'
p2926
g15
tp2927
a(S'read your watch please'
p2928
g15
tp2929
a(S'can you add event'
p2930
g15
tp2931
a(S'could you open inbox'
p2932
g15
tp2933
a(S'give me the current events please'
p2934
g15
tp2935
a(S'create an event please'
p2936
g15
tp2937
a(S'what is on my calendar for tomorrow'
p2938
g15
tp2939
a(S'make event please'
p2940
g15
tp2941
a(S'could you make a new event please'
p2942
g15
tp2943
a(S"don't get if it's foggy today"
p2944
g15
tp2945
a(S'can you check gmail'
p2946
g15
tp2947
a(S'start browser please'
p2948
g15
tp2949
a(S'please spotify start'
p2950
g15
tp2951
a(S'could you open my gmail'
p2952
g15
tp2953
a(S'what events are on next'
p2954
g15
tp2955
a(S'get temperature'
p2956
g72
tp2957
a(S'what is on my calendar for saturday'
p2958
g15
tp2959
a(S'make the volume 0'
p2960
g15
tp2961
a(S'get the information'
p2962
g15
tp2963
a(S'check my calendar on this week'
p2964
g15
tp2965
a(S"today's weather"
p2966
g72
tp2967
a(S'give me the news please'
p2968
g15
tp2969
a(S'lock computer'
p2970
g15
tp2971
a(S'check calendar for thursday'
p2972
g15
tp2973
a(S'would you open my inbox'
p2974
g15
tp2975
a(S'open dot ee dee you'
p2976
g15
tp2977
a(S"get if it's hot today"
p2978
g72
tp2979
a(S'open default browser'
p2980
g15
tp2981
a(S'please get current time'
p2982
g15
tp2983
a(S'could you create an event'
p2984
g15
tp2985
a(S'please would you open my gmail'
p2986
g15
tp2987
a(S"don't i have to do anything on monday"
p2988
g15
tp2989
a(S'please find out the latest headlines'
p2990
g15
tp2991
a(S"please what's new in mail"
p2992
g15
tp2993
a(S'go to dot edu'
p2994
g15
tp2995
a(S'volume up'
p2996
g15
tp2997
a(S'am i free'
p2998
g15
tp2999
a(S'not forecast'
p3000
g15
tp3001
a(S'please read the time'
p3002
g15
tp3003
a(S'what is on my calendar for this week'
p3004
g15
tp3005
a(S'could you make new event please'
p3006
g15
tp3007
a(S'can you create event'
p3008
g15
tp3009
a(S'check google calendar on sunday'
p3010
g15
tp3011
a(S'what is in new mail please'
p3012
g15
tp3013
a(S'can you please open a browser'
p3014
g15
tp3015
a(S"don't i have to do anything on wednesday"
p3016
g15
tp3017
a(S'open dot com'
p3018
g15
tp3019
a(S'see ya alice'
p3020
g15
tp3021
a(S"if it's foggy this week"
p3022
g72
tp3023
a(S'what are the latest events '
p3024
g15
tp3025
a(S"please what's in new gmail"
p3026
g15
tp3027
a(S'can you check gmail please'
p3028
g15
tp3029
a(S'whats going on in the world todays please'
p3030
g15
tp3031
a(S'would you check new gmail please'
p3032
g15
tp3033
a(S'are there any events on monday'
p3034
g15
tp3035
a(S"don't i have to do anything on"
p3036
g15
tp3037
a(S'is there anything to do on tomorrow'
p3038
g15
tp3039
a(S'please check my mail'
p3040
g15
tp3041
a(S'turn up the beat please'
p3042
g15
tp3043
a(S'will you open my inbox'
p3044
g15
tp3045
a(S'what is in new mail'
p3046
g15
tp3047
a(S'could you schedule event please'
p3048
g15
tp3049
a(S'are there any events on tomorrow'
p3050
g15
tp3051
a(S'am i free on sunday'
p3052
g15
tp3053
a(S'please get me the clock'
p3054
g15
tp3055
a(S'can you check new gmail'
p3056
g15
tp3057
a(S'shut down the computer please'
p3058
g15
tp3059
a(S'what is newsfeed'
p3060
g15
tp3061
a(S"don't i have to do anything on friday"
p3062
g15
tp3063
a(S'how is the forecast'
p3064
g72
tp3065
a(S'can you check my gmail'
p3066
g15
tp3067
a(S'how is the weather'
p3068
g72
tp3069
a(S'is it rainy this week'
p3070
g72
tp3071
a(S'check google calendar for this month'
p3072
g15
tp3073
a(S'predict the outcome on a new document'
p3074
g15
tp3075
a(S'please will you open my inbox'
p3076
g15
tp3077
a(S'is there anything i have to do on saturday'
p3078
g15
tp3079
a(S'can you create new event'
p3080
g15
tp3081
a(S'can you schedule event please'
p3082
g15
tp3083
a(S'would you open my gmail please'
p3084
g15
tp3085
a(S"what's in my inbox"
p3086
g15
tp3087
a(S"don't get if it's hot today"
p3088
g15
tp3089
a(S'please spotify pause'
p3090
g15
tp3091
a(S"get today's temperature"
p3092
g72
tp3093
a(S'could you please make new event'
p3094
g15
tp3095
a(S'check my calendar for this day'
p3096
g15
tp3097
a(S'please check the current time'
p3098
g15
tp3099
a(S'please when is it'
p3100
g15
tp3101
a(S'can you lock computer'
p3102
g15
tp3103
a(S'please start default browser'
p3104
g15
tp3105
a(S'please can you make it louder'
p3106
g15
tp3107
a(S'please go to'
p3108
g15
tp3109
a(S'tell me news feed'
p3110
g15
tp3111
a(S"what's if it's raining this week"
p3112
g72
tp3113
a(S'what events are on friday'
p3114
g15
tp3115
a(S'would you check mail'
p3116
g15
tp3117
a(S"don't get if it's rainy today"
p3118
g15
tp3119
a(S'check my calendar for this month'
p3120
g15
tp3121
a(S'a releasing moderate stalls beside the material cell'
p3122
g15
tp3123
a(S'can you please turn up the volume'
p3124
g15
tp3125
a(S"please what's in my inbox"
p3126
g15
tp3127
a(S"aren't there any events on saturday"
p3128
g15
tp3129
a(S'bye bye alice'
p3130
g15
tp3131
a(S'not current temperature'
p3132
g15
tp3133
a(S'open browser please'
p3134
g15
tp3135
a(S'check google calendar on saturday'
p3136
g15
tp3137
a(S'read time'
p3138
g15
tp3139
a(S'what events do i have on sunday'
p3140
g15
tp3141
a(S"don't i have anything"
p3142
g15
tp3143
a(S'please can you check gmail'
p3144
g15
tp3145
a(S'read the time please'
p3146
g15
tp3147
a(S"what's if it's cloudy this week"
p3148
g72
tp3149
a(S'am i free for this day'
p3150
g15
tp3151
a(S'please open browser'
p3152
g15
tp3153
a(S'could you check new mail please'
p3154
g15
tp3155
a(S'is it rainy today'
p3156
g72
tp3157
a(S'gather information on'
p3158
g15
tp3159
a(S'check my calendar on saturday'
p3160
g15
tp3161
a(S'lock my computer please'
p3162
g15
tp3163
a(S"what's not if it's cold today"
p3164
g15
tp3165
a(S'spotify next'
p3166
g15
tp3167
a(S'please shut down the computer'
p3168
g15
tp3169
a(S'turn up the beat'
p3170
g15
tp3171
a(S'any events on sunday'
p3172
g15
tp3173
a(S'please open'
p3174
g15
tp3175
a(S'is it cloudy this week'
p3176
g72
tp3177
a(S'would you open gmail please'
p3178
g15
tp3179
a(S'would you check my inbox please'
p3180
g15
tp3181
a(S"what's not if it's hot today"
p3182
g15
tp3183
a(S'check events on this week'
p3184
g15
tp3185
a(S'please will you open inbox'
p3186
g15
tp3187
a(S'would you open inbox'
p3188
g15
tp3189
a(S'current news today'
p3190
g15
tp3191
a(S'can you schedule new event'
p3192
g15
tp3193
a(S"what's not this week's forecast"
p3194
g15
tp3195
a(S'can you add new event'
p3196
g15
tp3197
a(S'alice go ahead please'
p3198
g15
tp3199
a(S'check google calendar on today'
p3200
g15
tp3201
a(S'can you please shutdown my computer'
p3202
g15
tp3203
a(S'please will you check my gmail'
p3204
g15
tp3205
a(S'will you check new gmail'
p3206
g15
tp3207
a(S'play the song before'
p3208
g15
tp3209
a(S'clock'
p3210
g15
tp3211
a(S"what's not if it's snowing today"
p3212
g15
tp3213
a(S'a backbone dictates above my grief'
p3214
g15
tp3215
a(S'check what time it is'
p3216
g15
tp3217
a(S'what is in my gmail'
p3218
g15
tp3219
a(S"what's not temperature"
p3220
g15
tp3221
a(S'lock computer please'
p3222
g15
tp3223
a(S'could you check gmail please'
p3224
g15
tp3225
a(S"don't get if it's freezing today"
p3226
g15
tp3227
a(S'what is on my calendar for monday'
p3228
g15
tp3229
a(S'could you please schedule new event'
p3230
g15
tp3231
a(S"today's live news"
p3232
g15
tp3233
a(S"don't i have any events on this day"
p3234
g15
tp3235
a(S"not this week's weather"
p3236
g15
tp3237
a(S"what's the news feed"
p3238
g15
tp3239
a(S'close this window'
p3240
g15
tp3241
a(S'retrieve the current time'
p3242
g15
tp3243
a(S'am i free on'
p3244
g15
tp3245
a(S'any events on thursday'
p3246
g15
tp3247
a(S'read time please'
p3248
g15
tp3249
a(S'any mail'
p3250
g15
tp3251
a(S'turn it off'
p3252
g15
tp3253
a(S"don't i have anything to do on tuesday"
p3254
g15
tp3255
a(S'are there any events on next'
p3256
g15
tp3257
a(S'is there anything to do tomorrow'
p3258
g15
tp3259
a(S'tell me the news'
p3260
g15
tp3261
a(S'please start a browser'
p3262
g15
tp3263
a(S'get me the clock please'
p3264
g15
tp3265
a(S'check events'
p3266
g15
tp3267
a(S'check events on tomorrow'
p3268
g15
tp3269
a(S'start a default browser please'
p3270
g15
tp3271
a(S'turn the tune down'
p3272
g15
tp3273
a(S'check my gmail'
p3274
g15
tp3275
a(S'make an event'
p3276
g15
tp3277
a(S"what's new in gmail"
p3278
g15
tp3279
a(S"what's the forecast this week"
p3280
g72
tp3281
a(S'the news today'
p3282
g15
tp3283
a(S'is there anything to do on saturday'
p3284
g15
tp3285
a(S'can you close the current window'
p3286
g15
tp3287
a(S'what do i have to do on thursday'
p3288
g15
tp3289
a(S"what's new in new mail please"
p3290
g15
tp3291
a(S'can you turn up the beat'
p3292
g15
tp3293
a(S"don't i have anything to do on saturday"
p3294
g15
tp3295
a(S"if it's freezing this week"
p3296
g72
tp3297
a(S'spotify play the song before'
p3298
g15
tp3299
a(S'sweet dreams alice'
p3300
g15
tp3301
a(S'will you open my gmail please'
p3302
g15
tp3303
a(S'retrieve the current time please'
p3304
g15
tp3305
a(S'how is the forecast not'
p3306
g15
tp3307
a(S'what is in the news today'
p3308
g15
tp3309
a(S"what's if it's rainy today"
p3310
g72
tp3311
a(S'can you kill this window'
p3312
g15
tp3313
a(S'do i have any events in a week'
p3314
g15
tp3315
a(S'please spotify go '
p3316
g15
tp3317
a(S'could you please add an event'
p3318
g15
tp3319
a(S'check the clock right now'
p3320
g15
tp3321
a(S'what is on my calendar for wednesday'
p3322
g15
tp3323
a(S"not today's forecast"
p3324
g15
tp3325
a(S"how's the forecast this week"
p3326
g72
tp3327
a(S'please send me to the lock screen'
p3328
g15
tp3329
a(S'please stop song'
p3330
g15
tp3331
a(S'can you shut down my computer'
p3332
g15
tp3333
a(S'tell me current news'
p3334
g15
tp3335
a(S'google please for'
p3336
g15
tp3337
a(S'what do i have on tuesday'
p3338
g15
tp3339
a(S'am i free for friday'
p3340
g15
tp3341
a(S"don't i have to do anything on next"
p3342
g15
tp3343
a(S'check new gmail'
p3344
g15
tp3345
a(S'could you make event please'
p3346
g15
tp3347
a(S'what are the current events today'
p3348
g15
tp3349
a(S'can you create a new event'
p3350
g15
tp3351
a(S'check calendar on today'
p3352
g15
tp3353
a(S'please could you open mail'
p3354
g15
tp3355
a(S'anything new in gmail'
p3356
g15
tp3357
a(S'please what is in gmail'
p3358
g15
tp3359
a(S'is there anything i have to do in a week'
p3360
g15
tp3361
a(S'what do i have on monday'
p3362
g15
tp3363
a(S"if it's rainy today"
p3364
g72
tp3365
a(S'can you please create event'
p3366
g15
tp3367
a(S'would you open my mail please'
p3368
g15
tp3369
a(S'could you add an event please'
p3370
g15
tp3371
a(S'can you make new event'
p3372
g15
tp3373
a(S'check inbox please'
p3374
g15
tp3375
a(S"get today's forecast"
p3376
g72
tp3377
a(S'current events please'
p3378
g15
tp3379
a(S'turn it up please'
p3380
g15
tp3381
a(S'see ya'
p3382
g15
tp3383
a(S'news feed'
p3384
g15
tp3385
a(S'would you open my inbox please'
p3386
g15
tp3387
a(S'please add event'
p3388
g15
tp3389
a(S'can you create a new event please'
p3390
g15
tp3391
a(S"don't i have anything to do in a month"
p3392
g15
tp3393
a(S'shutdown the computer please'
p3394
g15
tp3395
a(S'search google for'
p3396
g15
tp3397
a(S'decrease the volume'
p3398
g15
tp3399
a(S'search google'
p3400
g15
tp3401
a(S"what're the news"
p3402
g15
tp3403
a(S'what is in mail please'
p3404
g15
tp3405
a(S'add new event please'
p3406
g15
tp3407
a(S'please would you open gmail'
p3408
g15
tp3409
a(S'louder please'
p3410
g15
tp3411
a(S'turn up the sound'
p3412
g15
tp3413
a(S'could you open my mail'
p3414
g15
tp3415
a(S'could you open my inbox'
p3416
g15
tp3417
a(S'pause please'
p3418
g15
tp3419
a(S'do i have anything to do on sunday'
p3420
g15
tp3421
a(S'please what is new in gmail'
p3422
g15
tp3423
a(S'could you please add new event'
p3424
g15
tp3425
a(S"today's newsfeed"
p3426
g15
tp3427
a(S'please spotify start the song'
p3428
g15
tp3429
a(S'check my calendar for thursday'
p3430
g15
tp3431
a(S"don't i have to do anything on this day"
p3432
g15
tp3433
a(S'can you put me on the lock screen'
p3434
g15
tp3435
a(S'spotify last please'
p3436
g15
tp3437
a(S'what events do i have on next'
p3438
g15
tp3439
a(S'will you open a browser'
p3440
g15
tp3441
a(S'check events for this month'
p3442
g15
tp3443
a(S'check google calendar for today'
p3444
g15
tp3445
a(S'am i free on thursday'
p3446
g15
tp3447
a(S"this week's forecast"
p3448
g72
tp3449
a(S'start song'
p3450
g15
tp3451
a(S'check events on monday'
p3452
g15
tp3453
a(S'could you please create a new event'
p3454
g15
tp3455
a(S'shut up please'
p3456
g15
tp3457
a(S'do i have anything to do on next'
p3458
g15
tp3459
a(S"what's in mail please"
p3460
g15
tp3461
a(S'am i free on tuesday'
p3462
g15
tp3463
a(S'please what is in inbox'
p3464
g15
tp3465
a(S"not today's forecast"
p3466
g15
tp3467
a(S'turn it down'
p3468
g15
tp3469
a(S'will it hail this week'
p3470
g72
tp3471
a(S'please what is in my mail'
p3472
g15
tp3473
a(S'could you open mail please'
p3474
g15
tp3475
a(S"don't get if it's raining today"
p3476
g15
tp3477
a(S'what is new in inbox please'
p3478
g15
tp3479
a(S'do i have any events on thursday'
p3480
g15
tp3481
a(S'are there any events on saturday'
p3482
g15
tp3483
a(S'get weather'
p3484
g72
tp3485
a(S'not weather'
p3486
g15
tp3487
a(S'retrieve what time it is please'
p3488
g15
tp3489
a(S'can you open browser please'
p3490
g15
tp3491
a(S'music down'
p3492
g15
tp3493
a(S'what is in inbox'
p3494
g15
tp3495
a(S'do i have any events on today'
p3496
g15
tp3497
a(S"don't get if it's cold this week"
p3498
g15
tp3499
a(S"don't i have anything to do on wednesday"
p3500
g15
tp3501
a(S'check calendar for tuesday'
p3502
g15
tp3503
a(S'what time is it'
p3504
g15
tp3505
a(S'please turn off'
p3506
g15
tp3507
a(S"what's not the forecast"
p3508
g15
tp3509
a(S"aren't there any events on wednesday"
p3510
g15
tp3511
a(S'check my calendar on today'
p3512
g15
tp3513
a(S'close active window'
p3514
g15
tp3515
a(S'please go to dot com'
p3516
g15
tp3517
a(S'please search google for'
p3518
g15
tp3519
a(S'get news'
p3520
g15
tp3521
a(S'do i have to do anything on friday'
p3522
g15
tp3523
a(S'can you shutdown'
p3524
g15
tp3525
a(S'check calendar for'
p3526
g15
tp3527
a(S'start browser'
p3528
g15
tp3529
a(S'please lock computer'
p3530
g15
tp3531
a(S'check google calendar on this day'
p3532
g15
tp3533
a(S'get current news'
p3534
g15
tp3535
a(S"please what's new in my inbox"
p3536
g15
tp3537
a(S'google for please'
p3538
g15
tp3539
a(S'check calendar on friday'
p3540
g15
tp3541
a(S'any gmail'
p3542
g15
tp3543
a(S'will you check mail'
p3544
g15
tp3545
a(S'spotify shut up'
p3546
g15
tp3547
a(S'can you please shutdown the computer'
p3548
g15
tp3549
asS'classifier'
p3550
ccopy_reg
_reconstructor
p3551
(csklearn.pipeline
Pipeline
p3552
c__builtin__
object
p3553
Ntp3554
Rp3555
(dp3556
S'_sklearn_version'
p3557
S'0.18.1'
p3558
sS'steps'
p3559
(lp3560
(S'vect'
p3561
g3551
(csklearn.feature_extraction.text
CountVectorizer
p3562
g3553
Ntp3563
Rp3564
(dp3565
S'decode_error'
p3566
Vstrict
p3567
sS'lowercase'
p3568
I01
sS'stop_words'
p3569
NsS'vocabulary'
p3570
NsS'tokenizer'
p3571
NsS'encoding'
p3572
Vutf-8
p3573
sS'token_pattern'
p3574
V(?u)\u005cb\u005cw\u005cw+\u005cb
p3575
sS'input'
p3576
Vcontent
p3577
sS'analyzer'
p3578
Vword
p3579
sS'vocabulary_'
p3580
(dp3581
Vraining
p3582
cnumpy.core.multiarray
scalar
p3583
(cnumpy
dtype
p3584
(S'i8'
p3585
I0
I1
tp3586
Rp3587
(I3
S'<'
p3588
NNNI-1
I-1
I0
tp3589
bS'\xa1\x00\x00\x00\x00\x00\x00\x00'
p3590
tp3591
Rp3592
sVtodays
p3593
g3583
(g3587
S'\xce\x00\x00\x00\x00\x00\x00\x00'
p3594
tp3595
Rp3596
sVmute
p3597
g3583
(g3587
S'}\x00\x00\x00\x00\x00\x00\x00'
p3598
tp3599
Rp3600
sVskip
p3601
g3583
(g3587
S'\xb6\x00\x00\x00\x00\x00\x00\x00'
p3602
tp3603
Rp3604
sVmonth
p3605
g3583
(g3587
S'{\x00\x00\x00\x00\x00\x00\x00'
p3606
tp3607
Rp3608
sVnot
p3609
g3583
(g3587
S'\x86\x00\x00\x00\x00\x00\x00\x00'
p3610
tp3611
Rp3612
sVsofter
p3613
g3583
(g3587
S'\xb9\x00\x00\x00\x00\x00\x00\x00'
p3614
tp3615
Rp3616
sVkill
p3617
g3583
(g3587
S'm\x00\x00\x00\x00\x00\x00\x00'
p3618
tp3619
Rp3620
sVedu
p3621
g3583
(g3587
S'<\x00\x00\x00\x00\x00\x00\x00'
p3622
tp3623
Rp3624
sVgo
p3625
g3583
(g3587
S'T\x00\x00\x00\x00\x00\x00\x00'
p3626
tp3627
Rp3628
sVheadlines
p3629
g3583
(g3587
S']\x00\x00\x00\x00\x00\x00\x00'
p3630
tp3631
Rp3632
sVfind
p3633
g3583
(g3587
S'G\x00\x00\x00\x00\x00\x00\x00'
p3634
tp3635
Rp3636
sVprevious
p3637
g3583
(g3587
S'\x97\x00\x00\x00\x00\x00\x00\x00'
p3638
tp3639
Rp3640
sVspotify
p3641
g3583
(g3587
S'\xbc\x00\x00\x00\x00\x00\x00\x00'
p3642
tp3643
Rp3644
sVpause
p3645
g3583
(g3587
S'\x90\x00\x00\x00\x00\x00\x00\x00'
p3646
tp3647
Rp3648
sVhow
p3649
g3583
(g3587
S'a\x00\x00\x00\x00\x00\x00\x00'
p3650
tp3651
Rp3652
sVsnowing
p3653
g3583
(g3587
S'\xb8\x00\x00\x00\x00\x00\x00\x00'
p3654
tp3655
Rp3656
sVsunday
p3657
g3583
(g3587
S'\xc1\x00\x00\x00\x00\x00\x00\x00'
p3658
tp3659
Rp3660
sVsend
p3661
g3583
(g3587
S'\xb0\x00\x00\x00\x00\x00\x00\x00'
p3662
tp3663
Rp3664
sVaren
p3665
g3583
(g3587
S'\r\x00\x00\x00\x00\x00\x00\x00'
p3666
tp3667
Rp3668
sVto
p3669
g3583
(g3587
S'\xcc\x00\x00\x00\x00\x00\x00\x00'
p3670
tp3671
Rp3672
sVwindow
p3673
g3583
(g3587
S'\xe4\x00\x00\x00\x00\x00\x00\x00'
p3674
tp3675
Rp3676
sVprogram
p3677
g3583
(g3587
S'\x9a\x00\x00\x00\x00\x00\x00\x00'
p3678
tp3679
Rp3680
sVmail
p3681
g3583
(g3587
S'u\x00\x00\x00\x00\x00\x00\x00'
p3682
tp3683
Rp3684
sVbye
p3685
g3583
(g3587
S'\x19\x00\x00\x00\x00\x00\x00\x00'
p3686
tp3687
Rp3688
sVdo
p3689
g3583
(g3587
S'4\x00\x00\x00\x00\x00\x00\x00'
p3690
tp3691
Rp3692
sVgood
p3693
g3583
(g3587
S'V\x00\x00\x00\x00\x00\x00\x00'
p3694
tp3695
Rp3696
sVemergency
p3697
g3583
(g3587
S'>\x00\x00\x00\x00\x00\x00\x00'
p3698
tp3699
Rp3700
sVget
p3701
g3583
(g3587
S'P\x00\x00\x00\x00\x00\x00\x00'
p3702
tp3703
Rp3704
sVya
p3705
g3583
(g3587
S'\xe7\x00\x00\x00\x00\x00\x00\x00'
p3706
tp3707
Rp3708
sVmaterial
p3709
g3583
(g3587
S'w\x00\x00\x00\x00\x00\x00\x00'
p3710
tp3711
Rp3712
sVwatch
p3713
g3583
(g3587
S'\xdb\x00\x00\x00\x00\x00\x00\x00'
p3714
tp3715
Rp3716
sVme
p3717
g3583
(g3587
S'x\x00\x00\x00\x00\x00\x00\x00'
p3718
tp3719
Rp3720
sVreport
p3721
g3583
(g3587
S'\xa6\x00\x00\x00\x00\x00\x00\x00'
p3722
tp3723
Rp3724
sVworld
p3725
g3583
(g3587
S'\xe5\x00\x00\x00\x00\x00\x00\x00'
p3726
tp3727
Rp3728
sVnow
p3729
g3583
(g3587
S'\x87\x00\x00\x00\x00\x00\x00\x00'
p3730
tp3731
Rp3732
sVday
p3733
g3583
(g3587
S',\x00\x00\x00\x00\x00\x00\x00'
p3734
tp3735
Rp3736
sVdreams
p3737
g3583
(g3587
S':\x00\x00\x00\x00\x00\x00\x00'
p3738
tp3739
Rp3740
sVlike
p3741
g3583
(g3587
S'p\x00\x00\x00\x00\x00\x00\x00'
p3742
tp3743
Rp3744
sVshoulder
p3745
g3583
(g3587
S'\xb2\x00\x00\x00\x00\x00\x00\x00'
p3746
tp3747
Rp3748
sVgov
p3749
g3583
(g3587
S'Y\x00\x00\x00\x00\x00\x00\x00'
p3750
tp3751
Rp3752
sValex
p3753
g3583
(g3587
S'\x04\x00\x00\x00\x00\x00\x00\x00'
p3754
tp3755
Rp3756
sVintel
p3757
g3583
(g3587
S'h\x00\x00\x00\x00\x00\x00\x00'
p3758
tp3759
Rp3760
sVgossips
p3761
g3583
(g3587
S'X\x00\x00\x00\x00\x00\x00\x00'
p3762
tp3763
Rp3764
sVdidn
p3765
g3583
(g3587
S'3\x00\x00\x00\x00\x00\x00\x00'
p3766
tp3767
Rp3768
sVwednesday
p3769
g3583
(g3587
S'\xde\x00\x00\x00\x00\x00\x00\x00'
p3770
tp3771
Rp3772
sVcloudy
p3773
g3583
(g3587
S'#\x00\x00\x00\x00\x00\x00\x00'
p3774
tp3775
Rp3776
sVtry
p3777
g3583
(g3587
S'\xd1\x00\x00\x00\x00\x00\x00\x00'
p3778
tp3779
Rp3780
sVtunez
p3781
g3583
(g3587
S'\xd5\x00\x00\x00\x00\x00\x00\x00'
p3782
tp3783
Rp3784
sVgimme
p3785
g3583
(g3587
S'Q\x00\x00\x00\x00\x00\x00\x00'
p3786
tp3787
Rp3788
sVweather
p3789
g3583
(g3587
S'\xdd\x00\x00\x00\x00\x00\x00\x00'
p3790
tp3791
Rp3792
sVnight
p3793
g3583
(g3587
S'\x84\x00\x00\x00\x00\x00\x00\x00'
p3794
tp3795
Rp3796
sVtunes
p3797
g3583
(g3587
S'\xd4\x00\x00\x00\x00\x00\x00\x00'
p3798
tp3799
Rp3800
sVout
p3801
g3583
(g3587
S'\x8e\x00\x00\x00\x00\x00\x00\x00'
p3802
tp3803
Rp3804
sVclassifier
p3805
g3583
(g3587
S' \x00\x00\x00\x00\x00\x00\x00'
p3806
tp3807
Rp3808
sVinbox
p3809
g3583
(g3587
S'e\x00\x00\x00\x00\x00\x00\x00'
p3810
tp3811
Rp3812
sVset
p3813
g3583
(g3587
S'\xb1\x00\x00\x00\x00\x00\x00\x00'
p3814
tp3815
Rp3816
sVretrieve
p3817
g3583
(g3587
S'\xa7\x00\x00\x00\x00\x00\x00\x00'
p3818
tp3819
Rp3820
sVee
p3821
g3583
(g3587
S'=\x00\x00\x00\x00\x00\x00\x00'
p3822
tp3823
Rp3824
sVintelligence
p3825
g3583
(g3587
S'i\x00\x00\x00\x00\x00\x00\x00'
p3826
tp3827
Rp3828
sVback
p3829
g3583
(g3587
S'\x0e\x00\x00\x00\x00\x00\x00\x00'
p3830
tp3831
Rp3832
sVhail
p3833
g3583
(g3587
S'[\x00\x00\x00\x00\x00\x00\x00'
p3834
tp3835
Rp3836
sValice
p3837
g3583
(g3587
S'\x05\x00\x00\x00\x00\x00\x00\x00'
p3838
tp3839
Rp3840
sVsee
p3841
g3583
(g3587
S'\xaf\x00\x00\x00\x00\x00\x00\x00'
p3842
tp3843
Rp3844
sVcomputer
p3845
g3583
(g3587
S"'\x00\x00\x00\x00\x00\x00\x00"
p3846
tp3847
Rp3848
sVare
p3849
g3583
(g3587
S'\x0c\x00\x00\x00\x00\x00\x00\x00'
p3850
tp3851
Rp3852
sVclose
p3853
g3583
(g3587
S'"\x00\x00\x00\x00\x00\x00\x00'
p3854
tp3855
Rp3856
sVcalendar
p3857
g3583
(g3587
S'\x1b\x00\x00\x00\x00\x00\x00\x00'
p3858
tp3859
Rp3860
sVextract
p3861
g3583
(g3587
S'B\x00\x00\x00\x00\x00\x00\x00'
p3862
tp3863
Rp3864
sVcold
p3865
g3583
(g3587
S'$\x00\x00\x00\x00\x00\x00\x00'
p3866
tp3867
Rp3868
sVgmail
p3869
g3583
(g3587
S'S\x00\x00\x00\x00\x00\x00\x00'
p3870
tp3871
Rp3872
sVcategory
p3873
g3583
(g3587
S'\x1d\x00\x00\x00\x00\x00\x00\x00'
p3874
tp3875
Rp3876
sVwhat
p3877
g3583
(g3587
S'\xe0\x00\x00\x00\x00\x00\x00\x00'
p3878
tp3879
Rp3880
sVfor
p3881
g3583
(g3587
S'I\x00\x00\x00\x00\x00\x00\x00'
p3882
tp3883
Rp3884
sVclock
p3885
g3583
(g3587
S'!\x00\x00\x00\x00\x00\x00\x00'
p3886
tp3887
Rp3888
sVdebrief
p3889
g3583
(g3587
S'-\x00\x00\x00\x00\x00\x00\x00'
p3890
tp3891
Rp3892
sVcurrently
p3893
g3583
(g3587
S'+\x00\x00\x00\x00\x00\x00\x00'
p3894
tp3895
Rp3896
sVplease
p3897
g3583
(g3587
S'\x93\x00\x00\x00\x00\x00\x00\x00'
p3898
tp3899
Rp3900
sVbrief
p3901
g3583
(g3587
S'\x15\x00\x00\x00\x00\x00\x00\x00'
p3902
tp3903
Rp3904
sVforecast
p3905
g3583
(g3587
S'J\x00\x00\x00\x00\x00\x00\x00'
p3906
tp3907
Rp3908
sVcurrent
p3909
g3583
(g3587
S'*\x00\x00\x00\x00\x00\x00\x00'
p3910
tp3911
Rp3912
sVre
p3913
g3583
(g3587
S'\xa3\x00\x00\x00\x00\x00\x00\x00'
p3914
tp3915
Rp3916
sVexit
p3917
g3583
(g3587
S'A\x00\x00\x00\x00\x00\x00\x00'
p3918
tp3919
Rp3920
sVabove
p3921
g3583
(g3587
S'\x00\x00\x00\x00\x00\x00\x00\x00'
p3922
tp3923
Rp3924
sVnew
p3925
g3583
(g3587
S'\x80\x00\x00\x00\x00\x00\x00\x00'
p3926
tp3927
Rp3928
sVnet
p3929
g3583
(g3587
S'\x7f\x00\x00\x00\x00\x00\x00\x00'
p3930
tp3931
Rp3932
sVmoderate
p3933
g3583
(g3587
S'y\x00\x00\x00\x00\x00\x00\x00'
p3934
tp3935
Rp3936
sVissue
p3937
g3583
(g3587
S'k\x00\x00\x00\x00\x00\x00\x00'
p3938
tp3939
Rp3940
sVbe
p3941
g3583
(g3587
S'\x10\x00\x00\x00\x00\x00\x00\x00'
p3942
tp3943
Rp3944
sVshut
p3945
g3583
(g3587
S'\xb3\x00\x00\x00\x00\x00\x00\x00'
p3946
tp3947
Rp3948
sVnoise
p3949
g3583
(g3587
S'\x85\x00\x00\x00\x00\x00\x00\x00'
p3950
tp3951
Rp3952
sVtomorrow
p3953
g3583
(g3587
S'\xcf\x00\x00\x00\x00\x00\x00\x00'
p3954
tp3955
Rp3956
sVschedule
p3957
g3583
(g3587
S'\xac\x00\x00\x00\x00\x00\x00\x00'
p3958
tp3959
Rp3960
sVscreen
p3961
g3583
(g3587
S'\xad\x00\x00\x00\x00\x00\x00\x00'
p3962
tp3963
Rp3964
sVdictates
p3965
g3583
(g3587
S'2\x00\x00\x00\x00\x00\x00\x00'
p3966
tp3967
Rp3968
sVfree
p3969
g3583
(g3587
S'K\x00\x00\x00\x00\x00\x00\x00'
p3970
tp3971
Rp3972
sVillustration
p3973
g3583
(g3587
S'c\x00\x00\x00\x00\x00\x00\x00'
p3974
tp3975
Rp3976
sVput
p3977
g3583
(g3587
S'\x9b\x00\x00\x00\x00\x00\x00\x00'
p3978
tp3979
Rp3980
sVnews
p3981
g3583
(g3587
S'\x81\x00\x00\x00\x00\x00\x00\x00'
p3982
tp3983
Rp3984
sVpost
p3985
g3583
(g3587
S'\x94\x00\x00\x00\x00\x00\x00\x00'
p3986
tp3987
Rp3988
sVdon
p3989
g3583
(g3587
S'7\x00\x00\x00\x00\x00\x00\x00'
p3990
tp3991
Rp3992
sVearlier
p3993
g3583
(g3587
S';\x00\x00\x00\x00\x00\x00\x00'
p3994
tp3995
Rp3996
sVon
p3997
g3583
(g3587
S'\x8b\x00\x00\x00\x00\x00\x00\x00'
p3998
tp3999
Rp4000
sVcommands
p4001
g3583
(g3587
S'&\x00\x00\x00\x00\x00\x00\x00'
p4002
tp4003
Rp4004
sVlast
p4005
g3583
(g3587
S'n\x00\x00\x00\x00\x00\x00\x00'
p4006
tp4007
Rp4008
sVahead
p4009
g3583
(g3587
S'\x03\x00\x00\x00\x00\x00\x00\x00'
p4010
tp4011
Rp4012
sVof
p4013
g3583
(g3587
S'\x88\x00\x00\x00\x00\x00\x00\x00'
p4014
tp4015
Rp4016
sVcould
p4017
g3583
(g3587
S'(\x00\x00\x00\x00\x00\x00\x00'
p4018
tp4019
Rp4020
sVquiet
p4021
g3583
(g3587
S'\x9d\x00\x00\x00\x00\x00\x00\x00'
p4022
tp4023
Rp4024
sVturn
p4025
g3583
(g3587
S'\xd6\x00\x00\x00\x00\x00\x00\x00'
p4026
tp4027
Rp4028
sVbrowsing
p4029
g3583
(g3587
S'\x18\x00\x00\x00\x00\x00\x00\x00'
p4030
tp4031
Rp4032
sVcom
p4033
g3583
(g3587
S'%\x00\x00\x00\x00\x00\x00\x00'
p4034
tp4035
Rp4036
sVthink
p4037
g3583
(g3587
S'\xc8\x00\x00\x00\x00\x00\x00\x00'
p4038
tp4039
Rp4040
sVfeed
p4041
g3583
(g3587
S'F\x00\x00\x00\x00\x00\x00\x00'
p4042
tp4043
Rp4044
sVthis
p4045
g3583
(g3587
S'\xc9\x00\x00\x00\x00\x00\x00\x00'
p4046
tp4047
Rp4048
sVwhats
p4049
g3583
(g3587
S'\xe1\x00\x00\x00\x00\x00\x00\x00'
p4050
tp4051
Rp4052
sVfeatures
p4053
g3583
(g3587
S'E\x00\x00\x00\x00\x00\x00\x00'
p4054
tp4055
Rp4056
sVsimple
p4057
g3583
(g3587
S'\xb5\x00\x00\x00\x00\x00\x00\x00'
p4058
tp4059
Rp4060
sVsweet
p4061
g3583
(g3587
S'\xc2\x00\x00\x00\x00\x00\x00\x00'
p4062
tp4063
Rp4064
sVtuesday
p4065
g3583
(g3587
S'\xd2\x00\x00\x00\x00\x00\x00\x00'
p4066
tp4067
Rp4068
sVyourself
p4069
g3583
(g3587
S'\xea\x00\x00\x00\x00\x00\x00\x00'
p4070
tp4071
Rp4072
sVdown
p4073
g3583
(g3587
S'9\x00\x00\x00\x00\x00\x00\x00'
p4074
tp4075
Rp4076
sVactive
p4077
g3583
(g3587
S'\x01\x00\x00\x00\x00\x00\x00\x00'
p4078
tp4079
Rp4080
sVgoogle
p4081
g3583
(g3587
S'W\x00\x00\x00\x00\x00\x00\x00'
p4082
tp4083
Rp4084
sVdecrease
p4085
g3583
(g3587
S'/\x00\x00\x00\x00\x00\x00\x00'
p4086
tp4087
Rp4088
sVthursday
p4089
g3583
(g3587
S'\xca\x00\x00\x00\x00\x00\x00\x00'
p4090
tp4091
Rp4092
sVshutdown
p4093
g3583
(g3587
S'\xb4\x00\x00\x00\x00\x00\x00\x00'
p4094
tp4095
Rp4096
sVfake
p4097
g3583
(g3587
S'C\x00\x00\x00\x00\x00\x00\x00'
p4098
tp4099
Rp4100
sVopen
p4101
g3583
(g3587
S'\x8c\x00\x00\x00\x00\x00\x00\x00'
p4102
tp4103
Rp4104
sVyour
p4105
g3583
(g3587
S'\xe9\x00\x00\x00\x00\x00\x00\x00'
p4106
tp4107
Rp4108
sVquit
p4109
g3583
(g3587
S'\x9f\x00\x00\x00\x00\x00\x00\x00'
p4110
tp4111
Rp4112
sVtemperature
p4113
g3583
(g3587
S'\xc5\x00\x00\x00\x00\x00\x00\x00'
p4114
tp4115
Rp4116
sVwould
p4117
g3583
(g3587
S'\xe6\x00\x00\x00\x00\x00\x00\x00'
p4118
tp4119
Rp4120
sVsake
p4121
g3583
(g3587
S'\xa9\x00\x00\x00\x00\x00\x00\x00'
p4122
tp4123
Rp4124
sVdecent
p4125
g3583
(g3587
S'.\x00\x00\x00\x00\x00\x00\x00'
p4126
tp4127
Rp4128
sVcreate
p4129
g3583
(g3587
S')\x00\x00\x00\x00\x00\x00\x00'
p4130
tp4131
Rp4132
sVthere
p4133
g3583
(g3587
S'\xc7\x00\x00\x00\x00\x00\x00\x00'
p4134
tp4135
Rp4136
sVquestion
p4137
g3583
(g3587
S'\x9c\x00\x00\x00\x00\x00\x00\x00'
p4138
tp4139
Rp4140
sVadd
p4141
g3583
(g3587
S'\x02\x00\x00\x00\x00\x00\x00\x00'
p4142
tp4143
Rp4144
sVnext
p4145
g3583
(g3587
S'\x83\x00\x00\x00\x00\x00\x00\x00'
p4146
tp4147
Rp4148
sVstart
p4149
g3583
(g3587
S'\xbe\x00\x00\x00\x00\x00\x00\x00'
p4150
tp4151
Rp4152
sVlive
p4153
g3583
(g3587
S'q\x00\x00\x00\x00\x00\x00\x00'
p4154
tp4155
Rp4156
sVgoing
p4157
g3583
(g3587
S'U\x00\x00\x00\x00\x00\x00\x00'
p4158
tp4159
Rp4160
sVmusic
p4161
g3583
(g3587
S'|\x00\x00\x00\x00\x00\x00\x00'
p4162
tp4163
Rp4164
sVtell
p4165
g3583
(g3587
S'\xc4\x00\x00\x00\x00\x00\x00\x00'
p4166
tp4167
Rp4168
sVtoday
p4169
g3583
(g3587
S'\xcd\x00\x00\x00\x00\x00\x00\x00'
p4170
tp4171
Rp4172
sVpretends
p4173
g3583
(g3587
S'\x96\x00\x00\x00\x00\x00\x00\x00'
p4174
tp4175
Rp4176
sValmost
p4177
g3583
(g3587
S'\x06\x00\x00\x00\x00\x00\x00\x00'
p4178
tp4179
Rp4180
sVreleasing
p4181
g3583
(g3587
S'\xa5\x00\x00\x00\x00\x00\x00\x00'
p4182
tp4183
Rp4184
sVsearch
p4185
g3583
(g3587
S'\xae\x00\x00\x00\x00\x00\x00\x00'
p4186
tp4187
Rp4188
sVit
p4189
g3583
(g3587
S'l\x00\x00\x00\x00\x00\x00\x00'
p4190
tp4191
Rp4192
sVvolume
p4193
g3583
(g3587
S'\xda\x00\x00\x00\x00\x00\x00\x00'
p4194
tp4195
Rp4196
sVtrain
p4197
g3583
(g3587
S'\xd0\x00\x00\x00\x00\x00\x00\x00'
p4198
tp4199
Rp4200
sVstick
p4201
g3583
(g3587
S'\xbf\x00\x00\x00\x00\x00\x00\x00'
p4202
tp4203
Rp4204
sVfoggy
p4205
g3583
(g3587
S'H\x00\x00\x00\x00\x00\x00\x00'
p4206
tp4207
Rp4208
sVsound
p4209
g3583
(g3587
S'\xbb\x00\x00\x00\x00\x00\x00\x00'
p4210
tp4211
Rp4212
sVanything
p4213
g3583
(g3587
S'\x0b\x00\x00\x00\x00\x00\x00\x00'
p4214
tp4215
Rp4216
sVfriday
p4217
g3583
(g3587
S'M\x00\x00\x00\x00\x00\x00\x00'
p4218
tp4219
Rp4220
sVunmute
p4221
g3583
(g3587
S'\xd7\x00\x00\x00\x00\x00\x00\x00'
p4222
tp4223
Rp4224
sVup
p4225
g3583
(g3587
S'\xd8\x00\x00\x00\x00\x00\x00\x00'
p4226
tp4227
Rp4228
sVdogs
p4229
g3583
(g3587
S'6\x00\x00\x00\x00\x00\x00\x00'
p4230
tp4231
Rp4232
sVwill
p4233
g3583
(g3587
S'\xe3\x00\x00\x00\x00\x00\x00\x00'
p4234
tp4235
Rp4236
sVlouder
p4237
g3583
(g3587
S's\x00\x00\x00\x00\x00\x00\x00'
p4238
tp4239
Rp4240
sVcan
p4241
g3583
(g3587
S'\x1c\x00\x00\x00\x00\x00\x00\x00'
p4242
tp4243
Rp4244
sVbriefing
p4245
g3583
(g3587
S'\x16\x00\x00\x00\x00\x00\x00\x00'
p4246
tp4247
Rp4248
sVproblem
p4249
g3583
(g3587
S'\x98\x00\x00\x00\x00\x00\x00\x00'
p4250
tp4251
Rp4252
sVoutcome
p4253
g3583
(g3587
S'\x8f\x00\x00\x00\x00\x00\x00\x00'
p4254
tp4255
Rp4256
sVmy
p4257
g3583
(g3587
S'~\x00\x00\x00\x00\x00\x00\x00'
p4258
tp4259
Rp4260
sVdee
p4261
g3583
(g3587
S'0\x00\x00\x00\x00\x00\x00\x00'
p4262
tp4263
Rp4264
sVfeature
p4265
g3583
(g3587
S'D\x00\x00\x00\x00\x00\x00\x00'
p4266
tp4267
Rp4268
sVbrowser
p4269
g3583
(g3587
S'\x17\x00\x00\x00\x00\x00\x00\x00'
p4270
tp4271
Rp4272
sVsaturday
p4273
g3583
(g3587
S'\xab\x00\x00\x00\x00\x00\x00\x00'
p4274
tp4275
Rp4276
sVbefore
p4277
g3583
(g3587
S'\x13\x00\x00\x00\x00\x00\x00\x00'
p4278
tp4279
Rp4280
sVcell
p4281
g3583
(g3587
S'\x1e\x00\x00\x00\x00\x00\x00\x00'
p4282
tp4283
Rp4284
sVgive
p4285
g3583
(g3587
S'R\x00\x00\x00\x00\x00\x00\x00'
p4286
tp4287
Rp4288
sVpredict
p4289
g3583
(g3587
S'\x95\x00\x00\x00\x00\x00\x00\x00'
p4290
tp4291
Rp4292
sVlock
p4293
g3583
(g3587
S'r\x00\x00\x00\x00\x00\x00\x00'
p4294
tp4295
Rp4296
sVis
p4297
g3583
(g3587
S'j\x00\x00\x00\x00\x00\x00\x00'
p4298
tp4299
Rp4300
sVin
p4301
g3583
(g3587
S'd\x00\x00\x00\x00\x00\x00\x00'
p4302
tp4303
Rp4304
sVam
p4305
g3583
(g3587
S'\x07\x00\x00\x00\x00\x00\x00\x00'
p4306
tp4307
Rp4308
sVfuck
p4309
g3583
(g3587
S'N\x00\x00\x00\x00\x00\x00\x00'
p4310
tp4311
Rp4312
sVan
p4313
g3583
(g3587
S'\x08\x00\x00\x00\x00\x00\x00\x00'
p4314
tp4315
Rp4316
sVbeats
p4317
g3583
(g3587
S'\x12\x00\x00\x00\x00\x00\x00\x00'
p4318
tp4319
Rp4320
sVright
p4321
g3583
(g3587
S'\xa8\x00\x00\x00\x00\x00\x00\x00'
p4322
tp4323
Rp4324
sVhave
p4325
g3583
(g3587
S'\\\x00\x00\x00\x00\x00\x00\x00'
p4326
tp4327
Rp4328
sVstalls
p4329
g3583
(g3587
S'\xbd\x00\x00\x00\x00\x00\x00\x00'
p4330
tp4331
Rp4332
sVcheck
p4333
g3583
(g3587
S'\x1f\x00\x00\x00\x00\x00\x00\x00'
p4334
tp4335
Rp4336
sVif
p4337
g3583
(g3587
S'b\x00\x00\x00\x00\x00\x00\x00'
p4338
tp4339
Rp4340
sVinformation
p4341
g3583
(g3587
S'g\x00\x00\x00\x00\x00\x00\x00'
p4342
tp4343
Rp4344
sVrainy
p4345
g3583
(g3587
S'\xa2\x00\x00\x00\x00\x00\x00\x00'
p4346
tp4347
Rp4348
sVzero
p4349
g3583
(g3587
S'\xeb\x00\x00\x00\x00\x00\x00\x00'
p4350
tp4351
Rp4352
sVmake
p4353
g3583
(g3587
S'v\x00\x00\x00\x00\x00\x00\x00'
p4354
tp4355
Rp4356
sVsong
p4357
g3583
(g3587
S'\xba\x00\x00\x00\x00\x00\x00\x00'
p4358
tp4359
Rp4360
sVwhen
p4361
g3583
(g3587
S'\xe2\x00\x00\x00\x00\x00\x00\x00'
p4362
tp4363
Rp4364
sVsnow
p4365
g3583
(g3587
S'\xb7\x00\x00\x00\x00\x00\x00\x00'
p4366
tp4367
Rp4368
sVsame
p4369
g3583
(g3587
S'\xaa\x00\x00\x00\x00\x00\x00\x00'
p4370
tp4371
Rp4372
sVevent
p4373
g3583
(g3587
S'?\x00\x00\x00\x00\x00\x00\x00'
p4374
tp4375
Rp4376
sVbeside
p4377
g3583
(g3587
S'\x14\x00\x00\x00\x00\x00\x00\x00'
p4378
tp4379
Rp4380
sVbeat
p4381
g3583
(g3587
S'\x11\x00\x00\x00\x00\x00\x00\x00'
p4382
tp4383
Rp4384
sVhot
p4385
g3583
(g3587
S'`\x00\x00\x00\x00\x00\x00\x00'
p4386
tp4387
Rp4388
sVread
p4389
g3583
(g3587
S'\xa4\x00\x00\x00\x00\x00\x00\x00'
p4390
tp4391
Rp4392
sVanswer
p4393
g3583
(g3587
S'\t\x00\x00\x00\x00\x00\x00\x00'
p4394
tp4395
Rp4396
sVyou
p4397
g3583
(g3587
S'\xe8\x00\x00\x00\x00\x00\x00\x00'
p4398
tp4399
Rp4400
sVdocument
p4401
g3583
(g3587
S'5\x00\x00\x00\x00\x00\x00\x00'
p4402
tp4403
Rp4404
sVevents
p4405
g3583
(g3587
S'@\x00\x00\x00\x00\x00\x00\x00'
p4406
tp4407
Rp4408
sVhigher
p4409
g3583
(g3587
S'_\x00\x00\x00\x00\x00\x00\x00'
p4410
tp4411
Rp4412
sVweek
p4413
g3583
(g3587
S'\xdf\x00\x00\x00\x00\x00\x00\x00'
p4414
tp4415
Rp4416
sVplay
p4417
g3583
(g3587
S'\x91\x00\x00\x00\x00\x00\x00\x00'
p4418
tp4419
Rp4420
sVokay
p4421
g3583
(g3587
S'\x8a\x00\x00\x00\x00\x00\x00\x00'
p4422
tp4423
Rp4424
sVhey
p4425
g3583
(g3587
S'^\x00\x00\x00\x00\x00\x00\x00'
p4426
tp4427
Rp4428
sVmonday
p4429
g3583
(g3587
S'z\x00\x00\x00\x00\x00\x00\x00'
p4430
tp4431
Rp4432
sVdefault
p4433
g3583
(g3587
S'1\x00\x00\x00\x00\x00\x00\x00'
p4434
tp4435
Rp4436
sVany
p4437
g3583
(g3587
S'\n\x00\x00\x00\x00\x00\x00\x00'
p4438
tp4439
Rp4440
sVstop
p4441
g3583
(g3587
S'\xc0\x00\x00\x00\x00\x00\x00\x00'
p4442
tp4443
Rp4444
sVorg
p4445
g3583
(g3587
S'\x8d\x00\x00\x00\x00\x00\x00\x00'
p4446
tp4447
Rp4448
sVbackbone
p4449
g3583
(g3587
S'\x0f\x00\x00\x00\x00\x00\x00\x00'
p4450
tp4451
Rp4452
sVproblems
p4453
g3583
(g3587
S'\x99\x00\x00\x00\x00\x00\x00\x00'
p4454
tp4455
Rp4456
sVquieter
p4457
g3583
(g3587
S'\x9e\x00\x00\x00\x00\x00\x00\x00'
p4458
tp4459
Rp4460
sVrain
p4461
g3583
(g3587
S'\xa0\x00\x00\x00\x00\x00\x00\x00'
p4462
tp4463
Rp4464
sVfreezing
p4465
g3583
(g3587
S'L\x00\x00\x00\x00\x00\x00\x00'
p4466
tp4467
Rp4468
sVbyebye
p4469
g3583
(g3587
S'\x1a\x00\x00\x00\x00\x00\x00\x00'
p4470
tp4471
Rp4472
sVtune
p4473
g3583
(g3587
S'\xd3\x00\x00\x00\x00\x00\x00\x00'
p4474
tp4475
Rp4476
sVgrief
p4477
g3583
(g3587
S'Z\x00\x00\x00\x00\x00\x00\x00'
p4478
tp4479
Rp4480
sVlower
p4481
g3583
(g3587
S't\x00\x00\x00\x00\x00\x00\x00'
p4482
tp4483
Rp4484
sVoff
p4485
g3583
(g3587
S'\x89\x00\x00\x00\x00\x00\x00\x00'
p4486
tp4487
Rp4488
sVusing
p4489
g3583
(g3587
S'\xd9\x00\x00\x00\x00\x00\x00\x00'
p4490
tp4491
Rp4492
sVwe
p4493
g3583
(g3587
S'\xdc\x00\x00\x00\x00\x00\x00\x00'
p4494
tp4495
Rp4496
sVgather
p4497
g3583
(g3587
S'O\x00\x00\x00\x00\x00\x00\x00'
p4498
tp4499
Rp4500
sVtale
p4501
g3583
(g3587
S'\xc3\x00\x00\x00\x00\x00\x00\x00'
p4502
tp4503
Rp4504
sVtime
p4505
g3583
(g3587
S'\xcb\x00\x00\x00\x00\x00\x00\x00'
p4506
tp4507
Rp4508
sVnewsfeed
p4509
g3583
(g3587
S'\x82\x00\x00\x00\x00\x00\x00\x00'
p4510
tp4511
Rp4512
sVthe
p4513
g3583
(g3587
S'\xc6\x00\x00\x00\x00\x00\x00\x00'
p4514
tp4515
Rp4516
sVincrease
p4517
g3583
(g3587
S'f\x00\x00\x00\x00\x00\x00\x00'
p4518
tp4519
Rp4520
sVplaying
p4521
g3583
(g3587
S'\x92\x00\x00\x00\x00\x00\x00\x00'
p4522
tp4523
Rp4524
sVdot
p4525
g3583
(g3587
S'8\x00\x00\x00\x00\x00\x00\x00'
p4526
tp4527
Rp4528
sVlatest
p4529
g3583
(g3587
S'o\x00\x00\x00\x00\x00\x00\x00'
p4530
tp4531
Rp4532
ssS'binary'
p4533
I00
sS'ngram_range'
p4534
(I1
I1
tp4535
sg3557
g3558
sS'max_df'
p4536
F1.0
sS'min_df'
p4537
I1
sS'max_features'
p4538
NsS'fixed_vocabulary_'
p4539
I00
sS'strip_accents'
p4540
NsS'dtype'
p4541
cnumpy
int64
p4542
sS'stop_words_'
p4543
c__builtin__
set
p4544
((lp4545
tp4546
Rp4547
sS'preprocessor'
p4548
Nsbtp4549
a(S'tfidf'
p4550
g3551
(csklearn.feature_extraction.text
TfidfTransformer
p4551
g3553
Ntp4552
Rp4553
(dp4554
S'smooth_idf'
p4555
I01
sg3557
g3558
sS'_idf_diag'
p4556
g3551
(cscipy.sparse.csr
csr_matrix
p4557
g3553
Ntp4558
Rp4559
(dp4560
S'indices'
p4561
cnumpy.core.multiarray
_reconstruct
p4562
(cnumpy
ndarray
p4563
(I0
tp4564
S'b'
p4565
tp4566
Rp4567
(I1
(I236
tp4568
g3584
(S'i4'
p4569
I0
I1
tp4570
Rp4571
(I3
S'<'
p4572
NNNI-1
I-1
I0
tp4573
bI00
S'\x00\x00\x00\x00\x01\x00\x00\x00\x02\x00\x00\x00\x03\x00\x00\x00\x04\x00\x00\x00\x05\x00\x00\x00\x06\x00\x00\x00\x07\x00\x00\x00\x08\x00\x00\x00\t\x00\x00\x00\n\x00\x00\x00\x0b\x00\x00\x00\x0c\x00\x00\x00\r\x00\x00\x00\x0e\x00\x00\x00\x0f\x00\x00\x00\x10\x00\x00\x00\x11\x00\x00\x00\x12\x00\x00\x00\x13\x00\x00\x00\x14\x00\x00\x00\x15\x00\x00\x00\x16\x00\x00\x00\x17\x00\x00\x00\x18\x00\x00\x00\x19\x00\x00\x00\x1a\x00\x00\x00\x1b\x00\x00\x00\x1c\x00\x00\x00\x1d\x00\x00\x00\x1e\x00\x00\x00\x1f\x00\x00\x00 \x00\x00\x00!\x00\x00\x00"\x00\x00\x00#\x00\x00\x00$\x00\x00\x00%\x00\x00\x00&\x00\x00\x00\'\x00\x00\x00(\x00\x00\x00)\x00\x00\x00*\x00\x00\x00+\x00\x00\x00,\x00\x00\x00-\x00\x00\x00.\x00\x00\x00/\x00\x00\x000\x00\x00\x001\x00\x00\x002\x00\x00\x003\x00\x00\x004\x00\x00\x005\x00\x00\x006\x00\x00\x007\x00\x00\x008\x00\x00\x009\x00\x00\x00:\x00\x00\x00;\x00\x00\x00<\x00\x00\x00=\x00\x00\x00>\x00\x00\x00?\x00\x00\x00@\x00\x00\x00A\x00\x00\x00B\x00\x00\x00C\x00\x00\x00D\x00\x00\x00E\x00\x00\x00F\x00\x00\x00G\x00\x00\x00H\x00\x00\x00I\x00\x00\x00J\x00\x00\x00K\x00\x00\x00L\x00\x00\x00M\x00\x00\x00N\x00\x00\x00O\x00\x00\x00P\x00\x00\x00Q\x00\x00\x00R\x00\x00\x00S\x00\x00\x00T\x00\x00\x00U\x00\x00\x00V\x00\x00\x00W\x00\x00\x00X\x00\x00\x00Y\x00\x00\x00Z\x00\x00\x00[\x00\x00\x00\\\x00\x00\x00]\x00\x00\x00^\x00\x00\x00_\x00\x00\x00`\x00\x00\x00a\x00\x00\x00b\x00\x00\x00c\x00\x00\x00d\x00\x00\x00e\x00\x00\x00f\x00\x00\x00g\x00\x00\x00h\x00\x00\x00i\x00\x00\x00j\x00\x00\x00k\x00\x00\x00l\x00\x00\x00m\x00\x00\x00n\x00\x00\x00o\x00\x00\x00p\x00\x00\x00q\x00\x00\x00r\x00\x00\x00s\x00\x00\x00t\x00\x00\x00u\x00\x00\x00v\x00\x00\x00w\x00\x00\x00x\x00\x00\x00y\x00\x00\x00z\x00\x00\x00{\x00\x00\x00|\x00\x00\x00}\x00\x00\x00~\x00\x00\x00\x7f\x00\x00\x00\x80\x00\x00\x00\x81\x00\x00\x00\x82\x00\x00\x00\x83\x00\x00\x00\x84\x00\x00\x00\x85\x00\x00\x00\x86\x00\x00\x00\x87\x00\x00\x00\x88\x00\x00\x00\x89\x00\x00\x00\x8a\x00\x00\x00\x8b\x00\x00\x00\x8c\x00\x00\x00\x8d\x00\x00\x00\x8e\x00\x00\x00\x8f\x00\x00\x00\x90\x00\x00\x00\x91\x00\x00\x00\x92\x00\x00\x00\x93\x00\x00\x00\x94\x00\x00\x00\x95\x00\x00\x00\x96\x00\x00\x00\x97\x00\x00\x00\x98\x00\x00\x00\x99\x00\x00\x00\x9a\x00\x00\x00\x9b\x00\x00\x00\x9c\x00\x00\x00\x9d\x00\x00\x00\x9e\x00\x00\x00\x9f\x00\x00\x00\xa0\x00\x00\x00\xa1\x00\x00\x00\xa2\x00\x00\x00\xa3\x00\x00\x00\xa4\x00\x00\x00\xa5\x00\x00\x00\xa6\x00\x00\x00\xa7\x00\x00\x00\xa8\x00\x00\x00\xa9\x00\x00\x00\xaa\x00\x00\x00\xab\x00\x00\x00\xac\x00\x00\x00\xad\x00\x00\x00\xae\x00\x00\x00\xaf\x00\x00\x00\xb0\x00\x00\x00\xb1\x00\x00\x00\xb2\x00\x00\x00\xb3\x00\x00\x00\xb4\x00\x00\x00\xb5\x00\x00\x00\xb6\x00\x00\x00\xb7\x00\x00\x00\xb8\x00\x00\x00\xb9\x00\x00\x00\xba\x00\x00\x00\xbb\x00\x00\x00\xbc\x00\x00\x00\xbd\x00\x00\x00\xbe\x00\x00\x00\xbf\x00\x00\x00\xc0\x00\x00\x00\xc1\x00\x00\x00\xc2\x00\x00\x00\xc3\x00\x00\x00\xc4\x00\x00\x00\xc5\x00\x00\x00\xc6\x00\x00\x00\xc7\x00\x00\x00\xc8\x00\x00\x00\xc9\x00\x00\x00\xca\x00\x00\x00\xcb\x00\x00\x00\xcc\x00\x00\x00\xcd\x00\x00\x00\xce\x00\x00\x00\xcf\x00\x00\x00\xd0\x00\x00\x00\xd1\x00\x00\x00\xd2\x00\x00\x00\xd3\x00\x00\x00\xd4\x00\x00\x00\xd5\x00\x00\x00\xd6\x00\x00\x00\xd7\x00\x00\x00\xd8\x00\x00\x00\xd9\x00\x00\x00\xda\x00\x00\x00\xdb\x00\x00\x00\xdc\x00\x00\x00\xdd\x00\x00\x00\xde\x00\x00\x00\xdf\x00\x00\x00\xe0\x00\x00\x00\xe1\x00\x00\x00\xe2\x00\x00\x00\xe3\x00\x00\x00\xe4\x00\x00\x00\xe5\x00\x00\x00\xe6\x00\x00\x00\xe7\x00\x00\x00\xe8\x00\x00\x00\xe9\x00\x00\x00\xea\x00\x00\x00\xeb\x00\x00\x00'
p4574
tp4575
bsS'indptr'
p4576
g4562
(g4563
(I0
tp4577
g4565
tp4578
Rp4579
(I1
(I237
tp4580
g4571
I00
S'\x00\x00\x00\x00\x01\x00\x00\x00\x02\x00\x00\x00\x03\x00\x00\x00\x04\x00\x00\x00\x05\x00\x00\x00\x06\x00\x00\x00\x07\x00\x00\x00\x08\x00\x00\x00\t\x00\x00\x00\n\x00\x00\x00\x0b\x00\x00\x00\x0c\x00\x00\x00\r\x00\x00\x00\x0e\x00\x00\x00\x0f\x00\x00\x00\x10\x00\x00\x00\x11\x00\x00\x00\x12\x00\x00\x00\x13\x00\x00\x00\x14\x00\x00\x00\x15\x00\x00\x00\x16\x00\x00\x00\x17\x00\x00\x00\x18\x00\x00\x00\x19\x00\x00\x00\x1a\x00\x00\x00\x1b\x00\x00\x00\x1c\x00\x00\x00\x1d\x00\x00\x00\x1e\x00\x00\x00\x1f\x00\x00\x00 \x00\x00\x00!\x00\x00\x00"\x00\x00\x00#\x00\x00\x00$\x00\x00\x00%\x00\x00\x00&\x00\x00\x00\'\x00\x00\x00(\x00\x00\x00)\x00\x00\x00*\x00\x00\x00+\x00\x00\x00,\x00\x00\x00-\x00\x00\x00.\x00\x00\x00/\x00\x00\x000\x00\x00\x001\x00\x00\x002\x00\x00\x003\x00\x00\x004\x00\x00\x005\x00\x00\x006\x00\x00\x007\x00\x00\x008\x00\x00\x009\x00\x00\x00:\x00\x00\x00;\x00\x00\x00<\x00\x00\x00=\x00\x00\x00>\x00\x00\x00?\x00\x00\x00@\x00\x00\x00A\x00\x00\x00B\x00\x00\x00C\x00\x00\x00D\x00\x00\x00E\x00\x00\x00F\x00\x00\x00G\x00\x00\x00H\x00\x00\x00I\x00\x00\x00J\x00\x00\x00K\x00\x00\x00L\x00\x00\x00M\x00\x00\x00N\x00\x00\x00O\x00\x00\x00P\x00\x00\x00Q\x00\x00\x00R\x00\x00\x00S\x00\x00\x00T\x00\x00\x00U\x00\x00\x00V\x00\x00\x00W\x00\x00\x00X\x00\x00\x00Y\x00\x00\x00Z\x00\x00\x00[\x00\x00\x00\\\x00\x00\x00]\x00\x00\x00^\x00\x00\x00_\x00\x00\x00`\x00\x00\x00a\x00\x00\x00b\x00\x00\x00c\x00\x00\x00d\x00\x00\x00e\x00\x00\x00f\x00\x00\x00g\x00\x00\x00h\x00\x00\x00i\x00\x00\x00j\x00\x00\x00k\x00\x00\x00l\x00\x00\x00m\x00\x00\x00n\x00\x00\x00o\x00\x00\x00p\x00\x00\x00q\x00\x00\x00r\x00\x00\x00s\x00\x00\x00t\x00\x00\x00u\x00\x00\x00v\x00\x00\x00w\x00\x00\x00x\x00\x00\x00y\x00\x00\x00z\x00\x00\x00{\x00\x00\x00|\x00\x00\x00}\x00\x00\x00~\x00\x00\x00\x7f\x00\x00\x00\x80\x00\x00\x00\x81\x00\x00\x00\x82\x00\x00\x00\x83\x00\x00\x00\x84\x00\x00\x00\x85\x00\x00\x00\x86\x00\x00\x00\x87\x00\x00\x00\x88\x00\x00\x00\x89\x00\x00\x00\x8a\x00\x00\x00\x8b\x00\x00\x00\x8c\x00\x00\x00\x8d\x00\x00\x00\x8e\x00\x00\x00\x8f\x00\x00\x00\x90\x00\x00\x00\x91\x00\x00\x00\x92\x00\x00\x00\x93\x00\x00\x00\x94\x00\x00\x00\x95\x00\x00\x00\x96\x00\x00\x00\x97\x00\x00\x00\x98\x00\x00\x00\x99\x00\x00\x00\x9a\x00\x00\x00\x9b\x00\x00\x00\x9c\x00\x00\x00\x9d\x00\x00\x00\x9e\x00\x00\x00\x9f\x00\x00\x00\xa0\x00\x00\x00\xa1\x00\x00\x00\xa2\x00\x00\x00\xa3\x00\x00\x00\xa4\x00\x00\x00\xa5\x00\x00\x00\xa6\x00\x00\x00\xa7\x00\x00\x00\xa8\x00\x00\x00\xa9\x00\x00\x00\xaa\x00\x00\x00\xab\x00\x00\x00\xac\x00\x00\x00\xad\x00\x00\x00\xae\x00\x00\x00\xaf\x00\x00\x00\xb0\x00\x00\x00\xb1\x00\x00\x00\xb2\x00\x00\x00\xb3\x00\x00\x00\xb4\x00\x00\x00\xb5\x00\x00\x00\xb6\x00\x00\x00\xb7\x00\x00\x00\xb8\x00\x00\x00\xb9\x00\x00\x00\xba\x00\x00\x00\xbb\x00\x00\x00\xbc\x00\x00\x00\xbd\x00\x00\x00\xbe\x00\x00\x00\xbf\x00\x00\x00\xc0\x00\x00\x00\xc1\x00\x00\x00\xc2\x00\x00\x00\xc3\x00\x00\x00\xc4\x00\x00\x00\xc5\x00\x00\x00\xc6\x00\x00\x00\xc7\x00\x00\x00\xc8\x00\x00\x00\xc9\x00\x00\x00\xca\x00\x00\x00\xcb\x00\x00\x00\xcc\x00\x00\x00\xcd\x00\x00\x00\xce\x00\x00\x00\xcf\x00\x00\x00\xd0\x00\x00\x00\xd1\x00\x00\x00\xd2\x00\x00\x00\xd3\x00\x00\x00\xd4\x00\x00\x00\xd5\x00\x00\x00\xd6\x00\x00\x00\xd7\x00\x00\x00\xd8\x00\x00\x00\xd9\x00\x00\x00\xda\x00\x00\x00\xdb\x00\x00\x00\xdc\x00\x00\x00\xdd\x00\x00\x00\xde\x00\x00\x00\xdf\x00\x00\x00\xe0\x00\x00\x00\xe1\x00\x00\x00\xe2\x00\x00\x00\xe3\x00\x00\x00\xe4\x00\x00\x00\xe5\x00\x00\x00\xe6\x00\x00\x00\xe7\x00\x00\x00\xe8\x00\x00\x00\xe9\x00\x00\x00\xea\x00\x00\x00\xeb\x00\x00\x00\xec\x00\x00\x00'
p4581
tp4582
bsS'maxprint'
p4583
I50
sS'_shape'
p4584
(I236
I236
tp4585
sg12
g4562
(g4563
(I0
tp4586
g4565
tp4587
Rp4588
(I1
(I236
tp4589
g3584
(S'f8'
p4590
I0
I1
tp4591
Rp4592
(I3
S'<'
p4593
NNNI-1
I-1
I0
tp4594
bI00
S"a\x94T\xb6H#\x1f@\x907\x8d\xf9\x05\x14\x17@\xc0w\x16\x9f|w\x13@\tE\xa7jt \x1a@#MuV\x80]\x1c@\xf9?t:\x9fQ\x18@a\x94T\xb6H#\x1f@\xf2E\xeb\xf1\xa9,\x14@\xcb:R\xb3-\\\x13@a\x94T\xb6H#\x1f@Z[\xbb\x18\xdfa\x10@p\x8cbD\x07l\x0b@~\xb1\xb5z\x0e\xc6\x12@\xa8\xbe\xb6\x96\xef\xd1\x16@\tE\xa7jt \x1a@a\x94T\xb6H#\x1f@\xdd\x9a\x88w\x16\x84\x1d@\x141Y88\xb3\x18@a\x94T\xb6H#\x1f@\xdd\x9a\x88w\x16\x84\x1d@\xdd\x9a\x88w\x16\x84\x1d@a\x94T\xb6H#\x1f@a\x94T\xb6H#\x1f@\x90\xdcL\xb0\xf4p\x14@#MuV\x80]\x1c@\x9fS\xa9\x17N\xbe\x1a@a\x94T\xb6H#\x1f@\x87(\xe9\x16.p\x0e@\x9c\x9e\x04\xd6\x19\xc8\n@a\x94T\xb6H#\x1f@a\x94T\xb6H#\x1f@,\xbb=\x19\xace\x07@a\x94T\xb6H#\x1f@#\xc5\xeaW\xbd2\x15@\xbb\xf8\x94\xda\xd6\x8b\x15@w\x15\x9b\x00\x8f\xa6\x17@w\x15\x9b\x00\x8f\xa6\x17@Rx8\x98\x00y\x1b@a\x94T\xb6H#\x1f@Po\tK\x1b\xcf\x11@\x1e_\x05\xf6\x85\xd2\x0f@\xc0w\x16\x9f|w\x13@,*\x84\x8c\xc0n\x10@a\x94T\xb6H#\x1f@\xa4TW\xd5\x12\xce\x13@a\x94T\xb6H#\x1f@a\x94T\xb6H#\x1f@\xdd\x9a\x88w\x16\x84\x1d@\xdd\x9a\x88w\x16\x84\x1d@\xf9?t:\x9fQ\x18@a\x94T\xb6H#\x1f@a\x94T\xb6H#\x1f@y\x00\xee\xb2\xd2\xf8\t@a\x94T\xb6H#\x1f@a\x94T\xb6H#\x1f@z\x7f\xfa\xc1k\xaa\x0e@\x907\x8d\xf9\x05\x14\x17@\xc0w\x16\x9f|w\x13@\xdd\x9a\x88w\x16\x84\x1d@a\x94T\xb6H#\x1f@\xdd\x9a\x88w\x16\x84\x1d@\xdd\x9a\x88w\x16\x84\x1d@a\x94T\xb6H#\x1f@\x86\xf2\xa2d\xc8\x01\x0c@\xd37\x9b;(\xf9\n@Rx8\x98\x00y\x1b@a\x94T\xb6H#\x1f@a\x94T\xb6H#\x1f@a\x94T\xb6H#\x1f@a\x94T\xb6H#\x1f@G\x04\xfc\xcby\xbb\x15@w\x15\x9b\x00\x8f\xa6\x17@w\x15\x9b\x00\x8f\xa6\x17@\xb7\x15\xe7\xf4 ]\x0e@\x98\xa2\x9ax\xa7'\x13@\xf2E\xeb\xf1\xa9,\x14@w\x15\x9b\x00\x8f\xa6\x17@R\xf0\xad\x99=N\x14@a\x94T\xb6H#\x1f@#MuV\x80]\x1c@z\x7f\xfa\xc1k\xaa\x0e@a\x94T\xb6H#\x1f@\x141Y88\xb3\x18@\xfcm\xd6\x00\x04%\x0e@\x05\x15=\x1a\xf0\x08\x15@Rx8\x98\x00y\x1b@#MuV\x80]\x1c@\xfb\x86\xdc@\xfe\x1a\x12@a\x94T\xb6H#\x1f@\xdd\x9a\x88w\x16\x84\x1d@a\x94T\xb6H#\x1f@\xdd\x9a\x88w\x16\x84\x1d@a\xb4q\x1e\xcdZ\t@\xdc\x12\xfexSY\x16@\xdd\x9a\x88w\x16\x84\x1d@\xe5\x05\x96\xf6\xb7\x97\x19@w\x15\x9b\x00\x8f\xa6\x17@\x05\x15=\x1a\xf0\x08\x15@\x1e\xf7\xd0\x88,<\x10@a\x94T\xb6H#\x1f@K\xc5\xdf\xe72y\x0b@X\x1eJ\xab\xd0\x17\x10@a\x94T\xb6H#\x1f@Rx8\x98\x00y\x1b@#MuV\x80]\x1c@a\x94T\xb6H#\x1f@\x86\xf2\xa2d\xc8\x01\x0c@a\x94T\xb6H#\x1f@k\x89\x82\xa9\xc7R\r@9\xce\xbb\xa0\xc6\xe0\x14@w\x15\x9b\x00\x8f\xa6\x17@\x9fS\xa9\x17N\xbe\x1a@a\x94T\xb6H#\x1f@\xf2E\xeb\xf1\xa9,\x14@9\xce\xbb\xa0\xc6\xe0\x14@\x9fS\xa9\x17N\xbe\x1a@\tE\xa7jt \x1a@#PT\xd6\xa5\x12\x0e@Dck\xfe\x83\x82\x12@a\x94T\xb6H#\x1f@x\x85ls^\x0e\x13@a\x94T\xb6H#\x1f@R\xf0\xad\x99=N\x14@R\xf0\xad\x99=N\x14@\xdd\x9a\x88w\x16\x84\x1d@Rx8\x98\x00y\x1b@\xfe\xf0;\x02\xdb\x1e\t@\xdd\x9a\x88w\x16\x84\x1d@6\xae\xd5\x96\x10\xa4\n@\xb9\xab\x11\xe3\xa2\xbf\x10@\xd7\xe9y\xd8o\xed\x15@\xc0w\x16\x9f|w\x13@\xdd\x9a\x88w\x16\x84\x1d@a\x94T\xb6H#\x1f@\x84\xc3P-\x7fV\x11@\x1aZ\xdd\xd8\x1b\x1f\x19@\xdd\x9a\x88w\x16\x84\x1d@\xcb:R\xb3-\\\x13@\xdd\x9a\x88w\x16\x84\x1d@\x0eD\xf1\xfeFL\x06@\xe8|;\xfaS\x0f\x0f@\xdd\x9a\x88w\x16\x84\x1d@a\x94T\xb6H#\x1f@a\x94T\xb6H#\x1f@\xe2\x9b65\xdb\x93\x16@\xcb\xfd\xc7\n\xacZ\x17@\xdd\x9a\x88w\x16\x84\x1d@\xa2s\xed\xa9\x93'\x01@\xdd\x9a\x88w\x16\x84\x1d@\xdd\x9a\x88w\x16\x84\x1d@a\x94T\xb6H#\x1f@\tE\xa7jt \x1a@a\x94T\xb6H#\x1f@a\x94T\xb6H#\x1f@Rx8\x98\x00y\x1b@Rx8\x98\x00y\x1b@a\x94T\xb6H#\x1f@\xdd\x9a\x88w\x16\x84\x1d@a\x94T\xb6H#\x1f@\xdd\x9a\x88w\x16\x84\x1d@\xdd\x9a\x88w\x16\x84\x1d@w\x15\x9b\x00\x8f\xa6\x17@w\x15\x9b\x00\x8f\xa6\x17@\xf9?t:\x9fQ\x18@\xa8\xbe\xb6\x96\xef\xd1\x16@a\x94T\xb6H#\x1f@a\x94T\xb6H#\x1f@\x141Y88\xb3\x18@\x9fS\xa9\x17N\xbe\x1a@a\x94T\xb6H#\x1f@a\x94T\xb6H#\x1f@R\xf0\xad\x99=N\x14@\xc0w\x16\x9f|w\x13@\x907\x8d\xf9\x05\x14\x17@\xbb\xf8\x94\xda\xd6\x8b\x15@#MuV\x80]\x1c@\x9fS\xa9\x17N\xbe\x1a@#MuV\x80]\x1c@a\x94T\xb6H#\x1f@\xc0w\x16\x9f|w\x13@\xe2\x9b65\xdb\x93\x16@a\x94T\xb6H#\x1f@\x9fS\xa9\x17N\xbe\x1a@\xdd\x9a\x88w\x16\x84\x1d@w\x15\x9b\x00\x8f\xa6\x17@\xdd\x9a\x88w\x16\x84\x1d@\x9e\xcb\x1e\x19\x8b\x93\x13@G\x04\xfc\xcby\xbb\x15@Po\tK\x1b\xcf\x11@a\x94T\xb6H#\x1f@9\xce\xbb\xa0\xc6\xe0\x14@a\x94T\xb6H#\x1f@a\x0c\xca\xb7\x85\xf8\x17@R\xf0\xad\x99=N\x14@\xdd\x9a\x88w\x16\x84\x1d@a\x94T\xb6H#\x1f@a\x0c\xca\xb7\x85\xf8\x17@\x98\xa2\x9ax\xa7'\x13@&e\xf8\x89\xa9\x92\x06@*\xb2\x9f\x82~6\x11@a\x94T\xb6H#\x1f@Ez\xc0\xb2\xf4\x0f\x0c@R\xf0\xad\x99=N\x14@\x08\xbd\x1cl\xb1\xf5\x12@a\xdb\xde@\xba\xe5\x0b@\x02E\x80\xbf\x12;\x0c@Rx8\x98\x00y\x1b@jw\xd76'\x0c\x14@a\x94T\xb6H#\x1f@a\x94T\xb6H#\x1f@R\xf0\xad\x99=N\x14@\tE\xa7jt \x1a@\xdd\x9a\x88w\x16\x84\x1d@\tE\xa7jt \x1a@\x8207?\xb4\xb1\x10@Rx8\x98\x00y\x1b@\xcb:R\xb3-\\\x13@a\x94T\xb6H#\x1f@9\xce\xbb\xa0\xc6\xe0\x14@\tE\xa7jt \x1a@a\x94T\xb6H#\x1f@x\x85ls^\x0e\x13@R\xf0\xad\x99=N\x14@\xb4<\x9f2\x83\xdc\r@hZql|>\x06@\xdd\x9a\x88w\x16\x84\x1d@\xdd\x9a\x88w\x16\x84\x1d@\xac\xdcx\xbc\x8e\xe1\x11@\x08\xbd\x1cl\xb1\xf5\x12@\xdd\x9a\x88w\x16\x84\x1d@\x96e)\x0b\x99\xdd\x12@\xdd\x9a\x88w\x16\x84\x1d@^\xa62I>\xef\x04@\tE\xa7jt \x1a@Rx8\x98\x00y\x1b@Rx8\x98\x00y\x1b@"
p4595
tp4596
bsbsS'use_idf'
p4597
I01
sS'sublinear_tf'
p4598
I00
sS'norm'
p4599
Vl2
p4600
sbtp4601
a(S'clsfr'
p4602
g3551
(csklearn.linear_model.stochastic_gradient
SGDClassifier
p4603
g3553
Ntp4604
Rp4605
(dp4606
S't_'
p4607
F8836.0
sS'n_jobs'
p4608
I1
sS'shuffle'
p4609
I01
sS'verbose'
p4610
I0
sS'classes_'
p4611
g4562
(g4563
(I0
tp4612
g4565
tp4613
Rp4614
(I1
(I2
tp4615
g3584
(S'S5'
p4616
I0
I1
tp4617
Rp4618
(I3
S'|'
p4619
NNNI5
I1
I0
tp4620
bI00
S'FalseTrue\x00'
p4621
tp4622
bsS'class_weight'
p4623
NsS'fit_intercept'
p4624
I01
sg8
g9
sS'random_state'
p4625
I705
sg3557
g3558
sS'loss_function'
p4626
csklearn.linear_model.sgd_fast
Hinge
p4627
(F1.0
tp4628
Rp4629
sS'C'
p4630
F1.0
sg7
I5
sS'epsilon'
p4631
F0.1
sS'learning_rate'
p4632
S'optimal'
p4633
sS'coef_'
p4634
g4562
(g4563
(I0
tp4635
g4565
tp4636
Rp4637
(I1
(I1
I236
tp4638
g4592
I00
S'\x00\x00\x00\x00\x00\x00\x00\x00\x00\x00\x00\x00\x00\x00\x00\x00\x00\x00\x00\x00\x00\x00\x00\x00\x00\x00\x00\x00\x00\x00\x00\x00\x00\x00\x00\x00\x00\x00\x00\x00\x08\xf3\\\x1bp\xd4\xfa\xbf.SY\xd9\xcd(\xe2\xbf\xf5\x99\\cj\\\x04\xc0p\x8d\xd2be\xee\xe2\xbf\x00E\x92\x0e\xb7r\xee\xbf\x00\x00\x00\x00\x00\x00\x00\x00f\xe6\xe2\xdd\xe5\xfc\xe7\xbf\x00\x00\x00\x00\x00\x00\x00\x00\x00\x00\x00\x00\x00\x00\x00\x00\x10{\xc1\x1a\xaf]\x01\xc0\x00\x00\x00\x00\x00\x00\x00\x00\x00\x00\x00\x00\x00\x00\x00\x00\x00\x00\x00\x00\x00\x00\x00\x00\x00\x00\x00\x00\x00\x00\x00\x00\x00\x00\x00\x00\x00\x00\x00\x00\x00\x00\x00\x00\x00\x00\x00\x00\x00\x00\x00\x00\x00\x00\x00\x00B\x18\xa6\xfa\xe4\xe0\x15\xc0\x87K\x81\x17\x1eK\x00\xc0\x00\x00\x00\x00\x00\x00\x00\x00\xa8\xd6Oc5\x81\r\xc0\x00\x00\x00\x00\x00\x00\x00\x00]\xd8\xc0\xfe\x1b\xe0\xd4\xbf\x00\x00\x00\x00\x00\x00\x00\x00\x00\x00\x00\x00\x00\x00\x00\x00\x00\x00\x00\x00\x00\x00\x00\x00r\x9e\xe0*\xe9~\x04\xc0\x00\x00\x00\x00\x00\x00\x00\x00\xf4\x05\x9b\xca}\x9d\x07\xc0Fr\xadI\xfc\xe2\x10\xc0\x96\xeet\xdbN\x16\xd8?F\xb6\x1e\xcdnH\xdd?\x00\x00\x00\x00\x00\x00\x00\x00\xd5\x1f\xf21c\xd3\x06\xc0k\xb3\xc8t\xd2\n\x06\xc0\x00\x00\x00\x00\x00\x00\x00\x00\x00\x00\x00\x00\x00\x00\x00\x00\xd0\xb7\xc3^\x10u\xba\xbf\x00\x00\x00\x00\x00\x00\x00\x00\x00\x00\x00\x00\x00\x00\x00\x00\x00\x00\x00\x00\x00\x00\x00\x00\x00\x00\x00\x00\x00\x00\x00\x00\x00\x00\x00\x00\x00\x00\x00\x00\x00\x00\x00\x00\x00\x00\x00\x00Y\xca\xc0\xb1[b\x03\xc0\x00\x00\x00\x00\x00\x00\x00\x00\x00E\x92\x0e\xb7r\xee\xbfj!\xd8\xdb\xf8\x19\x06\xc0\x00\x00\x00\x00\x00\x00\x00\x00\x00\x00\x00\x00\x00\x00\x00\x00Yt\xf5XW]\x1d\xc0\x00\x00\x00\x00\x00\x00\x00\x00\x13\x94\xa74\x14\x18\x08\xc0\x00\x00\x00\x00\x00\x00\x00\x00\x00E\x92\x0e\xb7r\xee\xbf\x00\x00\x00\x00\x00\x00\x00\x00\x00\x00\x00\x00\x00\x00\x00\x00\x00\x00\x00\x00\x00\x00\x00\x00Z\xe5\x7f\xf9\xdc\xb9\x03\xc0\x89\x16\x8a\xfbm\xea\x03\xc0\x92\x9dn\xb6wD\x07\xc0.SY\xd9\xcd(\xe2\xbf\x00\x00\x00\x00\x00\x00\x00\x00.SY\xd9\xcd(\xe2\xbf.SY\xd9\xcd(\xe2\xbf;\xb4z\xa5+\x12\xf7\xbf\xd7\xcd\xde+\xf4\xe3\xfe\xbf\x8c\x99\x97\xbfW&\xd4?rx\xae\x1c\x0b\xd3\xd4\xbf\xab\xc2\x1ahl\xf3\x0e@\xf5\x99\\cj\\\x04\xc02\xa1\xbcB\x15\xcc\xee?\x00\x00\x00\x00\x00\x00\x00\x00\x00\x00\x00\x00\x00\x00\x00\x00\x00\x00\x00\x00\x00\x00\x00\x00)W\xf6\xa22\xf1\xc3\xbf\x00\x00\x00\x00\x00\x00\x00\x00\x00\x00\x00\x00\x00\x00\x00\x00|\x04\xf4ax:\x05\xc0\xecl\x8e+\x86\xf6\xfb\xbf\xc9\xf5\x0e6\xf7/\xe8\xbf\xb9X!v\xf1p\x01\xc0\xcc\x9d$\xf7\xf7\xff\x06\xc0\x00\x00\x00\x00\x00\x00\x00\x00\x00\x00\x00\x00\x00\x00\x00\x00\x00\x00\x00\x00\x00\x00\x00\x00\x9c\xcazI?R\xfd?\xb7\xf8\xa4V\x03\x08\x00\xc0\x1c\xacJ\xd4"\x15\x05\xc0\x00\x00\x00\x00\x00\x00\x00\x00\x00\x00\x00\x00\x00\x00\x00\x00D\xaf\xf9\xd8\x9ag\xef?\x00\x00\xa50\x86\xb8\xd1?\xda\xd4\xef \xa0\xa8\xd4\xbf\x00\x00\x00\x00\x00\x00\x00\x00f>`B\xee^\x06\xc0\x00\x00\x00\x00\x00\x00\x00\x00\x1e\x0ev\x8ao\xb5\x03\xc0\x00\x00\x00\x00\x00\x00\x00\x00\x00\x00\x00\x00\x00\x00\x00\x00\x00\x00\x00\x00\x00\x00\x00\x00Th8\x91\x7f\x9e\xd1?\xd5\x1f\xf21c\xd3\x06\xc0w\xb7\xaf\xc3]\xc5\r@\x8a\x9f\xd8\xa3\x86\x80\xdd\xbf\x00\x00\x00\x00\x00\x00\x00\x00\x00\x00\x00\x00\x00\x00\x00\x00\x00\x00\x00\x00\x00\x00\x00\x00\x8b\t\xef\xf8\xcaj\xf5\xbf\xf2\x1a\x04bC\x0e\xc8\xbf\x00\x00\x00\x00\x00\x00\x00\x00\xcc [\xe9/\xc0\x08\xc0\xf7\x0b\xb6R\xf7\xc3\x07\xc0\x00\x00\x00\x00\x00\x00\x00\x00\x00\x00\x00\x00\x00\x00\x00\x00\x1d\xc4f\x00o\xc2\x02\xc0\x00\x00\x00\x00\x00\x00\x00\x00\x00\x00\x00\x00\x00\x00\x00\x00\x00\x00\x00\x00\x00\x00\x00\x00\x00\x00\x00\x00\x00\x00\x00\x00\x00\x00\x00\x00\x00\x00\x00\x00\x89\xbf\xa1\x00~\x17\xff\xbf\x00\x00\x00\x00\x00\x00\x00\x00\xf7\xca\x13\xfe\xd1\xc2\x02\xc0\r,$|\xc4`\t\xc0\xea;c>\xcc\xa3\xfc\xbf\x83\x0e\x8c\xa7\xd5\x0f\x05\xc0\xae0\xb8\x02\x14&\x02\xc0G\x85\x18\x95\xfa\xff\xe5\xbf \x8a\xa6\x07c\xcd \xc0\xbc[H\xf3\x13\xae\xd5\xbf\x00\x00\x00\x00\x00\x00\x00\x007)U}\x8e\x1a\xf1\xbf\x00\x00\x00\x00\x00\x00\x00\x00\xe5!B\xe0q\x8d\x00\xc0\\\xdd"\x17\xe5\xc1\xf8\xbf\x00\x00\x00\x00\x00\x00\x00\x00\x00\x00\x00\x00\x00\x00\x00\x00\x00\x00\x00\x00\x00\x00\x00\x00\x00\x00\x00\x00\x00\x00\x00\x00\x00\x00\x00\x00\x00\x00\x00\x00\x00\x00\x00\x00\x00\x00\x00\x00\x07\xfa\xb7C}\x9f\x15\xc0\x00\x00\x00\x00\x00\x00\x00\x00\x00\x00\x00\x00\x00\x00\x00\x00\xa3\xeev\x92\xa3\xa6\xd3\xbf\x00\x00\x00\x00\x00\x00\x00\x00\x00\x00\x00\x00\x00\x00\x00\x00\x00\x00\x00\x00\x00\x00\x00\x00\x00\x00\x00\x00\x00\x00\x00\x00\x00\x00\x00\x00\x00\x00\x00\x00\x00E\x92\x0e\xb7r\xee\xbf\x00\x00\x00\x00\x00\x00\x00\x00\x00\x00\x00\x00\x00\x00\x00\x00\x00\x00\x00\x00\x00\x00\x00\x00\xdc#\x9b\x1b\x87\xa9\xec?\x04Z\xd6\xdf\x05\xcf\xf7?\x9a-\xa7&7\xc8\xd0?\x00\x00\x00\x00\x00\x00\x00\x00\x9f<\xf0\xe2l\xae\x06\xc0\x00\x00\x00\x00\x00\x00\x00\x00\x00\x00\x00\x00\x00\x00\x00\x00\x00\x00\x00\x00\x00\x00\x00\x00\x00\x00\x00\x00\x00\x00\x00\x00\x00\x00\x00\x00\x00\x00\x00\x00.SY\xd9\xcd(\xe2\xbf\x00\x00\x00\x00\x00\x00\x00\x00>\xa0\xe55\xffk\x0b\xc0\xd7\xe0\xfe\xfc<\x97\xca\xbf}1\xea\xf3\x06\xbd\x06\xc0\x00\x00\x00\x00\x00\x00\x00\x00\x00\x00\x00\x00\x00\x00\x00\x00\x00\x00\x00\x00\x00\x00\x00\x00\x00\x00\x00\x00\x00\x00\x00\x00\x13\x94\xa74\x14\x18\x08\xc0\x00\x00\x00\x00\x00\x00\x00\x00\x00\x00\x00\x00\x00\x00\x00\x00\xba\x88\xdc\xac[\xfb\r\xc07:\xbc9\x14\xdf\xf3?\x9f\x03\xfa 3\x17\xdd?\x00\x00\x00\x00\x00\x00\x00\x00\xc9\x84!\xaa0.\x05\xc0\xe3\xf9$eu\x96\x04\xc0\xca\xe9d{\xba\xf7\xfa\xbf\x00\x00\x00\x00\x00\x00\x00\x00\x00\x00\x00\x00\x00\x00\x00\x00\x00\x00\x00\x00\x00\x00\x00\x00\xe5\xd8\x0c\xc0.&\x02\xc0\x00\x00\x00\x00\x00\x00\x00\x00\x00\x00\x00\x00\x00\x00\x00\x00\xa3\xeev\x92\xa3\xa6\xd3\xbf \xca0\xbf\x00\x99\x07\xc0\x15\x07\xde_\xccR\x0e@\xf2u\xa6\xae\xfe\x02\xa4\xbf\xb99\xb7\x86R\x1d\xee\xbf\x00E\x92\x0e\xb7r\xee\xbf\xbc\x90\xfc\xaa\x81F\xf1?\x9c;\xb8\x7f\x80\xad\t\xc0^M\xdc2\xcca\x10\xc0$\xeeiB[g\xe8\xbf9T^/\xce\t\x00@\x00\x00\x00\x00\x00\x00\x00\x00\x00\x00\x00\x00\x00\x00\x00\x00\x00\x00\x00\x00\x00\x00\x00\x00\x00\x00\x00\x00\x00\x00\x00\x00\x00\x00\x00\x00\x00\x00\x00\x00\xe2\xaf7\xdf7\xdf\x00\xc0\x00\x00\x00\x00\x00\x00\x00\x00\x00\x00\x00\x00\x00\x00\x00\x00\x81K\xe3t\xa6\'\x02\xc0\x00\x00\x00\x00\x00\x00\x00\x00\xba\x01\x13\xf1\x1f\x01\xf9\xbf.SY\xd9\xcd(\xe2\xbf\xc5g\xe2\x99\xf7m\xfa\xbf\xc1r\xd4o\xcc\xf7\t\xc0\x00\x00\x00\x00\x00\x00\x00\x00\xb2\xd6\xda\x07=\x9a\r@\x00\x00\x00\x00\x00\x00\x00\x00\x08;@|\x07b\xf2?\xd7\xfb\xdb\x07!`\xdb?\x00\x00\x00\x00\x00\x00\x00\x00\xe1i\xee\x83\xc7\xfd\xf0\xbf\xc2a_\xc1,\n\xf2\xbf\x07\x05\xf4\xd4\x11\xb8\r\xc0b\xda\xb3\x90\x7f\xfc\xe9\xbf\x00\x00\x00\x00\x00\x00\x00\x00\x00\x00\x00\x00\x00\x00\x00\x00{\x1bK\xe77\x8b\x00\xc0\xc1r\xd4o\xcc\xf7\t\xc0\x00\x00\x00\x00\x00\x00\x00\x00\x00\x00\x00\x00\x00\x00\x00\x00'
p4639
tp4640
bsg11
F0.001
sS'intercept_'
p4641
g4562
(g4563
(I0
tp4642
g4565
tp4643
Rp4644
(I1
(I1
tp4645
g4592
I00
S'\xd4\x05)\xb4\x10W\xf0\xbf'
p4646
tp4647
bsS'_expanded_class_weight'
p4648
g4562
(g4563
(I0
tp4649
g4565
tp4650
Rp4651
(I1
(I2
tp4652
g4592
I00
S'\x00\x00\x00\x00\x00\x00\xf0?\x00\x00\x00\x00\x00\x00\xf0?'
p4653
tp4654
bsS'warm_start'
p4655
I00
sg2
g3
sS'eta0'
p4656
F0.0
sS'l1_ratio'
p4657
F0.15
sS'average'
p4658
I00
sS'power_t'
p4659
F0.5
sbtp4660
asbsb.