(ialicized_models
CommandMatchingModel
p0
(dp1
S'loss'
p2
S'perceptron'
p3
sS'grammar'
p4
NsS'name'
p5
S'GET_NEWS.model'
p6
sS'n_iter'
p7
I5
sS'penalty'
p8
S'none'
p9
sS'trained'
p10
I01
sS'alpha'
p11
F0.001
sS'data'
p12
(lp13
(S'create new event please'
p14
S'False'
p15
tp16
a(S'issue commands'
p17
g15
tp18
a(S"what aren't the newsfeed"
p19
g15
tp20
a(S'please check inbox'
p21
g15
tp22
a(S'can you please shut down my computer'
p23
g15
tp24
a(S'please could you check my gmail'
p25
g15
tp26
a(S'get the current events'
p27
S'True'
p28
tp29
a(S'please get me the clock'
p30
g15
tp31
a(S'is there anything i have to do tomorrow'
p32
g15
tp33
a(S"what's the forecast today"
p34
g15
tp35
a(S'dont read the news to me'
p36
g15
tp37
a(S'is there anything to do on'
p38
g15
tp39
a(S'will you check new mail please'
p40
g15
tp41
a(S"what's not in live newsfeed"
p42
g15
tp43
a(S'check google calendar for today'
p44
g15
tp45
a(S"don't i have to do anything on wednesday"
p46
g15
tp47
a(S'will you check my mail'
p48
g15
tp49
a(S'can you please close current window'
p50
g15
tp51
a(S'turn off my computer please'
p52
g15
tp53
a(S'do i have anything to do on thursday'
p54
g15
tp55
a(S'can you add a new event'
p56
g15
tp57
a(S'can you create event please'
p58
g15
tp59
a(S'search google for please'
p60
g15
tp61
a(S'read time please'
p62
g15
tp63
a(S"don't i have anything to do on thursday"
p64
g15
tp65
a(S"get if it's hot today"
p66
g15
tp67
a(S"please what's in gmail"
p68
g15
tp69
a(S'check new gmail'
p70
g15
tp71
a(S'could you check inbox'
p72
g15
tp73
a(S'lock the screen please'
p74
g15
tp75
a(S"what's if it's raining this week"
p76
g15
tp77
a(S'can you put me on the lock screen'
p78
g15
tp79
a(S'spotify skip'
p80
g15
tp81
a(S'what is new in my mail'
p82
g15
tp83
a(S"what's the temperature today"
p84
g15
tp85
a(S"how's the weather today"
p86
g15
tp87
a(S'make new event please'
p88
g15
tp89
a(S"what's new in my gmail"
p90
g15
tp91
a(S'how is the forecast'
p92
g15
tp93
a(S'get news now'
p94
g28
tp95
a(S'what events are on sunday'
p96
g15
tp97
a(S'can you turn off my computer'
p98
g15
tp99
a(S'will you get the headlines'
p100
g28
tp101
a(S'check my calendar for today'
p102
g15
tp103
a(S'shut off my computer please'
p104
g15
tp105
a(S"don't i have to do anything on friday"
p106
g15
tp107
a(S'can you unmute'
p108
g15
tp109
a(S'we stick to simple problems in this post for the sake of illustration'
p110
g15
tp111
a(S'get the information'
p112
g28
tp113
a(S'turn up the tunes'
p114
g15
tp115
a(S'what is on my calendar for wednesday'
p116
g15
tp117
a(S"don't i have anything on next"
p118
g15
tp119
a(S'what is in my inbox'
p120
g15
tp121
a(S"what's if it's rainy this week"
p122
g15
tp123
a(S'schedule a new event please'
p124
g15
tp125
a(S"what's temperature"
p126
g15
tp127
a(S'can you please turn the sound down'
p128
g15
tp129
a(S'could you schedule event please'
p130
g15
tp131
a(S'what do i have to do on tomorrow'
p132
g15
tp133
a(S'any events on this day'
p134
g15
tp135
a(S"what isn't news feed"
p136
g15
tp137
a(S'what is newsfeed'
p138
g28
tp139
a(S'am i free for a week'
p140
g15
tp141
a(S'add an event'
p142
g15
tp143
a(S'please would you open mail'
p144
g15
tp145
a(S'will you not get the headlines'
p146
g15
tp147
a(S'kill the music'
p148
g15
tp149
a(S'can you make an event'
p150
g15
tp151
a(S'get time please'
p152
g15
tp153
a(S'newsfeed'
p154
g28
tp155
a(S"what's not the headlines"
p156
g15
tp157
a(S"don't i have any events in a week"
p158
g15
tp159
a(S'anything new in gmail'
p160
g15
tp161
a(S"what's the temperature this week"
p162
g15
tp163
a(S'could you please schedule new event'
p164
g15
tp165
a(S'can you put me on the lock screen please'
p166
g15
tp167
a(S'what do i have on friday'
p168
g15
tp169
a(S'do i have any events on tomorrow'
p170
g15
tp171
a(S'be quiet'
p172
g15
tp173
a(S'make the sound louder'
p174
g15
tp175
a(S'please open inbox'
p176
g15
tp177
a(S'check the current time please'
p178
g15
tp179
a(S'any events in a month'
p180
g15
tp181
a(S'good bye'
p182
g15
tp183
a(S'am i free for monday'
p184
g15
tp185
a(S'check calendar on this week'
p186
g15
tp187
a(S'any events on friday'
p188
g15
tp189
a(S'do i have anything on saturday'
p190
g15
tp191
a(S'please add new event'
p192
g15
tp193
a(S'can you schedule new event'
p194
g15
tp195
a(S'what events are in a month'
p196
g15
tp197
a(S"don't i have anything on"
p198
g15
tp199
a(S"not today's newsfeed"
p200
g15
tp201
a(S'not whats going on in the world todays please'
p202
g15
tp203
a(S'can you please schedule an event'
p204
g15
tp205
a(S'please shut down'
p206
g15
tp207
a(S"don't get me the news todays"
p208
g15
tp209
a(S'spotify pause'
p210
g15
tp211
a(S'what do i have to do on wednesday'
p212
g15
tp213
a(S'get current time please'
p214
g15
tp215
a(S'what is on my calendar for friday'
p216
g15
tp217
a(S"today's live newsfeed"
p218
g28
tp219
a(S"what's new in mail please"
p220
g15
tp221
a(S"what're not the news feed"
p222
g15
tp223
a(S"don't i have to do anything in a week"
p224
g15
tp225
a(S"what's not in news"
p226
g15
tp227
a(S"what's not the news feed"
p228
g15
tp229
a(S"what's this week's weather"
p230
g15
tp231
a(S'brief me'
p232
g28
tp233
a(S'add a new event please'
p234
g15
tp235
a(S"what's not in live news feed"
p236
g15
tp237
a(S'please could you check new gmail'
p238
g15
tp239
a(S'please read time'
p240
g15
tp241
a(S"what's the weather"
p242
g15
tp243
a(S'shutdown the computer'
p244
g15
tp245
a(S'dont give me the current events'
p246
g15
tp247
a(S"get if it's cloudy today"
p248
g15
tp249
a(S"don't i have anything to do in a week"
p250
g15
tp251
a(S'am i free in a week'
p252
g15
tp253
a(S'can you please turn up the volume'
p254
g15
tp255
a(S'please would you check my inbox'
p256
g15
tp257
a(S'turn up the volume'
p258
g15
tp259
a(S'what is in my gmail'
p260
g15
tp261
a(S'please can you check my mail'
p262
g15
tp263
a(S'resume the song'
p264
g15
tp265
a(S'shutdown please'
p266
g15
tp267
a(S"don't find news feed"
p268
g15
tp269
a(S'could you check new gmail'
p270
g15
tp271
a(S'decrease the volume'
p272
g15
tp273
a(S'do not find the latest headlines'
p274
g15
tp275
a(S'am i free for tomorrow'
p276
g15
tp277
a(S'turn off the computer please'
p278
g15
tp279
a(S"what're not the current news"
p280
g15
tp281
a(S'make the volume 0'
p282
g15
tp283
a(S'can you kill this window'
p284
g15
tp285
a(S'please get clock'
p286
g15
tp287
a(S"what isn't going on in the world today"
p288
g15
tp289
a(S'please can you turn up the volume'
p290
g15
tp291
a(S'please create a new event'
p292
g15
tp293
a(S'am i free on tuesday'
p294
g15
tp295
a(S'please give me the current events please'
p296
g28
tp297
a(S"don't i have anything to do on sunday"
p298
g15
tp299
a(S'start browser'
p300
g15
tp301
a(S'turn up the tune'
p302
g15
tp303
a(S'dont whats going on in the world todays'
p304
g15
tp305
a(S'do i have anything on wednesday'
p306
g15
tp307
a(S'not live news'
p308
g15
tp309
a(S'open default browser please'
p310
g15
tp311
a(S'any new mail'
p312
g15
tp313
a(S'do i have anything to do'
p314
g15
tp315
a(S'will you open mail please'
p316
g15
tp317
a(S'can you please kill active window'
p318
g15
tp319
a(S'please can you check mail'
p320
g15
tp321
a(S'alice next please'
p322
g15
tp323
a(S"don't tell me the news"
p324
g15
tp325
a(S'do not tell me hwat is going on in the world todays'
p326
g15
tp327
a(S'please would you open inbox'
p328
g15
tp329
a(S'forecast'
p330
g15
tp331
a(S"get today's weather"
p332
g15
tp333
a(S'turn yourself off'
p334
g15
tp335
a(S"what's not in newsfeed"
p336
g15
tp337
a(S'do i have anything on thursday'
p338
g15
tp339
a(S'check events on'
p340
g15
tp341
a(S'what is in my gmail please'
p342
g15
tp343
a(S"don't tell me live news"
p344
g15
tp345
a(S'can you send me to the lock screen please'
p346
g15
tp347
a(S'check my calendar'
p348
g15
tp349
a(S"what's the weather this week"
p350
g15
tp351
a(S'please add a new event'
p352
g15
tp353
a(S'quit'
p354
g15
tp355
a(S'bye bye'
p356
g15
tp357
a(S'what is new in my inbox please'
p358
g15
tp359
a(S'do i have anything in a month'
p360
g15
tp361
a(S'what events do i have on monday'
p362
g15
tp363
a(S"i think i didn't answer an earlier question"
p364
g15
tp365
a(S'add event please'
p366
g15
tp367
a(S'check calendar on monday'
p368
g15
tp369
a(S'please go back'
p370
g15
tp371
a(S'can you make an event please'
p372
g15
tp373
a(S"don't give me the news"
p374
g15
tp375
a(S"don't find the news"
p376
g15
tp377
a(S'spotify pause please'
p378
g15
tp379
a(S'would you check new mail'
p380
g15
tp381
a(S'is there anything i have to do today'
p382
g15
tp383
a(S'please open my mail'
p384
g15
tp385
a(S'bye bye alice'
p386
g15
tp387
a(S"don't find headlines"
p388
g15
tp389
a(S'skip spotify please'
p390
g15
tp391
a(S'is there anything to do on next'
p392
g15
tp393
a(S'are there any events on wednesday'
p394
g15
tp395
a(S'tell me current news'
p396
g28
tp397
a(S"what's the live news feed"
p398
g28
tp399
a(S"what's if it's cloudy today"
p400
g15
tp401
a(S"what're not the live news"
p402
g15
tp403
a(S"don't i have anything on wednesday"
p404
g15
tp405
a(S"today's temperature"
p406
g15
tp407
a(S"don't i have anything on friday"
p408
g15
tp409
a(S'please open mail'
p410
g15
tp411
a(S'do i have anything in my inbox'
p412
g15
tp413
a(S'could you please add a new event'
p414
g15
tp415
a(S'open my inbox'
p416
g15
tp417
a(S'spotify stop the song'
p418
g15
tp419
a(S'lower the sound'
p420
g15
tp421
a(S'can you open a browser'
p422
g15
tp423
a(S'open gmail'
p424
g15
tp425
a(S'do i have to do anything on tuesday'
p426
g15
tp427
a(S'schedule an event please'
p428
g15
tp429
a(S'please pause song'
p430
g15
tp431
a(S'check what time it is'
p432
g15
tp433
a(S'what is on my calendar for today'
p434
g15
tp435
a(S'see you'
p436
g15
tp437
a(S'please kill the current window'
p438
g15
tp439
a(S'check my calendar on this week'
p440
g15
tp441
a(S'would you open mail'
p442
g15
tp443
a(S'would you open my gmail please'
p444
g15
tp445
a(S'google for'
p446
g15
tp447
a(S'please give me the news'
p448
g28
tp449
a(S'please what is in my inbox'
p450
g15
tp451
a(S'turn off the computer'
p452
g15
tp453
a(S'please read your watch'
p454
g15
tp455
a(S'please what is new in my inbox'
p456
g15
tp457
a(S'please spotify start the song'
p458
g15
tp459
a(S'make event'
p460
g15
tp461
a(S'please check the clock right now'
p462
g15
tp463
a(S"what's if it's foggy this week"
p464
g15
tp465
a(S"if it's freezing today"
p466
g15
tp467
a(S"what's if it's snowing this week"
p468
g15
tp469
a(S'alice go ahead please'
p470
g15
tp471
a(S'anything new in my inbox'
p472
g15
tp473
a(S'please would you check new gmail'
p474
g15
tp475
a(S"don't i have to do anything tomorrow"
p476
g15
tp477
a(S'get clock please'
p478
g15
tp479
a(S'please shut off'
p480
g15
tp481
a(S"what aren't the live newsfeed"
p482
g15
tp483
a(S'what is in my inbox please'
p484
g15
tp485
a(S'please what is in my gmail'
p486
g15
tp487
a(S'start spotify please'
p488
g15
tp489
a(S'search please'
p490
g15
tp491
a(S'please go spotify'
p492
g15
tp493
a(S'can you close the current window'
p494
g15
tp495
a(S'what events are on saturday'
p496
g15
tp497
a(S'would you check my inbox please'
p498
g15
tp499
a(S"what's if it's foggy today"
p500
g15
tp501
a(S'what is on my calendar for thursday'
p502
g15
tp503
a(S'will you open my inbox'
p504
g15
tp505
a(S'what events are on today'
p506
g15
tp507
a(S'can you please make a new event'
p508
g15
tp509
a(S'would you open my gmail'
p510
g15
tp511
a(S'spotify play previous song please'
p512
g15
tp513
a(S'retrieve the current time please'
p514
g15
tp515
a(S"what aren't the news feed"
p516
g15
tp517
a(S'please could you check my inbox'
p518
g15
tp519
a(S'extract the features using almost the same feature'
p520
g15
tp521
a(S'schedule an event'
p522
g15
tp523
a(S"aren't there any events on sunday"
p524
g15
tp525
a(S'what do i have to do'
p526
g15
tp527
a(S'open a default browser please'
p528
g15
tp529
a(S"what's the temperature"
p530
g15
tp531
a(S'please make event'
p532
g15
tp533
a(S"what aren't the headlines"
p534
g15
tp535
a(S'check events for wednesday'
p536
g15
tp537
a(S'turn up the volume'
p538
g15
tp539
a(S'shut down please'
p540
g15
tp541
a(S'is there anything i have to do'
p542
g15
tp543
a(S"please what's new in mail"
p544
g15
tp545
a(S"don't find live news feed"
p546
g15
tp547
a(S'make the volume softer'
p548
g15
tp549
a(S'please louder'
p550
g15
tp551
a(S'open a browser please'
p552
g15
tp553
a(S'can you please schedule a new event'
p554
g15
tp555
a(S'do not find the news'
p556
g15
tp557
a(S'do not tell me the current events'
p558
g15
tp559
a(S'will it hail today'
p560
g15
tp561
a(S"don't find live news"
p562
g15
tp563
a(S'current weather'
p564
g15
tp565
a(S'go to dot ee dee you'
p566
g15
tp567
a(S'go to'
p568
g15
tp569
a(S'what events do i have on this day'
p570
g15
tp571
a(S"this week's temperature"
p572
g15
tp573
a(S"don't i have anything today"
p574
g15
tp575
a(S"what's not the current events"
p576
g15
tp577
a(S'current time'
p578
g15
tp579
a(S"don't get news"
p580
g15
tp581
a(S'resume'
p582
g15
tp583
a(S"don't i have any events"
p584
g15
tp585
a(S"don't i have any events on saturday"
p586
g15
tp587
a(S'could you open my mail'
p588
g15
tp589
a(S'am i free'
p590
g15
tp591
a(S'google search please'
p592
g15
tp593
a(S'please pause the song'
p594
g15
tp595
a(S'lower the volume'
p596
g15
tp597
a(S"get if it's foggy this week"
p598
g15
tp599
a(S'check events on monday'
p600
g15
tp601
a(S'will you open my mail'
p602
g15
tp603
a(S'what is on my calendar for tuesday'
p604
g15
tp605
a(S'what do i have to do in a month'
p606
g15
tp607
a(S'check my mail'
p608
g15
tp609
a(S"don't i have any events on thursday"
p610
g15
tp611
a(S'could you schedule a new event please'
p612
g15
tp613
a(S'please make a new event'
p614
g15
tp615
a(S'please will you check inbox'
p616
g15
tp617
a(S'please read the clock'
p618
g15
tp619
a(S'do i have anything in a week'
p620
g15
tp621
a(S'please search for'
p622
g15
tp623
a(S"aren't there any events on wednesday"
p624
g15
tp625
a(S'lock the screen'
p626
g15
tp627
a(S'can you please shut my computer down'
p628
g15
tp629
a(S'what is on my calendar for saturday'
p630
g15
tp631
a(S"don't give me the current events please"
p632
g15
tp633
a(S'sound up please'
p634
g15
tp635
a(S'what is current news'
p636
g28
tp637
a(S'check calendar for thursday'
p638
g15
tp639
a(S'can you shut down the computer'
p640
g15
tp641
a(S'please spotify previous song'
p642
g15
tp643
a(S"aren't there any events on saturday"
p644
g15
tp645
a(S'can you lock computer'
p646
g15
tp647
a(S'check events on this week'
p648
g15
tp649
a(S'do i have anything on monday'
p650
g15
tp651
a(S'what events do i have in a week'
p652
g15
tp653
a(S'what time is it right now'
p654
g15
tp655
a(S'please shut my computer down'
p656
g15
tp657
a(S'anything in my gmail'
p658
g15
tp659
a(S'please will you check new mail'
p660
g15
tp661
a(S'the news today'
p662
g28
tp663
a(S'can you please schedule event'
p664
g15
tp665
a(S'what is new in my gmail'
p666
g15
tp667
a(S'will you not get the news for me'
p668
g15
tp669
a(S'close the current window'
p670
g15
tp671
a(S'is there anything i have to do on'
p672
g15
tp673
a(S'what is in mail'
p674
g15
tp675
a(S'is there anything i have to do on today'
p676
g15
tp677
a(S'check google calendar on sunday'
p678
g15
tp679
a(S'would you check gmail please'
p680
g15
tp681
a(S"what's new in inbox"
p682
g15
tp683
a(S'will you open gmail please'
p684
g15
tp685
a(S'please can you check my gmail'
p686
g15
tp687
a(S"if it's freezing this week"
p688
g15
tp689
a(S'real not fake news'
p690
g15
tp691
a(S'please when is it'
p692
g15
tp693
a(S'turn off my computer'
p694
g15
tp695
a(S'find current news'
p696
g28
tp697
a(S"please don't give me the news"
p698
g15
tp699
a(S'can you please make an event'
p700
g15
tp701
a(S'any gmail'
p702
g15
tp703
a(S'what events do i have on tomorrow'
p704
g15
tp705
a(S"what's the forecast this week"
p706
g15
tp707
a(S'tell me current events'
p708
g28
tp709
a(S'get the time'
p710
g15
tp711
a(S'what are the current events'
p712
g28
tp713
a(S'please could you check my mail'
p714
g15
tp715
a(S"don't get news feed"
p716
g15
tp717
a(S"get this week's temperature"
p718
g15
tp719
a(S'check my calendar on sunday'
p720
g15
tp721
a(S'am i free for tuesday'
p722
g15
tp723
a(S'check events on sunday'
p724
g15
tp725
a(S'do i have anything to do on monday'
p726
g15
tp727
a(S'please could you open my inbox'
p728
g15
tp729
a(S'please would you open my gmail'
p730
g15
tp731
a(S'check my calendar on next'
p732
g15
tp733
a(S'could you make new event'
p734
g15
tp735
a(S'please open my inbox'
p736
g15
tp737
a(S"get if it's hot this week"
p738
g15
tp739
a(S'what is the news'
p740
g28
tp741
a(S"please what's new in my mail"
p742
g15
tp743
a(S'do i have to do anything on this day'
p744
g15
tp745
a(S"don't tell me headlines"
p746
g15
tp747
a(S'check my calendar for monday'
p748
g15
tp749
a(S"don't i have to do anything in a week"
p750
g15
tp751
a(S"don't gather information on todays current events please"
p752
g15
tp753
a(S'please add an event'
p754
g15
tp755
a(S'spotify play'
p756
g15
tp757
a(S'please would you check inbox'
p758
g15
tp759
a(S'what is on my calendar for next'
p760
g15
tp761
a(S'mute'
p762
g15
tp763
a(S'could you create new event please'
p764
g15
tp765
a(S'what is in gmail'
p766
g15
tp767
a(S'shut my computer down please'
p768
g15
tp769
a(S'could you open mail please'
p770
g15
tp771
a(S'please spotify go'
p772
g15
tp773
a(S'make an event'
p774
g15
tp775
a(S'would you check new gmail'
p776
g15
tp777
a(S'can you please shut off my computer'
p778
g15
tp779
a(S'what are the latest events '
p780
g28
tp781
a(S'can you please kill current window'
p782
g15
tp783
a(S'do i have any events on thursday'
p784
g15
tp785
a(S"get if it's rainy today"
p786
g15
tp787
a(S'give me intel on current events'
p788
g28
tp789
a(S"what's new in my mail"
p790
g15
tp791
a(S'is it raining today'
p792
g15
tp793
a(S'open dot com'
p794
g15
tp795
a(S'what is new in my inbox'
p796
g15
tp797
a(S'turn off the beats'
p798
g15
tp799
a(S"don't give me intel"
p800
g15
tp801
a(S'kill active window'
p802
g15
tp803
a(S'open inbox please'
p804
g15
tp805
a(S'tell me news feed'
p806
g28
tp807
a(S'do i have anything to do on sunday'
p808
g15
tp809
a(S"what're not the current events"
p810
g15
tp811
a(S'will you open a browser'
p812
g15
tp813
a(S'could you schedule event'
p814
g15
tp815
a(S'search for'
p816
g15
tp817
a(S'good night'
p818
g15
tp819
a(S'please could you check new mail'
p820
g15
tp821
a(S"please what's in my inbox"
p822
g15
tp823
a(S'please turn off'
p824
g15
tp825
a(S'can you lock my computer please'
p826
g15
tp827
a(S'please shut off my computer'
p828
g15
tp829
a(S'could you make a new event please'
p830
g15
tp831
a(S'check events on'
p832
g15
tp833
a(S'is there anything i have to do on this day'
p834
g15
tp835
a(S"don't tell me live news feed"
p836
g15
tp837
a(S'can you please add new event'
p838
g15
tp839
a(S'check google calendar on thursday'
p840
g15
tp841
a(S"what's weather"
p842
g15
tp843
a(S'please pause spotify'
p844
g15
tp845
a(S'spotify skip ahead'
p846
g15
tp847
a(S'check my calendar on monday'
p848
g15
tp849
a(S"what're the live newsfeed"
p850
g28
tp851
a(S"please what's in my gmail"
p852
g15
tp853
a(S'could you please create an event'
p854
g15
tp855
a(S"don't i have to do anything"
p856
g15
tp857
a(S'will you open mail'
p858
g15
tp859
a(S'check my calendar for this month'
p860
g15
tp861
a(S'please retrieve what time it is'
p862
g15
tp863
a(S'volume higher please'
p864
g15
tp865
a(S'do not find out whats going on'
p866
g15
tp867
a(S'gather information on todays current events please'
p868
g28
tp869
a(S'predict the outcome on a new document'
p870
g15
tp871
a(S'not intel'
p872
g15
tp873
a(S'dont tell me the news'
p874
g15
tp875
a(S"don't i have to do anything on"
p876
g15
tp877
a(S'see ya'
p878
g15
tp879
a(S"what're not the the news"
p880
g15
tp881
a(S"if it's snowing this week"
p882
g15
tp883
a(S'is it hot this week'
p884
g15
tp885
a(S'tell me live news feed'
p886
g28
tp887
a(S'please create event'
p888
g15
tp889
a(S'read your watch please'
p890
g15
tp891
a(S"don't i have to do anything on this day"
p892
g15
tp893
a(S"what's if it's raining today"
p894
g15
tp895
a(S"what aren't the current events"
p896
g15
tp897
a(S"what're not the news"
p898
g15
tp899
a(S"if it's raining this week"
p900
g15
tp901
a(S'do i have anything to do on wednesday'
p902
g15
tp903
a(S'open mail'
p904
g15
tp905
a(S'will you get the current events'
p906
g28
tp907
a(S"please what's in inbox"
p908
g15
tp909
a(S'please turn it down'
p910
g15
tp911
a(S'do i have anything to do next'
p912
g15
tp913
a(S"what's in my gmail please"
p914
g15
tp915
a(S'what do i have to do on saturday'
p916
g15
tp917
a(S"what's if it's hot this week"
p918
g15
tp919
a(S'do i have any events on wednesday'
p920
g15
tp921
a(S'do i have anything on next'
p922
g15
tp923
a(S"don't i have any events on tomorrow"
p924
g15
tp925
a(S"what's not the newsfeed"
p926
g15
tp927
a(S'what is new in new gmail'
p928
g15
tp929
a(S'can you send me to the lock screen'
p930
g15
tp931
a(S'check google calendar for next'
p932
g15
tp933
a(S'lock computer please'
p934
g15
tp935
a(S'retrieve the time please'
p936
g15
tp937
a(S'do i have anything to do in a month'
p938
g15
tp939
a(S'read me the clock'
p940
g15
tp941
a(S"if it's snowing today"
p942
g15
tp943
a(S'could you please add new event'
p944
g15
tp945
a(S'what events are in a week'
p946
g15
tp947
a(S"aren't there any events on today"
p948
g15
tp949
a(S'can you create an event please'
p950
g15
tp951
a(S'play the song before'
p952
g15
tp953
a(S'is there anything to do on friday'
p954
g15
tp955
a(S'do i have any events in a month'
p956
g15
tp957
a(S'not news'
p958
g15
tp959
a(S'could you make event'
p960
g15
tp961
a(S"don't tell me current news"
p962
g15
tp963
a(S'open'
p964
g15
tp965
a(S'do i have to do anything on next'
p966
g15
tp967
a(S'go back to the last song'
p968
g15
tp969
a(S'any events on sunday'
p970
g15
tp971
a(S'please open a browser'
p972
g15
tp973
a(S"what's not the current news"
p974
g15
tp975
a(S'what time is it'
p976
g15
tp977
a(S"don't i have anything on saturday"
p978
g15
tp979
a(S"don't i have anything to do on saturday"
p980
g15
tp981
a(S'please would you check new mail'
p982
g15
tp983
a(S'volume up'
p984
g15
tp985
a(S'what is on my calendar for this week'
p986
g15
tp987
a(S'are there any events on thursday'
p988
g15
tp989
a(S"what's new in new mail"
p990
g15
tp991
a(S"aren't there any events in a week"
p992
g15
tp993
a(S'check google calendar for monday'
p994
g15
tp995
a(S"don't find the current events"
p996
g15
tp997
a(S'what do i have on sunday'
p998
g15
tp999
a(S'please check my mail'
p1000
g15
tp1001
a(S'start browsing'
p1002
g15
tp1003
a(S"today's headlines"
p1004
g28
tp1005
a(S'is there anything to do on thursday'
p1006
g15
tp1007
a(S'check events for sunday'
p1008
g15
tp1009
a(S'please volume higher'
p1010
g15
tp1011
a(S"what's in new gmail please"
p1012
g15
tp1013
a(S'please start browser'
p1014
g15
tp1015
a(S'could you open mail'
p1016
g15
tp1017
a(S'turn up the volume please'
p1018
g15
tp1019
a(S"what's the the news"
p1020
g28
tp1021
a(S'will you open my mail please'
p1022
g15
tp1023
a(S'last song please'
p1024
g15
tp1025
a(S'current news'
p1026
g28
tp1027
a(S'would you check my gmail please'
p1028
g15
tp1029
a(S'can you please close this window'
p1030
g15
tp1031
a(S'current events please'
p1032
g28
tp1033
a(S'can you add an event please'
p1034
g15
tp1035
a(S'is it freezing this week'
p1036
g15
tp1037
a(S"what're the live news"
p1038
g28
tp1039
a(S"today's current news "
p1040
g28
tp1041
a(S"don't give me the news please"
p1042
g15
tp1043
a(S'check calendar for tomorrow'
p1044
g15
tp1045
a(S'check events for tuesday'
p1046
g15
tp1047
a(S"what's not the live news"
p1048
g15
tp1049
a(S'can you please exit'
p1050
g15
tp1051
a(S'pause song please'
p1052
g15
tp1053
a(S"don't get the the latest headlines"
p1054
g15
tp1055
a(S'what is new in inbox please'
p1056
g15
tp1057
a(S'are there any events in a month'
p1058
g15
tp1059
a(S'what do i have to do on this day'
p1060
g15
tp1061
a(S'live news today'
p1062
g28
tp1063
a(S'please could you check mail'
p1064
g15
tp1065
a(S'dont give me infornation on todays current events'
p1066
g15
tp1067
a(S'do i have anything on tuesday'
p1068
g15
tp1069
a(S'can you add event'
p1070
g15
tp1071
a(S"don't i have to do anything on thursday"
p1072
g15
tp1073
a(S'can you turn the tune down'
p1074
g15
tp1075
a(S'could you please make a new event'
p1076
g15
tp1077
a(S'alex'
p1078
g15
tp1079
a(S'can you add an event'
p1080
g15
tp1081
a(S'gimme the news'
p1082
g28
tp1083
a(S'what do i have to do on thursday'
p1084
g15
tp1085
a(S'please spotify pause the song'
p1086
g15
tp1087
a(S'dont give me information of todays news'
p1088
g15
tp1089
a(S'what is news'
p1090
g28
tp1091
a(S'not get the current events'
p1092
g15
tp1093
a(S'bye alice'
p1094
g15
tp1095
a(S'could you check mail please'
p1096
g15
tp1097
a(S'any events on saturday'
p1098
g15
tp1099
a(S'is there anything to do today'
p1100
g15
tp1101
a(S'what is in new gmail'
p1102
g15
tp1103
a(S'please will you check gmail'
p1104
g15
tp1105
a(S'could you schedule new event'
p1106
g15
tp1107
a(S'can you please create event'
p1108
g15
tp1109
a(S'give me the current events please'
p1110
g28
tp1111
a(S"don't i have to do anything on saturday"
p1112
g15
tp1113
a(S'are there any events on'
p1114
g15
tp1115
a(S'what do i have to do on monday'
p1116
g15
tp1117
a(S'search google please'
p1118
g15
tp1119
a(S'please can you check inbox'
p1120
g15
tp1121
a(S'check events for today'
p1122
g15
tp1123
a(S'please will you open my gmail'
p1124
g15
tp1125
a(S'what are the newsfeed'
p1126
g28
tp1127
a(S'intelligence report'
p1128
g28
tp1129
a(S'please give me current events'
p1130
g28
tp1131
a(S'could you check new mail'
p1132
g15
tp1133
a(S'what events do i have on today'
p1134
g15
tp1135
a(S'are there any events on tuesday'
p1136
g15
tp1137
a(S"what's not in headlines"
p1138
g15
tp1139
a(S'will it hail this week'
p1140
g15
tp1141
a(S'please would you open gmail'
p1142
g15
tp1143
a(S'anything new in inbox'
p1144
g15
tp1145
a(S'spotify previous please'
p1146
g15
tp1147
a(S"get if it's freezing this week"
p1148
g15
tp1149
a(S"not today's current news"
p1150
g15
tp1151
a(S'when is it please'
p1152
g15
tp1153
a(S'please check the current time'
p1154
g15
tp1155
a(S"don't i have anything in a week"
p1156
g15
tp1157
a(S'could you create new event'
p1158
g15
tp1159
a(S'what is new in mail please'
p1160
g15
tp1161
a(S"what's the forecast"
p1162
g15
tp1163
a(S'make the volume zero'
p1164
g15
tp1165
a(S'would you check my gmail'
p1166
g15
tp1167
a(S'check events on wednesday'
p1168
g15
tp1169
a(S'can you turn up the beat'
p1170
g15
tp1171
a(S'check google calendar on tuesday'
p1172
g15
tp1173
a(S"get if it's cloudy this week"
p1174
g15
tp1175
a(S'could you create an event'
p1176
g15
tp1177
a(S'open a browser'
p1178
g15
tp1179
a(S'tell me headlines'
p1180
g28
tp1181
a(S'get weather'
p1182
g15
tp1183
a(S'shut the fuck up'
p1184
g15
tp1185
a(S"what's not in live news"
p1186
g15
tp1187
a(S'dont give me the news'
p1188
g15
tp1189
a(S'please schedule event'
p1190
g15
tp1191
a(S'please kill the active window'
p1192
g15
tp1193
a(S'can you please shut off'
p1194
g15
tp1195
a(S'check the current time'
p1196
g15
tp1197
a(S"if it's raining today"
p1198
g15
tp1199
a(S'please turn off my computer'
p1200
g15
tp1201
a(S'make the sound softer'
p1202
g15
tp1203
a(S'hey alex'
p1204
g15
tp1205
a(S"don't get newsfeed"
p1206
g15
tp1207
a(S'song stop'
p1208
g15
tp1209
a(S"this week's weather"
p1210
g15
tp1211
a(S'live newsfeed today'
p1212
g28
tp1213
a(S'any events on next'
p1214
g15
tp1215
a(S'what is in new mail'
p1216
g15
tp1217
a(S'is there anything i have to do on next'
p1218
g15
tp1219
a(S'is it cloudy this week'
p1220
g15
tp1221
a(S'will you not get the current events for me'
p1222
g15
tp1223
a(S'check my calendar for this day'
p1224
g15
tp1225
a(S'what events are on this day'
p1226
g15
tp1227
a(S'could you create event'
p1228
g15
tp1229
a(S'check calendar for this week'
p1230
g15
tp1231
a(S'not briefing'
p1232
g15
tp1233
a(S'is there anything i have to do on saturday'
p1234
g15
tp1235
a(S'check calendar on next'
p1236
g15
tp1237
a(S'can you check new gmail'
p1238
g15
tp1239
a(S'google please'
p1240
g15
tp1241
a(S'what is in new gmail please'
p1242
g15
tp1243
a(S'live news feed today'
p1244
g28
tp1245
a(S'close active window'
p1246
g15
tp1247
a(S'spotify skip ahead please'
p1248
g15
tp1249
a(S'is there anything i have to do on wednesday'
p1250
g15
tp1251
a(S'will you check my gmail'
p1252
g15
tp1253
a(S'check calendar for friday'
p1254
g15
tp1255
a(S'can you turn yourself off'
p1256
g15
tp1257
a(S'can you lock the screen'
p1258
g15
tp1259
a(S'can you mute'
p1260
g15
tp1261
a(S'can you close this window'
p1262
g15
tp1263
a(S'do i have any events on monday'
p1264
g15
tp1265
a(S'check my inbox please'
p1266
g15
tp1267
a(S'please close active window'
p1268
g15
tp1269
a(S'please read me the clock'
p1270
g15
tp1271
a(S'can you please add event'
p1272
g15
tp1273
a(S'what is in the news today'
p1274
g28
tp1275
a(S'not live newsfeed'
p1276
g15
tp1277
a(S'get current weather'
p1278
g15
tp1279
a(S"don't i have anything to do tomorrow"
p1280
g15
tp1281
a(S'what do i have to do on tuesday'
p1282
g15
tp1283
a(S'can you please shutdown'
p1284
g15
tp1285
a(S"don't get live news"
p1286
g15
tp1287
a(S'will it rain this week'
p1288
g15
tp1289
a(S'close current window'
p1290
g15
tp1291
a(S"what's in mail"
p1292
g15
tp1293
a(S'live news feed'
p1294
g28
tp1295
a(S'do i have any events on tuesday'
p1296
g15
tp1297
a(S"please what's in mail"
p1298
g15
tp1299
a(S'turn the volume to zero'
p1300
g15
tp1301
a(S"don't i have anything on monday"
p1302
g15
tp1303
a(S"don't i have anything in a month"
p1304
g15
tp1305
a(S'please shut down the computer'
p1306
g15
tp1307
a(S'give me the news'
p1308
g28
tp1309
a(S'what are the news feed'
p1310
g28
tp1311
a(S'start browser please'
p1312
g15
tp1313
a(S'what events are on thursday'
p1314
g15
tp1315
a(S'mute please'
p1316
g15
tp1317
a(S'can you open this program'
p1318
g15
tp1319
a(S'can you create new event please'
p1320
g15
tp1321
a(S'any events on tomorrow'
p1322
g15
tp1323
a(S'could you make new event please'
p1324
g15
tp1325
a(S'please do not get teh current events'
p1326
g15
tp1327
a(S'get current news'
p1328
g28
tp1329
a(S'check my calendar for tuesday'
p1330
g15
tp1331
a(S'what events do i have on'
p1332
g15
tp1333
a(S'start song'
p1334
g15
tp1335
a(S'what is new in my mail please'
p1336
g15
tp1337
a(S'unpause'
p1338
g15
tp1339
a(S'is it cold this week'
p1340
g15
tp1341
a(S'can you make a new event please'
p1342
g15
tp1343
a(S"today's current events"
p1344
g28
tp1345
a(S"what're the headlines"
p1346
g28
tp1347
a(S'check gmail please'
p1348
g15
tp1349
a(S'am i free on friday'
p1350
g15
tp1351
a(S'please will you open mail'
p1352
g15
tp1353
a(S'close current program'
p1354
g15
tp1355
a(S"what's new in my inbox"
p1356
g15
tp1357
a(S"what's if it's rainy today"
p1358
g15
tp1359
a(S'go to dot com'
p1360
g15
tp1361
a(S'please search'
p1362
g15
tp1363
a(S'get the current events'
p1364
g28
tp1365
a(S'check calendar for this day'
p1366
g15
tp1367
a(S'what do i have'
p1368
g15
tp1369
a(S'start the song'
p1370
g15
tp1371
a(S'spotify last song please'
p1372
g15
tp1373
a(S'is it rainy today'
p1374
g15
tp1375
a(S'could you please create new event'
p1376
g15
tp1377
a(S'can you turn up the sound'
p1378
g15
tp1379
a(S'is it cold today'
p1380
g15
tp1381
a(S"aren't there any events on tomorrow"
p1382
g15
tp1383
a(S'time'
p1384
g15
tp1385
a(S'please close this window'
p1386
g15
tp1387
a(S'check my gmail'
p1388
g15
tp1389
a(S'could you add event please'
p1390
g15
tp1391
a(S'spotify last please'
p1392
g15
tp1393
a(S"what're the live news feed"
p1394
g28
tp1395
a(S'check calendar for wednesday'
p1396
g15
tp1397
a(S"not today's news"
p1398
g15
tp1399
a(S'what are the current news'
p1400
g28
tp1401
a(S'can you please turn up the beat'
p1402
g15
tp1403
a(S'check events on thursday'
p1404
g15
tp1405
a(S'open my mail'
p1406
g15
tp1407
a(S'check my calendar on this month'
p1408
g15
tp1409
a(S'get forecast'
p1410
g15
tp1411
a(S'anything in my mail'
p1412
g15
tp1413
a(S"what's not the the news"
p1414
g15
tp1415
a(S'what is live newsfeed'
p1416
g28
tp1417
a(S'what are the the news'
p1418
g28
tp1419
a(S'please what is new in mail'
p1420
g15
tp1421
a(S"what's in my mail"
p1422
g15
tp1423
a(S'do i have to do anything tomorrow'
p1424
g15
tp1425
a(S'please will you check my mail'
p1426
g15
tp1427
a(S'could you please add event'
p1428
g15
tp1429
a(S'please go to'
p1430
g15
tp1431
a(S'turn up the sound'
p1432
g15
tp1433
a(S"please what's new in new mail"
p1434
g15
tp1435
a(S'are there any events on today'
p1436
g15
tp1437
a(S"this week's weather"
p1438
g15
tp1439
a(S'please would you check my gmail'
p1440
g15
tp1441
a(S'please what is in inbox'
p1442
g15
tp1443
a(S"today's live news"
p1444
g28
tp1445
a(S'check calendar for tuesday'
p1446
g15
tp1447
a(S'please check new gmail'
p1448
g15
tp1449
a(S'can you check mail please'
p1450
g15
tp1451
a(S'check calendar on today'
p1452
g15
tp1453
a(S'am i free for next'
p1454
g15
tp1455
a(S'would you check my mail please'
p1456
g15
tp1457
a(S'dont find current events'
p1458
g15
tp1459
a(S'please google for'
p1460
g15
tp1461
a(S'not current events'
p1462
g15
tp1463
a(S'turn the tune down'
p1464
g15
tp1465
a(S"don't i have to do anything on next"
p1466
g15
tp1467
a(S'check my calendar for this week'
p1468
g15
tp1469
a(S'check events for'
p1470
g15
tp1471
a(S"get if it's cold this week"
p1472
g15
tp1473
a(S"what's today's temperature"
p1474
g15
tp1475
a(S'check my calendar for sunday'
p1476
g15
tp1477
a(S'am i free on thursday'
p1478
g15
tp1479
a(S'could you open inbox'
p1480
g15
tp1481
a(S'will it rain today'
p1482
g15
tp1483
a(S'what is new in gmail please'
p1484
g15
tp1485
a(S'check inbox please'
p1486
g15
tp1487
a(S'make new event'
p1488
g15
tp1489
a(S'lower the tunes please'
p1490
g15
tp1491
a(S'check google calendar'
p1492
g15
tp1493
a(S'open dot edu'
p1494
g15
tp1495
a(S'check calendar on'
p1496
g15
tp1497
a(S'put me on the lock screen please'
p1498
g15
tp1499
a(S'news feed'
p1500
g28
tp1501
a(S'what is news feed'
p1502
g28
tp1503
a(S'tell me newsfeed'
p1504
g28
tp1505
a(S"what aren't the current news"
p1506
g15
tp1507
a(S"don't i have to do anything on thursday"
p1508
g15
tp1509
a(S'what is on my calendar for monday'
p1510
g15
tp1511
a(S'check calendar for'
p1512
g15
tp1513
a(S'could you check inbox please'
p1514
g15
tp1515
a(S"don't i have to do anything on"
p1516
g15
tp1517
a(S'do i have to do anything on wednesday'
p1518
g15
tp1519
a(S"don't i have any events on today"
p1520
g15
tp1521
a(S'check events for tomorrow'
p1522
g15
tp1523
a(S'check my mail please'
p1524
g15
tp1525
a(S'what is in gmail please'
p1526
g15
tp1527
a(S'could you open gmail'
p1528
g15
tp1529
a(S'schedule a new event'
p1530
g15
tp1531
a(S'check google calendar on this week'
p1532
g15
tp1533
a(S'can you please kill this window'
p1534
g15
tp1535
a(S"don't i have anything to do on next"
p1536
g15
tp1537
a(S'please create new event'
p1538
g15
tp1539
a(S'unpause the song'
p1540
g15
tp1541
a(S'can you please close active window'
p1542
g15
tp1543
a(S'can you shutdown the computer'
p1544
g15
tp1545
a(S'please open browser'
p1546
g15
tp1547
a(S'dont read the current events to me'
p1548
g15
tp1549
a(S'would you open inbox'
p1550
g15
tp1551
a(S'am i free on'
p1552
g15
tp1553
a(S'can you please shut down the computer'
p1554
g15
tp1555
a(S'what is on my calendar for tomorrow'
p1556
g15
tp1557
a(S'can you open a browser please'
p1558
g15
tp1559
a(S"don't debrief me"
p1560
g15
tp1561
a(S'play spotify please'
p1562
g15
tp1563
a(S"aren't there any events in a month"
p1564
g15
tp1565
a(S'can you not get the current events'
p1566
g15
tp1567
a(S'find live news'
p1568
g28
tp1569
a(S'find the news'
p1570
g28
tp1571
a(S'could you open gmail please'
p1572
g15
tp1573
a(S"what's not in the news"
p1574
g15
tp1575
a(S'what are the headlines'
p1576
g28
tp1577
a(S'please lock computer'
p1578
g15
tp1579
a(S'am i free for'
p1580
g15
tp1581
a(S"don't get live news feed"
p1582
g15
tp1583
a(S'please start a default browser'
p1584
g15
tp1585
a(S'what do i have to do on friday'
p1586
g15
tp1587
a(S'emergency shutdown'
p1588
g15
tp1589
a(S'would you open my mail please'
p1590
g15
tp1591
a(S'can you check new mail'
p1592
g15
tp1593
a(S'please what is in mail'
p1594
g15
tp1595
a(S'check google calendar for this day'
p1596
g15
tp1597
a(S'check inbox'
p1598
g15
tp1599
a(S'the tale pretends'
p1600
g15
tp1601
a(S'open my gmail please'
p1602
g15
tp1603
a(S'what events are on next'
p1604
g15
tp1605
a(S'could you open my gmail please'
p1606
g15
tp1607
a(S'schedule event please'
p1608
g15
tp1609
a(S'please sound higher'
p1610
g15
tp1611
a(S'start'
p1612
g15
tp1613
a(S'could you please make an event'
p1614
g15
tp1615
a(S"what's in mail please"
p1616
g15
tp1617
a(S'can you make it louder please'
p1618
g15
tp1619
a(S'check google calendar on tomorrow'
p1620
g15
tp1621
a(S'please sound up'
p1622
g15
tp1623
a(S"if it's foggy this week"
p1624
g15
tp1625
a(S'turn up the beat please'
p1626
g15
tp1627
a(S'news now please'
p1628
g28
tp1629
a(S'turn up the tunez'
p1630
g15
tp1631
a(S'can you create a new event'
p1632
g15
tp1633
a(S'please schedule a new event'
p1634
g15
tp1635
a(S'can you make event please'
p1636
g15
tp1637
a(S'give me intel'
p1638
g28
tp1639
a(S"don't i have anything to do on"
p1640
g15
tp1641
a(S'what is on my calendar for this month'
p1642
g15
tp1643
a(S'do i have anything on this day'
p1644
g15
tp1645
a(S'is it raining this week'
p1646
g15
tp1647
a(S'please check new mail'
p1648
g15
tp1649
a(S"this week's temperature"
p1650
g15
tp1651
a(S'bye'
p1652
g15
tp1653
a(S'find newsfeed'
p1654
g28
tp1655
a(S'please what is in new gmail'
p1656
g15
tp1657
a(S'could you check my gmail please'
p1658
g15
tp1659
a(S'will you open my inbox please'
p1660
g15
tp1661
a(S'could you schedule an event'
p1662
g15
tp1663
a(S'will you check mail please'
p1664
g15
tp1665
a(S'add new event'
p1666
g15
tp1667
a(S'can you please make new event'
p1668
g15
tp1669
a(S'read me the clock please'
p1670
g15
tp1671
a(S'can you kill the window'
p1672
g15
tp1673
a(S'can you create an event'
p1674
g15
tp1675
a(S'would you check my inbox'
p1676
g15
tp1677
a(S'can you check my gmail'
p1678
g15
tp1679
a(S'turn the beat down'
p1680
g15
tp1681
a(S'check calendar'
p1682
g15
tp1683
a(S"not today's news feed"
p1684
g15
tp1685
a(S"today's news"
p1686
g28
tp1687
a(S'turn up the tunez please'
p1688
g15
tp1689
a(S"what's the newsfeed"
p1690
g28
tp1691
a(S'can you check my mail'
p1692
g15
tp1693
a(S"if it's cloudy today"
p1694
g15
tp1695
a(S'lock my computer'
p1696
g15
tp1697
a(S'check new mail'
p1698
g15
tp1699
a(S'please could you open mail'
p1700
g15
tp1701
a(S'open inbox'
p1702
g15
tp1703
a(S'get the time please'
p1704
g15
tp1705
a(S"what's the current events"
p1706
g28
tp1707
a(S'create an event please'
p1708
g15
tp1709
a(S'good night alice'
p1710
g15
tp1711
a(S'any events on wednesday'
p1712
g15
tp1713
a(S"don't brief me"
p1714
g15
tp1715
a(S"if it's hot this week"
p1716
g15
tp1717
a(S'get the the latest headlines'
p1718
g28
tp1719
a(S'please what is in my mail'
p1720
g15
tp1721
a(S'will you check mail'
p1722
g15
tp1723
a(S"what're the news feed"
p1724
g28
tp1725
a(S"not today's current events"
p1726
g15
tp1727
a(S'spotify go please'
p1728
g15
tp1729
a(S"if it's rainy today"
p1730
g15
tp1731
a(S"don't i have anything on sunday"
p1732
g15
tp1733
a(S'current events today'
p1734
g28
tp1735
a(S'shut up please'
p1736
g15
tp1737
a(S"aren't there any events on monday"
p1738
g15
tp1739
a(S'check google calendar for friday'
p1740
g15
tp1741
a(S'what is on my calendar for'
p1742
g15
tp1743
a(S'check new gmail please'
p1744
g15
tp1745
a(S'open mail please'
p1746
g15
tp1747
a(S'can you check new gmail please'
p1748
g15
tp1749
a(S"don't get the current events"
p1750
g15
tp1751
a(S'check events on friday'
p1752
g15
tp1753
a(S"don't i have any events in a month"
p1754
g15
tp1755
a(S'get the current time'
p1756
g15
tp1757
a(S'can you make new event please'
p1758
g15
tp1759
a(S'can you turn yourself off please'
p1760
g15
tp1761
a(S'is it foggy this week'
p1762
g15
tp1763
a(S'shut off please'
p1764
g15
tp1765
a(S'can you please add a new event'
p1766
g15
tp1767
a(S'check events on today'
p1768
g15
tp1769
a(S'tell me live news'
p1770
g28
tp1771
a(S"what's the news"
p1772
g28
tp1773
a(S"how's the forecast today"
p1774
g15
tp1775
a(S'not the news'
p1776
g15
tp1777
a(S'please will you check my gmail'
p1778
g15
tp1779
a(S'headlines'
p1780
g28
tp1781
a(S'not news feed'
p1782
g15
tp1783
a(S'lock my computer please'
p1784
g15
tp1785
a(S'can you schedule event'
p1786
g15
tp1787
a(S"please what's in new mail"
p1788
g15
tp1789
a(S'pause please'
p1790
g15
tp1791
a(S'will you open inbox please'
p1792
g15
tp1793
a(S'please what is new in my mail'
p1794
g15
tp1795
a(S'go ahead spotify please'
p1796
g15
tp1797
a(S'clock'
p1798
g15
tp1799
a(S'can you shut off my computer'
p1800
g15
tp1801
a(S'not todays headlines'
p1802
g15
tp1803
a(S"what isn't current news"
p1804
g15
tp1805
a(S'check my calendar on'
p1806
g15
tp1807
a(S'next song'
p1808
g15
tp1809
a(S'please check what time it is'
p1810
g15
tp1811
a(S'please close the active window'
p1812
g15
tp1813
a(S'check if i have anything in my inbox'
p1814
g15
tp1815
a(S'check my calendar for friday'
p1816
g15
tp1817
a(S"don't i have any events on wednesday"
p1818
g15
tp1819
a(S'do i have to do anything'
p1820
g15
tp1821
a(S'search'
p1822
g15
tp1823
a(S'retrieve what time it is please'
p1824
g15
tp1825
a(S"what isn't newsfeed"
p1826
g15
tp1827
a(S'could you please create a new event'
p1828
g15
tp1829
a(S'would you open gmail'
p1830
g15
tp1831
a(S"if it's rainy this week"
p1832
g15
tp1833
a(S'read time'
p1834
g15
tp1835
a(S"don't i have to do anything on tuesday"
p1836
g15
tp1837
a(S"don't i have to do anything on saturday"
p1838
g15
tp1839
a(S'please could you open gmail'
p1840
g15
tp1841
a(S'read the time'
p1842
g15
tp1843
a(S'please kill active window'
p1844
g15
tp1845
a(S'what do i have on saturday'
p1846
g15
tp1847
a(S'turn up the sound'
p1848
g15
tp1849
a(S'can you shut my computer down'
p1850
g15
tp1851
a(S'go spotify please'
p1852
g15
tp1853
a(S'what are the live news feed'
p1854
g28
tp1855
a(S'could you create a new event'
p1856
g15
tp1857
a(S'check calendar for saturday'
p1858
g15
tp1859
a(S'skip'
p1860
g15
tp1861
a(S'create new event'
p1862
g15
tp1863
a(S"what's if it's freezing this week"
p1864
g15
tp1865
a(S'anything in my inbox'
p1866
g15
tp1867
a(S'please spotify start'
p1868
g15
tp1869
a(S"what's new in my inbox please"
p1870
g15
tp1871
a(S"what's if it's cold today"
p1872
g15
tp1873
a(S'spotify next song'
p1874
g15
tp1875
a(S'can you please create new event'
p1876
g15
tp1877
a(S"please what's new in new gmail"
p1878
g15
tp1879
a(S'what do i have to do in a week'
p1880
g15
tp1881
a(S'go to dot gov'
p1882
g15
tp1883
a(S'what events do i have on friday'
p1884
g15
tp1885
a(S'please check gmail'
p1886
g15
tp1887
a(S"get if it's raining this week"
p1888
g15
tp1889
a(S'please find out the latest headlines'
p1890
g28
tp1891
a(S'is it hot today'
p1892
g15
tp1893
a(S'can you not get information on the current events'
p1894
g15
tp1895
a(S'spotify next'
p1896
g15
tp1897
a(S'shut my computer down'
p1898
g15
tp1899
a(S'check events for monday'
p1900
g15
tp1901
a(S'can you please make event'
p1902
g15
tp1903
a(S'do i have any events on friday'
p1904
g15
tp1905
a(S'would you check mail please'
p1906
g15
tp1907
a(S'what is in inbox please'
p1908
g15
tp1909
a(S'please what is new in new mail'
p1910
g15
tp1911
a(S'please could you open inbox'
p1912
g15
tp1913
a(S'please dont tell me the latest events'
p1914
g15
tp1915
a(S'byebye'
p1916
g15
tp1917
a(S'set the volume to zero'
p1918
g15
tp1919
a(S'check google calendar on wednesday'
p1920
g15
tp1921
a(S"what're the current news"
p1922
g28
tp1923
a(S'please spotify last'
p1924
g15
tp1925
a(S"get if it's foggy today"
p1926
g15
tp1927
a(S'check calendar on tuesday'
p1928
g15
tp1929
a(S'do i have to do anything next'
p1930
g15
tp1931
a(S'next'
p1932
g15
tp1933
a(S"what isn't news"
p1934
g15
tp1935
a(S'do not find current events'
p1936
g15
tp1937
a(S'get the clock please'
p1938
g15
tp1939
a(S"what's new in new mail please"
p1940
g15
tp1941
a(S'what do i have to do on today'
p1942
g15
tp1943
a(S'can you please turn up the tune'
p1944
g15
tp1945
a(S'get me the clock please'
p1946
g15
tp1947
a(S'could you check my mail please'
p1948
g15
tp1949
a(S'can you create event'
p1950
g15
tp1951
a(S'please spotify previous'
p1952
g15
tp1953
a(S'can you check gmail please'
p1954
g15
tp1955
a(S'check your watch please'
p1956
g15
tp1957
a(S'check google calendar for thursday'
p1958
g15
tp1959
a(S'find live news feed'
p1960
g28
tp1961
a(S"what's new in my mail please"
p1962
g15
tp1963
a(S'check calendar for sunday'
p1964
g15
tp1965
a(S'check calendar on saturday'
p1966
g15
tp1967
a(S"don't find news"
p1968
g15
tp1969
a(S'can you add new event please'
p1970
g15
tp1971
a(S'stop song please'
p1972
g15
tp1973
a(S"what're not the live newsfeed"
p1974
g15
tp1975
a(S'what events are on monday'
p1976
g15
tp1977
a(S'news never please'
p1978
g15
tp1979
a(S'will you open inbox'
p1980
g15
tp1981
a(S"don't i have any events on monday"
p1982
g15
tp1983
a(S"don't find current events"
p1984
g15
tp1985
a(S'please will you open my inbox'
p1986
g15
tp1987
a(S'can you create new event'
p1988
g15
tp1989
a(S'can you please turn the beat down'
p1990
g15
tp1991
a(S'will you check gmail please'
p1992
g15
tp1993
a(S'check my calendar for this day'
p1994
g15
tp1995
a(S'can you schedule new event please'
p1996
g15
tp1997
a(S'google'
p1998
g15
tp1999
a(S'do i have anything tomorrow'
p2000
g15
tp2001
a(S"what's not the live news feed"
p2002
g15
tp2003
a(S'google search'
p2004
g15
tp2005
a(S'louder please'
p2006
g15
tp2007
a(S'okay alex'
p2008
g15
tp2009
a(S'search please for'
p2010
g15
tp2011
a(S'kill window'
p2012
g15
tp2013
a(S'what is in inbox'
p2014
g15
tp2015
a(S'open my inbox please'
p2016
g15
tp2017
a(S'what do i have to do on sunday'
p2018
g15
tp2019
a(S'check events for this week'
p2020
g15
tp2021
a(S"what's new in gmail"
p2022
g15
tp2023
a(S'please can you check new mail'
p2024
g15
tp2025
a(S"how's the temperature this week"
p2026
g15
tp2027
a(S'please start'
p2028
g15
tp2029
a(S'can you please turn my computer off'
p2030
g15
tp2031
a(S'check the clock'
p2032
g15
tp2033
a(S"what's if it's cold this week"
p2034
g15
tp2035
a(S"get if it's snowing this week"
p2036
g15
tp2037
a(S'create event please'
p2038
g15
tp2039
a(S'please spotify play previous song'
p2040
g15
tp2041
a(S'create event'
p2042
g15
tp2043
a(S'open dot org'
p2044
g15
tp2045
a(S'do i have to do anything on thursday'
p2046
g15
tp2047
a(S'do i have any events'
p2048
g15
tp2049
a(S'do i have anything on sunday'
p2050
g15
tp2051
a(S'do not read the current events to me'
p2052
g15
tp2053
a(S'can you check my inbox'
p2054
g15
tp2055
a(S"what's the current news"
p2056
g28
tp2057
a(S'schedule new event please'
p2058
g15
tp2059
a(S'are there any events in a week'
p2060
g15
tp2061
a(S"get this week's weather"
p2062
g15
tp2063
a(S'am i free today'
p2064
g15
tp2065
a(S'any events on thursday'
p2066
g15
tp2067
a(S'check my calendar on this day'
p2068
g15
tp2069
a(S'please do not give me the news'
p2070
g15
tp2071
a(S'any events on'
p2072
g15
tp2073
a(S'do i have any events on today'
p2074
g15
tp2075
a(S'please would you check my mail'
p2076
g15
tp2077
a(S'turn my computer off please'
p2078
g15
tp2079
a(S'please get the current time'
p2080
g15
tp2081
a(S'what do i have on wednesday'
p2082
g15
tp2083
a(S'get current events'
p2084
g28
tp2085
a(S'close this window'
p2086
g15
tp2087
a(S"get if it's freezing today"
p2088
g15
tp2089
a(S'am i free on sunday'
p2090
g15
tp2091
a(S'am i free for sunday'
p2092
g15
tp2093
a(S"don't i have to do anything on this day"
p2094
g15
tp2095
a(S'dont give me news'
p2096
g15
tp2097
a(S"don't get the news"
p2098
g15
tp2099
a(S'can you please shutdown my computer'
p2100
g15
tp2101
a(S"today's weather"
p2102
g15
tp2103
a(S'do i have anything on friday'
p2104
g15
tp2105
a(S'kill this window'
p2106
g15
tp2107
a(S'check my calendar for wednesday'
p2108
g15
tp2109
a(S'can you get information on the current events'
p2110
g28
tp2111
a(S"what's the weather today"
p2112
g15
tp2113
a(S'can you add a new event please'
p2114
g15
tp2115
a(S'what events are going on right now'
p2116
g28
tp2117
a(S'check new mail please'
p2118
g15
tp2119
a(S'check calendar for today'
p2120
g15
tp2121
a(S'please start a browser'
p2122
g15
tp2123
a(S'please lock the screen'
p2124
g15
tp2125
a(S'please will you open gmail'
p2126
g15
tp2127
a(S"aren't there any events on thursday"
p2128
g15
tp2129
a(S'what events do i have on thursday'
p2130
g15
tp2131
a(S'check calendar on sunday'
p2132
g15
tp2133
a(S'what events do i have on sunday'
p2134
g15
tp2135
a(S'what do i have on thursday'
p2136
g15
tp2137
a(S"don't tell me current events"
p2138
g15
tp2139
a(S'is there anything to do'
p2140
g15
tp2141
a(S'am i free for a month'
p2142
g15
tp2143
a(S'check my calendar on friday'
p2144
g15
tp2145
a(S'could you please schedule a new event'
p2146
g15
tp2147
a(S'check events on month'
p2148
g15
tp2149
a(S"don't i have anything"
p2150
g15
tp2151
a(S'please could you check gmail'
p2152
g15
tp2153
a(S'please what is in new mail'
p2154
g15
tp2155
a(S"not today's headlines"
p2156
g15
tp2157
a(S'turn the sound down please'
p2158
g15
tp2159
a(S'unmute please'
p2160
g15
tp2161
a(S'do not give me the news'
p2162
g15
tp2163
a(S'a decent problem gossips beside the shoulder'
p2164
g15
tp2165
a(S"if it's cold today"
p2166
g15
tp2167
a(S'get newsfeed'
p2168
g28
tp2169
a(S'will you check my mail please'
p2170
g15
tp2171
a(S'will you not get the current events'
p2172
g15
tp2173
a(S'what are the current events today'
p2174
g28
tp2175
a(S'please get the news'
p2176
g28
tp2177
a(S'is there anything to do in a week'
p2178
g15
tp2179
a(S'do i have to do anything in a week'
p2180
g15
tp2181
a(S"what're the news"
p2182
g28
tp2183
a(S'can you please mute'
p2184
g15
tp2185
a(S"what's not the live newsfeed"
p2186
g15
tp2187
a(S'can you turn up the volume'
p2188
g15
tp2189
a(S"not today's live news feed"
p2190
g15
tp2191
a(S'intel'
p2192
g28
tp2193
a(S'is there anything to do on tuesday'
p2194
g15
tp2195
a(S'not live news feed'
p2196
g15
tp2197
a(S"don't i have to do anything on next"
p2198
g15
tp2199
a(S'could you please make new event'
p2200
g15
tp2201
a(S"don't i have any events on this day"
p2202
g15
tp2203
a(S'set the volume zero'
p2204
g15
tp2205
a(S'check calendar for next'
p2206
g15
tp2207
a(S"what isn't live newsfeed"
p2208
g15
tp2209
a(S'play'
p2210
g15
tp2211
a(S"what's new in new gmail please"
p2212
g15
tp2213
a(S'can you shut down'
p2214
g15
tp2215
a(S'open dot ee dee you'
p2216
g15
tp2217
a(S'check calendar on month'
p2218
g15
tp2219
a(S'what is new in new gmail please'
p2220
g15
tp2221
a(S'do i have anything'
p2222
g15
tp2223
a(S'start default browser please'
p2224
g15
tp2225
a(S'please shutdown my computer'
p2226
g15
tp2227
a(S'is there anything i have to do in a week'
p2228
g15
tp2229
a(S'please can you check my inbox'
p2230
g15
tp2231
a(S'please stop song'
p2232
g15
tp2233
a(S'will you check inbox'
p2234
g15
tp2235
a(S'turn up'
p2236
g15
tp2237
a(S"what's new in my gmail please"
p2238
g15
tp2239
a(S"don't i have anything on this day"
p2240
g15
tp2241
a(S'are there any events on sunday'
p2242
g15
tp2243
a(S'will you open gmail'
p2244
g15
tp2245
a(S'is there anything to do on today'
p2246
g15
tp2247
a(S'spotify stop playing'
p2248
g15
tp2249
a(S'check google calendar for'
p2250
g15
tp2251
a(S"what's in inbox please"
p2252
g15
tp2253
a(S'gather information on'
p2254
g28
tp2255
a(S'what events are on friday'
p2256
g15
tp2257
a(S'check google calendar for this week'
p2258
g15
tp2259
a(S'could you check my inbox please'
p2260
g15
tp2261
a(S'not headlines'
p2262
g15
tp2263
a(S"today's weather"
p2264
g15
tp2265
a(S"don't tell me live newsfeed"
p2266
g15
tp2267
a(S'live newsfeed'
p2268
g28
tp2269
a(S'check calendar for monday'
p2270
g15
tp2271
a(S'please make an event'
p2272
g15
tp2273
a(S'please get the clock'
p2274
g15
tp2275
a(S'fake news'
p2276
g28
tp2277
a(S'will you check inbox please'
p2278
g15
tp2279
a(S'can you please close the current window'
p2280
g15
tp2281
a(S'add new event please'
p2282
g15
tp2283
a(S'please check my inbox'
p2284
g15
tp2285
a(S'current temperature'
p2286
g15
tp2287
a(S'the news'
p2288
g28
tp2289
a(S'stop playing'
p2290
g15
tp2291
a(S'start a default browser'
p2292
g15
tp2293
a(S'check calendar on friday'
p2294
g15
tp2295
a(S'google search for'
p2296
g15
tp2297
a(S'google search please for'
p2298
g15
tp2299
a(S'set volume 0'
p2300
g15
tp2301
a(S'send me to the lock screen'
p2302
g15
tp2303
a(S'could you add an event please'
p2304
g15
tp2305
a(S'exit'
p2306
g15
tp2307
a(S'check calendar on this day'
p2308
g15
tp2309
a(S'do not tell me the news'
p2310
g15
tp2311
a(S'can you create a new event please'
p2312
g15
tp2313
a(S'will you check my inbox please'
p2314
g15
tp2315
a(S'can you please shut up'
p2316
g15
tp2317
a(S'please start spotify'
p2318
g15
tp2319
a(S'can you turn up the volume please'
p2320
g15
tp2321
a(S'spotify go to the last song'
p2322
g15
tp2323
a(S'please open'
p2324
g15
tp2325
a(S"please don'tgive me the current events please"
p2326
g15
tp2327
a(S"don't get current events"
p2328
g15
tp2329
a(S'are there any events on saturday'
p2330
g15
tp2331
a(S"what's not in news feed"
p2332
g15
tp2333
a(S"what's today's weather"
p2334
g15
tp2335
a(S'train a classifier to try to predict the category of a post'
p2336
g15
tp2337
a(S"don't find newsfeed"
p2338
g15
tp2339
a(S"what's in new mail"
p2340
g15
tp2341
a(S'shut up'
p2342
g15
tp2343
a(S"don't find current news"
p2344
g15
tp2345
a(S"what's the live newsfeed"
p2346
g28
tp2347
a(S'please search google'
p2348
g15
tp2349
a(S'do i have to do anything on friday'
p2350
g15
tp2351
a(S'check google calendar on this day'
p2352
g15
tp2353
a(S"don't get current news"
p2354
g15
tp2355
a(S'can you turn up the tune'
p2356
g15
tp2357
a(S'what is new in gmail'
p2358
g15
tp2359
a(S'get news feed'
p2360
g28
tp2361
a(S'please get the current events'
p2362
g28
tp2363
a(S'please what is in gmail'
p2364
g15
tp2365
a(S"what're not the newsfeed"
p2366
g15
tp2367
a(S"please don't get the news"
p2368
g15
tp2369
a(S'get the clock'
p2370
g15
tp2371
a(S'shut down my computer'
p2372
g15
tp2373
a(S'get headlines'
p2374
g28
tp2375
a(S'would you open gmail please'
p2376
g15
tp2377
a(S'do i have anything to do on saturday'
p2378
g15
tp2379
a(S"what's if it's cloudy this week"
p2380
g15
tp2381
a(S'do i have any events on next'
p2382
g15
tp2383
a(S'can you please add an event'
p2384
g15
tp2385
a(S"what's if it's snowing today"
p2386
g15
tp2387
a(S"aren't there any events"
p2388
g15
tp2389
a(S'check your watch'
p2390
g15
tp2391
a(S"if it's cloudy this week"
p2392
g15
tp2393
a(S'would you check gmail'
p2394
g15
tp2395
a(S'dont find the latest headlines'
p2396
g15
tp2397
a(S'check calendar on thursday'
p2398
g15
tp2399
a(S'could you please add an event'
p2400
g15
tp2401
a(S'please start browsing'
p2402
g15
tp2403
a(S'go to dot net'
p2404
g15
tp2405
a(S'what is new in my gmail please'
p2406
g15
tp2407
a(S'add event'
p2408
g15
tp2409
a(S'can you please turn off'
p2410
g15
tp2411
a(S'start default browser'
p2412
g15
tp2413
a(S'shutdown my computer please'
p2414
g15
tp2415
a(S'what is new in inbox'
p2416
g15
tp2417
a(S'add a new event'
p2418
g15
tp2419
a(S'could you make an event please'
p2420
g15
tp2421
a(S"don't i have any events on sunday"
p2422
g15
tp2423
a(S'can you schedule a new event please'
p2424
g15
tp2425
a(S'spotify previous song please'
p2426
g15
tp2427
a(S'music down'
p2428
g15
tp2429
a(S'read the time please'
p2430
g15
tp2431
a(S"what's in my inbox please"
p2432
g15
tp2433
a(S'can you make event'
p2434
g15
tp2435
a(S'not get the information'
p2436
g15
tp2437
a(S'check my calendar for tomorrow'
p2438
g15
tp2439
a(S'check my calendar on tuesday'
p2440
g15
tp2441
a(S"get today's forecast"
p2442
g15
tp2443
a(S'what is headlines'
p2444
g28
tp2445
a(S"what's new in gmail please"
p2446
g15
tp2447
a(S'could you make a new event'
p2448
g15
tp2449
a(S'what are the news'
p2450
g28
tp2451
a(S'kill the active window'
p2452
g15
tp2453
a(S'please play spotify'
p2454
g15
tp2455
a(S'check google calendar on month'
p2456
g15
tp2457
a(S'turn yourself off please'
p2458
g15
tp2459
a(S'is there anything to do on wednesday'
p2460
g15
tp2461
a(S'what is the news today'
p2462
g28
tp2463
a(S'what events do i have on wednesday'
p2464
g15
tp2465
a(S'okay alice'
p2466
g15
tp2467
a(S"don't i have to do anything tomorrow"
p2468
g15
tp2469
a(S'please what is new in gmail'
p2470
g15
tp2471
a(S'please can you turn the volume higher'
p2472
g15
tp2473
a(S"don't i have anything to do"
p2474
g15
tp2475
a(S'check calendar on tomorrow'
p2476
g15
tp2477
a(S'lock'
p2478
g15
tp2479
a(S'a releasing moderate stalls beside the material cell'
p2480
g15
tp2481
a(S"don't i have to do anything"
p2482
g15
tp2483
a(S'debrief me'
p2484
g28
tp2485
a(S'can you shut down my computer'
p2486
g15
tp2487
a(S'kill current window'
p2488
g15
tp2489
a(S'spotify play the song before'
p2490
g15
tp2491
a(S'is there anything to do on tomorrow'
p2492
g15
tp2493
a(S'check google calendar for wednesday'
p2494
g15
tp2495
a(S'lower the tunez please'
p2496
g15
tp2497
a(S'open my gmail'
p2498
g15
tp2499
a(S'get live news feed'
p2500
g28
tp2501
a(S'turn it down'
p2502
g15
tp2503
a(S'please would you check mail'
p2504
g15
tp2505
a(S'check my inbox'
p2506
g15
tp2507
a(S"don't i have to do anything today"
p2508
g15
tp2509
a(S'check google calendar for tomorrow'
p2510
g15
tp2511
a(S'am i free on saturday'
p2512
g15
tp2513
a(S'get current time'
p2514
g15
tp2515
a(S'could you add a new event'
p2516
g15
tp2517
a(S'what are the live newsfeed'
p2518
g28
tp2519
a(S'would you open inbox please'
p2520
g15
tp2521
a(S'current events'
p2522
g28
tp2523
a(S'check my calendar for saturday'
p2524
g15
tp2525
a(S'exit please'
p2526
g15
tp2527
a(S'todays headlines'
p2528
g28
tp2529
a(S"how's the temperature today"
p2530
g15
tp2531
a(S'search google'
p2532
g15
tp2533
a(S'am i free for saturday'
p2534
g15
tp2535
a(S'can you quit'
p2536
g15
tp2537
a(S'spotify go ahead'
p2538
g15
tp2539
a(S"what's today's forecast"
p2540
g15
tp2541
a(S'please google search for'
p2542
g15
tp2543
a(S'are there any events on this day'
p2544
g15
tp2545
a(S'check my calendar on tomorrow'
p2546
g15
tp2547
a(S'would you check new gmail please'
p2548
g15
tp2549
a(S'do i have to do anything on sunday'
p2550
g15
tp2551
a(S'are there any events on monday'
p2552
g15
tp2553
a(S'please will you open my mail'
p2554
g15
tp2555
a(S'will you check my inbox'
p2556
g15
tp2557
a(S"don't gather the latest headlines please"
p2558
g15
tp2559
a(S'please open dot com'
p2560
g15
tp2561
a(S'check my calendar for'
p2562
g15
tp2563
a(S'what is current events'
p2564
g28
tp2565
a(S'add an event please'
p2566
g15
tp2567
a(S'spotify pause the song please'
p2568
g15
tp2569
a(S'can you turn the sound down'
p2570
g15
tp2571
a(S"get if it's raining today"
p2572
g15
tp2573
a(S'please kill current window'
p2574
g15
tp2575
a(S"what's this week's temperature"
p2576
g15
tp2577
a(S'tell me news'
p2578
g28
tp2579
a(S'live news'
p2580
g28
tp2581
a(S'check gmail'
p2582
g15
tp2583
a(S'is there anything to do on sunday'
p2584
g15
tp2585
a(S'please google'
p2586
g15
tp2587
a(S'please spotify play last song'
p2588
g15
tp2589
a(S'will you check new gmail please'
p2590
g15
tp2591
a(S'am i free for wednesday'
p2592
g15
tp2593
a(S"don't i have to do anything on wednesday"
p2594
g15
tp2595
a(S'could you add new event please'
p2596
g15
tp2597
a(S'get me the clock'
p2598
g15
tp2599
a(S'do i have to do anything in a month'
p2600
g15
tp2601
a(S'am i free for thursday'
p2602
g15
tp2603
a(S'spotify go back to the last song'
p2604
g15
tp2605
a(S"don't i have to do anything on friday"
p2606
g15
tp2607
a(S"don't i have anything to do on monday"
p2608
g15
tp2609
a(S"aren't there any events on"
p2610
g15
tp2611
a(S'can you please kill the active window'
p2612
g15
tp2613
a(S'check the clock please'
p2614
g15
tp2615
a(S'do not read the news to me'
p2616
g15
tp2617
a(S'open my mail please'
p2618
g15
tp2619
a(S'can you add event please'
p2620
g15
tp2621
a(S'are there any events on tomorrow'
p2622
g15
tp2623
a(S'can you schedule an event'
p2624
g15
tp2625
a(S"don't tell me news"
p2626
g15
tp2627
a(S'sweet dreams'
p2628
g15
tp2629
a(S'am i free on tomorrow'
p2630
g15
tp2631
a(S'turn off please'
p2632
g15
tp2633
a(S'can you schedule event please'
p2634
g15
tp2635
a(S'could you check my inbox'
p2636
g15
tp2637
a(S'could you create event please'
p2638
g15
tp2639
a(S'please create an event'
p2640
g15
tp2641
a(S"don't give me intel on current events"
p2642
g15
tp2643
a(S'could you schedule an event please'
p2644
g15
tp2645
a(S'please turn off the computer'
p2646
g15
tp2647
a(S'please get time'
p2648
g15
tp2649
a(S'kill the active program'
p2650
g15
tp2651
a(S'please shutdown the computer'
p2652
g15
tp2653
a(S'what events are on'
p2654
g15
tp2655
a(S'is it rainy this week'
p2656
g15
tp2657
a(S"today's forecast"
p2658
g15
tp2659
a(S'shut off'
p2660
g15
tp2661
a(S'please search google for'
p2662
g15
tp2663
a(S'whats going on in the world todays please'
p2664
g28
tp2665
a(S'please pause'
p2666
g15
tp2667
a(S'could you please make event'
p2668
g15
tp2669
a(S'spotify stop'
p2670
g15
tp2671
a(S"don't i have to do anything in a month"
p2672
g15
tp2673
a(S"don't i have any events on friday"
p2674
g15
tp2675
a(S"what're not the live news feed"
p2676
g15
tp2677
a(S'please can you check new gmail'
p2678
g15
tp2679
a(S'read your watch'
p2680
g15
tp2681
a(S'can you kill the current window'
p2682
g15
tp2683
a(S'what time is it currently'
p2684
g15
tp2685
a(S'do i have anything to do on tuesday'
p2686
g15
tp2687
a(S'get time'
p2688
g15
tp2689
a(S'next spotify please'
p2690
g15
tp2691
a(S'start browsing please'
p2692
g15
tp2693
a(S'do i have anything to do today'
p2694
g15
tp2695
a(S'can you shutdown my computer'
p2696
g15
tp2697
a(S"get if it's rainy this week"
p2698
g15
tp2699
a(S'check events for this month'
p2700
g15
tp2701
a(S'please would you check gmail'
p2702
g15
tp2703
a(S"don't i have to do anything on sunday"
p2704
g15
tp2705
a(S'do i have any events in a week'
p2706
g15
tp2707
a(S'what are the live news'
p2708
g28
tp2709
a(S'current news today'
p2710
g28
tp2711
a(S'find current events'
p2712
g28
tp2713
a(S'what is live news feed'
p2714
g28
tp2715
a(S"don't give me the current events"
p2716
g15
tp2717
a(S'would you check inbox'
p2718
g15
tp2719
a(S'do i have anything to do in a week'
p2720
g15
tp2721
a(S"get today's temperature"
p2722
g15
tp2723
a(S'can you check my gmail please'
p2724
g15
tp2725
a(S"what's in new mail please"
p2726
g15
tp2727
a(S'please lock my computer'
p2728
g15
tp2729
a(S"please what's in new gmail"
p2730
g15
tp2731
a(S'could you make an event'
p2732
g15
tp2733
a(S'is there anything i have to do on sunday'
p2734
g15
tp2735
a(S'can you decrease the sound'
p2736
g15
tp2737
a(S'will you check my gmail please'
p2738
g15
tp2739
a(S'would you open my inbox'
p2740
g15
tp2741
a(S'check my gmail please'
p2742
g15
tp2743
a(S"what isn't current events"
p2744
g15
tp2745
a(S'check my calendar on thursday'
p2746
g15
tp2747
a(S'is there anything i have to do on friday'
p2748
g15
tp2749
a(S'check google calendar on'
p2750
g15
tp2751
a(S"what's in new gmail"
p2752
g15
tp2753
a(S'please can you check gmail'
p2754
g15
tp2755
a(S'stop'
p2756
g15
tp2757
a(S'please google search'
p2758
g15
tp2759
a(S"what isn't the news"
p2760
g15
tp2761
a(S'what do i have in a week'
p2762
g15
tp2763
a(S'news today'
p2764
g28
tp2765
a(S'please last song'
p2766
g15
tp2767
a(S'is there anything i have to do on monday'
p2768
g15
tp2769
a(S'do not gather information on todays current events'
p2770
g15
tp2771
a(S"don't i have to do anything on tuesday"
p2772
g15
tp2773
a(S'please turn it up'
p2774
g15
tp2775
a(S'please retrieve the current time'
p2776
g15
tp2777
a(S'do i have anything today'
p2778
g15
tp2779
a(S"please don't find out the latest headlines"
p2780
g15
tp2781
a(S'not intelligence report'
p2782
g15
tp2783
a(S'can you please turn up the sound'
p2784
g15
tp2785
a(S"aren't there any events on this day"
p2786
g15
tp2787
a(S'retrieve the current time'
p2788
g15
tp2789
a(S'is it foggy today'
p2790
g15
tp2791
a(S'can you unmute please'
p2792
g15
tp2793
a(S'please check my gmail'
p2794
g15
tp2795
a(S'how long can this data set get'
p2796
g15
tp2797
a(S'could you add new event'
p2798
g15
tp2799
a(S'search for please'
p2800
g15
tp2801
a(S'spotify go back'
p2802
g15
tp2803
a(S'will it snow this week'
p2804
g15
tp2805
a(S'can you check if i have anything in my inbox'
p2806
g15
tp2807
a(S'check events on tuesday'
p2808
g15
tp2809
a(S'please could you check inbox'
p2810
g15
tp2811
a(S'google for please'
p2812
g15
tp2813
a(S'lock computer'
p2814
g15
tp2815
a(S'get live news'
p2816
g28
tp2817
a(S'check my calendar for thursday'
p2818
g15
tp2819
a(S'is there anything to do on this day'
p2820
g15
tp2821
a(S'do not give me information of todays news'
p2822
g15
tp2823
a(S'could you add event'
p2824
g15
tp2825
a(S'would you check my mail'
p2826
g15
tp2827
a(S'tell me the news'
p2828
g28
tp2829
a(S'what is new in mail'
p2830
g15
tp2831
a(S'will you check new gmail'
p2832
g15
tp2833
a(S'can you please turn off the computer'
p2834
g15
tp2835
a(S'gather the latest headlines please'
p2836
g28
tp2837
a(S"don't i have anything on tuesday"
p2838
g15
tp2839
a(S'could you open my inbox please'
p2840
g15
tp2841
a(S'give me the news please'
p2842
g28
tp2843
a(S'turn down the volume'
p2844
g15
tp2845
a(S"what aren't the the news"
p2846
g15
tp2847
a(S'a backbone dictates above my grief'
p2848
g15
tp2849
a(S'find headlines'
p2850
g28
tp2851
a(S'please turn my computer off'
p2852
g15
tp2853
a(S'can you get the latest headlines'
p2854
g28
tp2855
a(S'can you shutdown'
p2856
g15
tp2857
a(S"don't i have to do anything on sunday"
p2858
g15
tp2859
a(S'any mail'
p2860
g15
tp2861
a(S"how's the weather"
p2862
g15
tp2863
a(S"what's not the news"
p2864
g15
tp2865
a(S'make the sound higher'
p2866
g15
tp2867
a(S"what aren't the latest events "
p2868
g15
tp2869
a(S'not newsfeed'
p2870
g15
tp2871
a(S"don't get live newsfeed"
p2872
g15
tp2873
a(S'current events'
p2874
g28
tp2875
a(S'please check mail'
p2876
g15
tp2877
a(S'is it freezing today'
p2878
g15
tp2879
a(S'tell me live newsfeed'
p2880
g28
tp2881
a(S'can you please turn off my computer'
p2882
g15
tp2883
a(S'can you lock computer please'
p2884
g15
tp2885
a(S'check calendar for this month'
p2886
g15
tp2887
a(S'check the clock right now'
p2888
g15
tp2889
a(S'what is live news'
p2890
g28
tp2891
a(S'open browser'
p2892
g15
tp2893
a(S'am i free for friday'
p2894
g15
tp2895
a(S'is there anything i have to do on thursday'
p2896
g15
tp2897
a(S"today's live news feed"
p2898
g28
tp2899
a(S'see ya alice'
p2900
g15
tp2901
a(S'can you please shutdown the computer'
p2902
g15
tp2903
a(S'open default browser'
p2904
g15
tp2905
a(S'what is in new mail please'
p2906
g15
tp2907
a(S'can you please turn the tune down'
p2908
g15
tp2909
a(S'get the current time please'
p2910
g15
tp2911
a(S'what is new in new mail'
p2912
g15
tp2913
a(S'make an event please'
p2914
g15
tp2915
a(S'check google calendar for this month'
p2916
g15
tp2917
a(S'please make new event'
p2918
g15
tp2919
a(S'what is in mail please'
p2920
g15
tp2921
a(S'please would you open my mail'
p2922
g15
tp2923
a(S'please spotify pause'
p2924
g15
tp2925
a(S"today's forecast"
p2926
g15
tp2927
a(S"don't find live newsfeed"
p2928
g15
tp2929
a(S"what's in my mail please"
p2930
g15
tp2931
a(S'not current events'
p2932
g15
tp2933
a(S'what is going on in the world today'
p2934
g28
tp2935
a(S"what's the clock"
p2936
g15
tp2937
a(S'could you open my gmail'
p2938
g15
tp2939
a(S"don't i have to do anything in a month"
p2940
g15
tp2941
a(S'do i have any events on this day'
p2942
g15
tp2943
a(S'can you turn off'
p2944
g15
tp2945
a(S"don't i have to do anything on monday"
p2946
g15
tp2947
a(S'close the active window'
p2948
g15
tp2949
a(S'open dot gov'
p2950
g15
tp2951
a(S'dont find the news'
p2952
g15
tp2953
a(S'shutdown my computer'
p2954
g15
tp2955
a(S"don't i have anything to do on friday"
p2956
g15
tp2957
a(S'do i have to do anything on monday'
p2958
g15
tp2959
a(S'am i free on monday'
p2960
g15
tp2961
a(S'am i free for today'
p2962
g15
tp2963
a(S"please what's new in inbox"
p2964
g15
tp2965
a(S'please get the time'
p2966
g15
tp2967
a(S'could you check mail'
p2968
g15
tp2969
a(S'current forecast'
p2970
g15
tp2971
a(S'please retrieve the time'
p2972
g15
tp2973
a(S"today's temperature"
p2974
g15
tp2975
a(S'do i have anything to do tomorrow'
p2976
g15
tp2977
a(S'could you check my gmail'
p2978
g15
tp2979
a(S'anything in mail'
p2980
g15
tp2981
a(S'turn it up please'
p2982
g15
tp2983
a(S"what's forecast"
p2984
g15
tp2985
a(S'will you get the news for me'
p2986
g28
tp2987
a(S"please what's new in my inbox"
p2988
g15
tp2989
a(S'alice'
p2990
g15
tp2991
a(S"don't i have any events on next"
p2992
g15
tp2993
a(S'please schedule new event'
p2994
g15
tp2995
a(S'please close the window'
p2996
g15
tp2997
a(S'hey alice'
p2998
g15
tp2999
a(S"please what's new in my gmail"
p3000
g15
tp3001
a(S"what's the headlines"
p3002
g28
tp3003
a(S'what do i have on today'
p3004
g15
tp3005
a(S'schedule event'
p3006
g15
tp3007
a(S"if it's foggy today"
p3008
g15
tp3009
a(S'turn down the sound'
p3010
g15
tp3011
a(S'open gmail please'
p3012
g15
tp3013
a(S"what're not the headlines"
p3014
g15
tp3015
a(S'dont find out whats going on'
p3016
g15
tp3017
a(S'check events on saturday'
p3018
g15
tp3019
a(S'check events on tomorrow'
p3020
g15
tp3021
a(S'go back please'
p3022
g15
tp3023
a(S'what events are on tomorrow'
p3024
g15
tp3025
a(S'can you turn the beat down'
p3026
g15
tp3027
a(S'do i have any events on sunday'
p3028
g15
tp3029
a(S'what do i have to do on'
p3030
g15
tp3031
a(S'any events in a week'
p3032
g15
tp3033
a(S'send me to the lock screen please'
p3034
g15
tp3035
a(S"this week's forecast"
p3036
g15
tp3037
a(S'am i free in a month'
p3038
g15
tp3039
a(S'temperature'
p3040
g15
tp3041
a(S'start a default browser please'
p3042
g15
tp3043
a(S'anything new in my mail'
p3044
g15
tp3045
a(S'dont tell me the current events'
p3046
g15
tp3047
a(S'is it cloudy today'
p3048
g15
tp3049
a(S'would you open my inbox please'
p3050
g15
tp3051
a(S"what's if it's hot today"
p3052
g15
tp3053
a(S'check google calendar on today'
p3054
g15
tp3055
a(S"what's in my gmail"
p3056
g15
tp3057
a(S'how is the temperature'
p3058
g15
tp3059
a(S"what're the current events"
p3060
g28
tp3061
a(S'spotify play the last song'
p3062
g15
tp3063
a(S'what events are on tuesday'
p3064
g15
tp3065
a(S'anything in gmail'
p3066
g15
tp3067
a(S"today's news feed"
p3068
g28
tp3069
a(S"don't tell me news feed"
p3070
g15
tp3071
a(S'is there anything to do on saturday'
p3072
g15
tp3073
a(S"what's in gmail"
p3074
g15
tp3075
a(S"aren't there any events on next"
p3076
g15
tp3077
a(S'news'
p3078
g28
tp3079
a(S'please get current time'
p3080
g15
tp3081
a(S'check events on this day'
p3082
g15
tp3083
a(S"don't get headlines"
p3084
g15
tp3085
a(S"what're the newsfeed"
p3086
g28
tp3087
a(S'please open my gmail'
p3088
g15
tp3089
a(S'what is in my mail'
p3090
g15
tp3091
a(S'will you check new mail'
p3092
g15
tp3093
a(S'am i free for this day'
p3094
g15
tp3095
a(S'kill the program'
p3096
g15
tp3097
a(S'any new gmail'
p3098
g15
tp3099
a(S'what is on my calendar'
p3100
g15
tp3101
a(S"don't i have anything on thursday"
p3102
g15
tp3103
a(S"how's the temperature"
p3104
g15
tp3105
a(S'search google please for'
p3106
g15
tp3107
a(S'check google calendar for tuesday'
p3108
g15
tp3109
a(S'what events do i have in a month'
p3110
g15
tp3111
a(S'do i have anything to do on next'
p3112
g15
tp3113
a(S'turn up the beat'
p3114
g15
tp3115
a(S'can you check my inbox please'
p3116
g15
tp3117
a(S"don't get news now"
p3118
g15
tp3119
a(S'check my calendar on saturday'
p3120
g15
tp3121
a(S"what's this week's forecast"
p3122
g15
tp3123
a(S'could you check my mail'
p3124
g15
tp3125
a(S"don't i have any events on tuesday"
p3126
g15
tp3127
a(S'what do i have in a month'
p3128
g15
tp3129
a(S'check google calendar for saturday'
p3130
g15
tp3131
a(S'make a new event please'
p3132
g15
tp3133
a(S'at this point i am writting random stuff '
p3134
g15
tp3135
a(S'can you turn the volume higher please'
p3136
g15
tp3137
a(S"please don't get the current events"
p3138
g15
tp3139
a(S'check google calendar on next'
p3140
g15
tp3141
a(S'time please'
p3142
g15
tp3143
a(S'will you open my gmail please'
p3144
g15
tp3145
a(S'will you get the current headlines'
p3146
g28
tp3147
a(S'check mail please'
p3148
g15
tp3149
a(S'are there any events on friday'
p3150
g15
tp3151
a(S'am i free on wednesday'
p3152
g15
tp3153
a(S'check events for friday'
p3154
g15
tp3155
a(S'are there any events'
p3156
g15
tp3157
a(S'continue the song'
p3158
g15
tp3159
a(S'please open a browser'
p3160
g15
tp3161
a(S'find live newsfeed'
p3162
g28
tp3163
a(S'shut down the computer'
p3164
g15
tp3165
a(S'get current temperature'
p3166
g15
tp3167
a(S'could you check new gmail please'
p3168
g15
tp3169
a(S'could you check new mail please'
p3170
g15
tp3171
a(S'what is in my mail please'
p3172
g15
tp3173
a(S'please read the time'
p3174
g15
tp3175
a(S'please shut down my computer'
p3176
g15
tp3177
a(S'can you shut off'
p3178
g15
tp3179
a(S'search google for'
p3180
g15
tp3181
a(S'anything in inbox'
p3182
g15
tp3183
a(S'any events on tuesday'
p3184
g15
tp3185
a(S'please spotify pause'
p3186
g15
tp3187
a(S'open browser please'
p3188
g15
tp3189
a(S'pause spotify please'
p3190
g15
tp3191
a(S'please schedule an event'
p3192
g15
tp3193
a(S'spotify pause please'
p3194
g15
tp3195
a(S'what do i have on monday'
p3196
g15
tp3197
a(S'check google calendar on monday'
p3198
g15
tp3199
a(S'check events for thursday'
p3200
g15
tp3201
a(S"don't i have anything tomorrow"
p3202
g15
tp3203
a(S'stop the song'
p3204
g15
tp3205
a(S'google search for please'
p3206
g15
tp3207
a(S'play song'
p3208
g15
tp3209
a(S'check google calendar for this day'
p3210
g15
tp3211
a(S"what aren't the news"
p3212
g15
tp3213
a(S'what do i have on next'
p3214
g15
tp3215
a(S'do i have any events on'
p3216
g15
tp3217
a(S'spotify start please'
p3218
g15
tp3219
a(S'stop spotify'
p3220
g15
tp3221
a(S'find news'
p3222
g28
tp3223
a(S'turn off the sound please'
p3224
g15
tp3225
a(S'check events for this day'
p3226
g15
tp3227
a(S'please will you check mail'
p3228
g15
tp3229
a(S'check what time it is please'
p3230
g15
tp3231
a(S'please would you open my inbox'
p3232
g15
tp3233
a(S'can you check inbox'
p3234
g15
tp3235
a(S'is there anything to do on monday'
p3236
g15
tp3237
a(S'check google calendar on friday'
p3238
g15
tp3239
a(S"what's not in current news"
p3240
g15
tp3241
a(S'please can you make it louder'
p3242
g15
tp3243
a(S'please go to dot com'
p3244
g15
tp3245
a(S'is it snowing this week'
p3246
g15
tp3247
a(S'spotify play the song'
p3248
g15
tp3249
a(S"what isn't live news feed"
p3250
g15
tp3251
a(S'start a browser please'
p3252
g15
tp3253
a(S'get current forecast'
p3254
g15
tp3255
a(S'can you make a new event'
p3256
g15
tp3257
a(S'not current news'
p3258
g15
tp3259
a(S'check google calendar for sunday'
p3260
g15
tp3261
a(S'turn up the the beat'
p3262
g15
tp3263
a(S'could you make event please'
p3264
g15
tp3265
a(S"aren't there any events on tuesday"
p3266
g15
tp3267
a(S'is there anything i have to do on tuesday'
p3268
g15
tp3269
a(S'weather'
p3270
g15
tp3271
a(S'shut down'
p3272
g15
tp3273
a(S'what time is it now'
p3274
g15
tp3275
a(S'can you check new mail please'
p3276
g15
tp3277
a(S'could you please create event'
p3278
g15
tp3279
a(S'check google calendar on saturday'
p3280
g15
tp3281
a(S"don't i have anything to do in a month"
p3282
g15
tp3283
a(S"what's in inbox"
p3284
g15
tp3285
a(S'what events do i have on saturday'
p3286
g15
tp3287
a(S"what aren't the live news"
p3288
g15
tp3289
a(S"don't gather information on"
p3290
g15
tp3291
a(S'spotify shut up'
p3292
g15
tp3293
a(S"today's newsfeed"
p3294
g28
tp3295
a(S'can you turn my computer off'
p3296
g15
tp3297
a(S'will you open my gmail'
p3298
g15
tp3299
a(S'is there anything to do in a month'
p3300
g15
tp3301
a(S'check events for saturday'
p3302
g15
tp3303
a(S'increase the volume'
p3304
g15
tp3305
a(S'please check the clock'
p3306
g15
tp3307
a(S'get clock'
p3308
g15
tp3309
a(S'am i free on next'
p3310
g15
tp3311
a(S'what is new in new mail please'
p3312
g15
tp3313
a(S'what events are on wednesday'
p3314
g15
tp3315
a(S'please start default browser'
p3316
g15
tp3317
a(S"don't tell me newsfeed"
p3318
g15
tp3319
a(S'can you turn off the computer'
p3320
g15
tp3321
a(S'can you please kill the window'
p3322
g15
tp3323
a(S'can you open browser please'
p3324
g15
tp3325
a(S"don't i have any events on"
p3326
g15
tp3327
a(S"what isn't live news"
p3328
g15
tp3329
a(S"what's in my inbox"
p3330
g15
tp3331
a(S'any events on today'
p3332
g15
tp3333
a(S'start a browser'
p3334
g15
tp3335
a(S"please what's in my mail"
p3336
g15
tp3337
a(S'briefing'
p3338
g28
tp3339
a(S'any events on monday'
p3340
g15
tp3341
a(S"please don't give me current events"
p3342
g15
tp3343
a(S'please open gmail'
p3344
g15
tp3345
a(S'check calendar for this day'
p3346
g15
tp3347
a(S'could you schedule a new event'
p3348
g15
tp3349
a(S'pause the song please'
p3350
g15
tp3351
a(S'check my calendar for next'
p3352
g15
tp3353
a(S'turn it off'
p3354
g15
tp3355
a(S'make the volume lower'
p3356
g15
tp3357
a(S'am i free on this day'
p3358
g15
tp3359
a(S'check calendar on wednesday'
p3360
g15
tp3361
a(S'get temperature'
p3362
g15
tp3363
a(S'would you check inbox please'
p3364
g15
tp3365
a(S'will you get the current events for me'
p3366
g28
tp3367
a(S'please what is new in inbox'
p3368
g15
tp3369
a(S'put me on the lock screen'
p3370
g15
tp3371
a(S'could you please schedule event'
p3372
g15
tp3373
a(S'check events for next'
p3374
g15
tp3375
a(S"what's the time"
p3376
g15
tp3377
a(S'could you add a new event please'
p3378
g15
tp3379
a(S'not current events please'
p3380
g15
tp3381
a(S'could you open inbox please'
p3382
g15
tp3383
a(S'can you not get the latest headlines'
p3384
g15
tp3385
a(S'headlines today'
p3386
g28
tp3387
a(S'would you open mail please'
p3388
g15
tp3389
a(S"don't i have to do anything today"
p3390
g15
tp3391
a(S'what do i have on tomorrow'
p3392
g15
tp3393
a(S"get this week's forecast"
p3394
g15
tp3395
a(S'read the clock'
p3396
g15
tp3397
a(S'could you open my mail please'
p3398
g15
tp3399
a(S"don't i have anything to do on this day"
p3400
g15
tp3401
a(S'please add event'
p3402
g15
tp3403
a(S'could you schedule new event please'
p3404
g15
tp3405
a(S'check events for this day'
p3406
g15
tp3407
a(S'is there anything i have to do on tomorrow'
p3408
g15
tp3409
a(S'can you make new event'
p3410
g15
tp3411
a(S'open dot net'
p3412
g15
tp3413
a(S'go to dot org'
p3414
g15
tp3415
a(S'can you lock the screen please'
p3416
g15
tp3417
a(S'turn the beat down please'
p3418
g15
tp3419
a(S'check calendar'
p3420
g15
tp3421
a(S"what's in gmail please"
p3422
g15
tp3423
a(S'please kill the window'
p3424
g15
tp3425
a(S'please could you open my gmail'
p3426
g15
tp3427
a(S'check my calendar on today'
p3428
g15
tp3429
a(S'sound higher please'
p3430
g15
tp3431
a(S'what events do i have on tuesday'
p3432
g15
tp3433
a(S'can you please schedule new event'
p3434
g15
tp3435
a(S'do i have anything to do on friday'
p3436
g15
tp3437
a(S'spotify play last song please'
p3438
g15
tp3439
a(S'read the clock please'
p3440
g15
tp3441
a(S'make a new event'
p3442
g15
tp3443
a(S"please what's new in gmail"
p3444
g15
tp3445
a(S'make the sound quieter'
p3446
g15
tp3447
a(S'please send me to the lock screen'
p3448
g15
tp3449
a(S'check my calendar on wednesday'
p3450
g15
tp3451
a(S"this week's forecast"
p3452
g15
tp3453
a(S"what aren't the current events today"
p3454
g15
tp3455
a(S"what's new in inbox please"
p3456
g15
tp3457
a(S'would you check mail'
p3458
g15
tp3459
a(S'go back'
p3460
g15
tp3461
a(S"aren't there any events on friday"
p3462
g15
tp3463
a(S'can you schedule an event please'
p3464
g15
tp3465
a(S'can you lock my computer please'
p3466
g15
tp3467
a(S"please don't tell me whats going on in the news please"
p3468
g15
tp3469
a(S'do not whats going on in the world todays'
p3470
g15
tp3471
a(S'how is the weather'
p3472
g15
tp3473
a(S'can you schedule a new event'
p3474
g15
tp3475
a(S"how's the forecast"
p3476
g15
tp3477
a(S"what're the the news"
p3478
g28
tp3479
a(S'are there any events on next'
p3480
g15
tp3481
a(S'could you create a new event please'
p3482
g15
tp3483
a(S'is it snowing today'
p3484
g15
tp3485
a(S'that should not call the function get news'
p3486
g15
tp3487
a(S'shutdown the computer please'
p3488
g15
tp3489
a(S'do i have any events on saturday'
p3490
g15
tp3491
a(S"what isn't in the news today"
p3492
g15
tp3493
a(S"how's the weather this week"
p3494
g15
tp3495
a(S'pause spotify'
p3496
g15
tp3497
a(S"don't i have anything to do on tuesday"
p3498
g15
tp3499
a(S'please check your watch'
p3500
g15
tp3501
a(S'can you please create an event'
p3502
g15
tp3503
a(S'can you please close the active window'
p3504
g15
tp3505
a(S'check the clock right now please'
p3506
g15
tp3507
a(S'check events'
p3508
g15
tp3509
a(S'give me the current events'
p3510
g28
tp3511
a(S'unmute'
p3512
g15
tp3513
a(S'do i have to do anything today'
p3514
g15
tp3515
a(S"if it's hot today"
p3516
g15
tp3517
a(S"not today's live newsfeed"
p3518
g15
tp3519
a(S'close window'
p3520
g15
tp3521
a(S'please what is new in new gmail'
p3522
g15
tp3523
a(S'could you please schedule an event'
p3524
g15
tp3525
a(S'shut off my computer'
p3526
g15
tp3527
a(S'can you check my mail please'
p3528
g15
tp3529
a(S'what events do i have'
p3530
g15
tp3531
a(S'do not give me infornation on todays current events'
p3532
g15
tp3533
a(S"don't i have anything to do on wednesday"
p3534
g15
tp3535
a(S'shut down the computer please'
p3536
g15
tp3537
a(S'is there anything i have to do in a month'
p3538
g15
tp3539
a(S'kill the noise'
p3540
g15
tp3541
a(S'retrieve the time'
p3542
g15
tp3543
a(S'get the news'
p3544
g28
tp3545
a(S'please kill this window'
p3546
g15
tp3547
a(S'what events do i have on next'
p3548
g15
tp3549
a(S"what's the news feed"
p3550
g28
tp3551
a(S'i like dogs'
p3552
g15
tp3553
a(S'turn my computer off'
p3554
g15
tp3555
a(S'dont gather information on todays current events'
p3556
g15
tp3557
a(S'can you check inbox please'
p3558
g15
tp3559
a(S'do i have anything to do on this day'
p3560
g15
tp3561
a(S'anything new in mail'
p3562
g15
tp3563
a(S"what's new in new gmail"
p3564
g15
tp3565
a(S"if it's cold this week"
p3566
g15
tp3567
a(S'what is on my calendar for this day'
p3568
g15
tp3569
a(S'could you open my inbox'
p3570
g15
tp3571
a(S'could you add an event'
p3572
g15
tp3573
a(S'create a new event please'
p3574
g15
tp3575
a(S'please will you check new gmail'
p3576
g15
tp3577
a(S'make event please'
p3578
g15
tp3579
a(S'what do i have to do on next'
p3580
g15
tp3581
a(S'please be quiet'
p3582
g15
tp3583
a(S'what do i have on'
p3584
g15
tp3585
a(S'do i have anything on'
p3586
g15
tp3587
a(S'will you check gmail'
p3588
g15
tp3589
a(S"what's the live news"
p3590
g28
tp3591
a(S"what aren't the live news feed"
p3592
g15
tp3593
a(S'go ahead'
p3594
g15
tp3595
a(S'please will you check my inbox'
p3596
g15
tp3597
a(S'google please for'
p3598
g15
tp3599
a(S'please close the current window'
p3600
g15
tp3601
a(S'turn it down'
p3602
g15
tp3603
a(S'open a default browser'
p3604
g15
tp3605
a(S'could you create an event please'
p3606
g15
tp3607
a(S'what do i have on tuesday'
p3608
g15
tp3609
a(S'would you check new mail please'
p3610
g15
tp3611
a(S'can you get the current events'
p3612
g28
tp3613
a(S'can you please kill the current window'
p3614
g15
tp3615
a(S'check mail'
p3616
g15
tp3617
a(S'do not give me the current events'
p3618
g15
tp3619
a(S'do i have to do anything to do'
p3620
g15
tp3621
a(S'go to dot edu'
p3622
g15
tp3623
a(S'would you open my mail'
p3624
g15
tp3625
a(S"how's the forecast this week"
p3626
g15
tp3627
a(S"don't i have anything to do today"
p3628
g15
tp3629
a(S'please will you open inbox'
p3630
g15
tp3631
a(S'can you check mail'
p3632
g15
tp3633
a(S'is there anything to do tomorrow'
p3634
g15
tp3635
a(S'create an event'
p3636
g15
tp3637
a(S'can you please shut down'
p3638
g15
tp3639
a(S'retrieve what time it is'
p3640
g15
tp3641
a(S'can you exit'
p3642
g15
tp3643
a(S'any events'
p3644
g15
tp3645
a(S"what isn't headlines"
p3646
g15
tp3647
a(S"don't i have to do anything on monday"
p3648
g15
tp3649
a(S'get news'
p3650
g28
tp3651
a(S"what's new in mail"
p3652
g15
tp3653
a(S'create a new event'
p3654
g15
tp3655
a(S'get live newsfeed'
p3656
g28
tp3657
a(S'what is on my calendar for sunday'
p3658
g15
tp3659
a(S'please tell me whats going on in the news please'
p3660
g28
tp3661
a(S'can you please turn up the tunez'
p3662
g15
tp3663
a(S'spotify start the song please'
p3664
g15
tp3665
a(S'schedule new event'
p3666
g15
tp3667
a(S"get if it's snowing today"
p3668
g15
tp3669
a(S'stop the tunez'
p3670
g15
tp3671
a(S'anything new in my gmail'
p3672
g15
tp3673
a(S'news feed today'
p3674
g28
tp3675
a(S'shutdown'
p3676
g15
tp3677
a(S'can you please create a new event'
p3678
g15
tp3679
a(S'find the current events'
p3680
g28
tp3681
a(S"what isn't the news today"
p3682
g15
tp3683
a(S"not today's live news"
p3684
g15
tp3685
a(S'can you check gmail'
p3686
g15
tp3687
a(S'please shutdown'
p3688
g15
tp3689
a(S'turn off'
p3690
g15
tp3691
a(S'will it snow today'
p3692
g15
tp3693
a(S'do i have to do anything on saturday'
p3694
g15
tp3695
a(S'get me the news todays'
p3696
g28
tp3697
a(S'find news feed'
p3698
g28
tp3699
a(S"what's not in current events"
p3700
g15
tp3701
a(S"what's if it's freezing today"
p3702
g15
tp3703
a(S'lower the volume'
p3704
g15
tp3705
a(S"get if it's cold today"
p3706
g15
tp3707
a(S'am i free'
p3708
g15
tp3709
a(S'sweet dreams alice'
p3710
g15
tp3711
a(S'can you shut up'
p3712
g15
tp3713
a(S'what events are'
p3714
g15
tp3715
a(S'shut down my computer please'
p3716
g15
tp3717
a(S'could you check gmail please'
p3718
g15
tp3719
a(S"don't gimme the news"
p3720
g15
tp3721
a(S'please could you open my mail'
p3722
g15
tp3723
a(S'can you turn up the tunez'
p3724
g15
tp3725
a(S'what do i have on this day'
p3726
g15
tp3727
a(S'can you add new event'
p3728
g15
tp3729
a(S'please spotify last song'
p3730
g15
tp3731
a(S'can you close the active window'
p3732
g15
tp3733
a(S'turn up the sound please'
p3734
g15
tp3735
a(S'can you please open a browser'
p3736
g15
tp3737
a(S'please what is new in my gmail'
p3738
g15
tp3739
a(S'will you not get the current headlines'
p3740
g15
tp3741
a(S'please close current window'
p3742
g15
tp3743
a(S'kill the current window'
p3744
g15
tp3745
asS'classifier'
p3746
ccopy_reg
_reconstructor
p3747
(csklearn.pipeline
Pipeline
p3748
c__builtin__
object
p3749
Ntp3750
Rp3751
(dp3752
S'_sklearn_version'
p3753
S'0.18.1'
p3754
sS'steps'
p3755
(lp3756
(S'vect'
p3757
g3747
(csklearn.feature_extraction.text
CountVectorizer
p3758
g3749
Ntp3759
Rp3760
(dp3761
S'decode_error'
p3762
Vstrict
p3763
sS'lowercase'
p3764
I01
sS'stop_words'
p3765
NsS'vocabulary'
p3766
NsS'tokenizer'
p3767
NsS'encoding'
p3768
Vutf-8
p3769
sS'token_pattern'
p3770
V(?u)\u005cb\u005cw\u005cw+\u005cb
p3771
sS'input'
p3772
Vcontent
p3773
sS'analyzer'
p3774
Vword
p3775
sS'vocabulary_'
p3776
(dp3777
Vraining
p3778
cnumpy.core.multiarray
scalar
p3779
(cnumpy
dtype
p3780
(S'i8'
p3781
I0
I1
tp3782
Rp3783
(I3
S'<'
p3784
NNNI-1
I-1
I0
tp3785
bS'\xad\x00\x00\x00\x00\x00\x00\x00'
p3786
tp3787
Rp3788
sVtodays
p3789
g3779
(g3783
S'\xe2\x00\x00\x00\x00\x00\x00\x00'
p3790
tp3791
Rp3792
sVskip
p3793
g3779
(g3783
S'\xc6\x00\x00\x00\x00\x00\x00\x00'
p3794
tp3795
Rp3796
sVrandom
p3797
g3779
(g3783
S'\xaf\x00\x00\x00\x00\x00\x00\x00'
p3798
tp3799
Rp3800
sVmonth
p3801
g3779
(g3783
S'\x85\x00\x00\x00\x00\x00\x00\x00'
p3802
tp3803
Rp3804
sVsofter
p3805
g3779
(g3783
S'\xc9\x00\x00\x00\x00\x00\x00\x00'
p3806
tp3807
Rp3808
sVedu
p3809
g3779
(g3783
S'A\x00\x00\x00\x00\x00\x00\x00'
p3810
tp3811
Rp3812
sVgo
p3813
g3779
(g3783
S'Z\x00\x00\x00\x00\x00\x00\x00'
p3814
tp3815
Rp3816
sVheadlines
p3817
g3779
(g3783
S'c\x00\x00\x00\x00\x00\x00\x00'
p3818
tp3819
Rp3820
sVfind
p3821
g3779
(g3783
S'L\x00\x00\x00\x00\x00\x00\x00'
p3822
tp3823
Rp3824
sVcell
p3825
g3779
(g3783
S' \x00\x00\x00\x00\x00\x00\x00'
p3826
tp3827
Rp3828
sVpause
p3829
g3779
(g3783
S'\x9b\x00\x00\x00\x00\x00\x00\x00'
p3830
tp3831
Rp3832
sVsnowing
p3833
g3779
(g3783
S'\xc8\x00\x00\x00\x00\x00\x00\x00'
p3834
tp3835
Rp3836
sVsend
p3837
g3779
(g3783
S'\xbf\x00\x00\x00\x00\x00\x00\x00'
p3838
tp3839
Rp3840
sVshould
p3841
g3779
(g3783
S'\xc1\x00\x00\x00\x00\x00\x00\x00'
p3842
tp3843
Rp3844
sVto
p3845
g3779
(g3783
S'\xe0\x00\x00\x00\x00\x00\x00\x00'
p3846
tp3847
Rp3848
sVgoing
p3849
g3779
(g3783
S'[\x00\x00\x00\x00\x00\x00\x00'
p3850
tp3851
Rp3852
sVdo
p3853
g3779
(g3783
S'8\x00\x00\x00\x00\x00\x00\x00'
p3854
tp3855
Rp3856
sVget
p3857
g3779
(g3783
S'V\x00\x00\x00\x00\x00\x00\x00'
p3858
tp3859
Rp3860
sVbeat
p3861
g3779
(g3783
S'\x12\x00\x00\x00\x00\x00\x00\x00'
p3862
tp3863
Rp3864
sVstop
p3865
g3779
(g3783
S'\xd0\x00\x00\x00\x00\x00\x00\x00'
p3866
tp3867
Rp3868
sVschedule
p3869
g3779
(g3783
S'\xbb\x00\x00\x00\x00\x00\x00\x00'
p3870
tp3871
Rp3872
sVme
p3873
g3779
(g3783
S'\x82\x00\x00\x00\x00\x00\x00\x00'
p3874
tp3875
Rp3876
sVreport
p3877
g3779
(g3783
S'\xb4\x00\x00\x00\x00\x00\x00\x00'
p3878
tp3879
Rp3880
sVgov
p3881
g3779
(g3783
S'_\x00\x00\x00\x00\x00\x00\x00'
p3882
tp3883
Rp3884
sVwednesday
p3885
g3779
(g3783
S'\xf3\x00\x00\x00\x00\x00\x00\x00'
p3886
tp3887
Rp3888
sVcloudy
p3889
g3779
(g3783
S'%\x00\x00\x00\x00\x00\x00\x00'
p3890
tp3891
Rp3892
sVtry
p3893
g3779
(g3783
S'\xe5\x00\x00\x00\x00\x00\x00\x00'
p3894
tp3895
Rp3896
sVtunez
p3897
g3779
(g3783
S'\xe9\x00\x00\x00\x00\x00\x00\x00'
p3898
tp3899
Rp3900
sVstuff
p3901
g3779
(g3783
S'\xd1\x00\x00\x00\x00\x00\x00\x00'
p3902
tp3903
Rp3904
sVtunes
p3905
g3779
(g3783
S'\xe8\x00\x00\x00\x00\x00\x00\x00'
p3906
tp3907
Rp3908
sVhwat
p3909
g3779
(g3783
S'h\x00\x00\x00\x00\x00\x00\x00'
p3910
tp3911
Rp3912
sVteh
p3913
g3779
(g3783
S'\xd5\x00\x00\x00\x00\x00\x00\x00'
p3914
tp3915
Rp3916
sVset
p3917
g3779
(g3783
S'\xc0\x00\x00\x00\x00\x00\x00\x00'
p3918
tp3919
Rp3920
sVintelligence
p3921
g3779
(g3783
S'q\x00\x00\x00\x00\x00\x00\x00'
p3922
tp3923
Rp3924
sVsee
p3925
g3779
(g3783
S'\xbe\x00\x00\x00\x00\x00\x00\x00'
p3926
tp3927
Rp3928
sVcomputer
p3929
g3779
(g3783
S')\x00\x00\x00\x00\x00\x00\x00'
p3930
tp3931
Rp3932
sVare
p3933
g3779
(g3783
S'\x0c\x00\x00\x00\x00\x00\x00\x00'
p3934
tp3935
Rp3936
sVclose
p3937
g3779
(g3783
S'$\x00\x00\x00\x00\x00\x00\x00'
p3938
tp3939
Rp3940
sVcalendar
p3941
g3779
(g3783
S'\x1c\x00\x00\x00\x00\x00\x00\x00'
p3942
tp3943
Rp3944
sVgmail
p3945
g3779
(g3783
S'Y\x00\x00\x00\x00\x00\x00\x00'
p3946
tp3947
Rp3948
sVwhat
p3949
g3779
(g3783
S'\xf5\x00\x00\x00\x00\x00\x00\x00'
p3950
tp3951
Rp3952
sVclock
p3953
g3779
(g3783
S'#\x00\x00\x00\x00\x00\x00\x00'
p3954
tp3955
Rp3956
sVcurrently
p3957
g3779
(g3783
S'.\x00\x00\x00\x00\x00\x00\x00'
p3958
tp3959
Rp3960
sVplease
p3961
g3779
(g3783
S'\x9e\x00\x00\x00\x00\x00\x00\x00'
p3962
tp3963
Rp3964
sVbrief
p3965
g3779
(g3783
S'\x16\x00\x00\x00\x00\x00\x00\x00'
p3966
tp3967
Rp3968
sVforecast
p3969
g3779
(g3783
S'O\x00\x00\x00\x00\x00\x00\x00'
p3970
tp3971
Rp3972
sVcurrent
p3973
g3779
(g3783
S'-\x00\x00\x00\x00\x00\x00\x00'
p3974
tp3975
Rp3976
sVabove
p3977
g3779
(g3783
S'\x00\x00\x00\x00\x00\x00\x00\x00'
p3978
tp3979
Rp3980
sVnew
p3981
g3779
(g3783
S'\x8b\x00\x00\x00\x00\x00\x00\x00'
p3982
tp3983
Rp3984
sVnet
p3985
g3779
(g3783
S'\x89\x00\x00\x00\x00\x00\x00\x00'
p3986
tp3987
Rp3988
sVbefore
p3989
g3779
(g3783
S'\x14\x00\x00\x00\x00\x00\x00\x00'
p3990
tp3991
Rp3992
sVwe
p3993
g3779
(g3783
S'\xf1\x00\x00\x00\x00\x00\x00\x00'
p3994
tp3995
Rp3996
sVfriday
p3997
g3779
(g3783
S'R\x00\x00\x00\x00\x00\x00\x00'
p3998
tp3999
Rp4000
sVscreen
p4001
g3779
(g3783
S'\xbc\x00\x00\x00\x00\x00\x00\x00'
p4002
tp4003
Rp4004
sVnever
p4005
g3779
(g3783
S'\x8a\x00\x00\x00\x00\x00\x00\x00'
p4006
tp4007
Rp4008
sVfree
p4009
g3779
(g3783
S'P\x00\x00\x00\x00\x00\x00\x00'
p4010
tp4011
Rp4012
sVactive
p4013
g3779
(g3783
S'\x01\x00\x00\x00\x00\x00\x00\x00'
p4014
tp4015
Rp4016
sVnews
p4017
g3779
(g3783
S'\x8c\x00\x00\x00\x00\x00\x00\x00'
p4018
tp4019
Rp4020
sVsearch
p4021
g3779
(g3783
S'\xbd\x00\x00\x00\x00\x00\x00\x00'
p4022
tp4023
Rp4024
sVlast
p4025
g3779
(g3783
S'w\x00\x00\x00\x00\x00\x00\x00'
p4026
tp4027
Rp4028
sVahead
p4029
g3779
(g3783
S'\x03\x00\x00\x00\x00\x00\x00\x00'
p4030
tp4031
Rp4032
sVquiet
p4033
g3779
(g3783
S'\xa9\x00\x00\x00\x00\x00\x00\x00'
p4034
tp4035
Rp4036
sVbrowsing
p4037
g3779
(g3783
S'\x19\x00\x00\x00\x00\x00\x00\x00'
p4038
tp4039
Rp4040
sVcom
p4041
g3779
(g3783
S"'\x00\x00\x00\x00\x00\x00\x00"
p4042
tp4043
Rp4044
sVpoint
p4045
g3779
(g3783
S'\x9f\x00\x00\x00\x00\x00\x00\x00'
p4046
tp4047
Rp4048
sVsimple
p4049
g3779
(g3783
S'\xc5\x00\x00\x00\x00\x00\x00\x00'
p4050
tp4051
Rp4052
sVsweet
p4053
g3779
(g3783
S'\xd3\x00\x00\x00\x00\x00\x00\x00'
p4054
tp4055
Rp4056
sVtuesday
p4057
g3779
(g3783
S'\xe6\x00\x00\x00\x00\x00\x00\x00'
p4058
tp4059
Rp4060
sVdecrease
p4061
g3779
(g3783
S'3\x00\x00\x00\x00\x00\x00\x00'
p4062
tp4063
Rp4064
sVthursday
p4065
g3779
(g3783
S'\xde\x00\x00\x00\x00\x00\x00\x00'
p4066
tp4067
Rp4068
sVshutdown
p4069
g3779
(g3783
S'\xc4\x00\x00\x00\x00\x00\x00\x00'
p4070
tp4071
Rp4072
sVfake
p4073
g3779
(g3783
S'H\x00\x00\x00\x00\x00\x00\x00'
p4074
tp4075
Rp4076
sVquit
p4077
g3779
(g3783
S'\xab\x00\x00\x00\x00\x00\x00\x00'
p4078
tp4079
Rp4080
sVwould
p4081
g3779
(g3783
S'\xfb\x00\x00\x00\x00\x00\x00\x00'
p4082
tp4083
Rp4084
sVsake
p4085
g3779
(g3783
S'\xb8\x00\x00\x00\x00\x00\x00\x00'
p4086
tp4087
Rp4088
sVdecent
p4089
g3779
(g3783
S'2\x00\x00\x00\x00\x00\x00\x00'
p4090
tp4091
Rp4092
sVcreate
p4093
g3779
(g3783
S',\x00\x00\x00\x00\x00\x00\x00'
p4094
tp4095
Rp4096
sVadd
p4097
g3779
(g3783
S'\x02\x00\x00\x00\x00\x00\x00\x00'
p4098
tp4099
Rp4100
sVnext
p4101
g3779
(g3783
S'\x8e\x00\x00\x00\x00\x00\x00\x00'
p4102
tp4103
Rp4104
sValmost
p4105
g3779
(g3783
S'\x06\x00\x00\x00\x00\x00\x00\x00'
p4106
tp4107
Rp4108
sVlive
p4109
g3779
(g3783
S'z\x00\x00\x00\x00\x00\x00\x00'
p4110
tp4111
Rp4112
sVprogram
p4113
g3779
(g3783
S'\xa6\x00\x00\x00\x00\x00\x00\x00'
p4114
tp4115
Rp4116
sVdont
p4117
g3779
(g3783
S'<\x00\x00\x00\x00\x00\x00\x00'
p4118
tp4119
Rp4120
sVtell
p4121
g3779
(g3783
S'\xd6\x00\x00\x00\x00\x00\x00\x00'
p4122
tp4123
Rp4124
sVtoday
p4125
g3779
(g3783
S'\xe1\x00\x00\x00\x00\x00\x00\x00'
p4126
tp4127
Rp4128
sVreleasing
p4129
g3779
(g3783
S'\xb3\x00\x00\x00\x00\x00\x00\x00'
p4130
tp4131
Rp4132
sVwritting
p4133
g3779
(g3783
S'\xfc\x00\x00\x00\x00\x00\x00\x00'
p4134
tp4135
Rp4136
sVcommands
p4137
g3779
(g3783
S'(\x00\x00\x00\x00\x00\x00\x00'
p4138
tp4139
Rp4140
sVit
p4141
g3779
(g3783
S'u\x00\x00\x00\x00\x00\x00\x00'
p4142
tp4143
Rp4144
sVfreezing
p4145
g3779
(g3783
S'Q\x00\x00\x00\x00\x00\x00\x00'
p4146
tp4147
Rp4148
sVtrain
p4149
g3779
(g3783
S'\xe4\x00\x00\x00\x00\x00\x00\x00'
p4150
tp4151
Rp4152
sVstick
p4153
g3779
(g3783
S'\xcf\x00\x00\x00\x00\x00\x00\x00'
p4154
tp4155
Rp4156
sVfoggy
p4157
g3779
(g3783
S'M\x00\x00\x00\x00\x00\x00\x00'
p4158
tp4159
Rp4160
sVsound
p4161
g3779
(g3783
S'\xcb\x00\x00\x00\x00\x00\x00\x00'
p4162
tp4163
Rp4164
sVthis
p4165
g3779
(g3783
S'\xdd\x00\x00\x00\x00\x00\x00\x00'
p4166
tp4167
Rp4168
sVwill
p4169
g3779
(g3783
S'\xf8\x00\x00\x00\x00\x00\x00\x00'
p4170
tp4171
Rp4172
sVcan
p4173
g3779
(g3783
S'\x1e\x00\x00\x00\x00\x00\x00\x00'
p4174
tp4175
Rp4176
sVmy
p4177
g3779
(g3783
S'\x88\x00\x00\x00\x00\x00\x00\x00'
p4178
tp4179
Rp4180
sVdee
p4181
g3779
(g3783
S'4\x00\x00\x00\x00\x00\x00\x00'
p4182
tp4183
Rp4184
sVgive
p4185
g3779
(g3783
S'X\x00\x00\x00\x00\x00\x00\x00'
p4186
tp4187
Rp4188
sVpredict
p4189
g3779
(g3783
S'\xa1\x00\x00\x00\x00\x00\x00\x00'
p4190
tp4191
Rp4192
sVlock
p4193
g3779
(g3783
S'{\x00\x00\x00\x00\x00\x00\x00'
p4194
tp4195
Rp4196
sVis
p4197
g3779
(g3783
S'r\x00\x00\x00\x00\x00\x00\x00'
p4198
tp4199
Rp4200
sVfuck
p4201
g3779
(g3783
S'S\x00\x00\x00\x00\x00\x00\x00'
p4202
tp4203
Rp4204
sVin
p4205
g3779
(g3783
S'k\x00\x00\x00\x00\x00\x00\x00'
p4206
tp4207
Rp4208
sVif
p4209
g3779
(g3783
S'i\x00\x00\x00\x00\x00\x00\x00'
p4210
tp4211
Rp4212
sVinformation
p4213
g3779
(g3783
S'n\x00\x00\x00\x00\x00\x00\x00'
p4214
tp4215
Rp4216
sVmake
p4217
g3779
(g3783
S'\x80\x00\x00\x00\x00\x00\x00\x00'
p4218
tp4219
Rp4220
sVsong
p4221
g3779
(g3783
S'\xca\x00\x00\x00\x00\x00\x00\x00'
p4222
tp4223
Rp4224
sVfeature
p4225
g3779
(g3783
S'I\x00\x00\x00\x00\x00\x00\x00'
p4226
tp4227
Rp4228
sVsame
p4229
g3779
(g3783
S'\xb9\x00\x00\x00\x00\x00\x00\x00'
p4230
tp4231
Rp4232
sVany
p4233
g3779
(g3783
S'\n\x00\x00\x00\x00\x00\x00\x00'
p4234
tp4235
Rp4236
sVbeside
p4237
g3779
(g3783
S'\x15\x00\x00\x00\x00\x00\x00\x00'
p4238
tp4239
Rp4240
sVread
p4241
g3779
(g3783
S'\xb1\x00\x00\x00\x00\x00\x00\x00'
p4242
tp4243
Rp4244
sVhot
p4245
g3779
(g3783
S'f\x00\x00\x00\x00\x00\x00\x00'
p4246
tp4247
Rp4248
sVanswer
p4249
g3779
(g3783
S'\t\x00\x00\x00\x00\x00\x00\x00'
p4250
tp4251
Rp4252
sVdocument
p4253
g3779
(g3783
S'9\x00\x00\x00\x00\x00\x00\x00'
p4254
tp4255
Rp4256
sVevents
p4257
g3779
(g3783
S'E\x00\x00\x00\x00\x00\x00\x00'
p4258
tp4259
Rp4260
sVhigher
p4261
g3779
(g3783
S'e\x00\x00\x00\x00\x00\x00\x00'
p4262
tp4263
Rp4264
sVweek
p4265
g3779
(g3783
S'\xf4\x00\x00\x00\x00\x00\x00\x00'
p4266
tp4267
Rp4268
sVokay
p4269
g3779
(g3783
S'\x95\x00\x00\x00\x00\x00\x00\x00'
p4270
tp4271
Rp4272
sVwatch
p4273
g3779
(g3783
S'\xf0\x00\x00\x00\x00\x00\x00\x00'
p4274
tp4275
Rp4276
sVearlier
p4277
g3779
(g3783
S'@\x00\x00\x00\x00\x00\x00\x00'
p4278
tp4279
Rp4280
sVquieter
p4281
g3779
(g3783
S'\xaa\x00\x00\x00\x00\x00\x00\x00'
p4282
tp4283
Rp4284
sVrain
p4285
g3779
(g3783
S'\xac\x00\x00\x00\x00\x00\x00\x00'
p4286
tp4287
Rp4288
sVbyebye
p4289
g3779
(g3783
S'\x1b\x00\x00\x00\x00\x00\x00\x00'
p4290
tp4291
Rp4292
sVdata
p4293
g3779
(g3783
S'/\x00\x00\x00\x00\x00\x00\x00'
p4294
tp4295
Rp4296
sVtune
p4297
g3779
(g3783
S'\xe7\x00\x00\x00\x00\x00\x00\x00'
p4298
tp4299
Rp4300
sVlower
p4301
g3779
(g3783
S'~\x00\x00\x00\x00\x00\x00\x00'
p4302
tp4303
Rp4304
sVoff
p4305
g3779
(g3783
S'\x94\x00\x00\x00\x00\x00\x00\x00'
p4306
tp4307
Rp4308
sVtale
p4309
g3779
(g3783
S'\xd4\x00\x00\x00\x00\x00\x00\x00'
p4310
tp4311
Rp4312
sVthe
p4313
g3779
(g3783
S'\xda\x00\x00\x00\x00\x00\x00\x00'
p4314
tp4315
Rp4316
sVplaying
p4317
g3779
(g3783
S'\x9d\x00\x00\x00\x00\x00\x00\x00'
p4318
tp4319
Rp4320
sVlatest
p4321
g3779
(g3783
S'x\x00\x00\x00\x00\x00\x00\x00'
p4322
tp4323
Rp4324
sVmute
p4325
g3779
(g3783
S'\x87\x00\x00\x00\x00\x00\x00\x00'
p4326
tp4327
Rp4328
sVkill
p4329
g3779
(g3783
S'v\x00\x00\x00\x00\x00\x00\x00'
p4330
tp4331
Rp4332
sVusing
p4333
g3779
(g3783
S'\xee\x00\x00\x00\x00\x00\x00\x00'
p4334
tp4335
Rp4336
sVcold
p4337
g3779
(g3783
S'&\x00\x00\x00\x00\x00\x00\x00'
p4338
tp4339
Rp4340
sVprevious
p4341
g3779
(g3783
S'\xa3\x00\x00\x00\x00\x00\x00\x00'
p4342
tp4343
Rp4344
sVspotify
p4345
g3779
(g3783
S'\xcc\x00\x00\x00\x00\x00\x00\x00'
p4346
tp4347
Rp4348
sVcall
p4349
g3779
(g3783
S'\x1d\x00\x00\x00\x00\x00\x00\x00'
p4350
tp4351
Rp4352
sVsunday
p4353
g3779
(g3783
S'\xd2\x00\x00\x00\x00\x00\x00\x00'
p4354
tp4355
Rp4356
sVwindow
p4357
g3779
(g3783
S'\xf9\x00\x00\x00\x00\x00\x00\x00'
p4358
tp4359
Rp4360
sVmail
p4361
g3779
(g3783
S'\x7f\x00\x00\x00\x00\x00\x00\x00'
p4362
tp4363
Rp4364
sVbye
p4365
g3779
(g3783
S'\x1a\x00\x00\x00\x00\x00\x00\x00'
p4366
tp4367
Rp4368
sVreal
p4369
g3779
(g3783
S'\xb2\x00\x00\x00\x00\x00\x00\x00'
p4370
tp4371
Rp4372
sVgood
p4373
g3779
(g3783
S'\\\x00\x00\x00\x00\x00\x00\x00'
p4374
tp4375
Rp4376
sVemergency
p4377
g3779
(g3783
S'C\x00\x00\x00\x00\x00\x00\x00'
p4378
tp4379
Rp4380
sVya
p4381
g3779
(g3783
S'\xfd\x00\x00\x00\x00\x00\x00\x00'
p4382
tp4383
Rp4384
sVmaterial
p4385
g3779
(g3783
S'\x81\x00\x00\x00\x00\x00\x00\x00'
p4386
tp4387
Rp4388
sVnot
p4389
g3779
(g3783
S'\x91\x00\x00\x00\x00\x00\x00\x00'
p4390
tp4391
Rp4392
sVworld
p4393
g3779
(g3783
S'\xfa\x00\x00\x00\x00\x00\x00\x00'
p4394
tp4395
Rp4396
sVnow
p4397
g3779
(g3783
S'\x92\x00\x00\x00\x00\x00\x00\x00'
p4398
tp4399
Rp4400
sVday
p4401
g3779
(g3783
S'0\x00\x00\x00\x00\x00\x00\x00'
p4402
tp4403
Rp4404
sVdreams
p4405
g3779
(g3783
S'?\x00\x00\x00\x00\x00\x00\x00'
p4406
tp4407
Rp4408
sVintel
p4409
g3779
(g3783
S'p\x00\x00\x00\x00\x00\x00\x00'
p4410
tp4411
Rp4412
sVshoulder
p4413
g3779
(g3783
S'\xc2\x00\x00\x00\x00\x00\x00\x00'
p4414
tp4415
Rp4416
sValex
p4417
g3779
(g3783
S'\x04\x00\x00\x00\x00\x00\x00\x00'
p4418
tp4419
Rp4420
sVlike
p4421
g3779
(g3783
S'y\x00\x00\x00\x00\x00\x00\x00'
p4422
tp4423
Rp4424
sVgossips
p4425
g3779
(g3783
S'^\x00\x00\x00\x00\x00\x00\x00'
p4426
tp4427
Rp4428
sVdidn
p4429
g3779
(g3783
S'7\x00\x00\x00\x00\x00\x00\x00'
p4430
tp4431
Rp4432
sValice
p4433
g3779
(g3783
S'\x05\x00\x00\x00\x00\x00\x00\x00'
p4434
tp4435
Rp4436
sVgimme
p4437
g3779
(g3783
S'W\x00\x00\x00\x00\x00\x00\x00'
p4438
tp4439
Rp4440
sVcontinue
p4441
g3779
(g3783
S'*\x00\x00\x00\x00\x00\x00\x00'
p4442
tp4443
Rp4444
sVnight
p4445
g3779
(g3783
S'\x8f\x00\x00\x00\x00\x00\x00\x00'
p4446
tp4447
Rp4448
sVclassifier
p4449
g3779
(g3783
S'"\x00\x00\x00\x00\x00\x00\x00'
p4450
tp4451
Rp4452
sVgoogle
p4453
g3779
(g3783
S']\x00\x00\x00\x00\x00\x00\x00'
p4454
tp4455
Rp4456
sVretrieve
p4457
g3779
(g3783
S'\xb6\x00\x00\x00\x00\x00\x00\x00'
p4458
tp4459
Rp4460
sVee
p4461
g3779
(g3783
S'B\x00\x00\x00\x00\x00\x00\x00'
p4462
tp4463
Rp4464
sVback
p4465
g3779
(g3783
S'\x0f\x00\x00\x00\x00\x00\x00\x00'
p4466
tp4467
Rp4468
sVhail
p4469
g3779
(g3783
S'a\x00\x00\x00\x00\x00\x00\x00'
p4470
tp4471
Rp4472
sVextract
p4473
g3779
(g3783
S'G\x00\x00\x00\x00\x00\x00\x00'
p4474
tp4475
Rp4476
sVevent
p4477
g3779
(g3783
S'D\x00\x00\x00\x00\x00\x00\x00'
p4478
tp4479
Rp4480
sVout
p4481
g3779
(g3783
S'\x99\x00\x00\x00\x00\x00\x00\x00'
p4482
tp4483
Rp4484
sVcategory
p4485
g3779
(g3783
S'\x1f\x00\x00\x00\x00\x00\x00\x00'
p4486
tp4487
Rp4488
sVfor
p4489
g3779
(g3783
S'N\x00\x00\x00\x00\x00\x00\x00'
p4490
tp4491
Rp4492
sVdebrief
p4493
g3779
(g3783
S'1\x00\x00\x00\x00\x00\x00\x00'
p4494
tp4495
Rp4496
sVtomorrow
p4497
g3779
(g3783
S'\xe3\x00\x00\x00\x00\x00\x00\x00'
p4498
tp4499
Rp4500
sVincrease
p4501
g3779
(g3783
S'm\x00\x00\x00\x00\x00\x00\x00'
p4502
tp4503
Rp4504
sVre
p4505
g3779
(g3783
S'\xb0\x00\x00\x00\x00\x00\x00\x00'
p4506
tp4507
Rp4508
sVexit
p4509
g3779
(g3783
S'F\x00\x00\x00\x00\x00\x00\x00'
p4510
tp4511
Rp4512
sVmoderate
p4513
g3779
(g3783
S'\x83\x00\x00\x00\x00\x00\x00\x00'
p4514
tp4515
Rp4516
sVissue
p4517
g3779
(g3783
S't\x00\x00\x00\x00\x00\x00\x00'
p4518
tp4519
Rp4520
sVunpause
p4521
g3779
(g3783
S'\xec\x00\x00\x00\x00\x00\x00\x00'
p4522
tp4523
Rp4524
sVbe
p4525
g3779
(g3783
S'\x11\x00\x00\x00\x00\x00\x00\x00'
p4526
tp4527
Rp4528
sVshut
p4529
g3779
(g3783
S'\xc3\x00\x00\x00\x00\x00\x00\x00'
p4530
tp4531
Rp4532
sVnoise
p4533
g3779
(g3783
S'\x90\x00\x00\x00\x00\x00\x00\x00'
p4534
tp4535
Rp4536
sVresume
p4537
g3779
(g3783
S'\xb5\x00\x00\x00\x00\x00\x00\x00'
p4538
tp4539
Rp4540
sVdictates
p4541
g3779
(g3783
S'6\x00\x00\x00\x00\x00\x00\x00'
p4542
tp4543
Rp4544
sVillustration
p4545
g3779
(g3783
S'j\x00\x00\x00\x00\x00\x00\x00'
p4546
tp4547
Rp4548
sVhow
p4549
g3779
(g3783
S'g\x00\x00\x00\x00\x00\x00\x00'
p4550
tp4551
Rp4552
sVput
p4553
g3779
(g3783
S'\xa7\x00\x00\x00\x00\x00\x00\x00'
p4554
tp4555
Rp4556
sVorg
p4557
g3779
(g3783
S'\x98\x00\x00\x00\x00\x00\x00\x00'
p4558
tp4559
Rp4560
sVpost
p4561
g3779
(g3783
S'\xa0\x00\x00\x00\x00\x00\x00\x00'
p4562
tp4563
Rp4564
sVon
p4565
g3779
(g3783
S'\x96\x00\x00\x00\x00\x00\x00\x00'
p4566
tp4567
Rp4568
sVanything
p4569
g3779
(g3783
S'\x0b\x00\x00\x00\x00\x00\x00\x00'
p4570
tp4571
Rp4572
sVof
p4573
g3779
(g3783
S'\x93\x00\x00\x00\x00\x00\x00\x00'
p4574
tp4575
Rp4576
sVcould
p4577
g3779
(g3783
S'+\x00\x00\x00\x00\x00\x00\x00'
p4578
tp4579
Rp4580
sVturn
p4581
g3779
(g3783
S'\xea\x00\x00\x00\x00\x00\x00\x00'
p4582
tp4583
Rp4584
sVisn
p4585
g3779
(g3783
S's\x00\x00\x00\x00\x00\x00\x00'
p4586
tp4587
Rp4588
sVthink
p4589
g3779
(g3783
S'\xdc\x00\x00\x00\x00\x00\x00\x00'
p4590
tp4591
Rp4592
sVfeed
p4593
g3779
(g3783
S'K\x00\x00\x00\x00\x00\x00\x00'
p4594
tp4595
Rp4596
sVwhats
p4597
g3779
(g3783
S'\xf6\x00\x00\x00\x00\x00\x00\x00'
p4598
tp4599
Rp4600
sVfeatures
p4601
g3779
(g3783
S'J\x00\x00\x00\x00\x00\x00\x00'
p4602
tp4603
Rp4604
sVinfornation
p4605
g3779
(g3783
S'o\x00\x00\x00\x00\x00\x00\x00'
p4606
tp4607
Rp4608
sVyourself
p4609
g3779
(g3783
S'\x00\x01\x00\x00\x00\x00\x00\x00'
p4610
tp4611
Rp4612
sVdown
p4613
g3779
(g3783
S'>\x00\x00\x00\x00\x00\x00\x00'
p4614
tp4615
Rp4616
sVweather
p4617
g3779
(g3783
S'\xf2\x00\x00\x00\x00\x00\x00\x00'
p4618
tp4619
Rp4620
sVinbox
p4621
g3779
(g3783
S'l\x00\x00\x00\x00\x00\x00\x00'
p4622
tp4623
Rp4624
sVopen
p4625
g3779
(g3783
S'\x97\x00\x00\x00\x00\x00\x00\x00'
p4626
tp4627
Rp4628
sVyour
p4629
g3779
(g3783
S'\xff\x00\x00\x00\x00\x00\x00\x00'
p4630
tp4631
Rp4632
sVtemperature
p4633
g3779
(g3783
S'\xd7\x00\x00\x00\x00\x00\x00\x00'
p4634
tp4635
Rp4636
sVaren
p4637
g3779
(g3783
S'\r\x00\x00\x00\x00\x00\x00\x00'
p4638
tp4639
Rp4640
sVthere
p4641
g3779
(g3783
S'\xdb\x00\x00\x00\x00\x00\x00\x00'
p4642
tp4643
Rp4644
sVquestion
p4645
g3779
(g3783
S'\xa8\x00\x00\x00\x00\x00\x00\x00'
p4646
tp4647
Rp4648
sVhey
p4649
g3779
(g3783
S'd\x00\x00\x00\x00\x00\x00\x00'
p4650
tp4651
Rp4652
sVlong
p4653
g3779
(g3783
S'|\x00\x00\x00\x00\x00\x00\x00'
p4654
tp4655
Rp4656
sVstart
p4657
g3779
(g3783
S'\xce\x00\x00\x00\x00\x00\x00\x00'
p4658
tp4659
Rp4660
sVmusic
p4661
g3779
(g3783
S'\x86\x00\x00\x00\x00\x00\x00\x00'
p4662
tp4663
Rp4664
sVdogs
p4665
g3779
(g3783
S':\x00\x00\x00\x00\x00\x00\x00'
p4666
tp4667
Rp4668
sVpretends
p4669
g3779
(g3783
S'\xa2\x00\x00\x00\x00\x00\x00\x00'
p4670
tp4671
Rp4672
sVfunction
p4673
g3779
(g3783
S'T\x00\x00\x00\x00\x00\x00\x00'
p4674
tp4675
Rp4676
sVthat
p4677
g3779
(g3783
S'\xd9\x00\x00\x00\x00\x00\x00\x00'
p4678
tp4679
Rp4680
sVvolume
p4681
g3779
(g3783
S'\xef\x00\x00\x00\x00\x00\x00\x00'
p4682
tp4683
Rp4684
sVtgive
p4685
g3779
(g3783
S'\xd8\x00\x00\x00\x00\x00\x00\x00'
p4686
tp4687
Rp4688
sVunmute
p4689
g3779
(g3783
S'\xeb\x00\x00\x00\x00\x00\x00\x00'
p4690
tp4691
Rp4692
sVup
p4693
g3779
(g3783
S'\xed\x00\x00\x00\x00\x00\x00\x00'
p4694
tp4695
Rp4696
sVlouder
p4697
g3779
(g3783
S'}\x00\x00\x00\x00\x00\x00\x00'
p4698
tp4699
Rp4700
sVbriefing
p4701
g3779
(g3783
S'\x17\x00\x00\x00\x00\x00\x00\x00'
p4702
tp4703
Rp4704
sVproblem
p4705
g3779
(g3783
S'\xa4\x00\x00\x00\x00\x00\x00\x00'
p4706
tp4707
Rp4708
sVoutcome
p4709
g3779
(g3783
S'\x9a\x00\x00\x00\x00\x00\x00\x00'
p4710
tp4711
Rp4712
sVbrowser
p4713
g3779
(g3783
S'\x18\x00\x00\x00\x00\x00\x00\x00'
p4714
tp4715
Rp4716
sVam
p4717
g3779
(g3783
S'\x07\x00\x00\x00\x00\x00\x00\x00'
p4718
tp4719
Rp4720
sVan
p4721
g3779
(g3783
S'\x08\x00\x00\x00\x00\x00\x00\x00'
p4722
tp4723
Rp4724
sVbeats
p4725
g3779
(g3783
S'\x13\x00\x00\x00\x00\x00\x00\x00'
p4726
tp4727
Rp4728
sVright
p4729
g3779
(g3783
S'\xb7\x00\x00\x00\x00\x00\x00\x00'
p4730
tp4731
Rp4732
sVat
p4733
g3779
(g3783
S'\x0e\x00\x00\x00\x00\x00\x00\x00'
p4734
tp4735
Rp4736
sVhave
p4737
g3779
(g3783
S'b\x00\x00\x00\x00\x00\x00\x00'
p4738
tp4739
Rp4740
sVstalls
p4741
g3779
(g3783
S'\xcd\x00\x00\x00\x00\x00\x00\x00'
p4742
tp4743
Rp4744
sVcheck
p4745
g3779
(g3783
S'!\x00\x00\x00\x00\x00\x00\x00'
p4746
tp4747
Rp4748
sVrainy
p4749
g3779
(g3783
S'\xae\x00\x00\x00\x00\x00\x00\x00'
p4750
tp4751
Rp4752
sVzero
p4753
g3779
(g3783
S'\x01\x01\x00\x00\x00\x00\x00\x00'
p4754
tp4755
Rp4756
sVwhen
p4757
g3779
(g3783
S'\xf7\x00\x00\x00\x00\x00\x00\x00'
p4758
tp4759
Rp4760
sVsnow
p4761
g3779
(g3783
S'\xc7\x00\x00\x00\x00\x00\x00\x00'
p4762
tp4763
Rp4764
sVsaturday
p4765
g3779
(g3783
S'\xba\x00\x00\x00\x00\x00\x00\x00'
p4766
tp4767
Rp4768
sVdefault
p4769
g3779
(g3783
S'5\x00\x00\x00\x00\x00\x00\x00'
p4770
tp4771
Rp4772
sVyou
p4773
g3779
(g3783
S'\xfe\x00\x00\x00\x00\x00\x00\x00'
p4774
tp4775
Rp4776
sVplay
p4777
g3779
(g3783
S'\x9c\x00\x00\x00\x00\x00\x00\x00'
p4778
tp4779
Rp4780
sVmonday
p4781
g3779
(g3783
S'\x84\x00\x00\x00\x00\x00\x00\x00'
p4782
tp4783
Rp4784
sVbackbone
p4785
g3779
(g3783
S'\x10\x00\x00\x00\x00\x00\x00\x00'
p4786
tp4787
Rp4788
sVproblems
p4789
g3779
(g3783
S'\xa5\x00\x00\x00\x00\x00\x00\x00'
p4790
tp4791
Rp4792
sVgrief
p4793
g3779
(g3783
S'`\x00\x00\x00\x00\x00\x00\x00'
p4794
tp4795
Rp4796
sVdon
p4797
g3779
(g3783
S';\x00\x00\x00\x00\x00\x00\x00'
p4798
tp4799
Rp4800
sVgather
p4801
g3779
(g3783
S'U\x00\x00\x00\x00\x00\x00\x00'
p4802
tp4803
Rp4804
sVtime
p4805
g3779
(g3783
S'\xdf\x00\x00\x00\x00\x00\x00\x00'
p4806
tp4807
Rp4808
sVnewsfeed
p4809
g3779
(g3783
S'\x8d\x00\x00\x00\x00\x00\x00\x00'
p4810
tp4811
Rp4812
sVdot
p4813
g3779
(g3783
S'=\x00\x00\x00\x00\x00\x00\x00'
p4814
tp4815
Rp4816
ssS'binary'
p4817
I00
sS'ngram_range'
p4818
(I1
I1
tp4819
sg3753
g3754
sS'max_df'
p4820
F1.0
sS'min_df'
p4821
I1
sS'max_features'
p4822
NsS'fixed_vocabulary_'
p4823
I00
sS'strip_accents'
p4824
NsS'dtype'
p4825
cnumpy
int64
p4826
sS'stop_words_'
p4827
c__builtin__
set
p4828
((lp4829
tp4830
Rp4831
sS'preprocessor'
p4832
Nsbtp4833
a(S'tfidf'
p4834
g3747
(csklearn.feature_extraction.text
TfidfTransformer
p4835
g3749
Ntp4836
Rp4837
(dp4838
S'smooth_idf'
p4839
I01
sg3753
g3754
sS'_idf_diag'
p4840
g3747
(cscipy.sparse.csr
csr_matrix
p4841
g3749
Ntp4842
Rp4843
(dp4844
S'indices'
p4845
cnumpy.core.multiarray
_reconstruct
p4846
(cnumpy
ndarray
p4847
(I0
tp4848
S'b'
p4849
tp4850
Rp4851
(I1
(I258
tp4852
g3780
(S'i4'
p4853
I0
I1
tp4854
Rp4855
(I3
S'<'
p4856
NNNI-1
I-1
I0
tp4857
bI00
S'\x00\x00\x00\x00\x01\x00\x00\x00\x02\x00\x00\x00\x03\x00\x00\x00\x04\x00\x00\x00\x05\x00\x00\x00\x06\x00\x00\x00\x07\x00\x00\x00\x08\x00\x00\x00\t\x00\x00\x00\n\x00\x00\x00\x0b\x00\x00\x00\x0c\x00\x00\x00\r\x00\x00\x00\x0e\x00\x00\x00\x0f\x00\x00\x00\x10\x00\x00\x00\x11\x00\x00\x00\x12\x00\x00\x00\x13\x00\x00\x00\x14\x00\x00\x00\x15\x00\x00\x00\x16\x00\x00\x00\x17\x00\x00\x00\x18\x00\x00\x00\x19\x00\x00\x00\x1a\x00\x00\x00\x1b\x00\x00\x00\x1c\x00\x00\x00\x1d\x00\x00\x00\x1e\x00\x00\x00\x1f\x00\x00\x00 \x00\x00\x00!\x00\x00\x00"\x00\x00\x00#\x00\x00\x00$\x00\x00\x00%\x00\x00\x00&\x00\x00\x00\'\x00\x00\x00(\x00\x00\x00)\x00\x00\x00*\x00\x00\x00+\x00\x00\x00,\x00\x00\x00-\x00\x00\x00.\x00\x00\x00/\x00\x00\x000\x00\x00\x001\x00\x00\x002\x00\x00\x003\x00\x00\x004\x00\x00\x005\x00\x00\x006\x00\x00\x007\x00\x00\x008\x00\x00\x009\x00\x00\x00:\x00\x00\x00;\x00\x00\x00<\x00\x00\x00=\x00\x00\x00>\x00\x00\x00?\x00\x00\x00@\x00\x00\x00A\x00\x00\x00B\x00\x00\x00C\x00\x00\x00D\x00\x00\x00E\x00\x00\x00F\x00\x00\x00G\x00\x00\x00H\x00\x00\x00I\x00\x00\x00J\x00\x00\x00K\x00\x00\x00L\x00\x00\x00M\x00\x00\x00N\x00\x00\x00O\x00\x00\x00P\x00\x00\x00Q\x00\x00\x00R\x00\x00\x00S\x00\x00\x00T\x00\x00\x00U\x00\x00\x00V\x00\x00\x00W\x00\x00\x00X\x00\x00\x00Y\x00\x00\x00Z\x00\x00\x00[\x00\x00\x00\\\x00\x00\x00]\x00\x00\x00^\x00\x00\x00_\x00\x00\x00`\x00\x00\x00a\x00\x00\x00b\x00\x00\x00c\x00\x00\x00d\x00\x00\x00e\x00\x00\x00f\x00\x00\x00g\x00\x00\x00h\x00\x00\x00i\x00\x00\x00j\x00\x00\x00k\x00\x00\x00l\x00\x00\x00m\x00\x00\x00n\x00\x00\x00o\x00\x00\x00p\x00\x00\x00q\x00\x00\x00r\x00\x00\x00s\x00\x00\x00t\x00\x00\x00u\x00\x00\x00v\x00\x00\x00w\x00\x00\x00x\x00\x00\x00y\x00\x00\x00z\x00\x00\x00{\x00\x00\x00|\x00\x00\x00}\x00\x00\x00~\x00\x00\x00\x7f\x00\x00\x00\x80\x00\x00\x00\x81\x00\x00\x00\x82\x00\x00\x00\x83\x00\x00\x00\x84\x00\x00\x00\x85\x00\x00\x00\x86\x00\x00\x00\x87\x00\x00\x00\x88\x00\x00\x00\x89\x00\x00\x00\x8a\x00\x00\x00\x8b\x00\x00\x00\x8c\x00\x00\x00\x8d\x00\x00\x00\x8e\x00\x00\x00\x8f\x00\x00\x00\x90\x00\x00\x00\x91\x00\x00\x00\x92\x00\x00\x00\x93\x00\x00\x00\x94\x00\x00\x00\x95\x00\x00\x00\x96\x00\x00\x00\x97\x00\x00\x00\x98\x00\x00\x00\x99\x00\x00\x00\x9a\x00\x00\x00\x9b\x00\x00\x00\x9c\x00\x00\x00\x9d\x00\x00\x00\x9e\x00\x00\x00\x9f\x00\x00\x00\xa0\x00\x00\x00\xa1\x00\x00\x00\xa2\x00\x00\x00\xa3\x00\x00\x00\xa4\x00\x00\x00\xa5\x00\x00\x00\xa6\x00\x00\x00\xa7\x00\x00\x00\xa8\x00\x00\x00\xa9\x00\x00\x00\xaa\x00\x00\x00\xab\x00\x00\x00\xac\x00\x00\x00\xad\x00\x00\x00\xae\x00\x00\x00\xaf\x00\x00\x00\xb0\x00\x00\x00\xb1\x00\x00\x00\xb2\x00\x00\x00\xb3\x00\x00\x00\xb4\x00\x00\x00\xb5\x00\x00\x00\xb6\x00\x00\x00\xb7\x00\x00\x00\xb8\x00\x00\x00\xb9\x00\x00\x00\xba\x00\x00\x00\xbb\x00\x00\x00\xbc\x00\x00\x00\xbd\x00\x00\x00\xbe\x00\x00\x00\xbf\x00\x00\x00\xc0\x00\x00\x00\xc1\x00\x00\x00\xc2\x00\x00\x00\xc3\x00\x00\x00\xc4\x00\x00\x00\xc5\x00\x00\x00\xc6\x00\x00\x00\xc7\x00\x00\x00\xc8\x00\x00\x00\xc9\x00\x00\x00\xca\x00\x00\x00\xcb\x00\x00\x00\xcc\x00\x00\x00\xcd\x00\x00\x00\xce\x00\x00\x00\xcf\x00\x00\x00\xd0\x00\x00\x00\xd1\x00\x00\x00\xd2\x00\x00\x00\xd3\x00\x00\x00\xd4\x00\x00\x00\xd5\x00\x00\x00\xd6\x00\x00\x00\xd7\x00\x00\x00\xd8\x00\x00\x00\xd9\x00\x00\x00\xda\x00\x00\x00\xdb\x00\x00\x00\xdc\x00\x00\x00\xdd\x00\x00\x00\xde\x00\x00\x00\xdf\x00\x00\x00\xe0\x00\x00\x00\xe1\x00\x00\x00\xe2\x00\x00\x00\xe3\x00\x00\x00\xe4\x00\x00\x00\xe5\x00\x00\x00\xe6\x00\x00\x00\xe7\x00\x00\x00\xe8\x00\x00\x00\xe9\x00\x00\x00\xea\x00\x00\x00\xeb\x00\x00\x00\xec\x00\x00\x00\xed\x00\x00\x00\xee\x00\x00\x00\xef\x00\x00\x00\xf0\x00\x00\x00\xf1\x00\x00\x00\xf2\x00\x00\x00\xf3\x00\x00\x00\xf4\x00\x00\x00\xf5\x00\x00\x00\xf6\x00\x00\x00\xf7\x00\x00\x00\xf8\x00\x00\x00\xf9\x00\x00\x00\xfa\x00\x00\x00\xfb\x00\x00\x00\xfc\x00\x00\x00\xfd\x00\x00\x00\xfe\x00\x00\x00\xff\x00\x00\x00\x00\x01\x00\x00\x01\x01\x00\x00'
p4858
tp4859
bsS'indptr'
p4860
g4846
(g4847
(I0
tp4861
g4849
tp4862
Rp4863
(I1
(I259
tp4864
g4855
I00
S'\x00\x00\x00\x00\x01\x00\x00\x00\x02\x00\x00\x00\x03\x00\x00\x00\x04\x00\x00\x00\x05\x00\x00\x00\x06\x00\x00\x00\x07\x00\x00\x00\x08\x00\x00\x00\t\x00\x00\x00\n\x00\x00\x00\x0b\x00\x00\x00\x0c\x00\x00\x00\r\x00\x00\x00\x0e\x00\x00\x00\x0f\x00\x00\x00\x10\x00\x00\x00\x11\x00\x00\x00\x12\x00\x00\x00\x13\x00\x00\x00\x14\x00\x00\x00\x15\x00\x00\x00\x16\x00\x00\x00\x17\x00\x00\x00\x18\x00\x00\x00\x19\x00\x00\x00\x1a\x00\x00\x00\x1b\x00\x00\x00\x1c\x00\x00\x00\x1d\x00\x00\x00\x1e\x00\x00\x00\x1f\x00\x00\x00 \x00\x00\x00!\x00\x00\x00"\x00\x00\x00#\x00\x00\x00$\x00\x00\x00%\x00\x00\x00&\x00\x00\x00\'\x00\x00\x00(\x00\x00\x00)\x00\x00\x00*\x00\x00\x00+\x00\x00\x00,\x00\x00\x00-\x00\x00\x00.\x00\x00\x00/\x00\x00\x000\x00\x00\x001\x00\x00\x002\x00\x00\x003\x00\x00\x004\x00\x00\x005\x00\x00\x006\x00\x00\x007\x00\x00\x008\x00\x00\x009\x00\x00\x00:\x00\x00\x00;\x00\x00\x00<\x00\x00\x00=\x00\x00\x00>\x00\x00\x00?\x00\x00\x00@\x00\x00\x00A\x00\x00\x00B\x00\x00\x00C\x00\x00\x00D\x00\x00\x00E\x00\x00\x00F\x00\x00\x00G\x00\x00\x00H\x00\x00\x00I\x00\x00\x00J\x00\x00\x00K\x00\x00\x00L\x00\x00\x00M\x00\x00\x00N\x00\x00\x00O\x00\x00\x00P\x00\x00\x00Q\x00\x00\x00R\x00\x00\x00S\x00\x00\x00T\x00\x00\x00U\x00\x00\x00V\x00\x00\x00W\x00\x00\x00X\x00\x00\x00Y\x00\x00\x00Z\x00\x00\x00[\x00\x00\x00\\\x00\x00\x00]\x00\x00\x00^\x00\x00\x00_\x00\x00\x00`\x00\x00\x00a\x00\x00\x00b\x00\x00\x00c\x00\x00\x00d\x00\x00\x00e\x00\x00\x00f\x00\x00\x00g\x00\x00\x00h\x00\x00\x00i\x00\x00\x00j\x00\x00\x00k\x00\x00\x00l\x00\x00\x00m\x00\x00\x00n\x00\x00\x00o\x00\x00\x00p\x00\x00\x00q\x00\x00\x00r\x00\x00\x00s\x00\x00\x00t\x00\x00\x00u\x00\x00\x00v\x00\x00\x00w\x00\x00\x00x\x00\x00\x00y\x00\x00\x00z\x00\x00\x00{\x00\x00\x00|\x00\x00\x00}\x00\x00\x00~\x00\x00\x00\x7f\x00\x00\x00\x80\x00\x00\x00\x81\x00\x00\x00\x82\x00\x00\x00\x83\x00\x00\x00\x84\x00\x00\x00\x85\x00\x00\x00\x86\x00\x00\x00\x87\x00\x00\x00\x88\x00\x00\x00\x89\x00\x00\x00\x8a\x00\x00\x00\x8b\x00\x00\x00\x8c\x00\x00\x00\x8d\x00\x00\x00\x8e\x00\x00\x00\x8f\x00\x00\x00\x90\x00\x00\x00\x91\x00\x00\x00\x92\x00\x00\x00\x93\x00\x00\x00\x94\x00\x00\x00\x95\x00\x00\x00\x96\x00\x00\x00\x97\x00\x00\x00\x98\x00\x00\x00\x99\x00\x00\x00\x9a\x00\x00\x00\x9b\x00\x00\x00\x9c\x00\x00\x00\x9d\x00\x00\x00\x9e\x00\x00\x00\x9f\x00\x00\x00\xa0\x00\x00\x00\xa1\x00\x00\x00\xa2\x00\x00\x00\xa3\x00\x00\x00\xa4\x00\x00\x00\xa5\x00\x00\x00\xa6\x00\x00\x00\xa7\x00\x00\x00\xa8\x00\x00\x00\xa9\x00\x00\x00\xaa\x00\x00\x00\xab\x00\x00\x00\xac\x00\x00\x00\xad\x00\x00\x00\xae\x00\x00\x00\xaf\x00\x00\x00\xb0\x00\x00\x00\xb1\x00\x00\x00\xb2\x00\x00\x00\xb3\x00\x00\x00\xb4\x00\x00\x00\xb5\x00\x00\x00\xb6\x00\x00\x00\xb7\x00\x00\x00\xb8\x00\x00\x00\xb9\x00\x00\x00\xba\x00\x00\x00\xbb\x00\x00\x00\xbc\x00\x00\x00\xbd\x00\x00\x00\xbe\x00\x00\x00\xbf\x00\x00\x00\xc0\x00\x00\x00\xc1\x00\x00\x00\xc2\x00\x00\x00\xc3\x00\x00\x00\xc4\x00\x00\x00\xc5\x00\x00\x00\xc6\x00\x00\x00\xc7\x00\x00\x00\xc8\x00\x00\x00\xc9\x00\x00\x00\xca\x00\x00\x00\xcb\x00\x00\x00\xcc\x00\x00\x00\xcd\x00\x00\x00\xce\x00\x00\x00\xcf\x00\x00\x00\xd0\x00\x00\x00\xd1\x00\x00\x00\xd2\x00\x00\x00\xd3\x00\x00\x00\xd4\x00\x00\x00\xd5\x00\x00\x00\xd6\x00\x00\x00\xd7\x00\x00\x00\xd8\x00\x00\x00\xd9\x00\x00\x00\xda\x00\x00\x00\xdb\x00\x00\x00\xdc\x00\x00\x00\xdd\x00\x00\x00\xde\x00\x00\x00\xdf\x00\x00\x00\xe0\x00\x00\x00\xe1\x00\x00\x00\xe2\x00\x00\x00\xe3\x00\x00\x00\xe4\x00\x00\x00\xe5\x00\x00\x00\xe6\x00\x00\x00\xe7\x00\x00\x00\xe8\x00\x00\x00\xe9\x00\x00\x00\xea\x00\x00\x00\xeb\x00\x00\x00\xec\x00\x00\x00\xed\x00\x00\x00\xee\x00\x00\x00\xef\x00\x00\x00\xf0\x00\x00\x00\xf1\x00\x00\x00\xf2\x00\x00\x00\xf3\x00\x00\x00\xf4\x00\x00\x00\xf5\x00\x00\x00\xf6\x00\x00\x00\xf7\x00\x00\x00\xf8\x00\x00\x00\xf9\x00\x00\x00\xfa\x00\x00\x00\xfb\x00\x00\x00\xfc\x00\x00\x00\xfd\x00\x00\x00\xfe\x00\x00\x00\xff\x00\x00\x00\x00\x01\x00\x00\x01\x01\x00\x00\x02\x01\x00\x00'
p4865
tp4866
bsS'maxprint'
p4867
I50
sS'_shape'
p4868
(I258
I258
tp4869
sg12
g4846
(g4847
(I0
tp4870
g4849
tp4871
Rp4872
(I1
(I258
tp4873
g3780
(S'f8'
p4874
I0
I1
tp4875
Rp4876
(I3
S'<'
p4877
NNNI-1
I-1
I0
tp4878
bI00
S'\x1c\xbe\x99\xe4\x86Z\x1f@Ja\xd2\'DK\x17@{\xa1[\xcd\xba\xae\x13@\xc4n\xec\x98\xb2W\x1a@\xdev\xba\x84\xbe\x94\x1c@\xb4i\xb9h\xdd\x88\x18@\x1c\xbe\x99\xe4\x86Z\x1f@$\xa1\x1ceeC\x14@\x86d\x97\xe1k\x93\x13@\x1c\xbe\x99\xe4\x86Z\x1f@\x16\x85\x00G\x1d\x99\x10@\xe6\xdf\xec\xa0\x83\xda\x0b@8\xdb\xfa\xa8L\xfd\x12@H\xe0-\xd9!\xcc\x14@\x1c\xbe\x99\xe4\x86Z\x1f@\xc4n\xec\x98\xb2W\x1a@\x1c\xbe\x99\xe4\x86Z\x1f@\x97\xc4\xcd\xa5T\xbb\x1d@\xcfZ\x9efv\xea\x18@\x1c\xbe\x99\xe4\x86Z\x1f@\x97\xc4\xcd\xa5T\xbb\x1d@\x97\xc4\xcd\xa5T\xbb\x1d@\x97\xc4\xcd\xa5T\xbb\x1d@\x97\xc4\xcd\xa5T\xbb\x1d@J\x06\x92\xde2\xa8\x14@\xdev\xba\x84\xbe\x94\x1c@Y}\xeeE\x8c\xf5\x1a@\x1c\xbe\x99\xe4\x86Z\x1f@\xfc{ss\xaa\xde\x0e@\x1c\xbe\x99\xe4\x86Z\x1f@\xa6\x15i\x97\xad\x06\x0b@\x1c\xbe\x99\xe4\x86Z\x1f@\x1c\xbe\x99\xe4\x86Z\x1f@\xa2\x0e\xc8u(\xd4\x07@\x1c\xbe\x99\xe4\x86Z\x1f@\xdd\xee/\x86\xfbi\x15@v"\xda\x08\x15\xc3\x15@\xd5\x83"\x07ZV\x19@\xd5\x83"\x07ZV\x19@\r\xa2}\xc6>\xb0\x1b@\x1c\xbe\x99\xe4\x86Z\x1f@\n\x99NyY\x06\x12@\x1c\xbe\x99\xe4\x86Z\x1f@J\xd9G)\x81 \x10@{\xa1[\xcd\xba\xae\x13@b\xc2\xe3\xc0\xae\xb0\r@\x1c\xbe\x99\xe4\x86Z\x1f@\x1c\xbe\x99\xe4\x86Z\x1f@_~\x9c\x03Q\x05\x14@\x97\xc4\xcd\xa5T\xbb\x1d@\x1c\xbe\x99\xe4\x86Z\x1f@\x97\xc4\xcd\xa5T\xbb\x1d@\x97\xc4\xcd\xa5T\xbb\x1d@\xb4i\xb9h\xdd\x88\x18@\x1c\xbe\x99\xe4\x86Z\x1f@\x1c\xbe\x99\xe4\x86Z\x1f@\xbd\xec#\n\x1c\xb5\t@\x1c\xbe\x99\xe4\x86Z\x1f@\x1c\xbe\x99\xe4\x86Z\x1f@M)\x0b\xa2\xe8O\r@\x9d\xc5{c\x19\xcb\x16@Ja\xd2\'DK\x17@{\xa1[\xcd\xba\xae\x13@\x97\xc4\xcd\xa5T\xbb\x1d@\x1c\xbe\x99\xe4\x86Z\x1f@\x97\xc4\xcd\xa5T\xbb\x1d@\x97\xc4\xcd\xa5T\xbb\x1d@\x1c\xbe\x99\xe4\x86Z\x1f@\xfbE-\xc1Dp\x0c@\xb9Ss\x106\x97\t@\r\xa2}\xc6>\xb0\x1b@\x1c\xbe\x99\xe4\x86Z\x1f@\x97\xc4\xcd\xa5T\xbb\x1d@\x1c\xbe\x99\xe4\x86Z\x1f@\x1c\xbe\x99\xe4\x86Z\x1f@3\xaf\xb1\xa1\x9cE\x13@\xf1(\x0e\xca\xe2#\x14@\xd5\x83"\x07ZV\x19@R~\xbd\x15\t\xa6\x0e@\x01.A\xfa\xb7\xf2\x15@\xado0 \xe8c\x14@\xd5\x83"\x07ZV\x19@\x0c\x1a\xf3\xc7{\x85\x14@\x1c\xbe\x99\xe4\x86Z\x1f@\x1c\xbe\x99\xe4\x86Z\x1f@\xd5\x83"\x07ZV\x19@i\x95\x8b\xf8N\x05\x0f@\x97\xc4\xcd\xa5T\xbb\x1d@H\xe0-\xd9!\xcc\x14@q\xc1`]\x80\x93\x0e@\xc0>\x82H.@\x15@1?\xe0.\xcd\xdd\x17@\xdev\xba\x84\xbe\x94\x1c@\xb6\xb0!o<R\x12@\x1c\xbe\x99\xe4\x86Z\x1f@\x97\xc4\xcd\xa5T\xbb\x1d@\x1c\xbe\x99\xe4\x86Z\x1f@\x97\xc4\xcd\xa5T\xbb\x1d@\xd6\x07\xfczI\xc9\t@{\xa1[\xcd\xba\xae\x13@\x97\xc4\xcd\xa5T\xbb\x1d@\xa0/\xdb$\xf6\xce\x19@\xd5\x83"\x07ZV\x19@\x86\'\r9\xea\x91\x17@\x1c\xbe\x99\xe4\x86Z\x1f@\xda\x84\xd0\xc4\x1ef\x12@\x1c\xbe\x99\xe4\x86Z\x1f@\xab\x01`\xf3\x8c\x12\x0b@\x14H\x8f\xd9\x0eO\x10@\x1c\xbe\x99\xe4\x86Z\x1f@1?\xe0.\xcd\xdd\x17@\x97\xc4\xcd\xa5T\xbb\x1d@\xc4n\xec\x98\xb2W\x1a@\x97\xc4\xcd\xa5T\xbb\x1d@\x17GA\xa6\xb6\x8c\x0c@\x86\'\r9\xea\x91\x17@\x1c\xbe\x99\xe4\x86Z\x1f@\x9c\xa8S\x830\x15\x10@\xf3\xf7\x00\xcf\x04\x18\x15@1?\xe0.\xcd\xdd\x17@\x86\'\r9\xea\x91\x17@\x1c\xbe\x99\xe4\x86Z\x1f@M\x99fY\xc6\xae\x11@\xf3\xf7\x00\xcf\x04\x18\x15@\x1c\xbe\x99\xe4\x86Z\x1f@Y}\xeeE\x8c\xf5\x1a@\xc4n\xec\x98\xb2W\x1a@\x99\xa3\xde2"\x81\x0e@\xfe\x8c\xb0,\xc2\xb9\x12@\x1c\xbe\x99\xe4\x86Z\x1f@\x14H\x8f\xd9\x0eO\x10@\x1c\xbe\x99\xe4\x86Z\x1f@\x0c\x1a\xf3\xc7{\x85\x14@\x0c\x1a\xf3\xc7{\x85\x14@\x97\xc4\xcd\xa5T\xbb\x1d@\r\xa2}\xc6>\xb0\x1b@sD\xc6^W\x8d\t@\x97\xc4\xcd\xa5T\xbb\x1d@\x1c\xbe\x99\xe4\x86Z\x1f@\xab\x01`\xf3\x8c\x12\x0b@R\x19\xd4\xb5l\xc0\x0b@S\xcc\xdf\xa6\xe5^\x13@{\xa1[\xcd\xba\xae\x13@\x97\xc4\xcd\xa5T\xbb\x1d@\x1c\xbe\x99\xe4\x86Z\x1f@\x14H\x8f\xd9\x0eO\x10@\xcfZ\x9efv\xea\x18@\r\xa2}\xc6>\xb0\x1b@\x86d\x97\xe1k\x93\x13@\x97\xc4\xcd\xa5T\xbb\x1d@jQ.\xe1\xf2N\x06@]\xd0\xc5V\xd0}\x0f@\x97\xc4\xcd\xa5T\xbb\x1d@\r\xa2}\xc6>\xb0\x1b@\x1c\xbe\x99\xe4\x86Z\x1f@\x9d\xc5{c\x19\xcb\x16@\x86\'\r9\xea\x91\x17@\x97\xc4\xcd\xa5T\xbb\x1d@\x04)\xb0A#Y\x01@\x1c\xbe\x99\xe4\x86Z\x1f@\x97\xc4\xcd\xa5T\xbb\x1d@\x97\xc4\xcd\xa5T\xbb\x1d@\x1c\xbe\x99\xe4\x86Z\x1f@\xc4n\xec\x98\xb2W\x1a@\x1c\xbe\x99\xe4\x86Z\x1f@\x1c\xbe\x99\xe4\x86Z\x1f@\r\xa2}\xc6>\xb0\x1b@\r\xa2}\xc6>\xb0\x1b@\x1c\xbe\x99\xe4\x86Z\x1f@\x97\xc4\xcd\xa5T\xbb\x1d@\x1c\xbe\x99\xe4\x86Z\x1f@\x97\xc4\xcd\xa5T\xbb\x1d@\x97\xc4\xcd\xa5T\xbb\x1d@\xd5\x83"\x07ZV\x19@\xd5\x83"\x07ZV\x19@\x1c\xbe\x99\xe4\x86Z\x1f@\x01.A\xfa\xb7\xf2\x15@\x91\x13\xbf\x06\xae$\x16@\x1c\xbe\x99\xe4\x86Z\x1f@\x1c\xbe\x99\xe4\x86Z\x1f@\x97\xc4\xcd\xa5T\xbb\x1d@\x97\xc4\xcd\xa5T\xbb\x1d@\xcfZ\x9efv\xea\x18@Y}\xeeE\x8c\xf5\x1a@\x1c\xbe\x99\xe4\x86Z\x1f@\x1c\xbe\x99\xe4\x86Z\x1f@\x0c\x1a\xf3\xc7{\x85\x14@{\xa1[\xcd\xba\xae\x13@Ja\xd2\'DK\x17@v"\xda\x08\x15\xc3\x15@\xdev\xba\x84\xbe\x94\x1c@Y}\xeeE\x8c\xf5\x1a@\r\xa2}\xc6>\xb0\x1b@\x1c\xbe\x99\xe4\x86Z\x1f@\x1c\xbe\x99\xe4\x86Z\x1f@{\xa1[\xcd\xba\xae\x13@\x9d\xc5{c\x19\xcb\x16@\x1c\xbe\x99\xe4\x86Z\x1f@Y}\xeeE\x8c\xf5\x1a@\x97\xc4\xcd\xa5T\xbb\x1d@\xd5\x83"\x07ZV\x19@\x97\xc4\xcd\xa5T\xbb\x1d@n\xfe4\x90\xd2x\x13@\x01.A\xfa\xb7\xf2\x15@\n\x99NyY\x06\x12@\x1c\xbe\x99\xe4\x86Z\x1f@\xf3\xf7\x00\xcf\x04\x18\x15@\x1c\xbe\x99\xe4\x86Z\x1f@\x1b6\x0f\xe6\xc3/\x18@\x1c\xbe\x99\xe4\x86Z\x1f@\x0c\x1a\xf3\xc7{\x85\x14@\x97\xc4\xcd\xa5T\xbb\x1d@\x1c\xbe\x99\xe4\x86Z\x1f@\x1c\xbe\x99\xe4\x86Z\x1f@J\x06\x92\xde2\xa8\x14@\x01.A\xfa\xb7\xf2\x15@\x1c\xbe\x99\xe4\x86Z\x1f@\x1c\xbe\x99\xe4\x86Z\x1f@\x88\xeb\x14\xa8I5\x05@\xe4\xdb\xe4\xb0\xbcm\x11@\x1c\xbe\x99\xe4\x86Z\x1f@\x86G\xd8\x85\xe2\\\x0e@\x0c\x1a\xf3\xc7{\x85\x14@\xc4\xe6a\x9a\xef,\x13@\x0e\n\x82\xec:\x1d\x0c@!\x17i\x10\xd6\xf3\r@\x97<C\xa7\x91\x90\x16@$\xa1\x1ceeC\x14@\x1c\xbe\x99\xe4\x86Z\x1f@\x1c\xbe\x99\xe4\x86Z\x1f@\x0c\x1a\xf3\xc7{\x85\x14@\xc4n\xec\x98\xb2W\x1a@\x97\xc4\xcd\xa5T\xbb\x1d@\xc4n\xec\x98\xb2W\x1a@>Z|m\xf2\xe8\x10@\r\xa2}\xc6>\xb0\x1b@\x97\xc4\xcd\xa5T\xbb\x1d@\x86d\x97\xe1k\x93\x13@\x1c\xbe\x99\xe4\x86Z\x1f@\xf3\xf7\x00\xcf\x04\x18\x15@\xc4n\xec\x98\xb2W\x1a@\x1c\xbe\x99\xe4\x86Z\x1f@\x01.A\xfa\xb7\xf2\x15@\x0c\x1a\xf3\xc7{\x85\x14@\xd8 \x16\xb7js\x10@I\xd5\xa4\x05\x82!\x06@\xd5\x83"\x07ZV\x19@\x97\xc4\xcd\xa5T\xbb\x1d@\xce\xd2\x13h\xb3\xbf\x11@\xc4\xe6a\x9a\xef,\x13@\xa0/\xdb$\xf6\xce\x19@R\x8fn9\xd7\x14\x13@\x1c\xbe\x99\xe4\x86Z\x1f@\x97\xc4\xcd\xa5T\xbb\x1d@\xd9\xfc\xde4\x93/\x05@\xc4n\xec\x98\xb2W\x1a@\r\xa2}\xc6>\xb0\x1b@\r\xa2}\xc6>\xb0\x1b@'
p4879
tp4880
bsbsS'use_idf'
p4881
I01
sS'sublinear_tf'
p4882
I00
sS'norm'
p4883
Vl2
p4884
sbtp4885
a(S'clsfr'
p4886
g3747
(csklearn.linear_model.stochastic_gradient
SGDClassifier
p4887
g3749
Ntp4888
Rp4889
(dp4890
S't_'
p4891
F9326.0
sS'n_jobs'
p4892
I1
sS'shuffle'
p4893
I01
sS'verbose'
p4894
I0
sS'classes_'
p4895
g4846
(g4847
(I0
tp4896
g4849
tp4897
Rp4898
(I1
(I2
tp4899
g3780
(S'S5'
p4900
I0
I1
tp4901
Rp4902
(I3
S'|'
p4903
NNNI5
I1
I0
tp4904
bI00
S'FalseTrue\x00'
p4905
tp4906
bsS'class_weight'
p4907
NsS'fit_intercept'
p4908
I01
sg8
g9
sS'random_state'
p4909
I276
sg3753
g3754
sS'loss_function'
p4910
csklearn.linear_model.sgd_fast
Hinge
p4911
(F0.0
tp4912
Rp4913
sS'C'
p4914
F1.0
sg7
I5
sS'epsilon'
p4915
F0.1
sS'learning_rate'
p4916
S'optimal'
p4917
sS'coef_'
p4918
g4846
(g4847
(I0
tp4919
g4849
tp4920
Rp4921
(I1
(I1
I258
tp4922
g4876
I00
S'\x00\x00\x00\x00\x00\x00\x00\x00\x00\x00\x00\x00\x00\x00\x00\x00\x00\x00\x00\x00\x00\x00\x00\x00\x00\x00\x00\x00\x00\x00\x00\x00\x00\x00\x00\x00\x00\x00\x00\x00\x00\x00\x00\x00\x00\x00\x00\x00\x00\x00\x00\x00\x00\x00\x00\x00\x00\x00\x00\x00\x00\x00\x00\x00\x00\x00\x00\x00\x00\x00\x00\x00\x00\x00\x00\x00\x00\x00\x00\x00\xce\xd6\xd2\x91t\xe4\xed\xbf\xf9\xd5x\xc9q\x9e\xfc\xbf|\xbd\xc7;\x874\xb0?\xac=\x89\x88Wt\x00\xc0\x00\x00\x00\x00\x00\x00\x00\x00\x00\x00\x00\x00\x00\x00\x00\x00\x00\x00\x00\x00\x00\x00\x00\x00\x00\x00\x00\x00\x00\x00\x00\x00\x00\x00\x00\x00\x00\x00\x00\x00\x00\x00\x00\x00\x00\x00\x00\x00\x00\x00\x00\x00\x00\x00\x00\x00\x00\x00\x00\x00\x00\x00\x00\x00\xb4\x07\xe9\x98\x04m\xcd?+\xce\xd8T\xa7G\xe9?\x00\x00\x00\x00\x00\x00\x00\x00\x00\x00\x00\x00\x00\x00\x00\x00\x00\x00\x00\x00\x00\x00\x00\x00\x00\x00\x00\x00\x00\x00\x00\x00\x00\x00\x00\x00\x00\x00\x00\x00\x00\x00\x00\x00\x00\x00\x00\x00\x9c\xb2\xb2tr\x91\xa2?\x00\x00\x00\x00\x00\x00\x00\x00\x00\x00\x00\x00\x00\x00\x00\x00P*HP\xd4\x17\x04\xc0\x00\x00\x00\x00\x00\x00\x00\x00\xdf\xf1K\xfd#f\x06\xc0\xbd:\xa5+\xbeg\x03\xc0\x00\x00\x00\x00\x00\x00\x00\x00\x00\x00\x00\x00\x00\x00\x00\x00\x00\x00\x00\x00\x00\x00\x00\x00\x00\x00\x00\x00\x00\x00\x00\x00f\xf0\x95e\xf1\x84\xd4\xbf\x00\x00\x00\x00\x00\x00\x00\x00\x00\x00\x00\x00\x00\x00\x00\x00\x00\x00\x00\x00\x00\x00\x00\x00uG\xc4h\xbb\x90\xf7?\x00\x00\x00\x00\x00\x00\x00\x00\x00\x00\x00\x00\x00\x00\x00\x00\x00\x00\x00\x00\x00\x00\x00\x00G\xe9^Fe5\xe2?\x00\x00\x00\x00\x00\x00\x00\x00\x00\x00\x00\x00\x00\x00\x00\x00\x00\x00\x00\x00\x00\x00\x00\x00\x00\x00\x00\x00\x00\x00\x00\x00\x00\x00\x00\x00\x00\x00\x00\x00\x00\x00\x00\x00\x00\x00\x00\x00py\x00\xdb\xccl\x03\xc0\x00\x00\x00\x00\x00\x00\x00\x00\x00\x00\x00\x00\x00\x00\x00\x00\x95Ha\xf9\xe8/\x14\xc0\xf0\xec\xb0|\xab\xa6\x01\xc0\x00\x00\x00\x00\x00\x00\x00\x00\x00\x00\x00\x00\x00\x00\x00\x00\x00\x00\x00\x00\x00\x00\x00\x00\x00\x00\x00\x00\x00\x00\x00\x00\x00\x00\x00\x00\x00\x00\x00\x00\x00\x00\x00\x00\x00\x00\x00\x00\x00\x00\x00\x00\x00\x00\x00\x00\x00\x00\x00\x00\x00\x00\x00\x00\xfb\xafL\x14vR\xda?\x00\x00\x00\x00\x00\x00\x00\x00\x00\x00\x00\x00\x00\x00\x00\x00\x00\x00\x00\x00\x00\x00\x00\x00\x00\x00\x00\x00\x00\x00\x00\x00\x00\x00\x00\x00\x00\x00\x00\x00\xe7\x82\x0c3?\x1c\xd2?\xbb\x01\x8b\x93\xdd.\xe0\xbf\x00\x00\x00\x00\x00\x00\x00\x00\xbcqyN\xca\x05\xef\xbf\xb2aA\x95"\x1e\xec\xbf\x00\x00\x00\x00\x00\x00\x00\x00\x00\x00\x00\x00\x00\x00\x00\x00\x00\x00\x00\x00\x00\x00\x00\x00\x00\x00\x00\x00\x00\x00\x00\x00\x00\x00\x00\x00\x00\x00\x00\x00\x0f\x8d\xea\xc8\xd3\xb8\xe2?,\x0e\xad\x97\xb8\xb7\xdb\xbf\x00\x00\x00\x00\x00\x00\x00\x00\xea\x02\xa7\xd2\xf1\xd4\xd2?\x98\xfe\xef\x8b}\x18\xc8\xbf\x00\x00\x00\x00\x00\x00\x00\x00R9g\xfelg\xf5?\x00\x00\x00\x00\x00\x00\x00\x00\x00\x00\x00\x00\x00\x00\x00\x00\x00\x00\x00\x00\x00\x00\x00\x00\x00\x00\x00\x00\x00\x00\x00\x00\x00\x00\x00\x00\x00\x00\x00\x00\x00\x00\x00\x00\x00\x00\x00\x00\x00\x00\x00\x00\x00\x00\x00\x00\xc0\x9a7\xb8\xa4(\xff?\x00\x00\x00\x00\x00\x00\x00\x00\x00\x00\x00\x00\x00\x00\x00\x00\xcf>\xe2\xc3\xe4V\xff\xbf\x00\x00\x00\x00\x00\x00\x00\x00\x00\x00\x00\x00\x00\x00\x00\x00\xe9\x82\xe7\xb3\xe4\xc1\xf6\xbf\x00\x00\x00\x00\x00\x00\x00\x00 C0j\xf5p\x8e?.\x1a\xdd\xf1\xb3\xa6\xf4\xbf\x00\x00\x00\x00\x00\x00\x00\x00\xbeKuv\xa0\x97\xdb?\x00\x00\x00\x00\x00\x00\x00\x00\xa4i|\x1f\xad\xfc\xe4?\xe1\x13u\xadx\x0f\xd9?\xbc\xe2\x9c\xa8{\xad\xdc\xbf\x90X\xac#~\xd3\x0e\xc0\x00\x00\x00\x00\x00\x00\x00\x00\xeas\xc4\x15\x81\xe4\xf3\xbf\x00\x00\x00\x00\x00\x00\x00\x00\x00\x00\x00\x00\x00\x00\x00\x00\xa3\x83\xb9\x7f\xcd\xc2\xd2?\x00\x00\x00\x00\x00\x00\x00\x00\x8e\x13\xd0Yj6\xe6?\x00\x00\x00\x00\x00\x00\x00\x00\x00\x00\x00\x00\x00\x00\x00\x00\x00\x00\x00\x00\x00\x00\x00\x00.\xc1\t\x12/\'\xfd\xbf\x0b\x98\x91\xf9\xd2\x8c\xea\xbf\x00\x00\x00\x00\x00\x00\x00\x00\x00\x00\x00\x00\x00\x00\x00\x00T\x9ck\xef\xce\x18\xd1?\x00\x00\x00\x00\x00\x00\x00\x00\x00\x00\x00\x00\x00\x00\x00\x00\x00\x00\x00\x00\x00\x00\x00\x00\x00\x00\x00\x00\x00\x00\x00\x00\xe82q\xbf\x96\x8c\x00\xc0\xff\xa0\xde\xc1\x83-\xf0\xbf\x00\x00\x00\x00\x00\x00\x00\x00\xd4\xfe\xd6\xa7\x00\xc4\xe1\xbf\x00\x00\x00\x00\x00\x00\x00\x00e\x19T\xd3\x0b\xe9\xfc?#\xa9dZ\x8a\\\x00@\x00\x00\x00\x00\x00\x00\x00\x00\x00\x00\x00\x00\x00\x00\x00\x00\x00\x00\x00\x00\x00\x00\x00\x00\xc3\x9eU\x06\xcf\x8b\x11\xc0u\x9b\x97+e\x84\x04@\xe9\x99\x95\x87\xf9\xc9\xfa\xbf\xb1K\r\x81\xf7H\xd6\xbf\x00\x00\x00\x00\x00\x00\x00\x00\xc9\xdc\xb6\xd2s5\xf3\xbf\x9bc\xa6!$\xd1\xc8\xbf\x00\x00\x00\x00\x00\x00\x00\x00\x00\x00\x00\x00\x00\x00\x00\x00\x00\x00\x00\x00\x00\x00\x00\x00\x00\x00\x00\x00\x00\x00\x00\x00g8c\xe4c\x82\xe4\xbf\x00\x00\x00\x00\x00\x00\x00\x00\xbc\x12\xe13\x0c*\xfb\xbf\x00\x00\x00\x00\x00\x00\x00\x00\x00\x00\x00\x00\x00\x00\x00\x00\x00\x00\x00\x00\x00\x00\x00\x00\x00\x00\x00\x00\x00\x00\x00\x00\x00\x00\x00\x00\x00\x00\x00\x00\x00\x00\x00\x00\x00\x00\x00\x00\x00\x00\x00\x00\x00\x00\x00\x00\x00\x00\x00\x00\x00\x00\x00\x00\x00\x00\x00\x00\x00\x00\x00\x00\x00\x00\x00\x00\x00\x00\x00\x00\x00\x00\x00\x00\x00\x00\x00\x00\x00\x00\x00\x00\x00\x00\x00\x00\x00\x00\x00\x00\x00\x00\x00\x00\x00\x00\x00\x00\x00\x00\x00\x00\x00\x00\x00\x00\x00\x00\x00\x00\x00\x00\x00\x00\x00\x00\x00\x00\x00\x00\x00\x00\x00\x00\x00\x00fp\xc4\xd7^\x80\xe2?\x98\xe1\xf2\xba\xca\xe7\x08\xc0\x00\x00\x00\x00\x00\x00\x00\x00\x00\x00\x00\x00\x00\x00\x00\x00\xe1\x13u\xadx\x0f\xd9?\x00\x00\x00\x00\x00\x00\x00\x00\x00\x00\x00\x00\x00\x00\x00\x00\x00\x00\x00\x00\x00\x00\x00\x00\x00\x00\x00\x00\x00\x00\x00\x00\x00\x00\x00\x00\x00\x00\x00\x00\x00\x00\x00\x00\x00\x00\x00\x00\x00\x00\x00\x00\x00\x00\x00\x00\x00\x00\x00\x00\x00\x00\x00\x00\x00\x00\x00\x00\x00\x00\x00\x00\x00\x00\x00\x00\x00\x00\x00\x00\x00\x00\x00\x00\x00\x00\x00\x00\x00\x00\x00\x00\x00\x00\x00\x00\x00\x00\x00\x00\x00\x00\x00\x00\x00\x00\x00\x00\x00\x00\x00\x00\x00\x00\x00\x00\x00\x00\x00\x00\x00\x00\x00\x00\x00\x00\x00\x00\x00\x00\x00\x00\x00\x00\x00\x00\x00\x00\x00\x00\x00\x00\x00\x00\x00\x00\x00\x00\x00\x00\x00\x00\x00\x00\x00\x00\x00\x00\x00\x00\x00\x00\x00\x00\x00\x00\x00\x00I@\x1e\xac\x86\xf1\xe0\xbfc\x1b\xbdA.J\xf8\xbf\xa8\x1c\x8d\rR^\xdf\xbf\x00\x00\x00\x00\x00\x00\x00\x00\x00\x00\x00\x00\x00\x00\x00\x00\x00\x00\x00\x00\x00\x00\x00\x00\x00\x00\x00\x00\x00\x00\x00\x00\x00\x00\x00\x00\x00\x00\x00\x00\x00\x00\x00\x00\x00\x00\x00\x00\x00\x00\x00\x00\x00\x00\x00\x00\x00\x00\x00\x00\x00\x00\x00\x00\x00\x00\x00\x00\x00\x00\x00\x00JM\x12\xaf\x1b@\xe7?YD\xef5\xb8k\x04\xc0\x00\x00\x00\x00\x00\x00\x00\x00\x00\x00\x00\x00\x00\x00\x00\x00UC\xe4\xa5V\x01\xda?\xd6\xa5\x8d\xe0U\xe8\x01\xc0\x00\x00\x00\x00\x00\x00\x00\x00\x8c\x82x\xf0\xfa?\xfc\xbfEiigr\x9d\xfa\xbfk\xe1\xbc\tG\x91\x05\xc0\n>\xe6a\xfe\xe2\xfc\xbf\xac8\x84\x12\xb9>\xdd?\x00d\x96\xb8\'OD\xbf\x00\x00\x00\x00\x00\x00\x00\x00\x00\x00\x00\x00\x00\x00\x00\x00\x00\x00\x00\x00\x00\x00\x00\x00\x00\x00\x00\x00\x00\x00\x00\x00\x00\x00\x00\x00\x00\x00\x00\x00\x00\x00\x00\x00\x00\x00\x00\x00\x00\x00\x00\x00\x00\x00\x00\x00|\xa5\xa4\xf0\n@\xd3\xbf\x00\x00\x00\x00\x00\x00\x00\x00\x00\x00\x00\x00\x00\x00\x00\x00\x00\x00\x00\x00\x00\x00\x00\x00\x00\x00\x00\x00\x00\x00\x00\x00\x00\x00\x00\x00\x00\x00\x00\x00\x00\x00\x00\x00\x00\x00\x00\x00\x00\x00\x00\x00\x00\x00\x00\x00\xd1 \xf5}\x93\xa1\xff\xbf\x00\x00\x00\x00\x00\x00\x00\x00{I\x904\xb3\x9c\xfe\xbf\xe8\x17\xcd(Xx\xe6\xbf\x00\xb6&\x11\xf3\x94n\xbf\x00\x00\x00\x00\x00\x00\x00\x00\xb4\x9e\xb9\xd2C\xe9\xb8?\xee\xb1\x0cWN\x19\x01\xc0C\xca\xb9\x10I\x99\xf2?\x00\x00\x00\x00\x00\x00\x00\x00\x00\x00\x00\x00\x00\x00\x00\x00\x00\x00\x00\x00\x00\x00\x00\x00\x08h\xb2)9%\xb6?\x00\x00\x00\x00\x00\x00\x00\x00\x00\x00\x00\x00\x00\x00\x00\x00\x00\x00\x00\x00\x00\x00\x00\x00'
p4923
tp4924
bsg11
F0.001
sS'intercept_'
p4925
g4846
(g4847
(I0
tp4926
g4849
tp4927
Rp4928
(I1
(I1
tp4929
g4876
I00
S'\xa4q;\xce\x10\xaa\xcf\xbf'
p4930
tp4931
bsS'_expanded_class_weight'
p4932
g4846
(g4847
(I0
tp4933
g4849
tp4934
Rp4935
(I1
(I2
tp4936
g4876
I00
S'\x00\x00\x00\x00\x00\x00\xf0?\x00\x00\x00\x00\x00\x00\xf0?'
p4937
tp4938
bsS'warm_start'
p4939
I00
sg2
g3
sS'eta0'
p4940
F0.0
sS'l1_ratio'
p4941
F0.15
sS'average'
p4942
I00
sS'power_t'
p4943
F0.5
sbtp4944
asbsb.