(ialicized_models
CommandMatchingModel
p0
(dp1
S'loss'
p2
S'hinge'
p3
sS'grammar'
p4
NsS'name'
p5
S'GET_TIME.model'
p6
sS'n_iter'
p7
I5
sS'penalty'
p8
S'none'
p9
sS'trained'
p10
I01
sS'alpha'
p11
F0.001
sS'data'
p12
(lp13
(S'please spotify play previous song'
p14
S'False'
p15
tp16
a(S'what is new in inbox'
p17
g15
tp18
a(S'check google calendar on thursday'
p19
g15
tp20
a(S'do not get me the clock please'
p21
g15
tp22
a(S"don't retrieve the current time"
p23
g15
tp24
a(S'am i free in a week'
p25
g15
tp26
a(S'could you please create an event'
p27
g15
tp28
a(S'could you add new event please'
p29
g15
tp30
a(S'can you turn up the tunez'
p31
g15
tp32
a(S'check your watch'
p33
S'True'
p34
tp35
a(S'get newsfeed'
p36
g15
tp37
a(S'would you open gmail please'
p38
g15
tp39
a(S'spotify skip'
p40
g15
tp41
a(S"don't check your watch please"
p42
g15
tp43
a(S'can you make an event please'
p44
g15
tp45
a(S'check my calendar for this week'
p46
g15
tp47
a(S'do not get the time please'
p48
g15
tp49
a(S'what events do i have on tomorrow'
p50
g15
tp51
a(S'could you schedule a new event'
p52
g15
tp53
a(S"what's the temperature today"
p54
g15
tp55
a(S'read time please'
p56
g34
tp57
a(S'please will you check my mail'
p58
g15
tp59
a(S'please check what time it is'
p60
g34
tp61
a(S'check gmail'
p62
g15
tp63
a(S'pause spotify please'
p64
g15
tp65
a(S'please shut down'
p66
g15
tp67
a(S'is there anything to do in a month'
p68
g15
tp69
a(S'could you please add an event'
p70
g15
tp71
a(S"today's weather"
p72
g15
tp73
a(S'please make an event'
p74
g15
tp75
a(S'do i have anything to do in a month'
p76
g15
tp77
a(S'check google calendar on this day'
p78
g15
tp79
a(S'please pause song'
p80
g15
tp81
a(S"what's if it's foggy today"
p82
g15
tp83
a(S'please give me the news'
p84
g15
tp85
a(S'emergency shutdown'
p86
g15
tp87
a(S'will you check my gmail please'
p88
g15
tp89
a(S"don't i have to do anything on this day"
p90
g15
tp91
a(S"don't read your watch"
p92
g15
tp93
a(S'do i have anything to do today'
p94
g15
tp95
a(S"today's weather"
p96
g15
tp97
a(S"get if it's foggy today"
p98
g15
tp99
a(S'please can you check new gmail'
p100
g15
tp101
a(S'am i free for friday'
p102
g15
tp103
a(S"get if it's cloudy today"
p104
g15
tp105
a(S'please what is new in inbox'
p106
g15
tp107
a(S'can you check gmail please'
p108
g15
tp109
a(S"today's current events"
p110
g15
tp111
a(S'would you check gmail'
p112
g15
tp113
a(S'what is new in my inbox'
p114
g15
tp115
a(S'will you get the current events for me'
p116
g15
tp117
a(S'can you make it louder please'
p118
g15
tp119
a(S'check google calendar for sunday'
p120
g15
tp121
a(S'is there anything i have to do on'
p122
g15
tp123
a(S'get current forecast'
p124
g15
tp125
a(S'check my calendar on sunday'
p126
g15
tp127
a(S"don't get the time please"
p128
g15
tp129
a(S'please create an event'
p130
g15
tp131
a(S'is it rainy today'
p132
g15
tp133
a(S'kill window'
p134
g15
tp135
a(S'please open a browser'
p136
g15
tp137
a(S'what is the news today'
p138
g15
tp139
a(S'check my inbox'
p140
g15
tp141
a(S'please start'
p142
g15
tp143
a(S'read your watch please'
p144
g34
tp145
a(S'what is the news'
p146
g15
tp147
a(S"what're the live news feed"
p148
g15
tp149
a(S"don't retrieve the current time please"
p150
g15
tp151
a(S'read your watch'
p152
g34
tp153
a(S"don't i have anything to do on tuesday"
p154
g15
tp155
a(S'could you check inbox'
p156
g15
tp157
a(S"what're the live newsfeed"
p158
g15
tp159
a(S'check calendar on month'
p160
g15
tp161
a(S'can you turn up the volume'
p162
g15
tp163
a(S'play '
p164
g15
tp165
a(S'can you please shut off my computer'
p166
g15
tp167
a(S"what's in mail"
p168
g15
tp169
a(S'get the information'
p170
g15
tp171
a(S'turn up the sound'
p172
g15
tp173
a(S"don't i have any events on monday"
p174
g15
tp175
a(S'check my calendar for saturday'
p176
g15
tp177
a(S'what is on my calendar for tomorrow'
p178
g15
tp179
a(S'check google calendar on tuesday'
p180
g15
tp181
a(S"what's in new gmail"
p182
g15
tp183
a(S"today's news"
p184
g15
tp185
a(S'could you schedule a new event please'
p186
g15
tp187
a(S"aren't there any events on friday"
p188
g15
tp189
a(S'do not retrieve what time it is please'
p190
g15
tp191
a(S'whats going on in the world todays please'
p192
g15
tp193
a(S"if it's cloudy this week"
p194
g15
tp195
a(S"what's the newsfeed"
p196
g15
tp197
a(S'please retrieve the time'
p198
g34
tp199
a(S'could you open inbox please'
p200
g15
tp201
a(S'am i free for next'
p202
g15
tp203
a(S'live news today'
p204
g15
tp205
a(S'can you shutdown the computer'
p206
g15
tp207
a(S'please tell me whats going on in the news please'
p208
g15
tp209
a(S'could you make event please'
p210
g15
tp211
a(S"aren't there any events on thursday"
p212
g15
tp213
a(S'do i have to do anything on friday'
p214
g15
tp215
a(S'make an event'
p216
g15
tp217
a(S"don't read time"
p218
g15
tp219
a(S"aren't there any events in a week"
p220
g15
tp221
a(S'please get the current events'
p222
g15
tp223
a(S"this week's weather"
p224
g15
tp225
a(S'check calendar for thursday'
p226
g15
tp227
a(S'could you please make new event'
p228
g15
tp229
a(S'shutdown my computer'
p230
g15
tp231
a(S'check gmail please'
p232
g15
tp233
a(S'search google'
p234
g15
tp235
a(S"what's the forecast today"
p236
g15
tp237
a(S"don't retrieve what time it is please"
p238
g15
tp239
a(S'can you create new event please'
p240
g15
tp241
a(S'would you open mail please'
p242
g15
tp243
a(S'start a default browser please'
p244
g15
tp245
a(S'close active window'
p246
g15
tp247
a(S'spotify play the song before'
p248
g15
tp249
a(S'what events are'
p250
g15
tp251
a(S'can you please schedule event'
p252
g15
tp253
a(S'do i have anything in a month'
p254
g15
tp255
a(S'could you add event please'
p256
g15
tp257
a(S'what are the live news feed'
p258
g15
tp259
a(S'am i free in a month'
p260
g15
tp261
a(S'can you please schedule a new event'
p262
g15
tp263
a(S'open default browser please'
p264
g15
tp265
a(S'quit'
p266
g15
tp267
a(S'is there anything i have to do in a month'
p268
g15
tp269
a(S'tell me live news'
p270
g15
tp271
a(S"please don't read me the clock"
p272
g15
tp273
a(S'would you check new mail'
p274
g15
tp275
a(S'spotify shut up'
p276
g15
tp277
a(S'please pause the song'
p278
g15
tp279
a(S'can you quit'
p280
g15
tp281
a(S'please what is new in my mail'
p282
g15
tp283
a(S'check calendar for sunday'
p284
g15
tp285
a(S'find headlines'
p286
g15
tp287
a(S"if it's cold today"
p288
g15
tp289
a(S'do i have anything on next'
p290
g15
tp291
a(S'am i free on this day'
p292
g15
tp293
a(S'am i free for tomorrow'
p294
g15
tp295
a(S'can you check new mail please'
p296
g15
tp297
a(S'anything in my gmail'
p298
g15
tp299
a(S"don't i have to do anything on friday"
p300
g15
tp301
a(S'any events'
p302
g15
tp303
a(S"if it's hot this week"
p304
g15
tp305
a(S"get today's weather"
p306
g15
tp307
a(S'would you check my gmail'
p308
g15
tp309
a(S'do i have to do anything on tuesday'
p310
g15
tp311
a(S'check events for'
p312
g15
tp313
a(S'any events on this day'
p314
g15
tp315
a(S"what's in my inbox please"
p316
g15
tp317
a(S'what are the latest events '
p318
g15
tp319
a(S'see you'
p320
g15
tp321
a(S"don't i have anything to do on this day"
p322
g15
tp323
a(S"don't i have anything"
p324
g15
tp325
a(S'could you open my inbox'
p326
g15
tp327
a(S"don't i have anything tomorrow"
p328
g15
tp329
a(S'anything new in inbox'
p330
g15
tp331
a(S'do i have to do anything on monday'
p332
g15
tp333
a(S"don't i have to do anything"
p334
g15
tp335
a(S"aren't there any events on monday"
p336
g15
tp337
a(S"if it's cloudy today"
p338
g15
tp339
a(S"if it's freezing this week"
p340
g15
tp341
a(S'what are the newsfeed'
p342
g15
tp343
a(S'what is in mail'
p344
g15
tp345
a(S"if it's foggy this week"
p346
g15
tp347
a(S'google for'
p348
g15
tp349
a(S'check events on'
p350
g15
tp351
a(S'shut off my computer'
p352
g15
tp353
a(S'turn my computer off'
p354
g15
tp355
a(S"if it's freezing today"
p356
g15
tp357
a(S'set the volume zero'
p358
g15
tp359
a(S'can you schedule new event'
p360
g15
tp361
a(S"what's forecast"
p362
g15
tp363
a(S'open my mail'
p364
g15
tp365
a(S'do i have to do anything on wednesday'
p366
g15
tp367
a(S'song stop'
p368
g15
tp369
a(S'tell me headlines'
p370
g15
tp371
a(S'what is new in new gmail please'
p372
g15
tp373
a(S'open default browser'
p374
g15
tp375
a(S'read the time please'
p376
g34
tp377
a(S'please will you open inbox'
p378
g15
tp379
a(S'get me the clock please'
p380
g34
tp381
a(S"please don't get clock"
p382
g15
tp383
a(S'open a default browser please'
p384
g15
tp385
a(S'stop the song'
p386
g15
tp387
a(S'could you make an event please'
p388
g15
tp389
a(S"don't i have anything on"
p390
g15
tp391
a(S'headlines'
p392
g15
tp393
a(S"what's if it's cold this week"
p394
g15
tp395
a(S'what is in the news today'
p396
g15
tp397
a(S'please could you check mail'
p398
g15
tp399
a(S'could you create new event please'
p400
g15
tp401
a(S'bye bye alice'
p402
g15
tp403
a(S"aren't there any events on this day"
p404
g15
tp405
a(S"get today's temperature"
p406
g15
tp407
a(S'check calendar for this day'
p408
g15
tp409
a(S'check calendar for this day'
p410
g15
tp411
a(S'check your watch please'
p412
g34
tp413
a(S'intelligence report'
p414
g15
tp415
a(S'am i free for tuesday'
p416
g15
tp417
a(S'could you check new mail'
p418
g15
tp419
a(S"please don't read the time"
p420
g15
tp421
a(S'go back'
p422
g15
tp423
a(S'do not read me the clock'
p424
g15
tp425
a(S'what is on my calendar for this month'
p426
g15
tp427
a(S'can you kill this window'
p428
g15
tp429
a(S'check calendar on today'
p430
g15
tp431
a(S'check google calendar on today'
p432
g15
tp433
a(S'volume higher please'
p434
g15
tp435
a(S'intel'
p436
g15
tp437
a(S'could you add a new event'
p438
g15
tp439
a(S'check google calendar for this day'
p440
g15
tp441
a(S'what is on my calendar'
p442
g15
tp443
a(S'make the sound softer'
p444
g15
tp445
a(S'what events do i have on next'
p446
g15
tp447
a(S'do i have anything to do on this day'
p448
g15
tp449
a(S'what do i have on thursday'
p450
g15
tp451
a(S'anything new in gmail'
p452
g15
tp453
a(S"don't i have anything on friday"
p454
g15
tp455
a(S'please what is in mail'
p456
g15
tp457
a(S"what time isn't it right now"
p458
g15
tp459
a(S'please go to dot com'
p460
g15
tp461
a(S'tell me live newsfeed'
p462
g15
tp463
a(S"don't i have any events on wednesday"
p464
g15
tp465
a(S'please will you open my gmail'
p466
g15
tp467
a(S"what's new in my gmail"
p468
g15
tp469
a(S'please search'
p470
g15
tp471
a(S'please would you check mail'
p472
g15
tp473
a(S'start browser'
p474
g15
tp475
a(S'could you make event'
p476
g15
tp477
a(S"today's news feed"
p478
g15
tp479
a(S'shut down please'
p480
g15
tp481
a(S'turn up the tune'
p482
g15
tp483
a(S'turn up'
p484
g15
tp485
a(S'any events on friday'
p486
g15
tp487
a(S'live news'
p488
g15
tp489
a(S'spotify pause please'
p490
g15
tp491
a(S'check calendar on'
p492
g15
tp493
a(S'turn the beat down please'
p494
g15
tp495
a(S'would you open my gmail please'
p496
g15
tp497
a(S'can you check new gmail'
p498
g15
tp499
a(S'please read me the clock'
p500
g34
tp501
a(S'what is on my calendar for monday'
p502
g15
tp503
a(S'sound higher please'
p504
g15
tp505
a(S'what events are going on right now'
p506
g15
tp507
a(S'pause spotify'
p508
g15
tp509
a(S"what's if it's rainy today"
p510
g15
tp511
a(S'can you put me on the lock screen'
p512
g15
tp513
a(S'find the current events'
p514
g15
tp515
a(S'spotify previous song please'
p516
g15
tp517
a(S'can you shut off'
p518
g15
tp519
a(S'check my calendar on tomorrow'
p520
g15
tp521
a(S'is there anything to do in a week'
p522
g15
tp523
a(S'check google calendar on sunday'
p524
g15
tp525
a(S'is there anything i have to do on next'
p526
g15
tp527
a(S'the news today'
p528
g15
tp529
a(S'can you please kill active window'
p530
g15
tp531
a(S'stop spotify'
p532
g15
tp533
a(S"don't i have to do anything on"
p534
g15
tp535
a(S'any new mail'
p536
g15
tp537
a(S'can you schedule event'
p538
g15
tp539
a(S'is it foggy today'
p540
g15
tp541
a(S'please do not check your watch'
p542
g15
tp543
a(S'retrieve the current time please'
p544
g34
tp545
a(S'start default browser'
p546
g15
tp547
a(S"what's if it's foggy this week"
p548
g15
tp549
a(S'could you please schedule an event'
p550
g15
tp551
a(S"don't i have to do anything on monday"
p552
g15
tp553
a(S"please don't read time"
p554
g15
tp555
a(S'do i have anything in my inbox'
p556
g15
tp557
a(S'do i have any events'
p558
g15
tp559
a(S'open my mail please'
p560
g15
tp561
a(S'what are the the news'
p562
g15
tp563
a(S"don't i have to do anything tomorrow"
p564
g15
tp565
a(S'check events on monday'
p566
g15
tp567
a(S'make the sound higher'
p568
g15
tp569
a(S'check new mail'
p570
g15
tp571
a(S'what events are on today'
p572
g15
tp573
a(S'check my calendar on this month'
p574
g15
tp575
a(S'find the news'
p576
g15
tp577
a(S'sweet dreams'
p578
g15
tp579
a(S'check calendar for monday'
p580
g15
tp581
a(S"aren't there any events on tomorrow"
p582
g15
tp583
a(S'what events do i have'
p584
g15
tp585
a(S'can you check my mail please'
p586
g15
tp587
a(S"get if it's cloudy this week"
p588
g15
tp589
a(S'can you add a new event'
p590
g15
tp591
a(S'live news feed'
p592
g15
tp593
a(S"don't check the clock right now"
p594
g15
tp595
a(S'get the current events'
p596
g15
tp597
a(S'turn off the sound please'
p598
g15
tp599
a(S'close current window'
p600
g15
tp601
a(S'shut up please'
p602
g15
tp603
a(S'can you please shut off'
p604
g15
tp605
a(S'please will you check mail'
p606
g15
tp607
a(S'issue commands'
p608
g15
tp609
a(S'decrease the volume'
p610
g15
tp611
a(S'can you shut off my computer'
p612
g15
tp613
a(S'do not check the clock right now'
p614
g15
tp615
a(S"please don't get the clock"
p616
g15
tp617
a(S'predict the outcome on a new document'
p618
g15
tp619
a(S'would you open my gmail'
p620
g15
tp621
a(S'could you create a new event please'
p622
g15
tp623
a(S'can you check new gmail please'
p624
g15
tp625
a(S'can you turn up the sound'
p626
g15
tp627
a(S'what do i have in a week'
p628
g15
tp629
a(S'can you turn yourself off please'
p630
g15
tp631
a(S'check my calendar on thursday'
p632
g15
tp633
a(S'am i free for today'
p634
g15
tp635
a(S'check inbox'
p636
g15
tp637
a(S'do i have any events on this day'
p638
g15
tp639
a(S'is it hot this week'
p640
g15
tp641
a(S'create an event'
p642
g15
tp643
a(S'will you open my gmail please'
p644
g15
tp645
a(S'please would you check new mail'
p646
g15
tp647
a(S'check my calendar for thursday'
p648
g15
tp649
a(S'could you check new mail please'
p650
g15
tp651
a(S'make an event please'
p652
g15
tp653
a(S'what is newsfeed'
p654
g15
tp655
a(S'please find out the latest headlines'
p656
g15
tp657
a(S'schedule an event please'
p658
g15
tp659
a(S'what do i have in a month'
p660
g15
tp661
a(S'turn up the volume'
p662
g15
tp663
a(S'what events do i have on this day'
p664
g15
tp665
a(S'please lock computer'
p666
g15
tp667
a(S'is there anything i have to do tomorrow'
p668
g15
tp669
a(S'do i have to do anything next'
p670
g15
tp671
a(S'extract the features using almost the same feature'
p672
g15
tp673
a(S'please spotify previous'
p674
g15
tp675
a(S'please last song'
p676
g15
tp677
a(S'open my inbox'
p678
g15
tp679
a(S'please close current window'
p680
g15
tp681
a(S'check calendar for friday'
p682
g15
tp683
a(S'what events do i have in a month'
p684
g15
tp685
a(S'make a new event please'
p686
g15
tp687
a(S"what's the live news"
p688
g15
tp689
a(S'check calendar on thursday'
p690
g15
tp691
a(S'what do i have to do on saturday'
p692
g15
tp693
a(S'can you close the current window'
p694
g15
tp695
a(S'check google calendar for wednesday'
p696
g15
tp697
a(S'do i have anything today'
p698
g15
tp699
a(S'can you open browser please'
p700
g15
tp701
a(S'please check the clock'
p702
g34
tp703
a(S"what're the the news"
p704
g15
tp705
a(S'lower the volume'
p706
g15
tp707
a(S"please don't check your watch"
p708
g15
tp709
a(S'is it rainy this week'
p710
g15
tp711
a(S'give me intel'
p712
g15
tp713
a(S'please start a default browser'
p714
g15
tp715
a(S'shut down'
p716
g15
tp717
a(S"don't i have to do anything today"
p718
g15
tp719
a(S'do i have anything on sunday'
p720
g15
tp721
a(S'shut up'
p722
g15
tp723
a(S'what is on my calendar for wednesday'
p724
g15
tp725
a(S'next'
p726
g15
tp727
a(S'check google calendar for next'
p728
g15
tp729
a(S'can you shutdown my computer'
p730
g15
tp731
a(S'give me the current events please'
p732
g15
tp733
a(S"don't i have anything to do on"
p734
g15
tp735
a(S'please what is new in my inbox'
p736
g15
tp737
a(S'please make new event'
p738
g15
tp739
a(S'please could you check gmail'
p740
g15
tp741
a(S'spotify play the song'
p742
g15
tp743
a(S'please start spotify'
p744
g15
tp745
a(S'do not check the current time please'
p746
g15
tp747
a(S'can you shutdown'
p748
g15
tp749
a(S'will you open my mail'
p750
g15
tp751
a(S"aren't there any events on wednesday"
p752
g15
tp753
a(S'start a browser please'
p754
g15
tp755
a(S'can you kill the window'
p756
g15
tp757
a(S"what's new in my mail"
p758
g15
tp759
a(S'schedule event please'
p760
g15
tp761
a(S'check calendar for tomorrow'
p762
g15
tp763
a(S"what's in new gmail please"
p764
g15
tp765
a(S'check events on month'
p766
g15
tp767
a(S'can you make new event'
p768
g15
tp769
a(S'do not retrieve the current time'
p770
g15
tp771
a(S'lower the sound'
p772
g15
tp773
a(S'please check the current time'
p774
g34
tp775
a(S'spotify go back'
p776
g15
tp777
a(S'please add event'
p778
g15
tp779
a(S'what is on my calendar for'
p780
g15
tp781
a(S'check calendar on this day'
p782
g15
tp783
a(S'check my calendar on wednesday'
p784
g15
tp785
a(S'what do i have to do on next'
p786
g15
tp787
a(S'get clock please'
p788
g34
tp789
a(S'do not read the time'
p790
g15
tp791
a(S"please what's new in new gmail"
p792
g15
tp793
a(S'am i free for sunday'
p794
g15
tp795
a(S"what's this week's weather"
p796
g15
tp797
a(S'open dot org'
p798
g15
tp799
a(S'turn it up please'
p800
g15
tp801
a(S'please kill the window'
p802
g15
tp803
a(S'could you check mail'
p804
g15
tp805
a(S"what's new in mail please"
p806
g15
tp807
a(S'add new event'
p808
g15
tp809
a(S'shutdown'
p810
g15
tp811
a(S'do i have any events in a month'
p812
g15
tp813
a(S'do i have anything to do on thursday'
p814
g15
tp815
a(S'could you open mail please'
p816
g15
tp817
a(S"please don't get the time"
p818
g15
tp819
a(S"please what's in new gmail"
p820
g15
tp821
a(S'do not check the clock right now please'
p822
g15
tp823
a(S'can you lock the screen'
p824
g15
tp825
a(S'do i have to do anything tomorrow'
p826
g15
tp827
a(S'please would you check new gmail'
p828
g15
tp829
a(S'read the time'
p830
g34
tp831
a(S"what's in mail please"
p832
g15
tp833
a(S'do not get the current time'
p834
g15
tp835
a(S'what events are on sunday'
p836
g15
tp837
a(S'please add an event'
p838
g15
tp839
a(S'check events for next'
p840
g15
tp841
a(S'am i free on'
p842
g15
tp843
a(S'any mail'
p844
g15
tp845
a(S'get current time'
p846
g34
tp847
a(S'please could you open inbox'
p848
g15
tp849
a(S'check events on this day'
p850
g15
tp851
a(S"what's the current news"
p852
g15
tp853
a(S'please spotify start the song'
p854
g15
tp855
a(S'please can you check mail'
p856
g15
tp857
a(S"don't i have anything to do on friday"
p858
g15
tp859
a(S'kill the current window'
p860
g15
tp861
a(S"don't get the clock please"
p862
g15
tp863
a(S'do not check your watch please'
p864
g15
tp865
a(S'can you please open a browser'
p866
g15
tp867
a(S"how's the temperature"
p868
g15
tp869
a(S'please what is new in gmail'
p870
g15
tp871
a(S'could you check my mail please'
p872
g15
tp873
a(S'check my calendar on saturday'
p874
g15
tp875
a(S"please don't get me the clock"
p876
g15
tp877
a(S'open inbox please'
p878
g15
tp879
a(S'check calendar on friday'
p880
g15
tp881
a(S'please volume higher'
p882
g15
tp883
a(S"don't i have anything on saturday"
p884
g15
tp885
a(S"don't get the current time please"
p886
g15
tp887
a(S'please add new event'
p888
g15
tp889
a(S'is there anything to do on saturday'
p890
g15
tp891
a(S'check mail please'
p892
g15
tp893
a(S"aren't there any events on next"
p894
g15
tp895
a(S'find current events'
p896
g15
tp897
a(S'please go back'
p898
g15
tp899
a(S'please would you open my inbox'
p900
g15
tp901
a(S'please read the time'
p902
g34
tp903
a(S'check my gmail'
p904
g15
tp905
a(S"please what's new in gmail"
p906
g15
tp907
a(S'put me on the lock screen please'
p908
g15
tp909
a(S"don't get me the clock please"
p910
g15
tp911
a(S'can you please shutdown the computer'
p912
g15
tp913
a(S'send me to the lock screen'
p914
g15
tp915
a(S"don't check your watch"
p916
g15
tp917
a(S'check google calendar for this week'
p918
g15
tp919
a(S'shut the fuck up'
p920
g15
tp921
a(S'can you close the active window'
p922
g15
tp923
a(S'are there any events on wednesday'
p924
g15
tp925
a(S'can you please shutdown'
p926
g15
tp927
a(S"don't get time"
p928
g15
tp929
a(S'stop playing'
p930
g15
tp931
a(S'get weather'
p932
g15
tp933
a(S"what's the live news feed"
p934
g15
tp935
a(S"don't i have anything on next"
p936
g15
tp937
a(S'can you turn my computer off'
p938
g15
tp939
a(S'good night alice'
p940
g15
tp941
a(S'what is in inbox'
p942
g15
tp943
a(S'can you turn the volume higher please'
p944
g15
tp945
a(S'search'
p946
g15
tp947
a(S'turn off the computer'
p948
g15
tp949
a(S'do i have anything'
p950
g15
tp951
a(S'see ya alice'
p952
g15
tp953
a(S'will it rain today'
p954
g15
tp955
a(S'would you open my mail please'
p956
g15
tp957
a(S'what do i have on friday'
p958
g15
tp959
a(S'shutdown please'
p960
g15
tp961
a(S'turn off the beats'
p962
g15
tp963
a(S'please do not retrieve the current time'
p964
g15
tp965
a(S'what do i have to do'
p966
g15
tp967
a(S'what are the news feed'
p968
g15
tp969
a(S'find live news'
p970
g15
tp971
a(S'check my calendar for tuesday'
p972
g15
tp973
a(S'what is new in my mail'
p974
g15
tp975
a(S'check events for sunday'
p976
g15
tp977
a(S'check events for this week'
p978
g15
tp979
a(S'will you check my mail please'
p980
g15
tp981
a(S'start a default browser'
p982
g15
tp983
a(S'please do not when is it'
p984
g15
tp985
a(S'play the song before'
p986
g15
tp987
a(S'can you mute'
p988
g15
tp989
a(S'please open my mail'
p990
g15
tp991
a(S'what is live news'
p992
g15
tp993
a(S'make event please'
p994
g15
tp995
a(S'check new gmail please'
p996
g15
tp997
a(S'what events are on next'
p998
g15
tp999
a(S'search please'
p1000
g15
tp1001
a(S'see ya'
p1002
g15
tp1003
a(S'news'
p1004
g15
tp1005
a(S'please turn off my computer'
p1006
g15
tp1007
a(S'what do i have on monday'
p1008
g15
tp1009
a(S'what events do i have on today'
p1010
g15
tp1011
a(S'can you schedule a new event'
p1012
g15
tp1013
a(S'search google for please'
p1014
g15
tp1015
a(S'could you schedule event please'
p1016
g15
tp1017
a(S'get the clock'
p1018
g34
tp1019
a(S'check my calendar on friday'
p1020
g15
tp1021
a(S"what's the weather this week"
p1022
g15
tp1023
a(S'can you create event please'
p1024
g15
tp1025
a(S'current weather'
p1026
g15
tp1027
a(S"this week's temperature"
p1028
g15
tp1029
a(S'turn up the sound please'
p1030
g15
tp1031
a(S'turn off the computer please'
p1032
g15
tp1033
a(S'start song'
p1034
g15
tp1035
a(S'bye'
p1036
g15
tp1037
a(S'what is on my calendar for this day'
p1038
g15
tp1039
a(S'please turn it down'
p1040
g15
tp1041
a(S'will it snow today'
p1042
g15
tp1043
a(S'will you open gmail'
p1044
g15
tp1045
a(S'am i free for saturday'
p1046
g15
tp1047
a(S'do i have to do anything on sunday'
p1048
g15
tp1049
a(S'will it rain this week'
p1050
g15
tp1051
a(S'would you check inbox'
p1052
g15
tp1053
a(S'what is news'
p1054
g15
tp1055
a(S'turn the volume to zero'
p1056
g15
tp1057
a(S"don't i have anything to do today"
p1058
g15
tp1059
a(S'spotify go ahead'
p1060
g15
tp1061
a(S'do i have to do anything on this day'
p1062
g15
tp1063
a(S'spotify play last song please'
p1064
g15
tp1065
a(S'when is it please'
p1066
g34
tp1067
a(S'do i have to do anything in a month'
p1068
g15
tp1069
a(S'turn off my computer please'
p1070
g15
tp1071
a(S'please kill the active window'
p1072
g15
tp1073
a(S'would you open inbox'
p1074
g15
tp1075
a(S'could you add event'
p1076
g15
tp1077
a(S'do not read the clock please'
p1078
g15
tp1079
a(S'please get the clock'
p1080
g34
tp1081
a(S'check google calendar on month'
p1082
g15
tp1083
a(S"what's if it's cloudy today"
p1084
g15
tp1085
a(S'will you check my inbox'
p1086
g15
tp1087
a(S'what do i have to do on tuesday'
p1088
g15
tp1089
a(S'please shut off'
p1090
g15
tp1091
a(S'check google calendar for monday'
p1092
g15
tp1093
a(S'start browser please'
p1094
g15
tp1095
a(S'what are the live news'
p1096
g15
tp1097
a(S'unmute please'
p1098
g15
tp1099
a(S'please get clock'
p1100
g34
tp1101
a(S'open browser'
p1102
g15
tp1103
a(S'please check the clock right now'
p1104
g34
tp1105
a(S'can you please add an event'
p1106
g15
tp1107
a(S"what're the current news"
p1108
g15
tp1109
a(S'could you open mail'
p1110
g15
tp1111
a(S'go ahead spotify please'
p1112
g15
tp1113
a(S'check google calendar on monday'
p1114
g15
tp1115
a(S'please what is new in mail'
p1116
g15
tp1117
a(S'please open my inbox'
p1118
g15
tp1119
a(S'do i have anything on this day'
p1120
g15
tp1121
a(S'current temperature'
p1122
g15
tp1123
a(S'go to'
p1124
g15
tp1125
a(S"don't i have to do anything on this day"
p1126
g15
tp1127
a(S'am i free'
p1128
g15
tp1129
a(S'tell me newsfeed'
p1130
g15
tp1131
a(S"what's the news feed"
p1132
g15
tp1133
a(S"don't read the clock"
p1134
g15
tp1135
a(S"what's new in mail"
p1136
g15
tp1137
a(S"get this week's weather"
p1138
g15
tp1139
a(S'please go spotify '
p1140
g15
tp1141
a(S'can you send me to the lock screen please'
p1142
g15
tp1143
a(S'please shutdown the computer'
p1144
g15
tp1145
a(S'check my calendar on monday'
p1146
g15
tp1147
a(S'can you please make an event'
p1148
g15
tp1149
a(S'any events in a week'
p1150
g15
tp1151
a(S'tell me current events'
p1152
g15
tp1153
a(S'play spotify please'
p1154
g15
tp1155
a(S'is there anything to do on sunday'
p1156
g15
tp1157
a(S'what is new in new mail'
p1158
g15
tp1159
a(S'lock my computer'
p1160
g15
tp1161
a(S'could you add an event'
p1162
g15
tp1163
a(S'any events in a month'
p1164
g15
tp1165
a(S'can you make event please'
p1166
g15
tp1167
a(S'will you open inbox'
p1168
g15
tp1169
a(S'please stop song'
p1170
g15
tp1171
a(S'do not read your watch'
p1172
g15
tp1173
a(S'could you open my inbox please'
p1174
g15
tp1175
a(S'search google for'
p1176
g15
tp1177
a(S'kill this window'
p1178
g15
tp1179
a(S'please will you check inbox'
p1180
g15
tp1181
a(S'can you please schedule an event'
p1182
g15
tp1183
a(S'please spotify start'
p1184
g15
tp1185
a(S"what's new in gmail please"
p1186
g15
tp1187
a(S'kill current window'
p1188
g15
tp1189
a(S'please kill the current window'
p1190
g15
tp1191
a(S'get live news feed'
p1192
g15
tp1193
a(S'close window'
p1194
g15
tp1195
a(S'could you check mail please'
p1196
g15
tp1197
a(S"what's weather"
p1198
g15
tp1199
a(S'check events on sunday'
p1200
g15
tp1201
a(S'will you check mail please'
p1202
g15
tp1203
a(S'could you check my mail'
p1204
g15
tp1205
a(S'can you turn yourself off'
p1206
g15
tp1207
a(S'could you schedule new event please'
p1208
g15
tp1209
a(S'can you check mail please'
p1210
g15
tp1211
a(S"don't read the clock please"
p1212
g15
tp1213
a(S'pause please'
p1214
g15
tp1215
a(S'can you please schedule new event'
p1216
g15
tp1217
a(S'do i have any events on friday'
p1218
g15
tp1219
a(S'can you kill the current window'
p1220
g15
tp1221
a(S'will you check my gmail'
p1222
g15
tp1223
a(S'is there anything to do on this day'
p1224
g15
tp1225
a(S"get if it's foggy this week"
p1226
g15
tp1227
a(S'create event please'
p1228
g15
tp1229
a(S'retrieve the time'
p1230
g34
tp1231
a(S'get current time please'
p1232
g34
tp1233
a(S'do not get me the clock'
p1234
g15
tp1235
a(S'check events for saturday'
p1236
g15
tp1237
a(S"please don't get time"
p1238
g15
tp1239
a(S"don't i have any events"
p1240
g15
tp1241
a(S"today's current news "
p1242
g15
tp1243
a(S'would you check new gmail'
p1244
g15
tp1245
a(S'can you please kill the active window'
p1246
g15
tp1247
a(S'spotify go to the last song'
p1248
g15
tp1249
a(S"if it's raining this week"
p1250
g15
tp1251
a(S'please would you open my gmail'
p1252
g15
tp1253
a(S'am i free on thursday'
p1254
g15
tp1255
a(S'stop'
p1256
g15
tp1257
a(S'any events on today'
p1258
g15
tp1259
a(S'please would you check my mail'
p1260
g15
tp1261
a(S'will you open gmail please'
p1262
g15
tp1263
a(S"if it's rainy today"
p1264
g15
tp1265
a(S'check my calendar on tuesday'
p1266
g15
tp1267
a(S"if it's hot today"
p1268
g15
tp1269
a(S'news feed'
p1270
g15
tp1271
a(S'spotify play previous song please'
p1272
g15
tp1273
a(S'start spotify please'
p1274
g15
tp1275
a(S'check if i have anything in my inbox'
p1276
g15
tp1277
a(S'any events on tuesday'
p1278
g15
tp1279
a(S"please don't get the current time"
p1280
g15
tp1281
a(S'could you please make a new event'
p1282
g15
tp1283
a(S'do not get the clock'
p1284
g15
tp1285
a(S'can you unmute please'
p1286
g15
tp1287
a(S'please could you open my inbox'
p1288
g15
tp1289
a(S'do i have any events on tuesday'
p1290
g15
tp1291
a(S'next spotify please'
p1292
g15
tp1293
a(S'can you check my gmail'
p1294
g15
tp1295
a(S"what's if it's freezing today"
p1296
g15
tp1297
a(S'can you please shut my computer down'
p1298
g15
tp1299
a(S'lock computer please'
p1300
g15
tp1301
a(S"don't i have to do anything on thursday"
p1302
g15
tp1303
a(S'check new mail please'
p1304
g15
tp1305
a(S'put me on the lock screen'
p1306
g15
tp1307
a(S"what's this week's forecast"
p1308
g15
tp1309
a(S'is there anything i have to do on sunday'
p1310
g15
tp1311
a(S'turn it down'
p1312
g15
tp1313
a(S'retrieve the time please'
p1314
g34
tp1315
a(S'a releasing moderate stalls beside the material cell'
p1316
g15
tp1317
a(S"don't i have any events on this day"
p1318
g15
tp1319
a(S'how is the forecast'
p1320
g15
tp1321
a(S"don't i have any events on friday"
p1322
g15
tp1323
a(S'spotify previous please'
p1324
g15
tp1325
a(S'fake news'
p1326
g15
tp1327
a(S'will you open my mail please'
p1328
g15
tp1329
a(S'can you create a new event'
p1330
g15
tp1331
a(S'could you make a new event'
p1332
g15
tp1333
a(S'is there anything to do on friday'
p1334
g15
tp1335
a(S'please could you open my mail'
p1336
g15
tp1337
a(S'get live news'
p1338
g15
tp1339
a(S'any events on tomorrow'
p1340
g15
tp1341
a(S'open browser please'
p1342
g15
tp1343
a(S"what're the newsfeed"
p1344
g15
tp1345
a(S'please make a new event'
p1346
g15
tp1347
a(S'what events do i have in a week'
p1348
g15
tp1349
a(S'check google calendar for today'
p1350
g15
tp1351
a(S'please spotify pause the song'
p1352
g15
tp1353
a(S"don't i have to do anything on saturday"
p1354
g15
tp1355
a(S'what do i have to do on friday'
p1356
g15
tp1357
a(S'what is on my calendar for next'
p1358
g15
tp1359
a(S'can you lock my computer please'
p1360
g15
tp1361
a(S'open gmail please'
p1362
g15
tp1363
a(S'get time please'
p1364
g34
tp1365
a(S"what're the news"
p1366
g15
tp1367
a(S'please can you check gmail'
p1368
g15
tp1369
a(S"what's if it's snowing this week"
p1370
g15
tp1371
a(S'am i free for a month'
p1372
g15
tp1373
a(S'stop the tunez'
p1374
g15
tp1375
a(S'please do not get the time'
p1376
g15
tp1377
a(S'please do not get the current time'
p1378
g15
tp1379
a(S'what is in my gmail please'
p1380
g15
tp1381
a(S'what events do i have on thursday'
p1382
g15
tp1383
a(S'open a browser'
p1384
g15
tp1385
a(S'read time'
p1386
g34
tp1387
a(S'lower the tunez please'
p1388
g15
tp1389
a(S'what do i have to do on'
p1390
g15
tp1391
a(S'turn up the tunez'
p1392
g15
tp1393
a(S'skip spotify please'
p1394
g15
tp1395
a(S"get if it's freezing today"
p1396
g15
tp1397
a(S'please open a browser'
p1398
g15
tp1399
a(S'lock'
p1400
g15
tp1401
a(S"please what's new in inbox"
p1402
g15
tp1403
a(S'please close the active window'
p1404
g15
tp1405
a(S"don't i have to do anything on next"
p1406
g15
tp1407
a(S'check my calendar for monday'
p1408
g15
tp1409
a(S'please open dot com'
p1410
g15
tp1411
a(S'weather'
p1412
g15
tp1413
a(S'will you open mail please'
p1414
g15
tp1415
a(S'go back to the last song '
p1416
g15
tp1417
a(S'please open'
p1418
g15
tp1419
a(S"what's in my gmail"
p1420
g15
tp1421
a(S"what's the clock not"
p1422
g15
tp1423
a(S'am i free'
p1424
g15
tp1425
a(S'what is in new mail please'
p1426
g15
tp1427
a(S'what do i have on'
p1428
g15
tp1429
a(S'could you open gmail please'
p1430
g15
tp1431
a(S'please what is in inbox'
p1432
g15
tp1433
a(S"what's in new mail please"
p1434
g15
tp1435
a(S'alice'
p1436
g15
tp1437
a(S'could you make new event'
p1438
g15
tp1439
a(S'am i free on tomorrow'
p1440
g15
tp1441
a(S'hey alice'
p1442
g15
tp1443
a(S"what's the the news"
p1444
g15
tp1445
a(S'is there anything i have to do on wednesday'
p1446
g15
tp1447
a(S'do not time please'
p1448
g15
tp1449
a(S'can you please close current window'
p1450
g15
tp1451
a(S'schedule a new event'
p1452
g15
tp1453
a(S'do i have to do anything to do'
p1454
g15
tp1455
a(S'do i have any events on wednesday'
p1456
g15
tp1457
a(S"what's new in new gmail"
p1458
g15
tp1459
a(S'do i have any events on sunday'
p1460
g15
tp1461
a(S'what are the news'
p1462
g15
tp1463
a(S'go to dot ee dee you'
p1464
g15
tp1465
a(S'please pause spotify'
p1466
g15
tp1467
a(S'shut down the computer please'
p1468
g15
tp1469
a(S"don't i have anything on thursday"
p1470
g15
tp1471
a(S'what is headlines'
p1472
g15
tp1473
a(S'please schedule an event'
p1474
g15
tp1475
a(S'do i have to do anything on saturday'
p1476
g15
tp1477
a(S'search please for'
p1478
g15
tp1479
a(S'could you schedule an event please'
p1480
g15
tp1481
a(S'gather information on'
p1482
g15
tp1483
a(S"today's live newsfeed"
p1484
g15
tp1485
a(S'do not get time'
p1486
g15
tp1487
a(S'louder please'
p1488
g15
tp1489
a(S"what's new in new mail"
p1490
g15
tp1491
a(S'will you get the current headlines'
p1492
g15
tp1493
a(S'current events today'
p1494
g15
tp1495
a(S"what's today's temperature"
p1496
g15
tp1497
a(S"don't retrieve the time"
p1498
g15
tp1499
a(S'can you please make new event'
p1500
g15
tp1501
a(S'do not read time please'
p1502
g15
tp1503
a(S'check google calendar for this month'
p1504
g15
tp1505
a(S'set volume 0'
p1506
g15
tp1507
a(S'check calendar on monday'
p1508
g15
tp1509
a(S'can you please create an event'
p1510
g15
tp1511
a(S"please what's new in my inbox"
p1512
g15
tp1513
a(S'add event'
p1514
g15
tp1515
a(S"what's new in my mail please"
p1516
g15
tp1517
a(S'please turn it up'
p1518
g15
tp1519
a(S'shut down my computer please'
p1520
g15
tp1521
a(S'what events are on saturday'
p1522
g15
tp1523
a(S'open dot ee dee you'
p1524
g15
tp1525
a(S'todays headlines'
p1526
g15
tp1527
a(S'please pause'
p1528
g15
tp1529
a(S"please what's in my inbox"
p1530
g15
tp1531
a(S"don't i have any events on thursday"
p1532
g15
tp1533
a(S'please give me the current events please'
p1534
g15
tp1535
a(S'start browsing'
p1536
g15
tp1537
a(S'what is new in inbox please'
p1538
g15
tp1539
a(S'is it cold this week'
p1540
g15
tp1541
a(S'please add a new event'
p1542
g15
tp1543
a(S'check my calendar on this week'
p1544
g15
tp1545
a(S'shutdown the computer please'
p1546
g15
tp1547
a(S'will you open my inbox'
p1548
g15
tp1549
a(S'are there any events in a week'
p1550
g15
tp1551
a(S'please do not get current time'
p1552
g15
tp1553
a(S"don't i have to do anything on tuesday"
p1554
g15
tp1555
a(S'a decent problem gossips beside the shoulder'
p1556
g15
tp1557
a(S"what're the news feed"
p1558
g15
tp1559
a(S'can you please turn the sound down'
p1560
g15
tp1561
a(S'could you please create a new event'
p1562
g15
tp1563
a(S'what do i have on this day'
p1564
g15
tp1565
a(S'what time is it'
p1566
g34
tp1567
a(S"don't get current time please"
p1568
g15
tp1569
a(S"don't i have to do anything on monday"
p1570
g15
tp1571
a(S'can you please kill this window'
p1572
g15
tp1573
a(S'please can you check my inbox'
p1574
g15
tp1575
a(S'do i have anything tomorrow'
p1576
g15
tp1577
a(S'turn up the volume please'
p1578
g15
tp1579
a(S'please do not get time'
p1580
g15
tp1581
a(S'get time'
p1582
g34
tp1583
a(S'will you get the headlines'
p1584
g15
tp1585
a(S"get if it's hot this week"
p1586
g15
tp1587
a(S'do not retrieve what time it is'
p1588
g15
tp1589
a(S'give me the news please'
p1590
g15
tp1591
a(S'is it hot today'
p1592
g15
tp1593
a(S"don't check what time it is please"
p1594
g15
tp1595
a(S'check the current time'
p1596
g34
tp1597
a(S'check events on friday'
p1598
g15
tp1599
a(S'am i free on wednesday'
p1600
g15
tp1601
a(S'can you shut my computer down'
p1602
g15
tp1603
a(S"don't i have to do anything in a week"
p1604
g15
tp1605
a(S"what's if it's hot today"
p1606
g15
tp1607
a(S"please what's in my mail"
p1608
g15
tp1609
a(S'find live newsfeed'
p1610
g15
tp1611
a(S'create a new event'
p1612
g15
tp1613
a(S'could you create a new event'
p1614
g15
tp1615
a(S'could you create new event'
p1616
g15
tp1617
a(S'make event'
p1618
g15
tp1619
a(S'is there anything to do on wednesday'
p1620
g15
tp1621
a(S'please search for'
p1622
g15
tp1623
a(S"don't i have anything to do on next"
p1624
g15
tp1625
a(S'can you turn the beat down'
p1626
g15
tp1627
a(S'would you open my inbox please'
p1628
g15
tp1629
a(S'what do i have to do on thursday'
p1630
g15
tp1631
a(S'are there any events on monday'
p1632
g15
tp1633
a(S'can you check new mail'
p1634
g15
tp1635
a(S'please create new event'
p1636
g15
tp1637
a(S'is there anything i have to do on today'
p1638
g15
tp1639
a(S'am i free on sunday'
p1640
g15
tp1641
a(S'schedule a new event please'
p1642
g15
tp1643
a(S'please do not get the clock'
p1644
g15
tp1645
a(S'get news now'
p1646
g15
tp1647
a(S'what are the headlines'
p1648
g15
tp1649
a(S"don't read your watch please"
p1650
g15
tp1651
a(S'close this window'
p1652
g15
tp1653
a(S"what's the time"
p1654
g34
tp1655
a(S'what are the current events today'
p1656
g15
tp1657
a(S'can you check mail'
p1658
g15
tp1659
a(S'can you open a browser please'
p1660
g15
tp1661
a(S'please check new mail'
p1662
g15
tp1663
a(S'is there anything i have to do on thursday'
p1664
g15
tp1665
a(S'what is new in my mail please'
p1666
g15
tp1667
a(S'please schedule a new event'
p1668
g15
tp1669
a(S"what's if it's freezing this week"
p1670
g15
tp1671
a(S'can you please kill current window'
p1672
g15
tp1673
a(S'what events are in a month'
p1674
g15
tp1675
a(S"get if it's rainy today"
p1676
g15
tp1677
a(S'what is new in my gmail'
p1678
g15
tp1679
a(S"what's the current events"
p1680
g15
tp1681
a(S'live newsfeed'
p1682
g15
tp1683
a(S"don't get me the clock"
p1684
g15
tp1685
a(S'what events are on friday'
p1686
g15
tp1687
a(S'are there any events on sunday'
p1688
g15
tp1689
a(S"please don't retrieve what time it is"
p1690
g15
tp1691
a(S'will you get the current events'
p1692
g15
tp1693
a(S'gather information on todays current events please'
p1694
g15
tp1695
a(S'what events do i have on'
p1696
g15
tp1697
a(S'can you schedule new event please'
p1698
g15
tp1699
a(S'news now please'
p1700
g15
tp1701
a(S'what time is it now'
p1702
g34
tp1703
a(S'is it cold today'
p1704
g15
tp1705
a(S'close the active window'
p1706
g15
tp1707
a(S'good night'
p1708
g15
tp1709
a(S"get if it's freezing this week"
p1710
g15
tp1711
a(S"don't check the clock right now please"
p1712
g15
tp1713
a(S'am i free today'
p1714
g15
tp1715
a(S'what do i have on today'
p1716
g15
tp1717
a(S"what's in gmail"
p1718
g15
tp1719
a(S'check google calendar for this day'
p1720
g15
tp1721
a(S'do i have to do anything'
p1722
g15
tp1723
a(S'please shut off my computer'
p1724
g15
tp1725
a(S'would you check inbox please'
p1726
g15
tp1727
a(S'read the clock please'
p1728
g34
tp1729
a(S"please don't check the clock right now"
p1730
g15
tp1731
a(S'please check gmail'
p1732
g15
tp1733
a(S'we stick to simple problems in this post for the sake of illustration'
p1734
g15
tp1735
a(S'can you please turn up the volume'
p1736
g15
tp1737
a(S'open mail please'
p1738
g15
tp1739
a(S'can you turn off the computer'
p1740
g15
tp1741
a(S'can you make event'
p1742
g15
tp1743
a(S'turn it down'
p1744
g15
tp1745
a(S'do i have anything to do on next'
p1746
g15
tp1747
a(S'please google'
p1748
g15
tp1749
a(S'can you open this program'
p1750
g15
tp1751
a(S"what's new in my gmail please"
p1752
g15
tp1753
a(S'check calendar for today'
p1754
g15
tp1755
a(S'could you please schedule event'
p1756
g15
tp1757
a(S'please could you check inbox'
p1758
g15
tp1759
a(S'what is current events'
p1760
g15
tp1761
a(S'could you create event please'
p1762
g15
tp1763
a(S"if it's foggy today"
p1764
g15
tp1765
a(S'time please'
p1766
g34
tp1767
a(S'make the volume softer'
p1768
g15
tp1769
a(S'can you please shut up'
p1770
g15
tp1771
a(S'what events are in a week'
p1772
g15
tp1773
a(S'what is new in mail please'
p1774
g15
tp1775
a(S"what're the live news"
p1776
g15
tp1777
a(S'can you add a new event please'
p1778
g15
tp1779
a(S'please do not retrieve what time it is'
p1780
g15
tp1781
a(S"i think i didn't answer an earlier question"
p1782
g15
tp1783
a(S"what're the current events"
p1784
g15
tp1785
a(S'please will you open my mail'
p1786
g15
tp1787
a(S'stop song please'
p1788
g15
tp1789
a(S'check what time it is please'
p1790
g34
tp1791
a(S'check events for tuesday'
p1792
g15
tp1793
a(S'is it cloudy today'
p1794
g15
tp1795
a(S'get me the clock'
p1796
g34
tp1797
a(S"get if it's snowing today"
p1798
g15
tp1799
a(S'are there any events on today'
p1800
g15
tp1801
a(S'how is the weather'
p1802
g15
tp1803
a(S'lower the tunes please'
p1804
g15
tp1805
a(S"please what's in new mail"
p1806
g15
tp1807
a(S'are there any events on this day'
p1808
g15
tp1809
a(S'anything in gmail'
p1810
g15
tp1811
a(S'please do not get clock'
p1812
g15
tp1813
a(S"don't get the current time"
p1814
g15
tp1815
a(S'please get current time'
p1816
g34
tp1817
a(S'do i have to do anything in a week'
p1818
g15
tp1819
a(S'turn yourself off'
p1820
g15
tp1821
a(S"don't i have any events on tomorrow"
p1822
g15
tp1823
a(S"how's the weather this week"
p1824
g15
tp1825
a(S'what do i have on tomorrow'
p1826
g15
tp1827
a(S'spotify pause'
p1828
g15
tp1829
a(S'could you please make an event'
p1830
g15
tp1831
a(S'could you open gmail'
p1832
g15
tp1833
a(S'lower the volume'
p1834
g15
tp1835
a(S'is there anything i have to do on friday'
p1836
g15
tp1837
a(S'get the current events'
p1838
g15
tp1839
a(S'check mail'
p1840
g15
tp1841
a(S'check google calendar on this week'
p1842
g15
tp1843
a(S'turn my computer off please'
p1844
g15
tp1845
a(S'check the clock right now'
p1846
g34
tp1847
a(S'do not retrieve the time'
p1848
g15
tp1849
a(S'what do i have to do on wednesday'
p1850
g15
tp1851
a(S'check new gmail'
p1852
g15
tp1853
a(S'do i have anything on monday'
p1854
g15
tp1855
a(S"don't i have any events on next"
p1856
g15
tp1857
a(S"don't i have to do anything on sunday"
p1858
g15
tp1859
a(S'please start default browser'
p1860
g15
tp1861
a(S'go spotify please'
p1862
g15
tp1863
a(S'could you check inbox please'
p1864
g15
tp1865
a(S'alice next please'
p1866
g15
tp1867
a(S'can you shut down the computer'
p1868
g15
tp1869
a(S'create a new event please'
p1870
g15
tp1871
a(S'spotify stop the song '
p1872
g15
tp1873
a(S'make the volume zero'
p1874
g15
tp1875
a(S'turn off please'
p1876
g15
tp1877
a(S'check calendar for tuesday'
p1878
g15
tp1879
a(S'open dot gov'
p1880
g15
tp1881
a(S'please will you open gmail'
p1882
g15
tp1883
a(S'give me intel on current events'
p1884
g15
tp1885
a(S"today's headlines"
p1886
g15
tp1887
a(S'please get time'
p1888
g34
tp1889
a(S'can you please mute'
p1890
g15
tp1891
a(S'any events on thursday'
p1892
g15
tp1893
a(S'go to dot edu'
p1894
g15
tp1895
a(S'spotify last song please'
p1896
g15
tp1897
a(S'spotify stop'
p1898
g15
tp1899
a(S'will you check inbox please'
p1900
g15
tp1901
a(S'what are the current events'
p1902
g15
tp1903
a(S'please shutdown my computer'
p1904
g15
tp1905
a(S'could you check my inbox'
p1906
g15
tp1907
a(S'volume up'
p1908
g15
tp1909
a(S'what do i have to do on this day'
p1910
g15
tp1911
a(S'please make event'
p1912
g15
tp1913
a(S'is it freezing this week'
p1914
g15
tp1915
a(S'check events for friday'
p1916
g15
tp1917
a(S'check events on saturday'
p1918
g15
tp1919
a(S'do not when is it please'
p1920
g15
tp1921
a(S'can you please turn up the tunez'
p1922
g15
tp1923
a(S'can you shut up'
p1924
g15
tp1925
a(S'do not read the time please'
p1926
g15
tp1927
a(S'what is in new gmail please'
p1928
g15
tp1929
a(S'add event please'
p1930
g15
tp1931
a(S'what are the live newsfeed'
p1932
g15
tp1933
a(S'please would you check my gmail'
p1934
g15
tp1935
a(S"if it's raining today"
p1936
g15
tp1937
a(S'please kill this window'
p1938
g15
tp1939
a(S'find news feed'
p1940
g15
tp1941
a(S'could you please add new event'
p1942
g15
tp1943
a(S"what's new in new mail please"
p1944
g15
tp1945
a(S'alice go ahead please'
p1946
g15
tp1947
a(S'get current temperature'
p1948
g15
tp1949
a(S'can you make a new event please'
p1950
g15
tp1951
a(S'can you schedule event please'
p1952
g15
tp1953
a(S'check inbox please'
p1954
g15
tp1955
a(S"don't i have anything to do on wednesday"
p1956
g15
tp1957
a(S'check calendar for this week'
p1958
g15
tp1959
a(S'please check my inbox'
p1960
g15
tp1961
a(S'check google calendar'
p1962
g15
tp1963
a(S'google search for'
p1964
g15
tp1965
a(S'please open browser'
p1966
g15
tp1967
a(S'check my mail'
p1968
g15
tp1969
a(S'check google calendar on'
p1970
g15
tp1971
a(S'are there any events on saturday'
p1972
g15
tp1973
a(S"how's the forecast today"
p1974
g15
tp1975
a(S'will you check gmail'
p1976
g15
tp1977
a(S"don't i have to do anything on"
p1978
g15
tp1979
a(S"don't get the time"
p1980
g15
tp1981
a(S'is there anything to do tomorrow'
p1982
g15
tp1983
a(S"this week's temperature"
p1984
g15
tp1985
a(S"don't i have to do anything on thursday"
p1986
g15
tp1987
a(S'can you add an event please'
p1988
g15
tp1989
a(S'make a new event'
p1990
g15
tp1991
a(S'could you open my mail'
p1992
g15
tp1993
a(S'check google calendar on wednesday'
p1994
g15
tp1995
a(S"what's new in my inbox please"
p1996
g15
tp1997
a(S'can you please turn off the computer'
p1998
g15
tp1999
a(S"please what's new in my gmail"
p2000
g15
tp2001
a(S'schedule event'
p2002
g15
tp2003
a(S'google for please'
p2004
g15
tp2005
a(S'is it freezing today'
p2006
g15
tp2007
a(S'is there anything to do on'
p2008
g15
tp2009
a(S"please what's new in mail"
p2010
g15
tp2011
a(S'do i have anything on friday'
p2012
g15
tp2013
a(S'turn the sound down please'
p2014
g15
tp2015
a(S'check calendar on sunday'
p2016
g15
tp2017
a(S'will you check new gmail'
p2018
g15
tp2019
a(S'do i have any events on saturday'
p2020
g15
tp2021
a(S'could you please schedule a new event'
p2022
g15
tp2023
a(S'can you please turn the tune down'
p2024
g15
tp2025
a(S'okay alex'
p2026
g15
tp2027
a(S'what events are on thursday'
p2028
g15
tp2029
a(S'please check my gmail'
p2030
g15
tp2031
a(S'spotify play the last song'
p2032
g15
tp2033
a(S'is there anything to do on monday'
p2034
g15
tp2035
a(S'please will you open my inbox'
p2036
g15
tp2037
a(S'do i have anything to do on sunday'
p2038
g15
tp2039
a(S'do not get time please'
p2040
g15
tp2041
a(S"aren't there any events on sunday"
p2042
g15
tp2043
a(S"please don't when is it"
p2044
g15
tp2045
a(S'what is new in mail'
p2046
g15
tp2047
a(S'could you create an event please'
p2048
g15
tp2049
a(S'can you please add event'
p2050
g15
tp2051
a(S'tell me current news'
p2052
g15
tp2053
a(S'please will you check my inbox'
p2054
g15
tp2055
a(S'do i have anything to do on saturday'
p2056
g15
tp2057
a(S'please could you check my gmail'
p2058
g15
tp2059
a(S'turn down the sound'
p2060
g15
tp2061
a(S"get if it's rainy this week"
p2062
g15
tp2063
a(S"don't i have to do anything tomorrow"
p2064
g15
tp2065
a(S'check calendar'
p2066
g15
tp2067
a(S'is it snowing this week'
p2068
g15
tp2069
a(S'am i free for monday'
p2070
g15
tp2071
a(S"get this week's temperature"
p2072
g15
tp2073
a(S"what's today's weather"
p2074
g15
tp2075
a(S'shut down the computer'
p2076
g15
tp2077
a(S'please would you open my mail'
p2078
g15
tp2079
a(S"what's today's forecast"
p2080
g15
tp2081
a(S"please what's in inbox"
p2082
g15
tp2083
a(S'do not get the time'
p2084
g15
tp2085
a(S'sweet dreams alice'
p2086
g15
tp2087
a(S'could you please create event'
p2088
g15
tp2089
a(S"don't get time please"
p2090
g15
tp2091
a(S'can you unmute'
p2092
g15
tp2093
a(S'please sound up'
p2094
g15
tp2095
a(S'do i have anything to do on monday'
p2096
g15
tp2097
a(S'check google calendar for saturday'
p2098
g15
tp2099
a(S'what is on my calendar for today'
p2100
g15
tp2101
a(S"today's newsfeed"
p2102
g15
tp2103
a(S'can you turn up the tune'
p2104
g15
tp2105
a(S'what events are on tomorrow'
p2106
g15
tp2107
a(S'go to dot net'
p2108
g15
tp2109
a(S"don't i have any events on tuesday"
p2110
g15
tp2111
a(S'time'
p2112
g34
tp2113
a(S'could you add a new event please'
p2114
g15
tp2115
a(S'am i free for a week'
p2116
g15
tp2117
a(S'start'
p2118
g15
tp2119
a(S'please spotify pause'
p2120
g15
tp2121
a(S'check calendar on this week'
p2122
g15
tp2123
a(S'can you please create event'
p2124
g15
tp2125
a(S'what is live newsfeed'
p2126
g15
tp2127
a(S"get if it's hot today"
p2128
g15
tp2129
a(S"what's the weather"
p2130
g15
tp2131
a(S'can you open a browser'
p2132
g15
tp2133
a(S'anything new in my inbox'
p2134
g15
tp2135
a(S'current events'
p2136
g15
tp2137
a(S'do not read your watch please'
p2138
g15
tp2139
a(S"don't i have to do anything"
p2140
g15
tp2141
a(S'can you please close this window'
p2142
g15
tp2143
a(S"what's in gmail please"
p2144
g15
tp2145
a(S'check events on today'
p2146
g15
tp2147
a(S'sound up please'
p2148
g15
tp2149
a(S'add an event please'
p2150
g15
tp2151
a(S'what events do i have on monday'
p2152
g15
tp2153
a(S'please spotify last'
p2154
g15
tp2155
a(S'gimme the news'
p2156
g15
tp2157
a(S'do i have any events on monday'
p2158
g15
tp2159
a(S'debrief me'
p2160
g15
tp2161
a(S"don't i have any events in a week"
p2162
g15
tp2163
a(S'can you add new event please'
p2164
g15
tp2165
a(S'please what is in new mail'
p2166
g15
tp2167
a(S"don't i have to do anything on sunday"
p2168
g15
tp2169
a(S"don't i have anything to do in a week"
p2170
g15
tp2171
a(S"what's the live newsfeed"
p2172
g15
tp2173
a(S"what's the forecast"
p2174
g15
tp2175
a(S'am i free on monday'
p2176
g15
tp2177
a(S'music down'
p2178
g15
tp2179
a(S'are there any events in a month'
p2180
g15
tp2181
a(S'kill the noise'
p2182
g15
tp2183
a(S'check calendar for wednesday'
p2184
g15
tp2185
a(S'do i have anything to do tomorrow'
p2186
g15
tp2187
a(S'please create event'
p2188
g15
tp2189
a(S'open gmail'
p2190
g15
tp2191
a(S'am i free on friday'
p2192
g15
tp2193
a(S'what events do i have on wednesday'
p2194
g15
tp2195
a(S'will you open mail'
p2196
g15
tp2197
a(S'can you please kill the current window'
p2198
g15
tp2199
a(S'can you check my gmail please'
p2200
g15
tp2201
a(S'close current program'
p2202
g15
tp2203
a(S'please schedule new event'
p2204
g15
tp2205
a(S"get this week's forecast"
p2206
g15
tp2207
a(S'do i have to do anything on next'
p2208
g15
tp2209
a(S'google please for'
p2210
g15
tp2211
a(S'google please'
p2212
g15
tp2213
a(S"don't i have anything to do in a month"
p2214
g15
tp2215
a(S'will you check my mail'
p2216
g15
tp2217
a(S'hey alex'
p2218
g15
tp2219
a(S'can you check gmail'
p2220
g15
tp2221
a(S'spotify skip ahead'
p2222
g15
tp2223
a(S'mute'
p2224
g15
tp2225
a(S"how's the temperature today"
p2226
g15
tp2227
a(S'is it raining this week'
p2228
g15
tp2229
a(S"don't i have anything on sunday"
p2230
g15
tp2231
a(S'please open my gmail'
p2232
g15
tp2233
a(S'could you create event'
p2234
g15
tp2235
a(S"what's not the time"
p2236
g15
tp2237
a(S'can you please add a new event'
p2238
g15
tp2239
a(S'check my calendar on today'
p2240
g15
tp2241
a(S'schedule new event'
p2242
g15
tp2243
a(S'open my gmail please'
p2244
g15
tp2245
a(S"what's in my mail"
p2246
g15
tp2247
a(S'spotify start please'
p2248
g15
tp2249
a(S'can you send me to the lock screen'
p2250
g15
tp2251
a(S'what events are on'
p2252
g15
tp2253
a(S'shut off please'
p2254
g15
tp2255
a(S'tell me the news'
p2256
g15
tp2257
a(S"what's in my gmail please"
p2258
g15
tp2259
a(S'will you open my gmail'
p2260
g15
tp2261
a(S'check my calendar for wednesday'
p2262
g15
tp2263
a(S'a backbone dictates above my grief'
p2264
g15
tp2265
a(S"don't i have to do anything on tuesday"
p2266
g15
tp2267
a(S'what is on my calendar for tuesday'
p2268
g15
tp2269
a(S'is there anything i have to do in a week'
p2270
g15
tp2271
a(S'please go to'
p2272
g15
tp2273
a(S'please would you check gmail'
p2274
g15
tp2275
a(S'check my calendar'
p2276
g15
tp2277
a(S"how's the forecast this week"
p2278
g15
tp2279
a(S'current news today'
p2280
g15
tp2281
a(S'would you open my inbox'
p2282
g15
tp2283
a(S'please do not read the clock'
p2284
g15
tp2285
a(S"what's if it's hot this week"
p2286
g15
tp2287
a(S'can you decrease the sound'
p2288
g15
tp2289
a(S'open dot net'
p2290
g15
tp2291
a(S'what do i have on next'
p2292
g15
tp2293
a(S'create event'
p2294
g15
tp2295
a(S'spotify stop playing'
p2296
g15
tp2297
a(S"don't i have any events on saturday"
p2298
g15
tp2299
a(S'open dot edu'
p2300
g15
tp2301
a(S"don't i have to do anything in a week"
p2302
g15
tp2303
a(S"how's the forecast"
p2304
g15
tp2305
a(S'would you check mail'
p2306
g15
tp2307
a(S'i like dogs'
p2308
g15
tp2309
a(S"don't i have anything in a month"
p2310
g15
tp2311
a(S'please could you open my gmail'
p2312
g15
tp2313
a(S"aren't there any events in a month"
p2314
g15
tp2315
a(S'get the current time please'
p2316
g34
tp2317
a(S'live newsfeed today'
p2318
g15
tp2319
a(S'google'
p2320
g15
tp2321
a(S'check my calendar on this day'
p2322
g15
tp2323
a(S'please will you check new gmail'
p2324
g15
tp2325
a(S'turn up the tunez please'
p2326
g15
tp2327
a(S'alex'
p2328
g15
tp2329
a(S'what is new in gmail please'
p2330
g15
tp2331
a(S'make the volume lower'
p2332
g15
tp2333
a(S'check google calendar for'
p2334
g15
tp2335
a(S'turn up the tunes'
p2336
g15
tp2337
a(S'what do i have to do on sunday'
p2338
g15
tp2339
a(S"don't i have to do anything in a month"
p2340
g15
tp2341
a(S"what time isn't it"
p2342
g15
tp2343
a(S'check calendar on tuesday'
p2344
g15
tp2345
a(S'can you please turn off my computer'
p2346
g15
tp2347
a(S'what events do i have on sunday'
p2348
g15
tp2349
a(S"get if it's raining today"
p2350
g15
tp2351
a(S'please read time'
p2352
g34
tp2353
a(S'do i have anything to do next'
p2354
g15
tp2355
a(S'do not get clock please'
p2356
g15
tp2357
a(S"don't i have anything to do"
p2358
g15
tp2359
a(S'please schedule event'
p2360
g15
tp2361
a(S"don't i have to do anything in a month"
p2362
g15
tp2363
a(S'please shut down the computer'
p2364
g15
tp2365
a(S'check calendar on tomorrow'
p2366
g15
tp2367
a(S'current news'
p2368
g15
tp2369
a(S'are there any events on'
p2370
g15
tp2371
a(S'news feed today'
p2372
g15
tp2373
a(S'can you lock the screen please'
p2374
g15
tp2375
a(S'go to dot gov'
p2376
g15
tp2377
a(S"what's in my mail please"
p2378
g15
tp2379
a(S'spotify next'
p2380
g15
tp2381
a(S'check my calendar on'
p2382
g15
tp2383
a(S'could you schedule event'
p2384
g15
tp2385
a(S"don't time please"
p2386
g15
tp2387
a(S'any events on sunday'
p2388
g15
tp2389
a(S'what is new in new gmail'
p2390
g15
tp2391
a(S'can you add new event'
p2392
g15
tp2393
a(S"what's this week's temperature"
p2394
g15
tp2395
a(S'can you get the current events'
p2396
g15
tp2397
a(S'would you check my mail please'
p2398
g15
tp2399
a(S'will you open inbox please'
p2400
g15
tp2401
a(S'good bye'
p2402
g15
tp2403
a(S'would you check new mail please'
p2404
g15
tp2405
a(S'would you open my mail'
p2406
g15
tp2407
a(S'could you check my inbox please'
p2408
g15
tp2409
a(S"today's live news feed"
p2410
g15
tp2411
a(S'check events for thursday'
p2412
g15
tp2413
a(S'could you please make event'
p2414
g15
tp2415
a(S'can you please turn off'
p2416
g15
tp2417
a(S'please do not check the clock right now'
p2418
g15
tp2419
a(S'is there anything to do on tomorrow'
p2420
g15
tp2421
a(S'be quiet'
p2422
g15
tp2423
a(S'can you please close active window'
p2424
g15
tp2425
a(S'turn up the beat please'
p2426
g15
tp2427
a(S"please don't check the clock"
p2428
g15
tp2429
a(S'any events on saturday'
p2430
g15
tp2431
a(S"how's the weather today"
p2432
g15
tp2433
a(S'check events on'
p2434
g15
tp2435
a(S'check the clock'
p2436
g34
tp2437
a(S'could you check my gmail'
p2438
g15
tp2439
a(S"what's new in inbox"
p2440
g15
tp2441
a(S"don't i have anything today"
p2442
g15
tp2443
a(S'get headlines'
p2444
g15
tp2445
a(S'please sound higher'
p2446
g15
tp2447
a(S'please shut my computer down'
p2448
g15
tp2449
a(S"what time isn't it now"
p2450
g15
tp2451
a(S"don't check the clock please"
p2452
g15
tp2453
a(S'check google calendar on tomorrow'
p2454
g15
tp2455
a(S"please don't get current time"
p2456
g15
tp2457
a(S"what's new in inbox please"
p2458
g15
tp2459
a(S'please what is new in new mail'
p2460
g15
tp2461
a(S"what's if it's snowing today"
p2462
g15
tp2463
a(S'would you check mail please'
p2464
g15
tp2465
a(S"don't i have to do anything on friday"
p2466
g15
tp2467
a(S'check my calendar for this day'
p2468
g15
tp2469
a(S'please spotify previous song'
p2470
g15
tp2471
a(S'do not read me the clock please'
p2472
g15
tp2473
a(S'check what time it is'
p2474
g34
tp2475
a(S'do i have any events in a week'
p2476
g15
tp2477
a(S'open mail'
p2478
g15
tp2479
a(S'open my inbox please'
p2480
g15
tp2481
a(S'do i have any events on'
p2482
g15
tp2483
a(S'could you schedule new event'
p2484
g15
tp2485
a(S"what's the headlines"
p2486
g15
tp2487
a(S'please will you open mail'
p2488
g15
tp2489
a(S'will you check inbox'
p2490
g15
tp2491
a(S'get the news'
p2492
g15
tp2493
a(S'check calendar for this month'
p2494
g15
tp2495
a(S'please google for'
p2496
g15
tp2497
a(S"what's in new mail"
p2498
g15
tp2499
a(S'anything new in my mail'
p2500
g15
tp2501
a(S"what's the clock"
p2502
g34
tp2503
a(S'are there any events'
p2504
g15
tp2505
a(S'do not get clock'
p2506
g15
tp2507
a(S'bye bye'
p2508
g15
tp2509
a(S'check google calendar for thursday'
p2510
g15
tp2511
a(S'what is in my gmail'
p2512
g15
tp2513
a(S'can you add event please'
p2514
g15
tp2515
a(S'can you turn up the beat'
p2516
g15
tp2517
a(S'am i free for thursday'
p2518
g15
tp2519
a(S'please open gmail'
p2520
g15
tp2521
a(S'any gmail'
p2522
g15
tp2523
a(S'unmute'
p2524
g15
tp2525
a(S'make new event please'
p2526
g15
tp2527
a(S'can you please add new event'
p2528
g15
tp2529
a(S'please can you check inbox'
p2530
g15
tp2531
a(S'please what is in gmail'
p2532
g15
tp2533
a(S'tell me live news feed'
p2534
g15
tp2535
a(S'do not check what time it is please'
p2536
g15
tp2537
a(S"if it's rainy this week"
p2538
g15
tp2539
a(S"how's the temperature this week"
p2540
g15
tp2541
a(S"what's if it's raining this week"
p2542
g15
tp2543
a(S'do not get the clock please'
p2544
g15
tp2545
a(S'kill the program'
p2546
g15
tp2547
a(S'find live news feed'
p2548
g15
tp2549
a(S'check google calendar on friday'
p2550
g15
tp2551
a(S'go ahead'
p2552
g15
tp2553
a(S'do i have anything on saturday'
p2554
g15
tp2555
a(S"aren't there any events on today"
p2556
g15
tp2557
a(S'search for'
p2558
g15
tp2559
a(S'can you turn off my computer'
p2560
g15
tp2561
a(S'what do i have on wednesday'
p2562
g15
tp2563
a(S'will you check new gmail please'
p2564
g15
tp2565
a(S'what do i have'
p2566
g15
tp2567
a(S'can you please exit'
p2568
g15
tp2569
a(S'please could you check my inbox'
p2570
g15
tp2571
a(S'am i free for'
p2572
g15
tp2573
a(S'send me to the lock screen please'
p2574
g15
tp2575
a(S"don't i have to do anything on wednesday"
p2576
g15
tp2577
a(S'check calendar on next'
p2578
g15
tp2579
a(S"please don't retrieve the time"
p2580
g15
tp2581
a(S"this week's weather"
p2582
g15
tp2583
a(S'am i free on saturday'
p2584
g15
tp2585
a(S'are there any events on friday'
p2586
g15
tp2587
a(S"don't i have any events on today"
p2588
g15
tp2589
a(S"don't i have any events on"
p2590
g15
tp2591
a(S'can you shut down my computer'
p2592
g15
tp2593
a(S'what is in my mail please'
p2594
g15
tp2595
a(S'can you turn up the volume please'
p2596
g15
tp2597
a(S'do i have any events on today'
p2598
g15
tp2599
a(S'do not get current time'
p2600
g15
tp2601
a(S'what events are on this day'
p2602
g15
tp2603
a(S'could you make an event'
p2604
g15
tp2605
a(S'what is on my calendar for this week'
p2606
g15
tp2607
a(S'spotify go back to the last song '
p2608
g15
tp2609
a(S'what events do i have on saturday'
p2610
g15
tp2611
a(S'can you please make a new event'
p2612
g15
tp2613
a(S'can you please create a new event'
p2614
g15
tp2615
a(S'can you please turn the beat down'
p2616
g15
tp2617
a(S'what events are on tuesday'
p2618
g15
tp2619
a(S'please can you check my gmail'
p2620
g15
tp2621
a(S'make new event'
p2622
g15
tp2623
a(S'what is new in gmail'
p2624
g15
tp2625
a(S'are there any events on thursday'
p2626
g15
tp2627
a(S'will you check mail'
p2628
g15
tp2629
a(S'could you please create new event'
p2630
g15
tp2631
a(S'what is new in new mail please'
p2632
g15
tp2633
a(S'anything in my mail'
p2634
g15
tp2635
a(S'brief me'
p2636
g15
tp2637
a(S'kill active window'
p2638
g15
tp2639
a(S'would you check gmail please'
p2640
g15
tp2641
a(S'can you create new event'
p2642
g15
tp2643
a(S'would you check my inbox'
p2644
g15
tp2645
a(S"how's the weather"
p2646
g15
tp2647
a(S'spotify last please'
p2648
g15
tp2649
a(S"don't read me the clock please"
p2650
g15
tp2651
a(S'start a browser'
p2652
g15
tp2653
a(S"what's the forecast this week"
p2654
g15
tp2655
a(S'get current news'
p2656
g15
tp2657
a(S"don't retrieve what time it is"
p2658
g15
tp2659
a(S'create an event please'
p2660
g15
tp2661
a(S'please check inbox'
p2662
g15
tp2663
a(S'forecast'
p2664
g15
tp2665
a(S'get live newsfeed'
p2666
g15
tp2667
a(S'any events on next'
p2668
g15
tp2669
a(S'please could you open gmail'
p2670
g15
tp2671
a(S'what do i have to do on tomorrow'
p2672
g15
tp2673
a(S'google search for please'
p2674
g15
tp2675
a(S'current events please'
p2676
g15
tp2677
a(S'please what is in my gmail'
p2678
g15
tp2679
a(S'make the volume 0'
p2680
g15
tp2681
a(S'shut off my computer please'
p2682
g15
tp2683
a(S'anything in mail'
p2684
g15
tp2685
a(S'what do i have to do on monday'
p2686
g15
tp2687
a(S'exit'
p2688
g15
tp2689
a(S'start the song'
p2690
g15
tp2691
a(S"what's in my inbox"
p2692
g15
tp2693
a(S'please close this window'
p2694
g15
tp2695
a(S"please what's in my gmail"
p2696
g15
tp2697
a(S'go back please'
p2698
g15
tp2699
a(S'increase the volume'
p2700
g15
tp2701
a(S'anything new in my gmail'
p2702
g15
tp2703
a(S'can you please shut down my computer'
p2704
g15
tp2705
a(S'do i have any events on next'
p2706
g15
tp2707
a(S'tell me news'
p2708
g15
tp2709
a(S'would you check my mail'
p2710
g15
tp2711
a(S'is there anything i have to do today'
p2712
g15
tp2713
a(S'please start a browser'
p2714
g15
tp2715
a(S'is there anything i have to do on tuesday'
p2716
g15
tp2717
a(S'schedule an event'
p2718
g15
tp2719
a(S'find newsfeed'
p2720
g15
tp2721
a(S'is there anything to do on next'
p2722
g15
tp2723
a(S'check events for wednesday'
p2724
g15
tp2725
a(S'please read your watch'
p2726
g34
tp2727
a(S'retrieve what time it is please'
p2728
g34
tp2729
a(S'make the sound quieter'
p2730
g15
tp2731
a(S'could you add an event please'
p2732
g15
tp2733
a(S'open my gmail'
p2734
g15
tp2735
a(S'what events are on monday'
p2736
g15
tp2737
a(S"what's the weather today"
p2738
g15
tp2739
a(S'do not check your watch'
p2740
g15
tp2741
a(S'what do i have to do in a month'
p2742
g15
tp2743
a(S'can you schedule a new event please'
p2744
g15
tp2745
a(S'please kill active window'
p2746
g15
tp2747
a(S'go to dot com'
p2748
g15
tp2749
a(S'please get the time'
p2750
g34
tp2751
a(S'is there anything i have to do on saturday'
p2752
g15
tp2753
a(S"don't i have anything to do tomorrow"
p2754
g15
tp2755
a(S'please start browser'
p2756
g15
tp2757
a(S'please google search for'
p2758
g15
tp2759
a(S'please google search'
p2760
g15
tp2761
a(S'please check my mail'
p2762
g15
tp2763
a(S'anything in inbox'
p2764
g15
tp2765
a(S'will you check new mail'
p2766
g15
tp2767
a(S'shutdown my computer please'
p2768
g15
tp2769
a(S'will you check new mail please'
p2770
g15
tp2771
a(S'check events for this day'
p2772
g15
tp2773
a(S'do not check the clock'
p2774
g15
tp2775
a(S'are there any events on next'
p2776
g15
tp2777
a(S"please don't read the clock"
p2778
g15
tp2779
a(S'get temperature'
p2780
g15
tp2781
a(S'what is new in my gmail please'
p2782
g15
tp2783
a(S'what is in new gmail'
p2784
g15
tp2785
a(S'kill the active program'
p2786
g15
tp2787
a(S'will it snow this week'
p2788
g15
tp2789
a(S'bye alice'
p2790
g15
tp2791
a(S"don't when is it please"
p2792
g15
tp2793
a(S"what's in inbox please"
p2794
g15
tp2795
a(S"don't i have anything on monday"
p2796
g15
tp2797
a(S'do not check what time it is'
p2798
g15
tp2799
a(S'do i have anything to do on friday'
p2800
g15
tp2801
a(S'please start browsing'
p2802
g15
tp2803
a(S'get the current time'
p2804
g34
tp2805
a(S'am i free on tuesday'
p2806
g15
tp2807
a(S'google search please for'
p2808
g15
tp2809
a(S'please check mail'
p2810
g15
tp2811
a(S'pause song please'
p2812
g15
tp2813
a(S'lock computer'
p2814
g15
tp2815
a(S'please could you check new mail'
p2816
g15
tp2817
a(S"don't i have anything to do on saturday"
p2818
g15
tp2819
a(S'check the clock right now please'
p2820
g34
tp2821
a(S'current events'
p2822
g15
tp2823
a(S'what events are on wednesday'
p2824
g15
tp2825
a(S'could you check my gmail please'
p2826
g15
tp2827
a(S'could you open my gmail please'
p2828
g15
tp2829
a(S'please search google'
p2830
g15
tp2831
a(S'any events on monday'
p2832
g15
tp2833
a(S'check my calendar for tomorrow'
p2834
g15
tp2835
a(S'add an event'
p2836
g15
tp2837
a(S'do not read time'
p2838
g15
tp2839
a(S'what do i have on sunday'
p2840
g15
tp2841
a(S'please what is new in my gmail'
p2842
g15
tp2843
a(S'news today'
p2844
g15
tp2845
a(S"aren't there any events on"
p2846
g15
tp2847
a(S'google search please'
p2848
g15
tp2849
a(S'temperature'
p2850
g15
tp2851
a(S'check calendar for'
p2852
g15
tp2853
a(S"what're the headlines"
p2854
g15
tp2855
a(S'next song'
p2856
g15
tp2857
a(S'do not check the clock please'
p2858
g15
tp2859
a(S'can you create an event please'
p2860
g15
tp2861
a(S'briefing'
p2862
g15
tp2863
a(S'is it raining today'
p2864
g15
tp2865
a(S'could you make new event please'
p2866
g15
tp2867
a(S'can you lock computer please'
p2868
g15
tp2869
a(S'please do not check the current time'
p2870
g15
tp2871
a(S'please would you check inbox'
p2872
g15
tp2873
a(S'close the current window'
p2874
g15
tp2875
a(S'pause the song please'
p2876
g15
tp2877
a(S'live news feed today'
p2878
g15
tp2879
a(S"today's temperature"
p2880
g15
tp2881
a(S'what is on my calendar for thursday'
p2882
g15
tp2883
a(S'do not retrieve the current time please'
p2884
g15
tp2885
a(S"please what's new in my mail"
p2886
g15
tp2887
a(S"today's forecast"
p2888
g15
tp2889
a(S'any events on wednesday'
p2890
g15
tp2891
a(S'get current events'
p2892
g15
tp2893
a(S'what do i have to do on today'
p2894
g15
tp2895
a(S'can you create event'
p2896
g15
tp2897
a(S'do not get current time please'
p2898
g15
tp2899
a(S'last song please'
p2900
g15
tp2901
a(S'what is current news'
p2902
g15
tp2903
a(S'would you open inbox please'
p2904
g15
tp2905
a(S"don't i have any events in a month"
p2906
g15
tp2907
a(S'search google please for'
p2908
g15
tp2909
a(S'check the clock please'
p2910
g34
tp2911
a(S"aren't there any events on tuesday"
p2912
g15
tp2913
a(S'please can you check my mail'
p2914
g15
tp2915
a(S'check the current time please'
p2916
g34
tp2917
a(S'please what is new in new gmail'
p2918
g15
tp2919
a(S'do i have to do anything today'
p2920
g15
tp2921
a(S'can you close this window'
p2922
g15
tp2923
a(S'please do not read your watch'
p2924
g15
tp2925
a(S'please would you open mail'
p2926
g15
tp2927
a(S'lock the screen please'
p2928
g15
tp2929
a(S'do i have anything on tuesday'
p2930
g15
tp2931
a(S'can you please turn up the beat'
p2932
g15
tp2933
a(S'headlines today'
p2934
g15
tp2935
a(S'open inbox'
p2936
g15
tp2937
a(S'do i have anything to do on wednesday'
p2938
g15
tp2939
a(S'what do i have on tuesday'
p2940
g15
tp2941
a(S'turn yourself off please'
p2942
g15
tp2943
a(S'do i have anything to do on tuesday'
p2944
g15
tp2945
a(S'could you open my mail please'
p2946
g15
tp2947
a(S'can you turn the sound down'
p2948
g15
tp2949
a(S'check my calendar for friday'
p2950
g15
tp2951
a(S'please lock my computer'
p2952
g15
tp2953
a(S'what is in inbox please'
p2954
g15
tp2955
a(S'would you open gmail'
p2956
g15
tp2957
a(S'could you open my gmail'
p2958
g15
tp2959
a(S'is there anything i have to do'
p2960
g15
tp2961
a(S'do i have anything on thursday'
p2962
g15
tp2963
a(S'turn the beat down'
p2964
g15
tp2965
a(S'get the clock please'
p2966
g34
tp2967
a(S'will you open a browser'
p2968
g15
tp2969
a(S'please open inbox'
p2970
g15
tp2971
a(S'what are the current news'
p2972
g15
tp2973
a(S'can you make a new event'
p2974
g15
tp2975
a(S'could you check gmail please'
p2976
g15
tp2977
a(S'check my gmail please'
p2978
g15
tp2979
a(S'please what is in my inbox'
p2980
g15
tp2981
a(S'what events do i have on friday'
p2982
g15
tp2983
a(S'okay alice'
p2984
g15
tp2985
a(S'please will you check gmail'
p2986
g15
tp2987
a(S'please shut down my computer'
p2988
g15
tp2989
a(S'will it hail today'
p2990
g15
tp2991
a(S'get the time please'
p2992
g34
tp2993
a(S'please spotify go '
p2994
g15
tp2995
a(S'spotify next song '
p2996
g15
tp2997
a(S'could you please add a new event'
p2998
g15
tp2999
a(S'check calendar on wednesday'
p3000
g15
tp3001
a(S"this week's forecast"
p3002
g15
tp3003
a(S'please could you check new gmail'
p3004
g15
tp3005
a(S'please would you open gmail'
p3006
g15
tp3007
a(S'please would you open inbox'
p3008
g15
tp3009
a(S'tell me news feed'
p3010
g15
tp3011
a(S'spotify go please'
p3012
g15
tp3013
a(S'do not check the current time'
p3014
g15
tp3015
a(S'byebye'
p3016
g15
tp3017
a(S"aren't there any events on saturday"
p3018
g15
tp3019
a(S'please could you check my mail'
p3020
g15
tp3021
a(S'can you please turn up the tune'
p3022
g15
tp3023
a(S'can you check if i have anything in my inbox'
p3024
g15
tp3025
a(S'do not get the current time please'
p3026
g15
tp3027
a(S'kill the music'
p3028
g15
tp3029
a(S'is it cloudy this week'
p3030
g15
tp3031
a(S"don't get current time"
p3032
g15
tp3033
a(S'check google calendar on saturday'
p3034
g15
tp3035
a(S'read me the clock'
p3036
g34
tp3037
a(S'are there any events on tuesday'
p3038
g15
tp3039
a(S'can you make an event'
p3040
g15
tp3041
a(S'can you please kill the window'
p3042
g15
tp3043
a(S"don't check the clock"
p3044
g15
tp3045
a(S'please do not read time'
p3046
g15
tp3047
a(S"don't i have to do anything on wednesday"
p3048
g15
tp3049
a(S'could you create an event'
p3050
g15
tp3051
a(S'turn up the sound'
p3052
g15
tp3053
a(S'anything new in mail'
p3054
g15
tp3055
a(S'turn off'
p3056
g15
tp3057
a(S'check calendar for saturday'
p3058
g15
tp3059
a(S'check my calendar for'
p3060
g15
tp3061
a(S'any events on'
p3062
g15
tp3063
a(S"don't get clock"
p3064
g15
tp3065
a(S"don't i have anything on wednesday"
p3066
g15
tp3067
a(S'please close active window'
p3068
g15
tp3069
a(S'is it foggy this week'
p3070
g15
tp3071
a(S'will you check my inbox please'
p3072
g15
tp3073
a(S'can you create a new event please'
p3074
g15
tp3075
a(S'can you add an event'
p3076
g15
tp3077
a(S"please don't check the current time"
p3078
g15
tp3079
a(S"what's new in gmail"
p3080
g15
tp3081
a(S'spotify play'
p3082
g15
tp3083
a(S"this week's forecast"
p3084
g15
tp3085
a(S'check my calendar for this month'
p3086
g15
tp3087
a(S'please be quiet'
p3088
g15
tp3089
a(S'can you please shutdown my computer'
p3090
g15
tp3091
a(S'train a classifier to try to predict the category of a post'
p3092
g15
tp3093
a(S'get the time'
p3094
g34
tp3095
a(S'add new event please'
p3096
g15
tp3097
a(S'search google please'
p3098
g15
tp3099
a(S'read me the clock please'
p3100
g34
tp3101
a(S'am i free on next'
p3102
g15
tp3103
a(S'what is on my calendar for saturday'
p3104
g15
tp3105
a(S'check events on tomorrow'
p3106
g15
tp3107
a(S'current forecast'
p3108
g15
tp3109
a(S"please what's in gmail"
p3110
g15
tp3111
a(S"what's the news"
p3112
g15
tp3113
a(S"get if it's raining this week"
p3114
g15
tp3115
a(S'newsfeed'
p3116
g15
tp3117
a(S'check events for tomorrow'
p3118
g15
tp3119
a(S'please retrieve the current time'
p3120
g34
tp3121
a(S'what is in gmail'
p3122
g15
tp3123
a(S"get if it's cold this week"
p3124
g15
tp3125
a(S'please spotify pause'
p3126
g15
tp3127
a(S'find current news'
p3128
g15
tp3129
a(S'check events for this day'
p3130
g15
tp3131
a(S"what's if it's rainy this week"
p3132
g15
tp3133
a(S'check my mail please'
p3134
g15
tp3135
a(S'can you please create new event'
p3136
g15
tp3137
a(S'set the volume to zero'
p3138
g15
tp3139
a(S'get news'
p3140
g15
tp3141
a(S'spotify start the song please'
p3142
g15
tp3143
a(S'please will you check my gmail'
p3144
g15
tp3145
a(S"don't retrieve the time please"
p3146
g15
tp3147
a(S'what is in new mail'
p3148
g15
tp3149
a(S'can you get the latest headlines'
p3150
g15
tp3151
a(S'what is new in my inbox please'
p3152
g15
tp3153
a(S"don't check the current time please"
p3154
g15
tp3155
a(S'is there anything to do on today'
p3156
g15
tp3157
a(S'turn the tune down'
p3158
g15
tp3159
a(S'schedule new event please'
p3160
g15
tp3161
a(S'exit please'
p3162
g15
tp3163
a(S'read the clock'
p3164
g34
tp3165
a(S"don't i have anything to do on sunday"
p3166
g15
tp3167
a(S'is there anything i have to do on tomorrow'
p3168
g15
tp3169
a(S'please will you check new mail'
p3170
g15
tp3171
a(S"if it's cold this week"
p3172
g15
tp3173
a(S'please can you turn the volume higher'
p3174
g15
tp3175
a(S"get if it's cold today"
p3176
g15
tp3177
a(S'please do not get me the clock'
p3178
g15
tp3179
a(S'can you add event'
p3180
g15
tp3181
a(S"today's live news"
p3182
g15
tp3183
a(S'please close the current window'
p3184
g15
tp3185
a(S'what do i have on saturday'
p3186
g15
tp3187
a(S'can you please turn up the sound'
p3188
g15
tp3189
a(S'turn down the volume'
p3190
g15
tp3191
a(S'google search'
p3192
g15
tp3193
a(S'get me the news todays'
p3194
g15
tp3195
a(S'check events on this week'
p3196
g15
tp3197
a(S'please can you turn up the volume'
p3198
g15
tp3199
a(S"what time isn't it currently"
p3200
g15
tp3201
a(S'check google calendar on next'
p3202
g15
tp3203
a(S'check calendar on saturday'
p3204
g15
tp3205
a(S'current time'
p3206
g34
tp3207
a(S'can you schedule an event please'
p3208
g15
tp3209
a(S"what's new in my inbox"
p3210
g15
tp3211
a(S'shut off'
p3212
g15
tp3213
a(S'anything in my inbox'
p3214
g15
tp3215
a(S'give me the news'
p3216
g15
tp3217
a(S'can you get information on the current events'
p3218
g15
tp3219
a(S'what is live news feed'
p3220
g15
tp3221
a(S'check google calendar for tomorrow'
p3222
g15
tp3223
a(S'will you get the news for me'
p3224
g15
tp3225
a(S'can you shut down'
p3226
g15
tp3227
a(S'is there anything i have to do on this day'
p3228
g15
tp3229
a(S'check events'
p3230
g15
tp3231
a(S'what is going on in the world today'
p3232
g15
tp3233
a(S'spotify pause please'
p3234
g15
tp3235
a(S"don't i have to do anything on saturday"
p3236
g15
tp3237
a(S'please get the news'
p3238
g15
tp3239
a(S'would you check new gmail please'
p3240
g15
tp3241
a(S'can you exit'
p3242
g15
tp3243
a(S'check my calendar for sunday'
p3244
g15
tp3245
a(S"don't i have anything on this day"
p3246
g15
tp3247
a(S"if it's snowing today"
p3248
g15
tp3249
a(S'what is in my inbox please'
p3250
g15
tp3251
a(S'turn up the beat'
p3252
g15
tp3253
a(S'shutdown the computer'
p3254
g15
tp3255
a(S"what's if it's cold today"
p3256
g15
tp3257
a(S"what's in inbox"
p3258
g15
tp3259
a(S'give me the current events'
p3260
g15
tp3261
a(S'open dot com'
p3262
g15
tp3263
a(S'can you please turn my computer off'
p3264
g15
tp3265
a(S'please do not read the time'
p3266
g15
tp3267
a(S"what's the temperature"
p3268
g15
tp3269
a(S'please close the window'
p3270
g15
tp3271
a(S'check google calendar for friday'
p3272
g15
tp3273
a(S'please play spotify '
p3274
g15
tp3275
a(S'do not retrieve the time please'
p3276
g15
tp3277
a(S'please do not check what time it is'
p3278
g15
tp3279
a(S'can you make new event please'
p3280
g15
tp3281
a(S'get clock'
p3282
g34
tp3283
a(S'what is in gmail please'
p3284
g15
tp3285
a(S'please send me to the lock screen'
p3286
g15
tp3287
a(S'check events on tuesday'
p3288
g15
tp3289
a(S'will it hail this week'
p3290
g15
tp3291
a(S'add a new event please'
p3292
g15
tp3293
a(S'please could you open mail'
p3294
g15
tp3295
a(S'are there any events on tomorrow'
p3296
g15
tp3297
a(S'do not read the clock'
p3298
g15
tp3299
a(S'please turn off'
p3300
g15
tp3301
a(S'can you turn off'
p3302
g15
tp3303
a(S'can you please shut down the computer'
p3304
g15
tp3305
a(S'please turn off the computer'
p3306
g15
tp3307
a(S'kill the active window'
p3308
g15
tp3309
a(S'create new event please'
p3310
g15
tp3311
a(S'please retrieve what time it is'
p3312
g34
tp3313
a(S"what's if it's raining today"
p3314
g15
tp3315
a(S'check events for this month'
p3316
g15
tp3317
a(S'what is in my inbox'
p3318
g15
tp3319
a(S"don't read me the clock"
p3320
g15
tp3321
a(S'check my inbox please'
p3322
g15
tp3323
a(S'do i have anything to do'
p3324
g15
tp3325
a(S'check events for monday'
p3326
g15
tp3327
a(S'can you create an event'
p3328
g15
tp3329
a(S'can you please make event'
p3330
g15
tp3331
a(S'check my calendar for this day'
p3332
g15
tp3333
a(S"what's the temperature this week"
p3334
g15
tp3335
a(S'can you please close the current window'
p3336
g15
tp3337
a(S'can you please shut down'
p3338
g15
tp3339
a(S"don't i have anything to do on thursday"
p3340
g15
tp3341
a(S'do i have anything to do in a week'
p3342
g15
tp3343
a(S"don't read the time"
p3344
g15
tp3345
a(S'can you turn the tune down'
p3346
g15
tp3347
a(S'turn off my computer'
p3348
g15
tp3349
a(S'please what is in my mail'
p3350
g15
tp3351
a(S'is there anything to do'
p3352
g15
tp3353
a(S"don't i have any events on sunday"
p3354
g15
tp3355
a(S'do i have anything in a week'
p3356
g15
tp3357
a(S'can you lock computer'
p3358
g15
tp3359
a(S'please can you make it louder'
p3360
g15
tp3361
a(S'check google calendar for tuesday'
p3362
g15
tp3363
a(S'could you make a new event please'
p3364
g15
tp3365
a(S'get news feed'
p3366
g15
tp3367
a(S'can you please close the active window'
p3368
g15
tp3369
a(S'please spotify last song'
p3370
g15
tp3371
a(S"please what's new in new mail"
p3372
g15
tp3373
a(S'open a default browser'
p3374
g15
tp3375
a(S"don't read the time please"
p3376
g15
tp3377
a(S'would you check my gmail please'
p3378
g15
tp3379
a(S'would you check my inbox please'
p3380
g15
tp3381
a(S'search for please'
p3382
g15
tp3383
a(S'can you check my inbox please'
p3384
g15
tp3385
a(S'can you schedule an event'
p3386
g15
tp3387
a(S'shut down my computer'
p3388
g15
tp3389
a(S'could you open inbox'
p3390
g15
tp3391
a(S'check calendar'
p3392
g15
tp3393
a(S'please do not read me the clock'
p3394
g15
tp3395
a(S'start browsing please'
p3396
g15
tp3397
a(S'please give me current events'
p3398
g15
tp3399
a(S'please turn my computer off'
p3400
g15
tp3401
a(S'check my calendar on next'
p3402
g15
tp3403
a(S'do i have anything on'
p3404
g15
tp3405
a(S'what is in mail please'
p3406
g15
tp3407
a(S'check events on thursday'
p3408
g15
tp3409
a(S'turn up the the beat'
p3410
g15
tp3411
a(S'can you check my inbox'
p3412
g15
tp3413
a(S"don't i have to do anything today"
p3414
g15
tp3415
a(S'what time is it currently'
p3416
g34
tp3417
a(S'can you lock my computer please'
p3418
g15
tp3419
a(S'check calendar for next'
p3420
g15
tp3421
a(S'please get me the clock'
p3422
g34
tp3423
a(S'could you please schedule new event'
p3424
g15
tp3425
a(S"please don't retrieve the current time"
p3426
g15
tp3427
a(S'please lock the screen'
p3428
g15
tp3429
a(S'make the sound louder'
p3430
g15
tp3431
a(S"don't get the clock"
p3432
g15
tp3433
a(S"please don't check what time it is"
p3434
g15
tp3435
a(S'do i have any events on tomorrow'
p3436
g15
tp3437
a(S"don't check the current time"
p3438
g15
tp3439
a(S'please spotify play last song'
p3440
g15
tp3441
a(S'please what is in new gmail'
p3442
g15
tp3443
a(S'spotify pause the song please'
p3444
g15
tp3445
a(S'please create a new event'
p3446
g15
tp3447
a(S'get forecast'
p3448
g15
tp3449
a(S"get today's forecast"
p3450
g15
tp3451
a(S'is there anything to do on thursday'
p3452
g15
tp3453
a(S'shut my computer down'
p3454
g15
tp3455
a(S'what is on my calendar for friday'
p3456
g15
tp3457
a(S"today's forecast"
p3458
g15
tp3459
a(S"today's temperature"
p3460
g15
tp3461
a(S"please what's in mail"
p3462
g15
tp3463
a(S'will you check gmail please'
p3464
g15
tp3465
a(S'clock'
p3466
g34
tp3467
a(S'open a browser please'
p3468
g15
tp3469
a(S"don't read time please"
p3470
g15
tp3471
a(S"don't check what time it is"
p3472
g15
tp3473
a(S'the news'
p3474
g15
tp3475
a(S'play song'
p3476
g15
tp3477
a(S'add a new event'
p3478
g15
tp3479
a(S"what's if it's cloudy this week"
p3480
g15
tp3481
a(S"what's temperature"
p3482
g15
tp3483
a(S'would you open mail'
p3484
g15
tp3485
a(S'the tale pretends'
p3486
g15
tp3487
a(S'please kill current window'
p3488
g15
tp3489
a(S'please read the clock'
p3490
g34
tp3491
a(S'am i free for wednesday'
p3492
g15
tp3493
a(S'do i have to do anything on thursday'
p3494
g15
tp3495
a(S'please do not check the clock'
p3496
g15
tp3497
a(S'retrieve the current time'
p3498
g34
tp3499
a(S'what events do i have on tuesday'
p3500
g15
tp3501
a(S'please shutdown'
p3502
g15
tp3503
a(S'is there anything to do today'
p3504
g15
tp3505
a(S'spotify skip ahead please'
p3506
g15
tp3507
a(S'how is the temperature'
p3508
g15
tp3509
a(S'check events for today'
p3510
g15
tp3511
a(S'do i have anything on wednesday'
p3512
g15
tp3513
a(S'lock my computer please'
p3514
g15
tp3515
a(S'check my calendar for today'
p3516
g15
tp3517
a(S'any new gmail'
p3518
g15
tp3519
a(S'will you open my inbox please'
p3520
g15
tp3521
a(S'check my calendar for next'
p3522
g15
tp3523
a(S'shut my computer down please'
p3524
g15
tp3525
a(S'could you schedule an event'
p3526
g15
tp3527
a(S'skip'
p3528
g15
tp3529
a(S"don't get clock please"
p3530
g15
tp3531
a(S"aren't there any events"
p3532
g15
tp3533
a(S'please check your watch'
p3534
g34
tp3535
a(S'please check new gmail'
p3536
g15
tp3537
a(S'can you check inbox'
p3538
g15
tp3539
a(S'please can you check new mail'
p3540
g15
tp3541
a(S'please would you check my inbox'
p3542
g15
tp3543
a(S'could you please add event'
p3544
g15
tp3545
a(S'check events on wednesday'
p3546
g15
tp3547
a(S'mute please'
p3548
g15
tp3549
a(S"don't i have to do anything on next"
p3550
g15
tp3551
a(S'create new event'
p3552
g15
tp3553
a(S'please louder'
p3554
g15
tp3555
a(S'do i have any events on thursday'
p3556
g15
tp3557
a(S'what is in my mail'
p3558
g15
tp3559
a(S"don't i have anything on tuesday"
p3560
g15
tp3561
a(S'open'
p3562
g15
tp3563
a(S'please when is it'
p3564
g34
tp3565
a(S'what do i have to do in a week'
p3566
g15
tp3567
a(S"don't i have anything to do on monday"
p3568
g15
tp3569
a(S'what time is it right now'
p3570
g34
tp3571
a(S'turn it off'
p3572
g15
tp3573
a(S'could you check new gmail'
p3574
g15
tp3575
a(S'gather the latest headlines please'
p3576
g15
tp3577
a(S'get current weather'
p3578
g15
tp3579
a(S'is there anything to do on tuesday'
p3580
g15
tp3581
a(S'please do not retrieve the time'
p3582
g15
tp3583
a(S'can you check my mail'
p3584
g15
tp3585
a(S"if it's snowing this week"
p3586
g15
tp3587
a(S"don't i have anything in a week"
p3588
g15
tp3589
a(S'please search google for'
p3590
g15
tp3591
a(S'is it snowing today'
p3592
g15
tp3593
a(S'start default browser please'
p3594
g15
tp3595
a(S'turn up the volume'
p3596
g15
tp3597
a(S"get if it's snowing this week"
p3598
g15
tp3599
a(S"please don't read your watch"
p3600
g15
tp3601
a(S'can you check inbox please'
p3602
g15
tp3603
a(S'is there anything i have to do on monday'
p3604
g15
tp3605
a(S'what is on my calendar for sunday'
p3606
g15
tp3607
a(S'can you put me on the lock screen please'
p3608
g15
tp3609
a(S'could you add new event'
p3610
g15
tp3611
a(S'get the the latest headlines'
p3612
g15
tp3613
a(S'retrieve what time it is'
p3614
g34
tp3615
a(S'find news'
p3616
g15
tp3617
a(S'what is news feed'
p3618
g15
tp3619
a(S'lock the screen'
p3620
g15
tp3621
a(S'please get the current time'
p3622
g34
tp3623
a(S"what's new in new gmail please"
p3624
g15
tp3625
a(S'please open mail'
p3626
g15
tp3627
a(S'could you check new gmail please'
p3628
g15
tp3629
a(S'go to dot org'
p3630
g15
tp3631
a(S'am i free for this day'
p3632
g15
tp3633
asS'classifier'
p3634
ccopy_reg
_reconstructor
p3635
(csklearn.pipeline
Pipeline
p3636
c__builtin__
object
p3637
Ntp3638
Rp3639
(dp3640
S'_sklearn_version'
p3641
S'0.18.1'
p3642
sS'steps'
p3643
(lp3644
(S'vect'
p3645
g3635
(csklearn.feature_extraction.text
CountVectorizer
p3646
g3637
Ntp3647
Rp3648
(dp3649
S'decode_error'
p3650
Vstrict
p3651
sS'lowercase'
p3652
I01
sS'stop_words'
p3653
NsS'vocabulary'
p3654
NsS'tokenizer'
p3655
NsS'encoding'
p3656
Vutf-8
p3657
sS'token_pattern'
p3658
V(?u)\u005cb\u005cw\u005cw+\u005cb
p3659
sS'input'
p3660
Vcontent
p3661
sS'analyzer'
p3662
Vword
p3663
sS'vocabulary_'
p3664
(dp3665
Vraining
p3666
cnumpy.core.multiarray
scalar
p3667
(cnumpy
dtype
p3668
(S'i8'
p3669
I0
I1
tp3670
Rp3671
(I3
S'<'
p3672
NNNI-1
I-1
I0
tp3673
bS'\xa2\x00\x00\x00\x00\x00\x00\x00'
p3674
tp3675
Rp3676
sVtodays
p3677
g3667
(g3671
S'\xcf\x00\x00\x00\x00\x00\x00\x00'
p3678
tp3679
Rp3680
sVmute
p3681
g3667
(g3671
S'~\x00\x00\x00\x00\x00\x00\x00'
p3682
tp3683
Rp3684
sVskip
p3685
g3667
(g3671
S'\xb7\x00\x00\x00\x00\x00\x00\x00'
p3686
tp3687
Rp3688
sVmonth
p3689
g3667
(g3671
S'|\x00\x00\x00\x00\x00\x00\x00'
p3690
tp3691
Rp3692
sVnot
p3693
g3667
(g3671
S'\x87\x00\x00\x00\x00\x00\x00\x00'
p3694
tp3695
Rp3696
sVsofter
p3697
g3667
(g3671
S'\xba\x00\x00\x00\x00\x00\x00\x00'
p3698
tp3699
Rp3700
sVkill
p3701
g3667
(g3671
S'n\x00\x00\x00\x00\x00\x00\x00'
p3702
tp3703
Rp3704
sVworld
p3705
g3667
(g3671
S'\xe6\x00\x00\x00\x00\x00\x00\x00'
p3706
tp3707
Rp3708
sVgo
p3709
g3667
(g3671
S'T\x00\x00\x00\x00\x00\x00\x00'
p3710
tp3711
Rp3712
sVheadlines
p3713
g3667
(g3671
S']\x00\x00\x00\x00\x00\x00\x00'
p3714
tp3715
Rp3716
sVfind
p3717
g3667
(g3671
S'G\x00\x00\x00\x00\x00\x00\x00'
p3718
tp3719
Rp3720
sVprevious
p3721
g3667
(g3671
S'\x98\x00\x00\x00\x00\x00\x00\x00'
p3722
tp3723
Rp3724
sVspotify
p3725
g3667
(g3671
S'\xbd\x00\x00\x00\x00\x00\x00\x00'
p3726
tp3727
Rp3728
sVpause
p3729
g3667
(g3671
S'\x91\x00\x00\x00\x00\x00\x00\x00'
p3730
tp3731
Rp3732
sVsnowing
p3733
g3667
(g3671
S'\xb9\x00\x00\x00\x00\x00\x00\x00'
p3734
tp3735
Rp3736
sVsunday
p3737
g3667
(g3671
S'\xc2\x00\x00\x00\x00\x00\x00\x00'
p3738
tp3739
Rp3740
sVsend
p3741
g3667
(g3671
S'\xb1\x00\x00\x00\x00\x00\x00\x00'
p3742
tp3743
Rp3744
sVaren
p3745
g3667
(g3671
S'\r\x00\x00\x00\x00\x00\x00\x00'
p3746
tp3747
Rp3748
sVto
p3749
g3667
(g3671
S'\xcd\x00\x00\x00\x00\x00\x00\x00'
p3750
tp3751
Rp3752
sVadd
p3753
g3667
(g3671
S'\x02\x00\x00\x00\x00\x00\x00\x00'
p3754
tp3755
Rp3756
sVgoing
p3757
g3667
(g3671
S'U\x00\x00\x00\x00\x00\x00\x00'
p3758
tp3759
Rp3760
sVmail
p3761
g3667
(g3671
S'v\x00\x00\x00\x00\x00\x00\x00'
p3762
tp3763
Rp3764
sVbye
p3765
g3667
(g3671
S'\x19\x00\x00\x00\x00\x00\x00\x00'
p3766
tp3767
Rp3768
sVdo
p3769
g3667
(g3671
S'4\x00\x00\x00\x00\x00\x00\x00'
p3770
tp3771
Rp3772
sVpredict
p3773
g3667
(g3671
S'\x96\x00\x00\x00\x00\x00\x00\x00'
p3774
tp3775
Rp3776
sVgood
p3777
g3667
(g3671
S'V\x00\x00\x00\x00\x00\x00\x00'
p3778
tp3779
Rp3780
sVemergency
p3781
g3667
(g3671
S'>\x00\x00\x00\x00\x00\x00\x00'
p3782
tp3783
Rp3784
sVget
p3785
g3667
(g3671
S'P\x00\x00\x00\x00\x00\x00\x00'
p3786
tp3787
Rp3788
sVya
p3789
g3667
(g3671
S'\xe8\x00\x00\x00\x00\x00\x00\x00'
p3790
tp3791
Rp3792
sVmaterial
p3793
g3667
(g3671
S'x\x00\x00\x00\x00\x00\x00\x00'
p3794
tp3795
Rp3796
sVwatch
p3797
g3667
(g3671
S'\xdc\x00\x00\x00\x00\x00\x00\x00'
p3798
tp3799
Rp3800
sVanswer
p3801
g3667
(g3671
S'\t\x00\x00\x00\x00\x00\x00\x00'
p3802
tp3803
Rp3804
sVreport
p3805
g3667
(g3671
S'\xa7\x00\x00\x00\x00\x00\x00\x00'
p3806
tp3807
Rp3808
sVusing
p3809
g3667
(g3671
S'\xda\x00\x00\x00\x00\x00\x00\x00'
p3810
tp3811
Rp3812
sVnow
p3813
g3667
(g3671
S'\x88\x00\x00\x00\x00\x00\x00\x00'
p3814
tp3815
Rp3816
sVday
p3817
g3667
(g3671
S',\x00\x00\x00\x00\x00\x00\x00'
p3818
tp3819
Rp3820
sVdreams
p3821
g3667
(g3671
S':\x00\x00\x00\x00\x00\x00\x00'
p3822
tp3823
Rp3824
sVintel
p3825
g3667
(g3671
S'h\x00\x00\x00\x00\x00\x00\x00'
p3826
tp3827
Rp3828
sVshoulder
p3829
g3667
(g3671
S'\xb3\x00\x00\x00\x00\x00\x00\x00'
p3830
tp3831
Rp3832
sVgov
p3833
g3667
(g3671
S'Y\x00\x00\x00\x00\x00\x00\x00'
p3834
tp3835
Rp3836
sValex
p3837
g3667
(g3671
S'\x04\x00\x00\x00\x00\x00\x00\x00'
p3838
tp3839
Rp3840
sVlike
p3841
g3667
(g3671
S'q\x00\x00\x00\x00\x00\x00\x00'
p3842
tp3843
Rp3844
sVgossips
p3845
g3667
(g3671
S'X\x00\x00\x00\x00\x00\x00\x00'
p3846
tp3847
Rp3848
sVdidn
p3849
g3667
(g3671
S'3\x00\x00\x00\x00\x00\x00\x00'
p3850
tp3851
Rp3852
sVwednesday
p3853
g3667
(g3671
S'\xdf\x00\x00\x00\x00\x00\x00\x00'
p3854
tp3855
Rp3856
sVcloudy
p3857
g3667
(g3671
S'#\x00\x00\x00\x00\x00\x00\x00'
p3858
tp3859
Rp3860
sVtry
p3861
g3667
(g3671
S'\xd2\x00\x00\x00\x00\x00\x00\x00'
p3862
tp3863
Rp3864
sVtunez
p3865
g3667
(g3671
S'\xd6\x00\x00\x00\x00\x00\x00\x00'
p3866
tp3867
Rp3868
sVgimme
p3869
g3667
(g3671
S'Q\x00\x00\x00\x00\x00\x00\x00'
p3870
tp3871
Rp3872
sVweather
p3873
g3667
(g3671
S'\xde\x00\x00\x00\x00\x00\x00\x00'
p3874
tp3875
Rp3876
sVnight
p3877
g3667
(g3671
S'\x85\x00\x00\x00\x00\x00\x00\x00'
p3878
tp3879
Rp3880
sVtunes
p3881
g3667
(g3671
S'\xd5\x00\x00\x00\x00\x00\x00\x00'
p3882
tp3883
Rp3884
sVclassifier
p3885
g3667
(g3671
S' \x00\x00\x00\x00\x00\x00\x00'
p3886
tp3887
Rp3888
sVinbox
p3889
g3667
(g3671
S'e\x00\x00\x00\x00\x00\x00\x00'
p3890
tp3891
Rp3892
sVset
p3893
g3667
(g3671
S'\xb2\x00\x00\x00\x00\x00\x00\x00'
p3894
tp3895
Rp3896
sVretrieve
p3897
g3667
(g3671
S'\xa8\x00\x00\x00\x00\x00\x00\x00'
p3898
tp3899
Rp3900
sVee
p3901
g3667
(g3671
S'=\x00\x00\x00\x00\x00\x00\x00'
p3902
tp3903
Rp3904
sVintelligence
p3905
g3667
(g3671
S'i\x00\x00\x00\x00\x00\x00\x00'
p3906
tp3907
Rp3908
sVedu
p3909
g3667
(g3671
S'<\x00\x00\x00\x00\x00\x00\x00'
p3910
tp3911
Rp3912
sVback
p3913
g3667
(g3671
S'\x0e\x00\x00\x00\x00\x00\x00\x00'
p3914
tp3915
Rp3916
sVhail
p3917
g3667
(g3671
S'[\x00\x00\x00\x00\x00\x00\x00'
p3918
tp3919
Rp3920
sValice
p3921
g3667
(g3671
S'\x05\x00\x00\x00\x00\x00\x00\x00'
p3922
tp3923
Rp3924
sVsee
p3925
g3667
(g3671
S'\xb0\x00\x00\x00\x00\x00\x00\x00'
p3926
tp3927
Rp3928
sVlouder
p3929
g3667
(g3671
S't\x00\x00\x00\x00\x00\x00\x00'
p3930
tp3931
Rp3932
sVare
p3933
g3667
(g3671
S'\x0c\x00\x00\x00\x00\x00\x00\x00'
p3934
tp3935
Rp3936
sVclose
p3937
g3667
(g3671
S'"\x00\x00\x00\x00\x00\x00\x00'
p3938
tp3939
Rp3940
sVcalendar
p3941
g3667
(g3671
S'\x1b\x00\x00\x00\x00\x00\x00\x00'
p3942
tp3943
Rp3944
sVextract
p3945
g3667
(g3671
S'B\x00\x00\x00\x00\x00\x00\x00'
p3946
tp3947
Rp3948
sVcold
p3949
g3667
(g3671
S'$\x00\x00\x00\x00\x00\x00\x00'
p3950
tp3951
Rp3952
sVout
p3953
g3667
(g3671
S'\x8f\x00\x00\x00\x00\x00\x00\x00'
p3954
tp3955
Rp3956
sVcategory
p3957
g3667
(g3671
S'\x1d\x00\x00\x00\x00\x00\x00\x00'
p3958
tp3959
Rp3960
sVwhat
p3961
g3667
(g3671
S'\xe1\x00\x00\x00\x00\x00\x00\x00'
p3962
tp3963
Rp3964
sVfor
p3965
g3667
(g3671
S'I\x00\x00\x00\x00\x00\x00\x00'
p3966
tp3967
Rp3968
sVclock
p3969
g3667
(g3671
S'!\x00\x00\x00\x00\x00\x00\x00'
p3970
tp3971
Rp3972
sVdebrief
p3973
g3667
(g3671
S'-\x00\x00\x00\x00\x00\x00\x00'
p3974
tp3975
Rp3976
sVcurrently
p3977
g3667
(g3671
S'+\x00\x00\x00\x00\x00\x00\x00'
p3978
tp3979
Rp3980
sVplease
p3981
g3667
(g3671
S'\x94\x00\x00\x00\x00\x00\x00\x00'
p3982
tp3983
Rp3984
sVbrief
p3985
g3667
(g3671
S'\x15\x00\x00\x00\x00\x00\x00\x00'
p3986
tp3987
Rp3988
sVforecast
p3989
g3667
(g3671
S'J\x00\x00\x00\x00\x00\x00\x00'
p3990
tp3991
Rp3992
sVcell
p3993
g3667
(g3671
S'\x1e\x00\x00\x00\x00\x00\x00\x00'
p3994
tp3995
Rp3996
sVre
p3997
g3667
(g3671
S'\xa4\x00\x00\x00\x00\x00\x00\x00'
p3998
tp3999
Rp4000
sVexit
p4001
g3667
(g3671
S'A\x00\x00\x00\x00\x00\x00\x00'
p4002
tp4003
Rp4004
sVabove
p4005
g3667
(g3671
S'\x00\x00\x00\x00\x00\x00\x00\x00'
p4006
tp4007
Rp4008
sVnew
p4009
g3667
(g3671
S'\x81\x00\x00\x00\x00\x00\x00\x00'
p4010
tp4011
Rp4012
sVnet
p4013
g3667
(g3671
S'\x80\x00\x00\x00\x00\x00\x00\x00'
p4014
tp4015
Rp4016
sVmoderate
p4017
g3667
(g3671
S'z\x00\x00\x00\x00\x00\x00\x00'
p4018
tp4019
Rp4020
sVissue
p4021
g3667
(g3671
S'l\x00\x00\x00\x00\x00\x00\x00'
p4022
tp4023
Rp4024
sVbe
p4025
g3667
(g3671
S'\x10\x00\x00\x00\x00\x00\x00\x00'
p4026
tp4027
Rp4028
sVshut
p4029
g3667
(g3671
S'\xb4\x00\x00\x00\x00\x00\x00\x00'
p4030
tp4031
Rp4032
sVnoise
p4033
g3667
(g3671
S'\x86\x00\x00\x00\x00\x00\x00\x00'
p4034
tp4035
Rp4036
sVtomorrow
p4037
g3667
(g3671
S'\xd0\x00\x00\x00\x00\x00\x00\x00'
p4038
tp4039
Rp4040
sVschedule
p4041
g3667
(g3671
S'\xad\x00\x00\x00\x00\x00\x00\x00'
p4042
tp4043
Rp4044
sVscreen
p4045
g3667
(g3671
S'\xae\x00\x00\x00\x00\x00\x00\x00'
p4046
tp4047
Rp4048
sVdictates
p4049
g3667
(g3671
S'2\x00\x00\x00\x00\x00\x00\x00'
p4050
tp4051
Rp4052
sVfree
p4053
g3667
(g3671
S'K\x00\x00\x00\x00\x00\x00\x00'
p4054
tp4055
Rp4056
sVwe
p4057
g3667
(g3671
S'\xdd\x00\x00\x00\x00\x00\x00\x00'
p4058
tp4059
Rp4060
sVillustration
p4061
g3667
(g3671
S'c\x00\x00\x00\x00\x00\x00\x00'
p4062
tp4063
Rp4064
sVactive
p4065
g3667
(g3671
S'\x01\x00\x00\x00\x00\x00\x00\x00'
p4066
tp4067
Rp4068
sVnews
p4069
g3667
(g3671
S'\x82\x00\x00\x00\x00\x00\x00\x00'
p4070
tp4071
Rp4072
sVpost
p4073
g3667
(g3671
S'\x95\x00\x00\x00\x00\x00\x00\x00'
p4074
tp4075
Rp4076
sVdon
p4077
g3667
(g3671
S'7\x00\x00\x00\x00\x00\x00\x00'
p4078
tp4079
Rp4080
sVearlier
p4081
g3667
(g3671
S';\x00\x00\x00\x00\x00\x00\x00'
p4082
tp4083
Rp4084
sVon
p4085
g3667
(g3671
S'\x8c\x00\x00\x00\x00\x00\x00\x00'
p4086
tp4087
Rp4088
sVsearch
p4089
g3667
(g3671
S'\xaf\x00\x00\x00\x00\x00\x00\x00'
p4090
tp4091
Rp4092
sVlast
p4093
g3667
(g3671
S'o\x00\x00\x00\x00\x00\x00\x00'
p4094
tp4095
Rp4096
sVahead
p4097
g3667
(g3671
S'\x03\x00\x00\x00\x00\x00\x00\x00'
p4098
tp4099
Rp4100
sVof
p4101
g3667
(g3671
S'\x89\x00\x00\x00\x00\x00\x00\x00'
p4102
tp4103
Rp4104
sVcould
p4105
g3667
(g3671
S'(\x00\x00\x00\x00\x00\x00\x00'
p4106
tp4107
Rp4108
sVcurrent
p4109
g3667
(g3671
S'*\x00\x00\x00\x00\x00\x00\x00'
p4110
tp4111
Rp4112
sVquiet
p4113
g3667
(g3671
S'\x9e\x00\x00\x00\x00\x00\x00\x00'
p4114
tp4115
Rp4116
sVturn
p4117
g3667
(g3671
S'\xd7\x00\x00\x00\x00\x00\x00\x00'
p4118
tp4119
Rp4120
sVisn
p4121
g3667
(g3671
S'k\x00\x00\x00\x00\x00\x00\x00'
p4122
tp4123
Rp4124
sVbrowsing
p4125
g3667
(g3671
S'\x18\x00\x00\x00\x00\x00\x00\x00'
p4126
tp4127
Rp4128
sVcom
p4129
g3667
(g3671
S'%\x00\x00\x00\x00\x00\x00\x00'
p4130
tp4131
Rp4132
sVthink
p4133
g3667
(g3671
S'\xc9\x00\x00\x00\x00\x00\x00\x00'
p4134
tp4135
Rp4136
sVfeed
p4137
g3667
(g3671
S'F\x00\x00\x00\x00\x00\x00\x00'
p4138
tp4139
Rp4140
sVthis
p4141
g3667
(g3671
S'\xca\x00\x00\x00\x00\x00\x00\x00'
p4142
tp4143
Rp4144
sVwhats
p4145
g3667
(g3671
S'\xe2\x00\x00\x00\x00\x00\x00\x00'
p4146
tp4147
Rp4148
sVfeatures
p4149
g3667
(g3671
S'E\x00\x00\x00\x00\x00\x00\x00'
p4150
tp4151
Rp4152
sVsimple
p4153
g3667
(g3671
S'\xb6\x00\x00\x00\x00\x00\x00\x00'
p4154
tp4155
Rp4156
sVsweet
p4157
g3667
(g3671
S'\xc3\x00\x00\x00\x00\x00\x00\x00'
p4158
tp4159
Rp4160
sVtuesday
p4161
g3667
(g3671
S'\xd3\x00\x00\x00\x00\x00\x00\x00'
p4162
tp4163
Rp4164
sVunmute
p4165
g3667
(g3671
S'\xd8\x00\x00\x00\x00\x00\x00\x00'
p4166
tp4167
Rp4168
sVyourself
p4169
g3667
(g3671
S'\xeb\x00\x00\x00\x00\x00\x00\x00'
p4170
tp4171
Rp4172
sVdown
p4173
g3667
(g3671
S'9\x00\x00\x00\x00\x00\x00\x00'
p4174
tp4175
Rp4176
sVput
p4177
g3667
(g3671
S'\x9c\x00\x00\x00\x00\x00\x00\x00'
p4178
tp4179
Rp4180
sVgoogle
p4181
g3667
(g3671
S'W\x00\x00\x00\x00\x00\x00\x00'
p4182
tp4183
Rp4184
sVdecrease
p4185
g3667
(g3671
S'/\x00\x00\x00\x00\x00\x00\x00'
p4186
tp4187
Rp4188
sVthursday
p4189
g3667
(g3671
S'\xcb\x00\x00\x00\x00\x00\x00\x00'
p4190
tp4191
Rp4192
sVshutdown
p4193
g3667
(g3671
S'\xb5\x00\x00\x00\x00\x00\x00\x00'
p4194
tp4195
Rp4196
sVfake
p4197
g3667
(g3671
S'C\x00\x00\x00\x00\x00\x00\x00'
p4198
tp4199
Rp4200
sVopen
p4201
g3667
(g3671
S'\x8d\x00\x00\x00\x00\x00\x00\x00'
p4202
tp4203
Rp4204
sVyour
p4205
g3667
(g3671
S'\xea\x00\x00\x00\x00\x00\x00\x00'
p4206
tp4207
Rp4208
sVquit
p4209
g3667
(g3671
S'\xa0\x00\x00\x00\x00\x00\x00\x00'
p4210
tp4211
Rp4212
sVtemperature
p4213
g3667
(g3671
S'\xc6\x00\x00\x00\x00\x00\x00\x00'
p4214
tp4215
Rp4216
sVwould
p4217
g3667
(g3671
S'\xe7\x00\x00\x00\x00\x00\x00\x00'
p4218
tp4219
Rp4220
sVsake
p4221
g3667
(g3671
S'\xaa\x00\x00\x00\x00\x00\x00\x00'
p4222
tp4223
Rp4224
sVdecent
p4225
g3667
(g3671
S'.\x00\x00\x00\x00\x00\x00\x00'
p4226
tp4227
Rp4228
sVcreate
p4229
g3667
(g3671
S')\x00\x00\x00\x00\x00\x00\x00'
p4230
tp4231
Rp4232
sVthere
p4233
g3667
(g3671
S'\xc8\x00\x00\x00\x00\x00\x00\x00'
p4234
tp4235
Rp4236
sVquestion
p4237
g3667
(g3671
S'\x9d\x00\x00\x00\x00\x00\x00\x00'
p4238
tp4239
Rp4240
sVwindow
p4241
g3667
(g3671
S'\xe5\x00\x00\x00\x00\x00\x00\x00'
p4242
tp4243
Rp4244
sVnext
p4245
g3667
(g3671
S'\x84\x00\x00\x00\x00\x00\x00\x00'
p4246
tp4247
Rp4248
sVstart
p4249
g3667
(g3671
S'\xbf\x00\x00\x00\x00\x00\x00\x00'
p4250
tp4251
Rp4252
sVlive
p4253
g3667
(g3671
S'r\x00\x00\x00\x00\x00\x00\x00'
p4254
tp4255
Rp4256
sVprogram
p4257
g3667
(g3671
S'\x9b\x00\x00\x00\x00\x00\x00\x00'
p4258
tp4259
Rp4260
sVmusic
p4261
g3667
(g3671
S'}\x00\x00\x00\x00\x00\x00\x00'
p4262
tp4263
Rp4264
sVtell
p4265
g3667
(g3671
S'\xc5\x00\x00\x00\x00\x00\x00\x00'
p4266
tp4267
Rp4268
sVtoday
p4269
g3667
(g3671
S'\xce\x00\x00\x00\x00\x00\x00\x00'
p4270
tp4271
Rp4272
sVpretends
p4273
g3667
(g3671
S'\x97\x00\x00\x00\x00\x00\x00\x00'
p4274
tp4275
Rp4276
sVsound
p4277
g3667
(g3671
S'\xbc\x00\x00\x00\x00\x00\x00\x00'
p4278
tp4279
Rp4280
sVreleasing
p4281
g3667
(g3671
S'\xa6\x00\x00\x00\x00\x00\x00\x00'
p4282
tp4283
Rp4284
sVcommands
p4285
g3667
(g3671
S'&\x00\x00\x00\x00\x00\x00\x00'
p4286
tp4287
Rp4288
sVit
p4289
g3667
(g3671
S'm\x00\x00\x00\x00\x00\x00\x00'
p4290
tp4291
Rp4292
sVvolume
p4293
g3667
(g3671
S'\xdb\x00\x00\x00\x00\x00\x00\x00'
p4294
tp4295
Rp4296
sVtrain
p4297
g3667
(g3671
S'\xd1\x00\x00\x00\x00\x00\x00\x00'
p4298
tp4299
Rp4300
sVstick
p4301
g3667
(g3671
S'\xc0\x00\x00\x00\x00\x00\x00\x00'
p4302
tp4303
Rp4304
sVbeat
p4305
g3667
(g3671
S'\x11\x00\x00\x00\x00\x00\x00\x00'
p4306
tp4307
Rp4308
sVfoggy
p4309
g3667
(g3671
S'H\x00\x00\x00\x00\x00\x00\x00'
p4310
tp4311
Rp4312
sVdocument
p4313
g3667
(g3671
S'5\x00\x00\x00\x00\x00\x00\x00'
p4314
tp4315
Rp4316
sVme
p4317
g3667
(g3671
S'y\x00\x00\x00\x00\x00\x00\x00'
p4318
tp4319
Rp4320
sVanything
p4321
g3667
(g3671
S'\x0b\x00\x00\x00\x00\x00\x00\x00'
p4322
tp4323
Rp4324
sVfriday
p4325
g3667
(g3671
S'M\x00\x00\x00\x00\x00\x00\x00'
p4326
tp4327
Rp4328
sVdefault
p4329
g3667
(g3671
S'1\x00\x00\x00\x00\x00\x00\x00'
p4330
tp4331
Rp4332
sVup
p4333
g3667
(g3671
S'\xd9\x00\x00\x00\x00\x00\x00\x00'
p4334
tp4335
Rp4336
sVdogs
p4337
g3667
(g3671
S'6\x00\x00\x00\x00\x00\x00\x00'
p4338
tp4339
Rp4340
sVwill
p4341
g3667
(g3671
S'\xe4\x00\x00\x00\x00\x00\x00\x00'
p4342
tp4343
Rp4344
sVcomputer
p4345
g3667
(g3671
S"'\x00\x00\x00\x00\x00\x00\x00"
p4346
tp4347
Rp4348
sVcan
p4349
g3667
(g3671
S'\x1c\x00\x00\x00\x00\x00\x00\x00'
p4350
tp4351
Rp4352
sVbriefing
p4353
g3667
(g3671
S'\x16\x00\x00\x00\x00\x00\x00\x00'
p4354
tp4355
Rp4356
sVproblem
p4357
g3667
(g3671
S'\x99\x00\x00\x00\x00\x00\x00\x00'
p4358
tp4359
Rp4360
sVoutcome
p4361
g3667
(g3671
S'\x90\x00\x00\x00\x00\x00\x00\x00'
p4362
tp4363
Rp4364
sVmy
p4365
g3667
(g3671
S'\x7f\x00\x00\x00\x00\x00\x00\x00'
p4366
tp4367
Rp4368
sVdee
p4369
g3667
(g3671
S'0\x00\x00\x00\x00\x00\x00\x00'
p4370
tp4371
Rp4372
sVfeature
p4373
g3667
(g3671
S'D\x00\x00\x00\x00\x00\x00\x00'
p4374
tp4375
Rp4376
sVbrowser
p4377
g3667
(g3671
S'\x17\x00\x00\x00\x00\x00\x00\x00'
p4378
tp4379
Rp4380
sVsaturday
p4381
g3667
(g3671
S'\xac\x00\x00\x00\x00\x00\x00\x00'
p4382
tp4383
Rp4384
sVgive
p4385
g3667
(g3671
S'R\x00\x00\x00\x00\x00\x00\x00'
p4386
tp4387
Rp4388
sValmost
p4389
g3667
(g3671
S'\x06\x00\x00\x00\x00\x00\x00\x00'
p4390
tp4391
Rp4392
sVlock
p4393
g3667
(g3671
S's\x00\x00\x00\x00\x00\x00\x00'
p4394
tp4395
Rp4396
sVis
p4397
g3667
(g3671
S'j\x00\x00\x00\x00\x00\x00\x00'
p4398
tp4399
Rp4400
sVin
p4401
g3667
(g3671
S'd\x00\x00\x00\x00\x00\x00\x00'
p4402
tp4403
Rp4404
sVam
p4405
g3667
(g3671
S'\x07\x00\x00\x00\x00\x00\x00\x00'
p4406
tp4407
Rp4408
sVfuck
p4409
g3667
(g3671
S'N\x00\x00\x00\x00\x00\x00\x00'
p4410
tp4411
Rp4412
sVan
p4413
g3667
(g3671
S'\x08\x00\x00\x00\x00\x00\x00\x00'
p4414
tp4415
Rp4416
sVbeats
p4417
g3667
(g3671
S'\x12\x00\x00\x00\x00\x00\x00\x00'
p4418
tp4419
Rp4420
sVright
p4421
g3667
(g3671
S'\xa9\x00\x00\x00\x00\x00\x00\x00'
p4422
tp4423
Rp4424
sVhave
p4425
g3667
(g3671
S'\\\x00\x00\x00\x00\x00\x00\x00'
p4426
tp4427
Rp4428
sVstalls
p4429
g3667
(g3671
S'\xbe\x00\x00\x00\x00\x00\x00\x00'
p4430
tp4431
Rp4432
sVcheck
p4433
g3667
(g3671
S'\x1f\x00\x00\x00\x00\x00\x00\x00'
p4434
tp4435
Rp4436
sVif
p4437
g3667
(g3671
S'b\x00\x00\x00\x00\x00\x00\x00'
p4438
tp4439
Rp4440
sVinformation
p4441
g3667
(g3671
S'g\x00\x00\x00\x00\x00\x00\x00'
p4442
tp4443
Rp4444
sVrainy
p4445
g3667
(g3671
S'\xa3\x00\x00\x00\x00\x00\x00\x00'
p4446
tp4447
Rp4448
sVzero
p4449
g3667
(g3671
S'\xec\x00\x00\x00\x00\x00\x00\x00'
p4450
tp4451
Rp4452
sVmake
p4453
g3667
(g3671
S'w\x00\x00\x00\x00\x00\x00\x00'
p4454
tp4455
Rp4456
sVsong
p4457
g3667
(g3671
S'\xbb\x00\x00\x00\x00\x00\x00\x00'
p4458
tp4459
Rp4460
sVwhen
p4461
g3667
(g3671
S'\xe3\x00\x00\x00\x00\x00\x00\x00'
p4462
tp4463
Rp4464
sVsnow
p4465
g3667
(g3671
S'\xb8\x00\x00\x00\x00\x00\x00\x00'
p4466
tp4467
Rp4468
sVsame
p4469
g3667
(g3671
S'\xab\x00\x00\x00\x00\x00\x00\x00'
p4470
tp4471
Rp4472
sVevent
p4473
g3667
(g3671
S'?\x00\x00\x00\x00\x00\x00\x00'
p4474
tp4475
Rp4476
sVbeside
p4477
g3667
(g3671
S'\x14\x00\x00\x00\x00\x00\x00\x00'
p4478
tp4479
Rp4480
sVhow
p4481
g3667
(g3671
S'a\x00\x00\x00\x00\x00\x00\x00'
p4482
tp4483
Rp4484
sVhot
p4485
g3667
(g3671
S'`\x00\x00\x00\x00\x00\x00\x00'
p4486
tp4487
Rp4488
sVbefore
p4489
g3667
(g3671
S'\x13\x00\x00\x00\x00\x00\x00\x00'
p4490
tp4491
Rp4492
sVyou
p4493
g3667
(g3671
S'\xe9\x00\x00\x00\x00\x00\x00\x00'
p4494
tp4495
Rp4496
sVgmail
p4497
g3667
(g3671
S'S\x00\x00\x00\x00\x00\x00\x00'
p4498
tp4499
Rp4500
sVevents
p4501
g3667
(g3671
S'@\x00\x00\x00\x00\x00\x00\x00'
p4502
tp4503
Rp4504
sVhigher
p4505
g3667
(g3671
S'_\x00\x00\x00\x00\x00\x00\x00'
p4506
tp4507
Rp4508
sVweek
p4509
g3667
(g3671
S'\xe0\x00\x00\x00\x00\x00\x00\x00'
p4510
tp4511
Rp4512
sVplay
p4513
g3667
(g3671
S'\x92\x00\x00\x00\x00\x00\x00\x00'
p4514
tp4515
Rp4516
sVokay
p4517
g3667
(g3671
S'\x8b\x00\x00\x00\x00\x00\x00\x00'
p4518
tp4519
Rp4520
sVhey
p4521
g3667
(g3671
S'^\x00\x00\x00\x00\x00\x00\x00'
p4522
tp4523
Rp4524
sVmonday
p4525
g3667
(g3671
S'{\x00\x00\x00\x00\x00\x00\x00'
p4526
tp4527
Rp4528
sVany
p4529
g3667
(g3671
S'\n\x00\x00\x00\x00\x00\x00\x00'
p4530
tp4531
Rp4532
sVstop
p4533
g3667
(g3671
S'\xc1\x00\x00\x00\x00\x00\x00\x00'
p4534
tp4535
Rp4536
sVorg
p4537
g3667
(g3671
S'\x8e\x00\x00\x00\x00\x00\x00\x00'
p4538
tp4539
Rp4540
sVbackbone
p4541
g3667
(g3671
S'\x0f\x00\x00\x00\x00\x00\x00\x00'
p4542
tp4543
Rp4544
sVproblems
p4545
g3667
(g3671
S'\x9a\x00\x00\x00\x00\x00\x00\x00'
p4546
tp4547
Rp4548
sVquieter
p4549
g3667
(g3671
S'\x9f\x00\x00\x00\x00\x00\x00\x00'
p4550
tp4551
Rp4552
sVrain
p4553
g3667
(g3671
S'\xa1\x00\x00\x00\x00\x00\x00\x00'
p4554
tp4555
Rp4556
sVfreezing
p4557
g3667
(g3671
S'L\x00\x00\x00\x00\x00\x00\x00'
p4558
tp4559
Rp4560
sVbyebye
p4561
g3667
(g3671
S'\x1a\x00\x00\x00\x00\x00\x00\x00'
p4562
tp4563
Rp4564
sVtune
p4565
g3667
(g3671
S'\xd4\x00\x00\x00\x00\x00\x00\x00'
p4566
tp4567
Rp4568
sVgrief
p4569
g3667
(g3671
S'Z\x00\x00\x00\x00\x00\x00\x00'
p4570
tp4571
Rp4572
sVlower
p4573
g3667
(g3671
S'u\x00\x00\x00\x00\x00\x00\x00'
p4574
tp4575
Rp4576
sVoff
p4577
g3667
(g3671
S'\x8a\x00\x00\x00\x00\x00\x00\x00'
p4578
tp4579
Rp4580
sVread
p4581
g3667
(g3671
S'\xa5\x00\x00\x00\x00\x00\x00\x00'
p4582
tp4583
Rp4584
sVgather
p4585
g3667
(g3671
S'O\x00\x00\x00\x00\x00\x00\x00'
p4586
tp4587
Rp4588
sVtale
p4589
g3667
(g3671
S'\xc4\x00\x00\x00\x00\x00\x00\x00'
p4590
tp4591
Rp4592
sVtime
p4593
g3667
(g3671
S'\xcc\x00\x00\x00\x00\x00\x00\x00'
p4594
tp4595
Rp4596
sVnewsfeed
p4597
g3667
(g3671
S'\x83\x00\x00\x00\x00\x00\x00\x00'
p4598
tp4599
Rp4600
sVthe
p4601
g3667
(g3671
S'\xc7\x00\x00\x00\x00\x00\x00\x00'
p4602
tp4603
Rp4604
sVincrease
p4605
g3667
(g3671
S'f\x00\x00\x00\x00\x00\x00\x00'
p4606
tp4607
Rp4608
sVplaying
p4609
g3667
(g3671
S'\x93\x00\x00\x00\x00\x00\x00\x00'
p4610
tp4611
Rp4612
sVdot
p4613
g3667
(g3671
S'8\x00\x00\x00\x00\x00\x00\x00'
p4614
tp4615
Rp4616
sVlatest
p4617
g3667
(g3671
S'p\x00\x00\x00\x00\x00\x00\x00'
p4618
tp4619
Rp4620
ssS'binary'
p4621
I00
sS'ngram_range'
p4622
(I1
I1
tp4623
sg3641
g3642
sS'max_df'
p4624
F1.0
sS'min_df'
p4625
I1
sS'max_features'
p4626
NsS'fixed_vocabulary_'
p4627
I00
sS'strip_accents'
p4628
NsS'dtype'
p4629
cnumpy
int64
p4630
sS'stop_words_'
p4631
c__builtin__
set
p4632
((lp4633
tp4634
Rp4635
sS'preprocessor'
p4636
Nsbtp4637
a(S'tfidf'
p4638
g3635
(csklearn.feature_extraction.text
TfidfTransformer
p4639
g3637
Ntp4640
Rp4641
(dp4642
S'smooth_idf'
p4643
I01
sg3641
g3642
sS'_idf_diag'
p4644
g3635
(cscipy.sparse.csr
csr_matrix
p4645
g3637
Ntp4646
Rp4647
(dp4648
S'indices'
p4649
cnumpy.core.multiarray
_reconstruct
p4650
(cnumpy
ndarray
p4651
(I0
tp4652
S'b'
p4653
tp4654
Rp4655
(I1
(I237
tp4656
g3668
(S'i4'
p4657
I0
I1
tp4658
Rp4659
(I3
S'<'
p4660
NNNI-1
I-1
I0
tp4661
bI00
S'\x00\x00\x00\x00\x01\x00\x00\x00\x02\x00\x00\x00\x03\x00\x00\x00\x04\x00\x00\x00\x05\x00\x00\x00\x06\x00\x00\x00\x07\x00\x00\x00\x08\x00\x00\x00\t\x00\x00\x00\n\x00\x00\x00\x0b\x00\x00\x00\x0c\x00\x00\x00\r\x00\x00\x00\x0e\x00\x00\x00\x0f\x00\x00\x00\x10\x00\x00\x00\x11\x00\x00\x00\x12\x00\x00\x00\x13\x00\x00\x00\x14\x00\x00\x00\x15\x00\x00\x00\x16\x00\x00\x00\x17\x00\x00\x00\x18\x00\x00\x00\x19\x00\x00\x00\x1a\x00\x00\x00\x1b\x00\x00\x00\x1c\x00\x00\x00\x1d\x00\x00\x00\x1e\x00\x00\x00\x1f\x00\x00\x00 \x00\x00\x00!\x00\x00\x00"\x00\x00\x00#\x00\x00\x00$\x00\x00\x00%\x00\x00\x00&\x00\x00\x00\'\x00\x00\x00(\x00\x00\x00)\x00\x00\x00*\x00\x00\x00+\x00\x00\x00,\x00\x00\x00-\x00\x00\x00.\x00\x00\x00/\x00\x00\x000\x00\x00\x001\x00\x00\x002\x00\x00\x003\x00\x00\x004\x00\x00\x005\x00\x00\x006\x00\x00\x007\x00\x00\x008\x00\x00\x009\x00\x00\x00:\x00\x00\x00;\x00\x00\x00<\x00\x00\x00=\x00\x00\x00>\x00\x00\x00?\x00\x00\x00@\x00\x00\x00A\x00\x00\x00B\x00\x00\x00C\x00\x00\x00D\x00\x00\x00E\x00\x00\x00F\x00\x00\x00G\x00\x00\x00H\x00\x00\x00I\x00\x00\x00J\x00\x00\x00K\x00\x00\x00L\x00\x00\x00M\x00\x00\x00N\x00\x00\x00O\x00\x00\x00P\x00\x00\x00Q\x00\x00\x00R\x00\x00\x00S\x00\x00\x00T\x00\x00\x00U\x00\x00\x00V\x00\x00\x00W\x00\x00\x00X\x00\x00\x00Y\x00\x00\x00Z\x00\x00\x00[\x00\x00\x00\\\x00\x00\x00]\x00\x00\x00^\x00\x00\x00_\x00\x00\x00`\x00\x00\x00a\x00\x00\x00b\x00\x00\x00c\x00\x00\x00d\x00\x00\x00e\x00\x00\x00f\x00\x00\x00g\x00\x00\x00h\x00\x00\x00i\x00\x00\x00j\x00\x00\x00k\x00\x00\x00l\x00\x00\x00m\x00\x00\x00n\x00\x00\x00o\x00\x00\x00p\x00\x00\x00q\x00\x00\x00r\x00\x00\x00s\x00\x00\x00t\x00\x00\x00u\x00\x00\x00v\x00\x00\x00w\x00\x00\x00x\x00\x00\x00y\x00\x00\x00z\x00\x00\x00{\x00\x00\x00|\x00\x00\x00}\x00\x00\x00~\x00\x00\x00\x7f\x00\x00\x00\x80\x00\x00\x00\x81\x00\x00\x00\x82\x00\x00\x00\x83\x00\x00\x00\x84\x00\x00\x00\x85\x00\x00\x00\x86\x00\x00\x00\x87\x00\x00\x00\x88\x00\x00\x00\x89\x00\x00\x00\x8a\x00\x00\x00\x8b\x00\x00\x00\x8c\x00\x00\x00\x8d\x00\x00\x00\x8e\x00\x00\x00\x8f\x00\x00\x00\x90\x00\x00\x00\x91\x00\x00\x00\x92\x00\x00\x00\x93\x00\x00\x00\x94\x00\x00\x00\x95\x00\x00\x00\x96\x00\x00\x00\x97\x00\x00\x00\x98\x00\x00\x00\x99\x00\x00\x00\x9a\x00\x00\x00\x9b\x00\x00\x00\x9c\x00\x00\x00\x9d\x00\x00\x00\x9e\x00\x00\x00\x9f\x00\x00\x00\xa0\x00\x00\x00\xa1\x00\x00\x00\xa2\x00\x00\x00\xa3\x00\x00\x00\xa4\x00\x00\x00\xa5\x00\x00\x00\xa6\x00\x00\x00\xa7\x00\x00\x00\xa8\x00\x00\x00\xa9\x00\x00\x00\xaa\x00\x00\x00\xab\x00\x00\x00\xac\x00\x00\x00\xad\x00\x00\x00\xae\x00\x00\x00\xaf\x00\x00\x00\xb0\x00\x00\x00\xb1\x00\x00\x00\xb2\x00\x00\x00\xb3\x00\x00\x00\xb4\x00\x00\x00\xb5\x00\x00\x00\xb6\x00\x00\x00\xb7\x00\x00\x00\xb8\x00\x00\x00\xb9\x00\x00\x00\xba\x00\x00\x00\xbb\x00\x00\x00\xbc\x00\x00\x00\xbd\x00\x00\x00\xbe\x00\x00\x00\xbf\x00\x00\x00\xc0\x00\x00\x00\xc1\x00\x00\x00\xc2\x00\x00\x00\xc3\x00\x00\x00\xc4\x00\x00\x00\xc5\x00\x00\x00\xc6\x00\x00\x00\xc7\x00\x00\x00\xc8\x00\x00\x00\xc9\x00\x00\x00\xca\x00\x00\x00\xcb\x00\x00\x00\xcc\x00\x00\x00\xcd\x00\x00\x00\xce\x00\x00\x00\xcf\x00\x00\x00\xd0\x00\x00\x00\xd1\x00\x00\x00\xd2\x00\x00\x00\xd3\x00\x00\x00\xd4\x00\x00\x00\xd5\x00\x00\x00\xd6\x00\x00\x00\xd7\x00\x00\x00\xd8\x00\x00\x00\xd9\x00\x00\x00\xda\x00\x00\x00\xdb\x00\x00\x00\xdc\x00\x00\x00\xdd\x00\x00\x00\xde\x00\x00\x00\xdf\x00\x00\x00\xe0\x00\x00\x00\xe1\x00\x00\x00\xe2\x00\x00\x00\xe3\x00\x00\x00\xe4\x00\x00\x00\xe5\x00\x00\x00\xe6\x00\x00\x00\xe7\x00\x00\x00\xe8\x00\x00\x00\xe9\x00\x00\x00\xea\x00\x00\x00\xeb\x00\x00\x00\xec\x00\x00\x00'
p4662
tp4663
bsS'indptr'
p4664
g4650
(g4651
(I0
tp4665
g4653
tp4666
Rp4667
(I1
(I238
tp4668
g4659
I00
S'\x00\x00\x00\x00\x01\x00\x00\x00\x02\x00\x00\x00\x03\x00\x00\x00\x04\x00\x00\x00\x05\x00\x00\x00\x06\x00\x00\x00\x07\x00\x00\x00\x08\x00\x00\x00\t\x00\x00\x00\n\x00\x00\x00\x0b\x00\x00\x00\x0c\x00\x00\x00\r\x00\x00\x00\x0e\x00\x00\x00\x0f\x00\x00\x00\x10\x00\x00\x00\x11\x00\x00\x00\x12\x00\x00\x00\x13\x00\x00\x00\x14\x00\x00\x00\x15\x00\x00\x00\x16\x00\x00\x00\x17\x00\x00\x00\x18\x00\x00\x00\x19\x00\x00\x00\x1a\x00\x00\x00\x1b\x00\x00\x00\x1c\x00\x00\x00\x1d\x00\x00\x00\x1e\x00\x00\x00\x1f\x00\x00\x00 \x00\x00\x00!\x00\x00\x00"\x00\x00\x00#\x00\x00\x00$\x00\x00\x00%\x00\x00\x00&\x00\x00\x00\'\x00\x00\x00(\x00\x00\x00)\x00\x00\x00*\x00\x00\x00+\x00\x00\x00,\x00\x00\x00-\x00\x00\x00.\x00\x00\x00/\x00\x00\x000\x00\x00\x001\x00\x00\x002\x00\x00\x003\x00\x00\x004\x00\x00\x005\x00\x00\x006\x00\x00\x007\x00\x00\x008\x00\x00\x009\x00\x00\x00:\x00\x00\x00;\x00\x00\x00<\x00\x00\x00=\x00\x00\x00>\x00\x00\x00?\x00\x00\x00@\x00\x00\x00A\x00\x00\x00B\x00\x00\x00C\x00\x00\x00D\x00\x00\x00E\x00\x00\x00F\x00\x00\x00G\x00\x00\x00H\x00\x00\x00I\x00\x00\x00J\x00\x00\x00K\x00\x00\x00L\x00\x00\x00M\x00\x00\x00N\x00\x00\x00O\x00\x00\x00P\x00\x00\x00Q\x00\x00\x00R\x00\x00\x00S\x00\x00\x00T\x00\x00\x00U\x00\x00\x00V\x00\x00\x00W\x00\x00\x00X\x00\x00\x00Y\x00\x00\x00Z\x00\x00\x00[\x00\x00\x00\\\x00\x00\x00]\x00\x00\x00^\x00\x00\x00_\x00\x00\x00`\x00\x00\x00a\x00\x00\x00b\x00\x00\x00c\x00\x00\x00d\x00\x00\x00e\x00\x00\x00f\x00\x00\x00g\x00\x00\x00h\x00\x00\x00i\x00\x00\x00j\x00\x00\x00k\x00\x00\x00l\x00\x00\x00m\x00\x00\x00n\x00\x00\x00o\x00\x00\x00p\x00\x00\x00q\x00\x00\x00r\x00\x00\x00s\x00\x00\x00t\x00\x00\x00u\x00\x00\x00v\x00\x00\x00w\x00\x00\x00x\x00\x00\x00y\x00\x00\x00z\x00\x00\x00{\x00\x00\x00|\x00\x00\x00}\x00\x00\x00~\x00\x00\x00\x7f\x00\x00\x00\x80\x00\x00\x00\x81\x00\x00\x00\x82\x00\x00\x00\x83\x00\x00\x00\x84\x00\x00\x00\x85\x00\x00\x00\x86\x00\x00\x00\x87\x00\x00\x00\x88\x00\x00\x00\x89\x00\x00\x00\x8a\x00\x00\x00\x8b\x00\x00\x00\x8c\x00\x00\x00\x8d\x00\x00\x00\x8e\x00\x00\x00\x8f\x00\x00\x00\x90\x00\x00\x00\x91\x00\x00\x00\x92\x00\x00\x00\x93\x00\x00\x00\x94\x00\x00\x00\x95\x00\x00\x00\x96\x00\x00\x00\x97\x00\x00\x00\x98\x00\x00\x00\x99\x00\x00\x00\x9a\x00\x00\x00\x9b\x00\x00\x00\x9c\x00\x00\x00\x9d\x00\x00\x00\x9e\x00\x00\x00\x9f\x00\x00\x00\xa0\x00\x00\x00\xa1\x00\x00\x00\xa2\x00\x00\x00\xa3\x00\x00\x00\xa4\x00\x00\x00\xa5\x00\x00\x00\xa6\x00\x00\x00\xa7\x00\x00\x00\xa8\x00\x00\x00\xa9\x00\x00\x00\xaa\x00\x00\x00\xab\x00\x00\x00\xac\x00\x00\x00\xad\x00\x00\x00\xae\x00\x00\x00\xaf\x00\x00\x00\xb0\x00\x00\x00\xb1\x00\x00\x00\xb2\x00\x00\x00\xb3\x00\x00\x00\xb4\x00\x00\x00\xb5\x00\x00\x00\xb6\x00\x00\x00\xb7\x00\x00\x00\xb8\x00\x00\x00\xb9\x00\x00\x00\xba\x00\x00\x00\xbb\x00\x00\x00\xbc\x00\x00\x00\xbd\x00\x00\x00\xbe\x00\x00\x00\xbf\x00\x00\x00\xc0\x00\x00\x00\xc1\x00\x00\x00\xc2\x00\x00\x00\xc3\x00\x00\x00\xc4\x00\x00\x00\xc5\x00\x00\x00\xc6\x00\x00\x00\xc7\x00\x00\x00\xc8\x00\x00\x00\xc9\x00\x00\x00\xca\x00\x00\x00\xcb\x00\x00\x00\xcc\x00\x00\x00\xcd\x00\x00\x00\xce\x00\x00\x00\xcf\x00\x00\x00\xd0\x00\x00\x00\xd1\x00\x00\x00\xd2\x00\x00\x00\xd3\x00\x00\x00\xd4\x00\x00\x00\xd5\x00\x00\x00\xd6\x00\x00\x00\xd7\x00\x00\x00\xd8\x00\x00\x00\xd9\x00\x00\x00\xda\x00\x00\x00\xdb\x00\x00\x00\xdc\x00\x00\x00\xdd\x00\x00\x00\xde\x00\x00\x00\xdf\x00\x00\x00\xe0\x00\x00\x00\xe1\x00\x00\x00\xe2\x00\x00\x00\xe3\x00\x00\x00\xe4\x00\x00\x00\xe5\x00\x00\x00\xe6\x00\x00\x00\xe7\x00\x00\x00\xe8\x00\x00\x00\xe9\x00\x00\x00\xea\x00\x00\x00\xeb\x00\x00\x00\xec\x00\x00\x00\xed\x00\x00\x00'
p4669
tp4670
bsS'maxprint'
p4671
I50
sS'_shape'
p4672
(I237
I237
tp4673
sg12
g4650
(g4651
(I0
tp4674
g4653
tp4675
Rp4676
(I1
(I237
tp4677
g3668
(S'f8'
p4678
I0
I1
tp4679
Rp4680
(I3
S'<'
p4681
NNNI-1
I-1
I0
tp4682
bI00
S'w\xf2ALS;\x1f@\xa6\x95z\x8f\x10,\x17@\xd7\xd5\x035\x87\x8f\x13@\x1f\xa3\x94\x00\x7f8\x1a@:\xabb\xec\x8au\x1c@\x0f\x9ea\xd0\xa9i\x18@w\xf2ALS;\x1f@\x08\xa4\xd8\x87\xb4D\x14@\xe1\x98?I8t\x13@w\xf2ALS;\x1f@q\xb9\xa8\xae\xe9y\x10@\x9dH=p\x1c\x9c\x0b@\x94\x0f\xa3\x10\x19\xde\x12@\xbe\x1c\xa4,\xfa\xe9\x16@\x1f\xa3\x94\x00\x7f8\x1a@w\xf2ALS;\x1f@\xf3\xf8u\r!\x9c\x1d@+\x8fF\xceB\xcb\x18@w\xf2ALS;\x1f@\xf3\xf8u\r!\x9c\x1d@\xf3\xf8u\r!\x9c\x1d@w\xf2ALS;\x1f@w\xf2ALS;\x1f@\xa6::F\xff\x88\x14@:\xabb\xec\x8au\x1c@\xb5\xb1\x96\xadX\xd6\x1a@w\xf2ALS;\x1f@\xb4\xe4\xc3BC\xa0\x0e@\xc9Z\xdf\x01/\xf8\n@w\xf2ALS;\x1f@w\xf2ALS;\x1f@\xf5\xa7\xdc\x1ey\xb4\x06@w\xf2ALS;\x1f@\x88(\xf9\xba\x80/\x11@\xd2V\x82p\xe1\xa3\x15@0\xb8\xcan&7\x19@0\xb8\xcan&7\x19@i\xd6%.\x0b\x91\x1b@w\xf2ALS;\x1f@f\xcd\xf6\xe0%\xe7\x11@\xa6\r\xf0\x90M\x01\x10@\xd7\xd5\x035\x87\x8f\x13@{\xdbwF5i\x0f@\xf3\xf8u\r!\x9c\x1d@\xba\xb2Dk\x1d\xe6\x13@w\xf2ALS;\x1f@w\xf2ALS;\x1f@\xf3\xf8u\r!\x9c\x1d@\xf3\xf8u\r!\x9c\x1d@\x0f\x9ea\xd0\xa9i\x18@w\xf2ALS;\x1f@w\xf2ALS;\x1f@"\x91\x9f\xa4C\xd6\x07@w\xf2ALS;\x1f@w\xf2ALS;\x1f@F]\x14\xe0i\x88\x0c@\xa6\x95z\x8f\x10,\x17@\xd7\xd5\x035\x87\x8f\x13@\xf3\xf8u\r!\x9c\x1d@w\xf2ALS;\x1f@\xf3\xf8u\r!\x9c\x1d@\xf3\xf8u\r!\x9c\x1d@w\xf2ALS;\x1f@\xb2\xae}\x90\xdd1\x0c@\x00\xf4ug=)\x0b@i\xd6%.\x0b\x91\x1b@w\xf2ALS;\x1f@w\xf2ALS;\x1f@w\xf2ALS;\x1f@w\xf2ALS;\x1f@]b\xe9a\x84\xd3\x15@\x8ds\x88\x96\x99\xbe\x17@0\xb8\xcan&7\x19@\xe3\xd1\xc1 6\x8d\x0e@]b\xe9a\x84\xd3\x15@\x08\xa4\xd8\x87\xb4D\x14@0\xb8\xcan&7\x19@hN\x9b/Hf\x14@w\xf2ALS;\x1f@:\xabb\xec\x8au\x1c@\xfe\x91\xf5\xa4\xda\xd7\r@w\xf2ALS;\x1f@+\x8fF\xceB\xcb\x18@(*\xb1,\x19U\x0e@\x1cs*\xb0\xfa \x15@i\xd6%.\x0b\x91\x1b@:\xabb\xec\x8au\x1c@\x11\xe5\xc9\xd6\x083\x12@w\xf2ALS;\x1f@\xf3\xf8u\r!\x9c\x1d@w\xf2ALS;\x1f@\xf3\xf8u\r!\x9c\x1d@\x8dpLJ\xe2\x8a\t@\xf2p\xeb\x0e^q\x16@\xf3\xf8u\r!\x9c\x1d@\xfcc\x83\x8c\xc2\xaf\x19@0\xb8\xcan&7\x19@\x8ds\x88\x96\x99\xbe\x17@6\xb9x,\xebF\x12@w\xf2ALS;\x1f@w\x81\xba\x13H\xa9\x0b@o|7A\xdb/\x10@w\xf2ALS;\x1f@i\xd6%.\x0b\x91\x1b@:\xabb\xec\x8au\x1c@w\xf2ALS;\x1f@\t\x82$\x85\x05\x82\x0b@i\xd6%.\x0b\x91\x1b@w\xf2ALS;\x1f@(*\xb1,\x19U\x0e@O,\xa96\xd1\xf8\x14@\x8ds\x88\x96\x99\xbe\x17@\xb5\xb1\x96\xadX\xd6\x1a@w\xf2ALS;\x1f@\x08\xa4\xd8\x87\xb4D\x14@O,\xa96\xd1\xf8\x14@\xb5\xb1\x96\xadX\xd6\x1a@\x1f\xa3\x94\x00\x7f8\x1a@P\x0c/\x02\xbbB\x0e@Z\xc1X\x94\x8e\x9a\x12@w\xf2ALS;\x1f@`\x1b\x10x\x87\x1f\x12@w\xf2ALS;\x1f@hN\x9b/Hf\x14@hN\x9b/Hf\x14@\xf3\xf8u\r!\x9c\x1d@i\xd6%.\x0b\x91\x1b@+\xad\x16.\xf0N\t@\xf3\xf8u\r!\x9c\x1d@bj\xb0\xc2%\xd4\n@\xcf\t\xffx\xad\xd7\x10@\xedGgnz\x05\x16@\xd7\xd5\x035\x87\x8f\x13@\xf3\xf8u\r!\x9c\x1d@w\xf2ALS;\x1f@\x0f\x16\xd7\xd1\xe6>\x11@\xf8\xf9#\xcb\xe5\xab\x16@\xf3\xf8u\r!\x9c\x1d@\xe1\x98?I8t\x13@\xf3\xf8u\r!\x9c\x1d@:\x00\xcc*\\|\x06@\x159\x16&i?\x0f@\xf3\xf8u\r!\x9c\x1d@w\xf2ALS;\x1f@w\xf2ALS;\x1f@\xf8\xf9#\xcb\xe5\xab\x16@\xe2[\xb5\xa0\xb6r\x17@\xf3\xf8u\r!\x9c\x1d@.\xe94\xad\x874\x00@\xf3\xf8u\r!\x9c\x1d@\xf3\xf8u\r!\x9c\x1d@w\xf2ALS;\x1f@\x1f\xa3\x94\x00\x7f8\x1a@w\xf2ALS;\x1f@w\xf2ALS;\x1f@i\xd6%.\x0b\x91\x1b@i\xd6%.\x0b\x91\x1b@w\xf2ALS;\x1f@\xf3\xf8u\r!\x9c\x1d@w\xf2ALS;\x1f@\xf3\xf8u\r!\x9c\x1d@\xf3\xf8u\r!\x9c\x1d@0\xb8\xcan&7\x19@0\xb8\xcan&7\x19@\x0f\x9ea\xd0\xa9i\x18@\x80\x18YM\x94\xb0\x12@w\xf2ALS;\x1f@w\xf2ALS;\x1f@\xa4\x14\xd6@\xee\xac\x14@\x8ds\x88\x96\x99\xbe\x17@w\xf2ALS;\x1f@w\xf2ALS;\x1f@hN\x9b/Hf\x14@\xd7\xd5\x035\x87\x8f\x13@\xa6\x95z\x8f\x10,\x17@\xd2V\x82p\xe1\xa3\x15@:\xabb\xec\x8au\x1c@\xb5\xb1\x96\xadX\xd6\x1a@:\xabb\xec\x8au\x1c@w\xf2ALS;\x1f@\xd7\xd5\x035\x87\x8f\x13@\xf8\xf9#\xcb\xe5\xab\x16@w\xf2ALS;\x1f@\xb5\xb1\x96\xadX\xd6\x1a@\xf3\xf8u\r!\x9c\x1d@0\xb8\xcan&7\x19@\xf3\xf8u\r!\x9c\x1d@\xb4)\x0c\xaf\x95\xab\x13@]b\xe9a\x84\xd3\x15@f\xcd\xf6\xe0%\xe7\x11@w\xf2ALS;\x1f@O,\xa96\xd1\xf8\x14@w\xf2ALS;\x1f@wj\xb7M\x90\x10\x18@hN\x9b/Hf\x14@\xf3\xf8u\r!\x9c\x1d@w\xf2ALS;\x1f@wj\xb7M\x90\x10\x18@]b\xe9a\x84\xd3\x15@.\xeb\x84f\x91f\x05@@\x10\x8d\x18\x89N\x11@w\xf2ALS;\x1f@P\x0c/\x02\xbbB\x0e@hN\x9b/Hf\x14@\xe1\xf8y^\x98\x0c\x0e@\x8e\x97\xb9l\xcf\x15\x0c@\xb4\xe4\xc3BC\xa0\x0e@i\xd6%.\x0b\x91\x1b@\x80\xd5\xc4\xcc1$\x14@w\xf2ALS;\x1f@w\xf2ALS;\x1f@hN\x9b/Hf\x14@\x1f\xa3\x94\x00\x7f8\x1a@\xf3\xf8u\r!\x9c\x1d@\x1f\xa3\x94\x00\x7f8\x1a@\x99\x8e$\xd5\xbe\xc9\x10@i\xd6%.\x0b\x91\x1b@\xe1\x98?I8t\x13@w\xf2ALS;\x1f@O,\xa96\xd1\xf8\x14@\x1f\xe0\x1e\xa9\x00:\x16@w\xf2ALS;\x1f@]b\xe9a\x84\xd3\x15@hN\x9b/Hf\x14@4U\xbe\x1e7T\x10@\xb4r\x9c+\x97\xdf\x06@\xf3\xf8u\r!\x9c\x1d@\x1f\xa3\x94\x00\x7f8\x1a@\xc2:fR\x99\xf9\x11@\x1f\x1b\n\x02\xbc\r\x13@\xf3\xf8u\r!\x9c\x1d@\xad\xc3\x16\xa1\xa3\xf5\x12@\xf3\xf8u\r!\x9c\x1d@\x8ab\ruS\x1f\x05@\x1f\xe0\x1e\xa9\x00:\x16@i\xd6%.\x0b\x91\x1b@i\xd6%.\x0b\x91\x1b@'
p4683
tp4684
bsbsS'use_idf'
p4685
I01
sS'sublinear_tf'
p4686
I00
sS'norm'
p4687
Vl2
p4688
sbtp4689
a(S'clsfr'
p4690
g3635
(csklearn.linear_model.stochastic_gradient
SGDClassifier
p4691
g3637
Ntp4692
Rp4693
(dp4694
S't_'
p4695
F9046.0
sS'n_jobs'
p4696
I1
sS'shuffle'
p4697
I01
sS'verbose'
p4698
I0
sS'classes_'
p4699
g4650
(g4651
(I0
tp4700
g4653
tp4701
Rp4702
(I1
(I2
tp4703
g3668
(S'S5'
p4704
I0
I1
tp4705
Rp4706
(I3
S'|'
p4707
NNNI5
I1
I0
tp4708
bI00
S'FalseTrue\x00'
p4709
tp4710
bsS'class_weight'
p4711
NsS'fit_intercept'
p4712
I01
sg8
g9
sS'random_state'
p4713
I399
sg3641
g3642
sS'loss_function'
p4714
csklearn.linear_model.sgd_fast
Hinge
p4715
(F1.0
tp4716
Rp4717
sS'C'
p4718
F1.0
sg7
I5
sS'epsilon'
p4719
F0.1
sS'learning_rate'
p4720
S'optimal'
p4721
sS'coef_'
p4722
g4650
(g4651
(I0
tp4723
g4653
tp4724
Rp4725
(I1
(I1
I237
tp4726
g4680
I00
S'\x00\x00\x00\x00\x00\x00\x00\x00\x01~;\xbb\xc0j\xe8\xbf\x00\x00\x00\x00\x00\x00\x00\x00\x00\x00\x00\x00\x00\x00\x00\x00\xa9\xc3\xdc\xa2\x90~\xe7\xbf\x85\'\x97\xb7~g\x04\xc0Yx\xc1p(\xd4\xf1\xbfr:\xd3\xc9#\x9d\x03\xc0\xf2\x17o(\x9d\x82\xd2\xbf[^\x83\x7fr\xb7\xdd\xbf\x00\x00\x00\x00\x00\x00\x00\x009h0\xc3x\xec\x05\xc0\x00\x00\x00\x00\x00\x00\x00\x00\x00\x00\x00\x00\x00\x00\x00\x00d\x82\xea\x91\x90g\x03\xc0\x00\x00\x00\x00\x00\x00\x00\x00^o\xbd\x90\xf0i\xe8\xbf\x00\x00\x00\x00\x00\x00\x00\x00\x00\x00\x00\x00\x00\x00\x00\x00\x00\x00\x00\x00\x00\x00\x00\x00}\x96\x0c\xe4\x08n\xe0\xbf\x0c\xeaA\\\xb8\'\x07\xc0\x00\x00\x00\x00\x00\x00\x00\x00\x0e\xae\xb8\x84M\xde\x01\xc0\x00\x00\x00\x00\x00\x00\x00\x00Y\xf8\x0e\xb7Cn\x06\xc0\x00\x00\x00\x00\x00\x00\x00\x00h\x84\x87\x84!k\x02\xc0\xd3\xad\xb7HM\xc8\x03\xc0\x00\x00\x00\x00\x00\x00\x00\x00\xe9\x11\xd3\xd6jT\xe1\xbf\x08\x9e}V\xa5\xef\x99\xbf\x00\x00\x00\x00\x00\x00\x00\x00\x96\x88\xc2\xce\xe7V\x12@\xc6\xf9\x957<\x02\xe7\xbf\x00\x00\x00\x00\x00\x00\x00\x00\x00\x00\x00\x00\x00\x00\x00\x00\x00\x00\x00\x00\x00\x00\x00\x00\x00\x00\x00\x00\x00\x00\x00\x00\x88\x91\x1b<\xb3\xa6\x02\xc0\x00\x00\x00\x00\x00\x00\x00\x00h\x07B\x1c*\xb2\x0c\xc0\x92\x07\xdaYk}\xd0\xbfZP\xf7\x8a\xa0\x90\xe2\xbf\x00\x00\x00\x00\x00\x00\x00\x00\x00\x00\x00\x00\x00\x00\x00\x00\x00\x00\x00\x00\x00\x00\x00\x00\x00\x00\x00\x00\x00\x00\x00\x00\x00\x00\x00\x00\x00\x00\x00\x00\xa3\xebA\xb4\x0e>\x05\xc0\x00\x00\x00\x00\x00\x00\x00\x00[^\x83\x7fr\xb7\xdd\xbf\x98\xc9Sm\x98>\x0b\xc0\x00\x00\x00\x00\x00\x00\x00\x00\xf6\xe1\xd0\xbe\xc5\xc5\x0e\xc0~\x08\xeb\xfc\xfe\xe6\x1e\xc0\x00\x00\x00\x00\x00\x00\x00\x00\xca\xf547\xd1`\x04\xc0}\xf9CbP\xdc\x03\xc0[^\x83\x7fr\xb7\xdd\xbf\x00\x00\x00\x00\x00\x00\x00\x00\x00\x00\x00\x00\x00\x00\x00\x00\x00\x00\x00\x00\x00\x00\x00\x00\x990l-d\xae\x04\xc0\xbb\x87\x1f\x93(\x89\xf9\xbf7\\\x01\xdfI\x1b\x02\xc0Yx\xc1p(\xd4\xf1\xbf\x00\x00\x00\x00\x00\x00\x00\x00Yx\xc1p(\xd4\xf1\xbfYx\xc1p(\xd4\xf1\xbf\x00\x00\x00\x00\x00\x00\x00\x00\xb4\xefe\xc4+\x92\x01\xc0w\xe4\x9b\xe2p\xe8\r\xc0.$i?\xa0\xab\x08\xc0\xb7\xbc\xad\xcd\xf32\xed\xbfr:\xd3\xc9#\x9d\x03\xc0\x00\x00\x00\x00\x00\x00\x00\x00\x00\x00\x00\x00\x00\x00\x00\x00\x00\x00\x00\x00\x00\x00\x00\x00\x00\x00\x00\x00\x00\x00\x00\x00^\x9aD\x12)V\xcf?\x00\x00\x00\x00\x00\x00\x00\x00\x00\x00\x00\x00\x00\x00\x00\x00\x83\t\x13\x81B\xc2\xf9\xbf\xd06\x9c\x18\xcdE\xff\xbf\x00\x00\x00\x00\x00\x00\x00\x00\x00\x00\x00\x00\x00\x00\x00\x00be\xe4\xbe\xbf\x0e\xe7\xbf\x00\x00\x00\x00\x00\x00\x00\x00\x00\x00\x00\x00\x00\x00\x00\x00\x00\x00\x00\x00\x00\x00\x00\x00\x00\x00\x00\x00\x00\x00\x00\x00\x00\x00\x00\x00\x00\x00\x00\x00\xa2\xebWw\xe6\xa6\x11\xc0\xb6\x99!\x9e\xc2q\xe8\xbf\x00\x00\x00\x00\x00\x00\x00\x00\x00\x00\x00\x00\x00\x00\x00\x00\xa4\x00\xceL\xb8\xc3\xee\xbf\x00\x00\x00\x00\x00\x00\x00\x00\x00\x00\x00\x00\x00\x00\x00\x00df\xc1\x07\xee\xf6\x05\xc0\x00\x00\x00\x00\x00\x00\x00\x00\x00\x00\x00\x00\x00\x00\x00\x00}g\x03\x0f"S\xd5\xbf\x00\x00\x00\x00\x00\x00\x00\x00\x00\x00\x00\x00\x00\x00\x00\x00\x96\xc8y\xcc\xa9V\xf4?\x1eu\xe3?\x07\xe9\x08\xc0\x00\x00\x00\x00\x00\x00\x00\x00\x80\xe2\xbb\xb6G\xee\xd3\xbf\xd6i\x06\xff>\x19\xe6\xbf\x83\xfa\xe5\x9as\x92\x01\xc0\x00\x00\x00\x00\x00\x00\x00\x00\xf6\xe1\xd0\xbe\xc5\xc5\x0e\xc0\x00\x00\x00\x00\x00\x00\x00\x00\x96\xa1\xb5p\xad\xe5\xf9\xbf\x00\x00\x00\x00\x00\x00\x00\x00\xe4\x19\xbb59\xa1\xf2\xbf,sIHU\x07\x08\xc0\x00\x00\x00\x00\x00\x00\x00\x00\xe9\x11\xd3\xd6jT\xe1\xbf\'{\xb4\xbc\xbd\x8f\xd4\xbf\xe9\x11\xd3\xd6jT\xe1\xbf\x00\x00\x00\x00\x00\x00\x00\x00\x13\x92\xc9M[\x89\x08\xc0\x00\x00\x00\x00\x00\x00\x00\x00\x00\x00\x00\x00\x00\x00\x00\x00h\x89q\x9d\xdcp\xfe\xbf\x00\x00\x00\x00\x00\x00\x00\x00U\xc2\xe2\x9b\x8d\xc8\xf6\xbf\x80\xd11\xa8TF\x05\xc0\x99\xad\x87\x8a\xbdK\x00\xc0\x00\x00\x00\x00\x00\x00\x00\x00\x00\x00\x00\x00\x00\x00\x00\x00\x00\x00\x00\x00\x00\x00\x00\x00\x10v\xa2X\x05\xb6\x13\xc0.\x15\xaey\xfe\x11\xa8?\x00\x00\x00\x00\x00\x00\x00\x00\x00\x00\x00\x00\x00\x00\x00\x00\x00\x00\x00\x00\x00\x00\x00\x00\xa0\xbc(\x9e\x1ag\x08\xc0O\xccVd\x930\xfb\xbf\x00\x00\x00\x00\x00\x00\x00\x00\x00\x00\x00\x00\x00\x00\x00\x00\x00\x00\x00\x00\x00\x00\x00\x00\x00\x00\x00\x00\x00\x00\x00\x00\x00\x00\x00\x00\x00\x00\x00\x00\x00\x00\x00\x00\x00\x00\x00\x00]\x04\xd3by\x8c\xa1\xbf\x00\x00\x00\x00\x00\x00\x00\x00\x00\x00\x00\x00\x00\x00\x00\x00,&i\x89\xb1\xc3\xee\xbf\x00\x00\x00\x00\x00\x00\x00\x00\x00\x00\x00\x00\x00\x00\x00\x00\x00\x00\x00\x00\x00\x00\x00\x00x\x1dwG+\x0c\xed\xbf\x00\x00\x00\x00\x00\x00\x00\x00[^\x83\x7fr\xb7\xdd\xbf^o\xbd\x90\xf0i\xe8\xbf\x00\x00\x00\x00\x00\x00\x00\x00k4FW\x13\x8c\xf1\xbf\x00\x00\x00\x00\x00\x00\x00\x00\x00\x00\x00\x00\x00\x00\x00\x00\x00\x00\x00\x00\x00\x00\x00\x00[\xa0:(P\xd6\x0e\xc0nhBa\x1d\x14\xdf?\xe9\x11\xd3\xd6jT\xe1\xbf\x00\x00\x00\x00\x00\x00\x00\x00%\x0et`k\x8d\xf4?.\xe0\x96Qu|\xdd?\x00\x00\x00\x00\x00\x00\x00\x00Yx\xc1p(\xd4\xf1\xbf\x00\x00\x00\x00\x00\x00\x00\x00\x00\x00\x00\x00\x00\x00\x00\x00\x00\x00\x00\x00\x00\x00\x00\x00\xdf\xf6\x0b\xb6sy\x11\xc0\x00\x00\x00\x00\x00\x00\x00\x00\x00\x00\x00\x00\x00\x00\x00\x00\x00\x00\x00\x00\x00\x00\x00\x00\x00\x00\x00\x00\x00\x00\x00\x00\xca\xf547\xd1`\x04\xc0\x0c_k\x97i\x8a\xf6\xbf\x00\x00\x00\x00\x00\x00\x00\x00\xe8\x17P\x10\xf3\xce\xfa\xbf\x00\x00\x00\x00\x00\x00\x00\x00\x00\x00\x00\x00\x00\x00\x00\x00\x00\x00\x00\x00\x00\x00\x00\x00U\x82\xe6R$\x1d\xfd\xbf*\xd3\x96~\xda\x03\xef\xbf\x89\xb2S\xc5\xee\xd2\x00\xc0\xe9\x11\xd3\xd6jT\xe1\xbf\xa0\xe07\x1c\xd7W\x05\xc0\x00\x00\x00\x00\x00\x00\x00\x00\xe5\xa5\xaa\x08H\x9d\x06\xc0\x00\x00\x00\x00\x00\x00\x00\x00}\xf9CbP\xdc\x03\xc0,&i\x89\xb1\xc3\xee\xbf\x00\x00\x00\x00\x00\x00\x00\x00\xef\x1eY-sG\xec\xbf\xb6\x8d\\\xb0\xaf\xa3\xc3\xbf\x00\x00\x00\x00\x00\x00\x00\x00[^\x83\x7fr\xb7\xdd\xbf\xe9\x82+t\xe12\x02\xc0\x00\x00\x00\x00\x00\x00\x00\x00@\x08\xfbp\x95\xb9\x13@8k\x89\xbe\xcc\xc8\xf4\xbff6\x12\x07\x9bG\x10\xc0\x00\x00\x00\x00\x00\x00\x00\x00\x00\x00\x00\x00\x00\x00\x00\x00\x00\x00\x00\x00\x00\x00\x00\x00\x00\x00\x00\x00\x00\x00\x00\x00\xdb\xaau\xda\xa1\xbd\x03\xc0\x00\x00\x00\x00\x00\x00\x00\x00\x00\x00\x00\x00\x00\x00\x00\x00\x00\x00\x00\x00\x00\x00\x00\x00*\x98O\xf1\x81\xb7\xee\xbf\x15(\x1dH-\xf1\xfc\xbfq\x11\x15\x01\x1c\xcc\xf1\xbfYx\xc1p(\xd4\xf1\xbf\xef\x9f\x96<\x9d/\xf3\xbfr \xda\xcb\xbeA\xfc?\x00\x00\x00\x00\x00\x00\x00\x00\x97\x145\x0c\xf8a\t\xc0\x00\x00\x00\x00\x00\x00\x00\x00\x00\x00\x00\x00\x00\x00\x00\x00L\x05\x8b\x98\xdf5\xa2?\x00\x00\x00\x00\x00\x00\x00\x00\xe0\xb1\x07\xfa[)\x02@\x00\x00\x00\x00\x00\x00\x00\x00\xc5\n\x0b\xa06B\xe4\xbf\x00\x00\x00\x00\x00\x00\x00\x00\x00\x00\x00\x00\x00\x00\x00\x00\x00\x00\x00\x00\x00\x00\x00\x00\xac\xfa\xceu\xad\xfc\xfe\xbfr \xda\xcb\xbeA\xfc?\x00\x00\x00\x00\x00\x00\x00\x00\x00\x00\x00\x00\x00\x00\x00\x00'
p4727
tp4728
bsg11
F0.001
sS'intercept_'
p4729
g4650
(g4651
(I0
tp4730
g4653
tp4731
Rp4732
(I1
(I1
tp4733
g4680
I00
S'\xeeo\x9e)\xe4\x02\xf0\xbf'
p4734
tp4735
bsS'_expanded_class_weight'
p4736
g4650
(g4651
(I0
tp4737
g4653
tp4738
Rp4739
(I1
(I2
tp4740
g4680
I00
S'\x00\x00\x00\x00\x00\x00\xf0?\x00\x00\x00\x00\x00\x00\xf0?'
p4741
tp4742
bsS'warm_start'
p4743
I00
sg2
g3
sS'eta0'
p4744
F0.0
sS'l1_ratio'
p4745
F0.15
sS'average'
p4746
I00
sS'power_t'
p4747
F0.5
sbtp4748
asbsb.