(ialicized_models
CommandMatchingModel
p0
(dp1
S'loss'
p2
S'hinge'
p3
sS'grammar'
p4
NsS'name'
p5
S'GET_NEWS.model'
p6
sS'n_iter'
p7
I5
sS'penalty'
p8
S'none'
p9
sS'trained'
p10
I01
sS'alpha'
p11
F0.001
sS'data'
p12
(lp13
(S'please go spotify '
p14
S'False'
p15
tp16
a(S'do i have anything on thursday'
p17
g15
tp18
a(S'time please'
p19
g15
tp20
a(S'please shut down my computer'
p21
g15
tp22
a(S'do i have anything'
p23
g15
tp24
a(S'check events for tuesday'
p25
g15
tp26
a(S'what do i have in a week'
p27
g15
tp28
a(S'could you check my inbox please'
p29
g15
tp30
a(S'pause please'
p31
g15
tp32
a(S'what is new in gmail'
p33
g15
tp34
a(S'check google calendar on tomorrow'
p35
g15
tp36
a(S"what're the news feed"
p37
S'True'
p38
tp39
a(S'please kill the window'
p40
g15
tp41
a(S'is there anything i have to do in a month'
p42
g15
tp43
a(S'please open inbox'
p44
g15
tp45
a(S'go back to the last song '
p46
g15
tp47
a(S'what events are on thursday'
p48
g15
tp49
a(S'clock'
p50
g15
tp51
a(S'what events are on next'
p52
g15
tp53
a(S'newsfeed'
p54
g38
tp55
a(S'please spotify previous'
p56
g15
tp57
a(S"aren't there any events on thursday"
p58
g15
tp59
a(S'start song'
p60
g15
tp61
a(S"what aren't the news feed"
p62
g15
tp63
a(S'please what is in gmail'
p64
g15
tp65
a(S'what do i have to do on sunday'
p66
g15
tp67
a(S'is it snowing this week'
p68
g15
tp69
a(S'what events are on friday'
p70
g15
tp71
a(S'go to dot edu'
p72
g15
tp73
a(S"don't i have anything to do on"
p74
g15
tp75
a(S'spotify start please'
p76
g15
tp77
a(S'gather the latest headlines please'
p78
g38
tp79
a(S'the news today'
p80
g38
tp81
a(S'turn it down'
p82
g15
tp83
a(S'what is in gmail please'
p84
g15
tp85
a(S"how's the temperature"
p86
g15
tp87
a(S'add new event'
p88
g15
tp89
a(S'do not give me information of todays news'
p90
g15
tp91
a(S'please would you check my inbox'
p92
g15
tp93
a(S'check google calendar on month'
p94
g15
tp95
a(S'make an event please'
p96
g15
tp97
a(S'check my calendar'
p98
g15
tp99
a(S'will you check gmail'
p100
g15
tp101
a(S"don't i have any events on tomorrow"
p102
g15
tp103
a(S'is there anything i have to do on tomorrow'
p104
g15
tp105
a(S"don't i have to do anything tomorrow"
p106
g15
tp107
a(S'check your watch'
p108
g15
tp109
a(S"don't tell me newsfeed"
p110
g15
tp111
a(S'please can you turn the volume higher'
p112
g15
tp113
a(S"this week's temperature"
p114
g15
tp115
a(S"what're the newsfeed"
p116
g38
tp117
a(S'could you please make event'
p118
g15
tp119
a(S'go ahead'
p120
g15
tp121
a(S'check google calendar for saturday'
p122
g15
tp123
a(S'set the volume zero'
p124
g15
tp125
a(S'please open'
p126
g15
tp127
a(S'kill the active window'
p128
g15
tp129
a(S'can you shut off my computer'
p130
g15
tp131
a(S'open my mail please'
p132
g15
tp133
a(S'am i free for next'
p134
g15
tp135
a(S'could you please create event'
p136
g15
tp137
a(S'please louder'
p138
g15
tp139
a(S"what's if it's rainy this week"
p140
g15
tp141
a(S"get if it's snowing today"
p142
g15
tp143
a(S'make the volume 0'
p144
g15
tp145
a(S"not today's headlines"
p146
g15
tp147
a(S'can you please turn up the tune'
p148
g15
tp149
a(S'will it rain this week'
p150
g15
tp151
a(S'would you open my mail please'
p152
g15
tp153
a(S'please make new event'
p154
g15
tp155
a(S"not today's current events"
p156
g15
tp157
a(S'can you please shut up'
p158
g15
tp159
a(S'please can you make it louder'
p160
g15
tp161
a(S'can you make a new event please'
p162
g15
tp163
a(S'current temperature'
p164
g15
tp165
a(S'please get the current events'
p166
g38
tp167
a(S'would you check mail please'
p168
g15
tp169
a(S'i like dogs'
p170
g15
tp171
a(S'would you open my inbox please'
p172
g15
tp173
a(S'do i have any events on'
p174
g15
tp175
a(S'turn the volume to zero'
p176
g15
tp177
a(S"get if it's hot today"
p178
g15
tp179
a(S'shutdown'
p180
g15
tp181
a(S'are there any events on today'
p182
g15
tp183
a(S'make the volume zero'
p184
g15
tp185
a(S"what's the live newsfeed"
p186
g38
tp187
a(S'could you make an event'
p188
g15
tp189
a(S'do i have to do anything to do'
p190
g15
tp191
a(S'can you please schedule an event'
p192
g15
tp193
a(S'please get the news'
p194
g38
tp195
a(S'could you add an event please'
p196
g15
tp197
a(S'can you shut up'
p198
g15
tp199
a(S'what events do i have on monday'
p200
g15
tp201
a(S"please don't tell me whats going on in the news please"
p202
g15
tp203
a(S'please will you open my inbox'
p204
g15
tp205
a(S'spotify pause'
p206
g15
tp207
a(S"what're not the newsfeed"
p208
g15
tp209
a(S"what's the live news feed"
p210
g38
tp211
a(S'open dot edu'
p212
g15
tp213
a(S'turn it off'
p214
g15
tp215
a(S"what aren't the current events"
p216
g15
tp217
a(S'check calendar on thursday'
p218
g15
tp219
a(S'would you check my inbox'
p220
g15
tp221
a(S'tell me live newsfeed'
p222
g38
tp223
a(S"don't i have any events"
p224
g15
tp225
a(S'is it freezing this week'
p226
g15
tp227
a(S'hey alex'
p228
g15
tp229
a(S"aren't there any events"
p230
g15
tp231
a(S'can you check new gmail'
p232
g15
tp233
a(S"don't i have anything to do on wednesday"
p234
g15
tp235
a(S'is there anything i have to do on saturday'
p236
g15
tp237
a(S'can you turn off my computer'
p238
g15
tp239
a(S'check my inbox'
p240
g15
tp241
a(S"don't gather the latest headlines please"
p242
g15
tp243
a(S'will you open a browser'
p244
g15
tp245
a(S'any events on'
p246
g15
tp247
a(S'can you unmute'
p248
g15
tp249
a(S'please close the active window'
p250
g15
tp251
a(S'am i free on tuesday'
p252
g15
tp253
a(S'get time please'
p254
g15
tp255
a(S"don't give me the current events"
p256
g15
tp257
a(S"please what's new in inbox"
p258
g15
tp259
a(S"don't i have any events on friday"
p260
g15
tp261
a(S'spotify shut up'
p262
g15
tp263
a(S'please schedule event'
p264
g15
tp265
a(S'shut down'
p266
g15
tp267
a(S'add event please'
p268
g15
tp269
a(S'can you add an event please'
p270
g15
tp271
a(S'would you open my gmail please'
p272
g15
tp273
a(S"what's the time"
p274
g15
tp275
a(S'do i have to do anything next'
p276
g15
tp277
a(S"don't i have anything to do on saturday"
p278
g15
tp279
a(S'please search'
p280
g15
tp281
a(S'please shutdown'
p282
g15
tp283
a(S'will you open my mail'
p284
g15
tp285
a(S'what do i have on next'
p286
g15
tp287
a(S'what is news'
p288
g38
tp289
a(S'open dot org'
p290
g15
tp291
a(S'please could you check new gmail'
p292
g15
tp293
a(S'get news feed'
p294
g38
tp295
a(S'what is on my calendar for sunday'
p296
g15
tp297
a(S'retrieve the time please'
p298
g15
tp299
a(S'what events are in a month'
p300
g15
tp301
a(S"what's in new mail please"
p302
g15
tp303
a(S'gather information on'
p304
g38
tp305
a(S'predict the outcome on a new document'
p306
g15
tp307
a(S'news feed'
p308
g38
tp309
a(S'get time'
p310
g15
tp311
a(S'please go to dot com'
p312
g15
tp313
a(S'can you please close active window'
p314
g15
tp315
a(S'check calendar on this week'
p316
g15
tp317
a(S'get clock please'
p318
g15
tp319
a(S"get if it's rainy today"
p320
g15
tp321
a(S'can you get the latest headlines'
p322
g38
tp323
a(S'check calendar for this day'
p324
g15
tp325
a(S'open dot ee dee you'
p326
g15
tp327
a(S'can you make an event please'
p328
g15
tp329
a(S'can you check my mail'
p330
g15
tp331
a(S"what's today's temperature"
p332
g15
tp333
a(S'a backbone dictates above my grief'
p334
g15
tp335
a(S'close current program'
p336
g15
tp337
a(S'pause spotify please'
p338
g15
tp339
a(S'shut off'
p340
g15
tp341
a(S"get if it's cloudy today"
p342
g15
tp343
a(S"this week's forecast"
p344
g15
tp345
a(S'please check my gmail'
p346
g15
tp347
a(S'kill the current window'
p348
g15
tp349
a(S'please turn it up'
p350
g15
tp351
a(S'do not read the current events to me'
p352
g15
tp353
a(S'schedule event please'
p354
g15
tp355
a(S'anything in my mail'
p356
g15
tp357
a(S'do i have anything to do on tuesday'
p358
g15
tp359
a(S"please what's new in new gmail"
p360
g15
tp361
a(S'please start'
p362
g15
tp363
a(S"please don't give me the news"
p364
g15
tp365
a(S'check events for this week'
p366
g15
tp367
a(S'spotify go back to the last song '
p368
g15
tp369
a(S'please can you check my inbox'
p370
g15
tp371
a(S'check calendar for sunday'
p372
g15
tp373
a(S'what do i have to do on tomorrow'
p374
g15
tp375
a(S'will you open my gmail'
p376
g15
tp377
a(S'do i have any events on tuesday'
p378
g15
tp379
a(S'please add new event'
p380
g15
tp381
a(S'please check my mail'
p382
g15
tp383
a(S'could you open mail please'
p384
g15
tp385
a(S'check google calendar on next'
p386
g15
tp387
a(S'sweet dreams'
p388
g15
tp389
a(S"don't get headlines"
p390
g15
tp391
a(S'can you exit'
p392
g15
tp393
a(S'please what is in new gmail'
p394
g15
tp395
a(S'open default browser'
p396
g15
tp397
a(S'can you please turn up the beat'
p398
g15
tp399
a(S'pause spotify'
p400
g15
tp401
a(S'open browser please'
p402
g15
tp403
a(S"this week's weather"
p404
g15
tp405
a(S"don't i have anything on monday"
p406
g15
tp407
a(S"don't i have any events on sunday"
p408
g15
tp409
a(S"what isn't newsfeed"
p410
g15
tp411
a(S"don't i have to do anything on next"
p412
g15
tp413
a(S"don't i have anything to do in a month"
p414
g15
tp415
a(S'spotify go please'
p416
g15
tp417
a(S'spotify play last song please'
p418
g15
tp419
a(S'turn up the beat'
p420
g15
tp421
a(S'search for'
p422
g15
tp423
a(S'will you open my inbox'
p424
g15
tp425
a(S'please will you check new gmail'
p426
g15
tp427
a(S'what time is it now'
p428
g15
tp429
a(S'create event'
p430
g15
tp431
a(S"what's forecast"
p432
g15
tp433
a(S'would you open my gmail'
p434
g15
tp435
a(S'turn up the sound'
p436
g15
tp437
a(S'get me the clock'
p438
g15
tp439
a(S'find the news'
p440
g38
tp441
a(S'what is headlines'
p442
g38
tp443
a(S"don't i have to do anything on"
p444
g15
tp445
a(S'what is in gmail'
p446
g15
tp447
a(S'not current events'
p448
g15
tp449
a(S'check inbox'
p450
g15
tp451
a(S'can you lock the screen'
p452
g15
tp453
a(S'could you create an event'
p454
g15
tp455
a(S'what is in my inbox'
p456
g15
tp457
a(S'can you please shut my computer down'
p458
g15
tp459
a(S'go back'
p460
g15
tp461
a(S'what is on my calendar for today'
p462
g15
tp463
a(S'read your watch please'
p464
g15
tp465
a(S'please schedule a new event'
p466
g15
tp467
a(S"don't tell me the news"
p468
g15
tp469
a(S'close the current window'
p470
g15
tp471
a(S"don't i have any events on tuesday"
p472
g15
tp473
a(S'do i have any events on monday'
p474
g15
tp475
a(S'could you check my gmail'
p476
g15
tp477
a(S'open mail please'
p478
g15
tp479
a(S'check google calendar on tuesday'
p480
g15
tp481
a(S"don't gather information on todays current events please"
p482
g15
tp483
a(S"what're not the live newsfeed"
p484
g15
tp485
a(S'can you turn off the computer'
p486
g15
tp487
a(S'can you check mail'
p488
g15
tp489
a(S'what do i have to do on friday'
p490
g15
tp491
a(S'what events do i have on friday'
p492
g15
tp493
a(S'do i have to do anything on thursday'
p494
g15
tp495
a(S'turn off the computer'
p496
g15
tp497
a(S'please will you check mail'
p498
g15
tp499
a(S'will it hail today'
p500
g15
tp501
a(S'find headlines'
p502
g38
tp503
a(S'spotify skip ahead'
p504
g15
tp505
a(S'pause song please'
p506
g15
tp507
a(S'please pause spotify'
p508
g15
tp509
a(S'anything new in mail'
p510
g15
tp511
a(S'please will you check my inbox'
p512
g15
tp513
a(S"get today's weather"
p514
g15
tp515
a(S'make new event please'
p516
g15
tp517
a(S"if it's hot this week"
p518
g15
tp519
a(S'do i have anything to do on this day'
p520
g15
tp521
a(S'can you not get the current events'
p522
g15
tp523
a(S'what do i have on wednesday'
p524
g15
tp525
a(S'alice go ahead please'
p526
g15
tp527
a(S'will you not get the current events for me'
p528
g15
tp529
a(S'check events'
p530
g15
tp531
a(S'please will you check new mail'
p532
g15
tp533
a(S"don't i have to do anything in a week"
p534
g15
tp535
a(S'get me the news todays'
p536
g38
tp537
a(S'do i have anything on saturday'
p538
g15
tp539
a(S'do i have anything to do on friday'
p540
g15
tp541
a(S'get the time'
p542
g15
tp543
a(S"how's the forecast today"
p544
g15
tp545
a(S'please would you check new gmail'
p546
g15
tp547
a(S'turn the beat down'
p548
g15
tp549
a(S'please make an event'
p550
g15
tp551
a(S'good bye'
p552
g15
tp553
a(S'do i have to do anything on saturday'
p554
g15
tp555
a(S'can you create event'
p556
g15
tp557
a(S'dont give me news'
p558
g15
tp559
a(S'not live news'
p560
g15
tp561
a(S'check google calendar for this day'
p562
g15
tp563
a(S'please shut down'
p564
g15
tp565
a(S"what's new in new mail"
p566
g15
tp567
a(S"what're the live newsfeed"
p568
g38
tp569
a(S'what is current news'
p570
g38
tp571
a(S"don't i have anything on saturday"
p572
g15
tp573
a(S'schedule an event please'
p574
g15
tp575
a(S'do i have any events in a month'
p576
g15
tp577
a(S"what's temperature"
p578
g15
tp579
a(S"don't give me the news please"
p580
g15
tp581
a(S'turn up the volume'
p582
g15
tp583
a(S'lower the tunes please'
p584
g15
tp585
a(S'shut down the computer please'
p586
g15
tp587
a(S'open browser'
p588
g15
tp589
a(S'can you please create an event'
p590
g15
tp591
a(S"what aren't the the news"
p592
g15
tp593
a(S'can you send me to the lock screen'
p594
g15
tp595
a(S'spotify pause please'
p596
g15
tp597
a(S'do i have anything to do on wednesday'
p598
g15
tp599
a(S'check google calendar for today'
p600
g15
tp601
a(S'could you open my gmail please'
p602
g15
tp603
a(S'is there anything to do in a week'
p604
g15
tp605
a(S'can you add new event please'
p606
g15
tp607
a(S'is there anything to do on wednesday'
p608
g15
tp609
a(S"don't i have anything to do on thursday"
p610
g15
tp611
a(S"aren't there any events on wednesday"
p612
g15
tp613
a(S'could you check mail please'
p614
g15
tp615
a(S'please check the current time'
p616
g15
tp617
a(S'google'
p618
g15
tp619
a(S'please google search'
p620
g15
tp621
a(S'what are the news'
p622
g38
tp623
a(S"please what's new in my mail"
p624
g15
tp625
a(S'what is in inbox'
p626
g15
tp627
a(S'schedule new event'
p628
g15
tp629
a(S"don't i have to do anything on sunday"
p630
g15
tp631
a(S'can you please close current window'
p632
g15
tp633
a(S'check events on wednesday'
p634
g15
tp635
a(S"what's not the news"
p636
g15
tp637
a(S'what is in the news today'
p638
g38
tp639
a(S'could you please schedule a new event'
p640
g15
tp641
a(S'is there anything to do on tomorrow'
p642
g15
tp643
a(S'anything new in inbox'
p644
g15
tp645
a(S'tell me newsfeed'
p646
g38
tp647
a(S"what's new in my mail"
p648
g15
tp649
a(S'dont give me infornation on todays current events'
p650
g15
tp651
a(S'please spotify go '
p652
g15
tp653
a(S'could you open mail'
p654
g15
tp655
a(S"what's this week's temperature"
p656
g15
tp657
a(S"please what's in my mail"
p658
g15
tp659
a(S'could you please add an event'
p660
g15
tp661
a(S'is there anything to do on sunday'
p662
g15
tp663
a(S'please open a browser'
p664
g15
tp665
a(S'do i have to do anything in a month'
p666
g15
tp667
a(S'could you schedule event please'
p668
g15
tp669
a(S'please would you check my mail'
p670
g15
tp671
a(S'am i free for monday'
p672
g15
tp673
a(S'schedule new event please'
p674
g15
tp675
a(S"not today's live news feed"
p676
g15
tp677
a(S'please what is in my gmail'
p678
g15
tp679
a(S'can you please close this window'
p680
g15
tp681
a(S'am i free for friday'
p682
g15
tp683
a(S'give me the news'
p684
g38
tp685
a(S'check calendar for today'
p686
g15
tp687
a(S'please start a default browser'
p688
g15
tp689
a(S'add a new event please'
p690
g15
tp691
a(S'check new gmail'
p692
g15
tp693
a(S'check my inbox please'
p694
g15
tp695
a(S'gimme the news'
p696
g38
tp697
a(S'increase the volume'
p698
g15
tp699
a(S'is there anything i have to do tomorrow'
p700
g15
tp701
a(S'will you open mail'
p702
g15
tp703
a(S'can you please close the active window'
p704
g15
tp705
a(S'check events for this day'
p706
g15
tp707
a(S'lock my computer'
p708
g15
tp709
a(S'what is in my gmail please'
p710
g15
tp711
a(S'please what is new in gmail'
p712
g15
tp713
a(S"get if it's rainy this week"
p714
g15
tp715
a(S"what isn't the news today"
p716
g15
tp717
a(S'check the current time please'
p718
g15
tp719
a(S'set volume 0'
p720
g15
tp721
a(S"don't find live news feed"
p722
g15
tp723
a(S'please will you open gmail'
p724
g15
tp725
a(S'byebye'
p726
g15
tp727
a(S'find live news feed'
p728
g38
tp729
a(S'please google search for'
p730
g15
tp731
a(S'please start browsing'
p732
g15
tp733
a(S"what's in new gmail"
p734
g15
tp735
a(S'are there any events on'
p736
g15
tp737
a(S"today's news feed"
p738
g38
tp739
a(S'check calendar for monday'
p740
g15
tp741
a(S'can you get the current events'
p742
g38
tp743
a(S'can you shut my computer down'
p744
g15
tp745
a(S'fake news'
p746
g38
tp747
a(S'would you check my gmail'
p748
g15
tp749
a(S'check new mail'
p750
g15
tp751
a(S'can you schedule a new event'
p752
g15
tp753
a(S"what're the headlines"
p754
g38
tp755
a(S'spotify stop the song '
p756
g15
tp757
a(S'what time is it right now'
p758
g15
tp759
a(S'do i have anything to do tomorrow'
p760
g15
tp761
a(S'go ahead spotify please'
p762
g15
tp763
a(S'can you check new gmail please'
p764
g15
tp765
a(S'check new gmail please'
p766
g15
tp767
a(S'make the sound higher'
p768
g15
tp769
a(S'can you turn my computer off'
p770
g15
tp771
a(S'check my calendar on monday'
p772
g15
tp773
a(S"what's if it's cloudy this week"
p774
g15
tp775
a(S'anything in my inbox'
p776
g15
tp777
a(S"don't i have to do anything on this day"
p778
g15
tp779
a(S"what's not the live news"
p780
g15
tp781
a(S'is it hot this week'
p782
g15
tp783
a(S'please get current time'
p784
g15
tp785
a(S'please open mail'
p786
g15
tp787
a(S'am i free for this day'
p788
g15
tp789
a(S'do i have any events on tomorrow'
p790
g15
tp791
a(S'please add event'
p792
g15
tp793
a(S'can you add a new event please'
p794
g15
tp795
a(S'schedule a new event'
p796
g15
tp797
a(S'can you please shutdown'
p798
g15
tp799
a(S'what is in my gmail'
p800
g15
tp801
a(S'lower the tunez please'
p802
g15
tp803
a(S'what events are on monday'
p804
g15
tp805
a(S'kill the noise'
p806
g15
tp807
a(S'is there anything to do on tuesday'
p808
g15
tp809
a(S"what're not the live news"
p810
g15
tp811
a(S"what isn't live newsfeed"
p812
g15
tp813
a(S'please will you check my gmail'
p814
g15
tp815
a(S'current events'
p816
g38
tp817
a(S'what events do i have on sunday'
p818
g15
tp819
a(S'next song'
p820
g15
tp821
a(S"what's in my mail"
p822
g15
tp823
a(S'please would you open my inbox'
p824
g15
tp825
a(S'could you create an event please'
p826
g15
tp827
a(S'do i have to do anything today'
p828
g15
tp829
a(S'not whats going on in the world todays please'
p830
g15
tp831
a(S'am i free on monday'
p832
g15
tp833
a(S'what do i have to do on this day'
p834
g15
tp835
a(S'what is new in mail please'
p836
g15
tp837
a(S'what is in new gmail'
p838
g15
tp839
a(S'open my inbox'
p840
g15
tp841
a(S'shutdown please'
p842
g15
tp843
a(S'tell me headlines'
p844
g38
tp845
a(S'get weather'
p846
g15
tp847
a(S'what are the latest events '
p848
g38
tp849
a(S"don't find current news"
p850
g15
tp851
a(S'can you turn up the beat'
p852
g15
tp853
a(S"what's new in new gmail please"
p854
g15
tp855
a(S'dont find the latest headlines'
p856
g15
tp857
a(S'not newsfeed'
p858
g15
tp859
a(S'please check gmail'
p860
g15
tp861
a(S"don't get live news feed"
p862
g15
tp863
a(S'not news feed'
p864
g15
tp865
a(S'please what is new in new gmail'
p866
g15
tp867
a(S'read time please'
p868
g15
tp869
a(S'be quiet'
p870
g15
tp871
a(S'will you check my mail please'
p872
g15
tp873
a(S'please shut off'
p874
g15
tp875
a(S'do i have any events on wednesday'
p876
g15
tp877
a(S"don't i have any events on next"
p878
g15
tp879
a(S'do i have any events on thursday'
p880
g15
tp881
a(S"get if it's hot this week"
p882
g15
tp883
a(S'could you please add new event'
p884
g15
tp885
a(S'any events on monday'
p886
g15
tp887
a(S'is there anything to do tomorrow'
p888
g15
tp889
a(S'check my calendar for sunday'
p890
g15
tp891
a(S'check events on'
p892
g15
tp893
a(S'can you check mail please'
p894
g15
tp895
a(S'bye'
p896
g15
tp897
a(S'am i free on this day'
p898
g15
tp899
a(S'check the clock please'
p900
g15
tp901
a(S'please could you check my mail'
p902
g15
tp903
a(S'find news'
p904
g38
tp905
a(S'kill the active program'
p906
g15
tp907
a(S'check calendar on month'
p908
g15
tp909
a(S'please lock the screen'
p910
g15
tp911
a(S'can you open a browser please'
p912
g15
tp913
a(S'please check your watch'
p914
g15
tp915
a(S'do i have anything tomorrow'
p916
g15
tp917
a(S'do not tell me the news'
p918
g15
tp919
a(S'open gmail please'
p920
g15
tp921
a(S'check calendar on tuesday'
p922
g15
tp923
a(S"today's weather"
p924
g15
tp925
a(S'what events are in a week'
p926
g15
tp927
a(S'can you turn yourself off please'
p928
g15
tp929
a(S'not todays headlines'
p930
g15
tp931
a(S'could you check new gmail'
p932
g15
tp933
a(S'turn up the volume please'
p934
g15
tp935
a(S'please send me to the lock screen'
p936
g15
tp937
a(S"don't i have anything on wednesday"
p938
g15
tp939
a(S'would you open inbox please'
p940
g15
tp941
a(S'what events do i have on saturday'
p942
g15
tp943
a(S"aren't there any events on next"
p944
g15
tp945
a(S'add new event please'
p946
g15
tp947
a(S'see ya'
p948
g15
tp949
a(S'please could you check inbox'
p950
g15
tp951
a(S'please could you check new mail'
p952
g15
tp953
a(S'are there any events on tomorrow'
p954
g15
tp955
a(S'kill the program'
p956
g15
tp957
a(S'can you please kill this window'
p958
g15
tp959
a(S'what are the headlines'
p960
g38
tp961
a(S'can you schedule a new event please'
p962
g15
tp963
a(S"what's if it's snowing this week"
p964
g15
tp965
a(S'check my calendar for this month'
p966
g15
tp967
a(S'check the current time'
p968
g15
tp969
a(S"what's in mail please"
p970
g15
tp971
a(S'play song'
p972
g15
tp973
a(S"what's new in inbox please"
p974
g15
tp975
a(S'get current time please'
p976
g15
tp977
a(S'check calendar on today'
p978
g15
tp979
a(S"don't give me intel"
p980
g15
tp981
a(S"what's the forecast today"
p982
g15
tp983
a(S'is it freezing today'
p984
g15
tp985
a(S'what do i have on tuesday'
p986
g15
tp987
a(S'start spotify please'
p988
g15
tp989
a(S'check events on today'
p990
g15
tp991
a(S"not today's newsfeed"
p992
g15
tp993
a(S'please give me current events'
p994
g38
tp995
a(S'can you schedule event please'
p996
g15
tp997
a(S"please what's in new gmail"
p998
g15
tp999
a(S'what is on my calendar for tuesday'
p1000
g15
tp1001
a(S'can you lock the screen please'
p1002
g15
tp1003
a(S"don't tell me live news feed"
p1004
g15
tp1005
a(S"don't get the news"
p1006
g15
tp1007
a(S'can you please make new event'
p1008
g15
tp1009
a(S'please spotify pause the song'
p1010
g15
tp1011
a(S'can you send me to the lock screen please'
p1012
g15
tp1013
a(S'find current events'
p1014
g38
tp1015
a(S'please would you check new mail'
p1016
g15
tp1017
a(S'please what is in new mail'
p1018
g15
tp1019
a(S'can you not get information on the current events'
p1020
g15
tp1021
a(S'can you please turn the sound down'
p1022
g15
tp1023
a(S'please pause'
p1024
g15
tp1025
a(S'do i have any events on this day'
p1026
g15
tp1027
a(S'could you add a new event'
p1028
g15
tp1029
a(S"don't get news feed"
p1030
g15
tp1031
a(S'turn off'
p1032
g15
tp1033
a(S'could you make new event'
p1034
g15
tp1035
a(S'please spotify previous song'
p1036
g15
tp1037
a(S"don't i have to do anything"
p1038
g15
tp1039
a(S'could you please make an event'
p1040
g15
tp1041
a(S'are there any events on sunday'
p1042
g15
tp1043
a(S'bye bye alice'
p1044
g15
tp1045
a(S'check events on tomorrow'
p1046
g15
tp1047
a(S'is there anything i have to do on monday'
p1048
g15
tp1049
a(S'search google please'
p1050
g15
tp1051
a(S'please spotify last'
p1052
g15
tp1053
a(S'is it foggy this week'
p1054
g15
tp1055
a(S'what is on my calendar for next'
p1056
g15
tp1057
a(S'search google'
p1058
g15
tp1059
a(S"what're not the headlines"
p1060
g15
tp1061
a(S'create a new event please'
p1062
g15
tp1063
a(S'louder please'
p1064
g15
tp1065
a(S'check my calendar for this day'
p1066
g15
tp1067
a(S'what is in new mail please'
p1068
g15
tp1069
a(S"don't i have anything on"
p1070
g15
tp1071
a(S'not live news feed'
p1072
g15
tp1073
a(S'could you check new mail please'
p1074
g15
tp1075
a(S'will you not get the headlines'
p1076
g15
tp1077
a(S'please will you check gmail'
p1078
g15
tp1079
a(S'exit please'
p1080
g15
tp1081
a(S"don't i have to do anything in a month"
p1082
g15
tp1083
a(S'what do i have to do on today'
p1084
g15
tp1085
a(S'check my calendar on sunday'
p1086
g15
tp1087
a(S"don't i have anything on next"
p1088
g15
tp1089
a(S'shutdown my computer'
p1090
g15
tp1091
a(S'please will you open my gmail'
p1092
g15
tp1093
a(S'shutdown the computer'
p1094
g15
tp1095
a(S"what's new in my gmail"
p1096
g15
tp1097
a(S'check events for this month'
p1098
g15
tp1099
a(S'can you please add a new event'
p1100
g15
tp1101
a(S'check my calendar on this month'
p1102
g15
tp1103
a(S'can you kill the current window'
p1104
g15
tp1105
a(S"don't i have to do anything on saturday"
p1106
g15
tp1107
a(S'what events are'
p1108
g15
tp1109
a(S"don't get me the news todays"
p1110
g15
tp1111
a(S"don't i have anything on tuesday"
p1112
g15
tp1113
a(S'please check new gmail'
p1114
g15
tp1115
a(S'what time is it currently'
p1116
g15
tp1117
a(S"today's live news"
p1118
g38
tp1119
a(S'please spotify last song'
p1120
g15
tp1121
a(S'can you check inbox'
p1122
g15
tp1123
a(S'current events'
p1124
g38
tp1125
a(S"what's new in new mail please"
p1126
g15
tp1127
a(S"what's weather"
p1128
g15
tp1129
a(S"what's in new gmail please"
p1130
g15
tp1131
a(S"don't i have to do anything on thursday"
p1132
g15
tp1133
a(S'is it rainy today'
p1134
g15
tp1135
a(S'what is on my calendar for tomorrow'
p1136
g15
tp1137
a(S"don't get news"
p1138
g15
tp1139
a(S'forecast'
p1140
g15
tp1141
a(S"don't i have anything today"
p1142
g15
tp1143
a(S'check calendar for tomorrow'
p1144
g15
tp1145
a(S'check mail please'
p1146
g15
tp1147
a(S"what're not the current news"
p1148
g15
tp1149
a(S'get newsfeed'
p1150
g38
tp1151
a(S"what's not the newsfeed"
p1152
g15
tp1153
a(S'turn my computer off'
p1154
g15
tp1155
a(S'could you please create a new event'
p1156
g15
tp1157
a(S'make the sound softer'
p1158
g15
tp1159
a(S"what's in new mail"
p1160
g15
tp1161
a(S'can you please make an event'
p1162
g15
tp1163
a(S"what's if it's foggy this week"
p1164
g15
tp1165
a(S'check events for tomorrow'
p1166
g15
tp1167
a(S'music down'
p1168
g15
tp1169
a(S'can you put me on the lock screen'
p1170
g15
tp1171
a(S'what events do i have on'
p1172
g15
tp1173
a(S'current time'
p1174
g15
tp1175
a(S'can you add an event'
p1176
g15
tp1177
a(S'check calendar for wednesday'
p1178
g15
tp1179
a(S'can you please add an event'
p1180
g15
tp1181
a(S'please read the time'
p1182
g15
tp1183
a(S'could you create a new event'
p1184
g15
tp1185
a(S'do i have to do anything on sunday'
p1186
g15
tp1187
a(S'retrieve the current time'
p1188
g15
tp1189
a(S"what isn't current news"
p1190
g15
tp1191
a(S'are there any events on next'
p1192
g15
tp1193
a(S"aren't there any events on sunday"
p1194
g15
tp1195
a(S'are there any events on tuesday'
p1196
g15
tp1197
a(S'can you please add event'
p1198
g15
tp1199
a(S'please lock my computer'
p1200
g15
tp1201
a(S'check events for wednesday'
p1202
g15
tp1203
a(S'please read time'
p1204
g15
tp1205
a(S'open my gmail please'
p1206
g15
tp1207
a(S'are there any events on monday'
p1208
g15
tp1209
a(S"what's new in gmail"
p1210
g15
tp1211
a(S'can you create new event please'
p1212
g15
tp1213
a(S'a decent problem gossips beside the shoulder'
p1214
g15
tp1215
a(S'unmute please'
p1216
g15
tp1217
a(S'am i free for tomorrow'
p1218
g15
tp1219
a(S'turn up the the beat'
p1220
g15
tp1221
a(S'will you open inbox please'
p1222
g15
tp1223
a(S"what's new in inbox"
p1224
g15
tp1225
a(S'open gmail'
p1226
g15
tp1227
a(S"don't i have anything tomorrow"
p1228
g15
tp1229
a(S'check google calendar for'
p1230
g15
tp1231
a(S"today's current news "
p1232
g38
tp1233
a(S'am i free for'
p1234
g15
tp1235
a(S"don't i have to do anything on sunday"
p1236
g15
tp1237
a(S'check events for thursday'
p1238
g15
tp1239
a(S'is there anything i have to do on today'
p1240
g15
tp1241
a(S'how is the weather'
p1242
g15
tp1243
a(S'turn down the sound'
p1244
g15
tp1245
a(S'send me to the lock screen please'
p1246
g15
tp1247
a(S'close this window'
p1248
g15
tp1249
a(S'will you not get the current headlines'
p1250
g15
tp1251
a(S'please what is in mail'
p1252
g15
tp1253
a(S"what isn't headlines"
p1254
g15
tp1255
a(S'what is in mail'
p1256
g15
tp1257
a(S"what're the current news"
p1258
g38
tp1259
a(S'what is on my calendar for'
p1260
g15
tp1261
a(S"what isn't the news"
p1262
g15
tp1263
a(S"if it's cold today"
p1264
g15
tp1265
a(S'spotify play the song before'
p1266
g15
tp1267
a(S'weather'
p1268
g15
tp1269
a(S'do i have anything on next'
p1270
g15
tp1271
a(S'will you get the current events for me'
p1272
g38
tp1273
a(S'what do i have on thursday'
p1274
g15
tp1275
a(S'get the the latest headlines'
p1276
g38
tp1277
a(S'please create event'
p1278
g15
tp1279
a(S'please close current window'
p1280
g15
tp1281
a(S'please be quiet'
p1282
g15
tp1283
a(S"what aren't the live news"
p1284
g15
tp1285
a(S"get today's temperature"
p1286
g15
tp1287
a(S'please shut down the computer'
p1288
g15
tp1289
a(S'could you open gmail'
p1290
g15
tp1291
a(S'could you check inbox'
p1292
g15
tp1293
a(S"what's the headlines"
p1294
g38
tp1295
a(S'please would you open inbox'
p1296
g15
tp1297
a(S'search google for'
p1298
g15
tp1299
a(S"not today's current news"
p1300
g15
tp1301
a(S'is there anything i have to do on wednesday'
p1302
g15
tp1303
a(S"don't i have to do anything on saturday"
p1304
g15
tp1305
a(S"what's if it's snowing today"
p1306
g15
tp1307
a(S"what's the temperature this week"
p1308
g15
tp1309
a(S"what's new in new gmail"
p1310
g15
tp1311
a(S'create new event please'
p1312
g15
tp1313
a(S"what're not the news"
p1314
g15
tp1315
a(S'please google'
p1316
g15
tp1317
a(S'check google calendar for wednesday'
p1318
g15
tp1319
a(S"what isn't live news feed"
p1320
g15
tp1321
a(S'get current time'
p1322
g15
tp1323
a(S"what's not the current events"
p1324
g15
tp1325
a(S'do i have anything on monday'
p1326
g15
tp1327
a(S'please will you check my mail'
p1328
g15
tp1329
a(S'will you get the news for me'
p1330
g38
tp1331
a(S"don't find headlines"
p1332
g15
tp1333
a(S"don't give me the current events please"
p1334
g15
tp1335
a(S'can you shutdown the computer'
p1336
g15
tp1337
a(S'shut down my computer please'
p1338
g15
tp1339
a(S'what do i have to do'
p1340
g15
tp1341
a(S'could you open gmail please'
p1342
g15
tp1343
a(S'is it cloudy today'
p1344
g15
tp1345
a(S'turn off the computer please'
p1346
g15
tp1347
a(S'will you check my inbox'
p1348
g15
tp1349
a(S'spotify skip'
p1350
g15
tp1351
a(S'at this point i am writting random stuff '
p1352
g15
tp1353
a(S'do i have any events on sunday'
p1354
g15
tp1355
a(S'could you check my mail'
p1356
g15
tp1357
a(S'what do i have on this day'
p1358
g15
tp1359
a(S"what's not in newsfeed"
p1360
g15
tp1361
a(S'will it hail this week'
p1362
g15
tp1363
a(S'please turn my computer off'
p1364
g15
tp1365
a(S'do i have to do anything on this day'
p1366
g15
tp1367
a(S'stop the song'
p1368
g15
tp1369
a(S"don't tell me headlines"
p1370
g15
tp1371
a(S"don't i have to do anything in a month"
p1372
g15
tp1373
a(S'please kill current window'
p1374
g15
tp1375
a(S"what's the newsfeed"
p1376
g38
tp1377
a(S'am i free on friday'
p1378
g15
tp1379
a(S'check events for today'
p1380
g15
tp1381
a(S'time'
p1382
g15
tp1383
a(S'volume up'
p1384
g15
tp1385
a(S'shutdown my computer please'
p1386
g15
tp1387
a(S'check my calendar on this week'
p1388
g15
tp1389
a(S'do i have anything to do on sunday'
p1390
g15
tp1391
a(S"what's new in my inbox please"
p1392
g15
tp1393
a(S'check events on tuesday'
p1394
g15
tp1395
a(S'add an event'
p1396
g15
tp1397
a(S'the tale pretends'
p1398
g15
tp1399
a(S'please can you check my gmail'
p1400
g15
tp1401
a(S'do not gather information on todays current events'
p1402
g15
tp1403
a(S"what's the forecast"
p1404
g15
tp1405
a(S'please could you open gmail'
p1406
g15
tp1407
a(S'please pause the song'
p1408
g15
tp1409
a(S"how's the weather today"
p1410
g15
tp1411
a(S'make event please'
p1412
g15
tp1413
a(S'check my calendar for next'
p1414
g15
tp1415
a(S"what's if it's cloudy today"
p1416
g15
tp1417
a(S'could you open my gmail'
p1418
g15
tp1419
a(S"what's if it's cold today"
p1420
g15
tp1421
a(S'open a browser'
p1422
g15
tp1423
a(S'play the song before'
p1424
g15
tp1425
a(S"today's newsfeed"
p1426
g38
tp1427
a(S'would you open my inbox'
p1428
g15
tp1429
a(S'check calendar for tuesday'
p1430
g15
tp1431
a(S'spotify play the last song'
p1432
g15
tp1433
a(S'make the sound louder'
p1434
g15
tp1435
a(S'could you check inbox please'
p1436
g15
tp1437
a(S'could you open my mail'
p1438
g15
tp1439
a(S'turn up the tunez'
p1440
g15
tp1441
a(S'check google calendar for friday'
p1442
g15
tp1443
a(S'please read me the clock'
p1444
g15
tp1445
a(S'please what is new in inbox'
p1446
g15
tp1447
a(S'can you please turn off'
p1448
g15
tp1449
a(S'shut up'
p1450
g15
tp1451
a(S'do not find the news'
p1452
g15
tp1453
a(S'get the news'
p1454
g38
tp1455
a(S'good night'
p1456
g15
tp1457
a(S'please can you check inbox'
p1458
g15
tp1459
a(S'start a default browser'
p1460
g15
tp1461
a(S'can you turn up the volume'
p1462
g15
tp1463
a(S'retrieve the time'
p1464
g15
tp1465
a(S'start a browser please'
p1466
g15
tp1467
a(S'get the information'
p1468
g38
tp1469
a(S'am i free for thursday'
p1470
g15
tp1471
a(S'what events are on saturday'
p1472
g15
tp1473
a(S'please check what time it is'
p1474
g15
tp1475
a(S'are there any events on this day'
p1476
g15
tp1477
a(S'tell me current events'
p1478
g38
tp1479
a(S'is there anything to do on thursday'
p1480
g15
tp1481
a(S"if it's foggy today"
p1482
g15
tp1483
a(S'make an event'
p1484
g15
tp1485
a(S'will it rain today'
p1486
g15
tp1487
a(S'is there anything to do on next'
p1488
g15
tp1489
a(S'not headlines'
p1490
g15
tp1491
a(S'google search please'
p1492
g15
tp1493
a(S'do i have anything to do on next'
p1494
g15
tp1495
a(S"don't give me intel on current events"
p1496
g15
tp1497
a(S'check calendar for this week'
p1498
g15
tp1499
a(S'can you check new mail please'
p1500
g15
tp1501
a(S'what is the news today'
p1502
g38
tp1503
a(S'please could you open my mail'
p1504
g15
tp1505
a(S"aren't there any events on tuesday"
p1506
g15
tp1507
a(S"what's the live news"
p1508
g38
tp1509
a(S'live news today'
p1510
g38
tp1511
a(S'could you please make new event'
p1512
g15
tp1513
a(S'get the current time'
p1514
g15
tp1515
a(S'current news today'
p1516
g38
tp1517
a(S'check my calendar on tuesday'
p1518
g15
tp1519
a(S'please play spotify '
p1520
g15
tp1521
a(S'check my calendar for saturday'
p1522
g15
tp1523
a(S'current events today'
p1524
g38
tp1525
a(S"today's headlines"
p1526
g38
tp1527
a(S'open inbox'
p1528
g15
tp1529
a(S'what do i have on today'
p1530
g15
tp1531
a(S'can you unmute please'
p1532
g15
tp1533
a(S"don't get live newsfeed"
p1534
g15
tp1535
a(S'am i free for sunday'
p1536
g15
tp1537
a(S'google search for'
p1538
g15
tp1539
a(S'please what is new in mail'
p1540
g15
tp1541
a(S'can you please kill the current window'
p1542
g15
tp1543
a(S'do i have anything in a week'
p1544
g15
tp1545
a(S'do i have anything on this day'
p1546
g15
tp1547
a(S'do i have any events on friday'
p1548
g15
tp1549
a(S'the news'
p1550
g38
tp1551
a(S'make the sound quieter'
p1552
g15
tp1553
a(S"if it's snowing today"
p1554
g15
tp1555
a(S'live news feed'
p1556
g38
tp1557
a(S'any events on wednesday'
p1558
g15
tp1559
a(S"what's not in news"
p1560
g15
tp1561
a(S'please what is new in my inbox'
p1562
g15
tp1563
a(S'can you close the active window'
p1564
g15
tp1565
a(S'turn off the sound please'
p1566
g15
tp1567
a(S'please check the clock'
p1568
g15
tp1569
a(S'add an event please'
p1570
g15
tp1571
a(S'what do i have to do on wednesday'
p1572
g15
tp1573
a(S'what do i have to do on thursday'
p1574
g15
tp1575
a(S'find newsfeed'
p1576
g38
tp1577
a(S'can you check my gmail'
p1578
g15
tp1579
a(S"don't i have any events on monday"
p1580
g15
tp1581
a(S'do i have any events'
p1582
g15
tp1583
a(S'can you schedule an event please'
p1584
g15
tp1585
a(S'can you schedule event'
p1586
g15
tp1587
a(S'that should not call the function get news'
p1588
g15
tp1589
a(S'what do i have to do on monday'
p1590
g15
tp1591
a(S"aren't there any events on monday"
p1592
g15
tp1593
a(S'what do i have on sunday'
p1594
g15
tp1595
a(S'can you not get the latest headlines'
p1596
g15
tp1597
a(S'stop playing'
p1598
g15
tp1599
a(S'get the current time please'
p1600
g15
tp1601
a(S'search for please'
p1602
g15
tp1603
a(S'please spotify start'
p1604
g15
tp1605
a(S'please kill this window'
p1606
g15
tp1607
a(S"what aren't the latest events "
p1608
g15
tp1609
a(S'can you please turn up the volume'
p1610
g15
tp1611
a(S'shut down the computer'
p1612
g15
tp1613
a(S'get current forecast'
p1614
g15
tp1615
a(S'check events for'
p1616
g15
tp1617
a(S"what's if it's cold this week"
p1618
g15
tp1619
a(S'is there anything i have to do today'
p1620
g15
tp1621
a(S'am i free for today'
p1622
g15
tp1623
a(S'do i have to do anything'
p1624
g15
tp1625
a(S'can you kill the window'
p1626
g15
tp1627
a(S'when is it please'
p1628
g15
tp1629
a(S'can you turn the beat down'
p1630
g15
tp1631
a(S'what is on my calendar for saturday'
p1632
g15
tp1633
a(S'can you get information on the current events'
p1634
g38
tp1635
a(S'shut the fuck up'
p1636
g15
tp1637
a(S'tell me current news'
p1638
g38
tp1639
a(S'could you check my mail please'
p1640
g15
tp1641
a(S"what's in gmail"
p1642
g15
tp1643
a(S"how's the weather this week"
p1644
g15
tp1645
a(S'what is newsfeed'
p1646
g38
tp1647
a(S'can you lock my computer please'
p1648
g15
tp1649
a(S"what's not in live newsfeed"
p1650
g15
tp1651
a(S'go to dot gov'
p1652
g15
tp1653
a(S"don't i have to do anything on tuesday"
p1654
g15
tp1655
a(S'open'
p1656
g15
tp1657
a(S'turn yourself off please'
p1658
g15
tp1659
a(S'check events for this day'
p1660
g15
tp1661
a(S'skip spotify please'
p1662
g15
tp1663
a(S"what's if it's rainy today"
p1664
g15
tp1665
a(S"get if it's raining today"
p1666
g15
tp1667
a(S'retrieve what time it is'
p1668
g15
tp1669
a(S'can you please kill the window'
p1670
g15
tp1671
a(S'dont tell me the news'
p1672
g15
tp1673
a(S'what are the newsfeed'
p1674
g38
tp1675
a(S'what do i have to do on saturday'
p1676
g15
tp1677
a(S'what is new in gmail please'
p1678
g15
tp1679
a(S'next'
p1680
g15
tp1681
a(S'check google calendar for sunday'
p1682
g15
tp1683
a(S'could you schedule a new event'
p1684
g15
tp1685
a(S'could you check my inbox'
p1686
g15
tp1687
a(S'what do i have to do in a week'
p1688
g15
tp1689
a(S'lock the screen'
p1690
g15
tp1691
a(S'dont find current events'
p1692
g15
tp1693
a(S"what's the weather"
p1694
g15
tp1695
a(S'would you check my gmail please'
p1696
g15
tp1697
a(S'please read the clock'
p1698
g15
tp1699
a(S'what is new in my mail'
p1700
g15
tp1701
a(S'will you check my mail'
p1702
g15
tp1703
a(S"don't tell me current events"
p1704
g15
tp1705
a(S'can you create new event'
p1706
g15
tp1707
a(S'is there anything to do on friday'
p1708
g15
tp1709
a(S'turn the tune down'
p1710
g15
tp1711
a(S'can you please kill active window'
p1712
g15
tp1713
a(S'please search google'
p1714
g15
tp1715
a(S"what aren't the news"
p1716
g15
tp1717
a(S'turn my computer off please'
p1718
g15
tp1719
a(S'can you please shut down'
p1720
g15
tp1721
a(S'would you check my mail please'
p1722
g15
tp1723
a(S"don't i have to do anything on thursday"
p1724
g15
tp1725
a(S'check calendar on'
p1726
g15
tp1727
a(S'am i free in a month'
p1728
g15
tp1729
a(S"please what's in gmail"
p1730
g15
tp1731
a(S'would you check new mail please'
p1732
g15
tp1733
a(S'what is new in new mail please'
p1734
g15
tp1735
a(S'please read your watch'
p1736
g15
tp1737
a(S'can you shut down the computer'
p1738
g15
tp1739
a(S'turn up the tune'
p1740
g15
tp1741
a(S'alex'
p1742
g15
tp1743
a(S'could you open my inbox'
p1744
g15
tp1745
a(S'will you check mail'
p1746
g15
tp1747
a(S'am i free'
p1748
g15
tp1749
a(S'please lock computer'
p1750
g15
tp1751
a(S'will you check mail please'
p1752
g15
tp1753
a(S"please don't give me current events"
p1754
g15
tp1755
a(S'schedule an event'
p1756
g15
tp1757
a(S'dont give me the current events'
p1758
g15
tp1759
a(S'what is on my calendar for monday'
p1760
g15
tp1761
a(S'will you get the current events'
p1762
g38
tp1763
a(S'check my calendar for tuesday'
p1764
g15
tp1765
a(S'spotify previous song please'
p1766
g15
tp1767
a(S'kill current window'
p1768
g15
tp1769
a(S'please open my gmail'
p1770
g15
tp1771
a(S"don't i have anything in a week"
p1772
g15
tp1773
a(S'can you please shut off'
p1774
g15
tp1775
a(S'is it cold this week'
p1776
g15
tp1777
a(S'please dont tell me the latest events'
p1778
g15
tp1779
a(S'what events do i have in a month'
p1780
g15
tp1781
a(S'will you open my inbox please'
p1782
g15
tp1783
a(S'am i free for a week'
p1784
g15
tp1785
a(S'do i have anything on sunday'
p1786
g15
tp1787
a(S'is it cold today'
p1788
g15
tp1789
a(S'gather information on todays current events please'
p1790
g38
tp1791
a(S"get if it's snowing this week"
p1792
g15
tp1793
a(S'any events on today'
p1794
g15
tp1795
a(S'please go to'
p1796
g15
tp1797
a(S"how's the temperature this week"
p1798
g15
tp1799
a(S'shut off please'
p1800
g15
tp1801
a(S'close active window'
p1802
g15
tp1803
a(S'good night alice'
p1804
g15
tp1805
a(S'is it snowing today'
p1806
g15
tp1807
a(S'get live news'
p1808
g38
tp1809
a(S'what is new in my gmail please'
p1810
g15
tp1811
a(S'check my calendar for this week'
p1812
g15
tp1813
a(S'what is live news'
p1814
g38
tp1815
a(S'get forecast'
p1816
g15
tp1817
a(S'spotify pause please'
p1818
g15
tp1819
a(S'could you open inbox'
p1820
g15
tp1821
a(S'what is new in my gmail'
p1822
g15
tp1823
a(S"what's if it's raining this week"
p1824
g15
tp1825
a(S'sweet dreams alice'
p1826
g15
tp1827
a(S'can you please turn my computer off'
p1828
g15
tp1829
a(S'are there any events on friday'
p1830
g15
tp1831
a(S'please retrieve the time'
p1832
g15
tp1833
a(S'what is new in mail'
p1834
g15
tp1835
a(S'is there anything to do in a month'
p1836
g15
tp1837
a(S"don't i have anything to do"
p1838
g15
tp1839
a(S'please kill active window'
p1840
g15
tp1841
a(S'do i have anything to do'
p1842
g15
tp1843
a(S'shutdown the computer please'
p1844
g15
tp1845
a(S'please could you check gmail'
p1846
g15
tp1847
a(S"don't i have any events on saturday"
p1848
g15
tp1849
a(S'check gmail please'
p1850
g15
tp1851
a(S'check calendar for next'
p1852
g15
tp1853
a(S'would you open gmail'
p1854
g15
tp1855
a(S'do i have anything on wednesday'
p1856
g15
tp1857
a(S'please check mail'
p1858
g15
tp1859
a(S'what is current events'
p1860
g38
tp1861
a(S'do i have anything to do on monday'
p1862
g15
tp1863
a(S"don't find live newsfeed"
p1864
g15
tp1865
a(S"get this week's temperature"
p1866
g15
tp1867
a(S'tell me news'
p1868
g38
tp1869
a(S"how's the weather"
p1870
g15
tp1871
a(S'please could you check my inbox'
p1872
g15
tp1873
a(S'how is the temperature'
p1874
g15
tp1875
a(S'not current events'
p1876
g15
tp1877
a(S"if it's rainy today"
p1878
g15
tp1879
a(S'please start browser'
p1880
g15
tp1881
a(S'would you check my mail'
p1882
g15
tp1883
a(S'please would you open mail'
p1884
g15
tp1885
a(S'check google calendar for this day'
p1886
g15
tp1887
a(S'check calendar'
p1888
g15
tp1889
a(S'turn up the beat please'
p1890
g15
tp1891
a(S"what's not in headlines"
p1892
g15
tp1893
a(S'get current news'
p1894
g38
tp1895
a(S"what's the temperature"
p1896
g15
tp1897
a(S"what's the current news"
p1898
g38
tp1899
a(S'turn up the sound please'
p1900
g15
tp1901
a(S'could you make event'
p1902
g15
tp1903
a(S"what's in my mail please"
p1904
g15
tp1905
a(S'are there any events on wednesday'
p1906
g15
tp1907
a(S'check calendar on next'
p1908
g15
tp1909
a(S"get if it's foggy today"
p1910
g15
tp1911
a(S'please would you check my gmail'
p1912
g15
tp1913
a(S'news feed today'
p1914
g38
tp1915
a(S'google search'
p1916
g15
tp1917
a(S'check events on thursday'
p1918
g15
tp1919
a(S'intel'
p1920
g38
tp1921
a(S'check inbox please'
p1922
g15
tp1923
a(S'can you please close the current window'
p1924
g15
tp1925
a(S"get if it's raining this week"
p1926
g15
tp1927
a(S'could you check new mail'
p1928
g15
tp1929
a(S'please turn off the computer'
p1930
g15
tp1931
a(S"don't find newsfeed"
p1932
g15
tp1933
a(S'check what time it is'
p1934
g15
tp1935
a(S'do i have any events on today'
p1936
g15
tp1937
a(S'get headlines'
p1938
g38
tp1939
a(S'check google calendar'
p1940
g15
tp1941
a(S'can you please create new event'
p1942
g15
tp1943
a(S"please what's in mail"
p1944
g15
tp1945
a(S'please shutdown the computer'
p1946
g15
tp1947
a(S'dont gather information on todays current events'
p1948
g15
tp1949
a(S'spotify start the song please'
p1950
g15
tp1951
a(S'not news'
p1952
g15
tp1953
a(S'find live newsfeed'
p1954
g38
tp1955
a(S'google search for please'
p1956
g15
tp1957
a(S"aren't there any events on tomorrow"
p1958
g15
tp1959
a(S'do not tell me the current events'
p1960
g15
tp1961
a(S'could you create new event please'
p1962
g15
tp1963
a(S'could you make a new event please'
p1964
g15
tp1965
a(S"please what's new in gmail"
p1966
g15
tp1967
a(S'lock computer'
p1968
g15
tp1969
a(S'please can you check mail'
p1970
g15
tp1971
a(S'please open my inbox'
p1972
g15
tp1973
a(S'turn off my computer'
p1974
g15
tp1975
a(S'shut down my computer'
p1976
g15
tp1977
a(S"don't i have anything"
p1978
g15
tp1979
a(S'news never please'
p1980
g15
tp1981
a(S"please don'tgive me the current events please"
p1982
g15
tp1983
a(S'please start spotify'
p1984
g15
tp1985
a(S'what are the live news'
p1986
g38
tp1987
a(S'can you turn up the sound'
p1988
g15
tp1989
a(S'open my gmail'
p1990
g15
tp1991
a(S'dont find out whats going on'
p1992
g15
tp1993
a(S"what's the weather this week"
p1994
g15
tp1995
a(S"what's in my gmail please"
p1996
g15
tp1997
a(S"don't i have to do anything on"
p1998
g15
tp1999
a(S'start the song'
p2000
g15
tp2001
a(S"what's if it's raining today"
p2002
g15
tp2003
a(S"don't i have anything on friday"
p2004
g15
tp2005
a(S'google please for'
p2006
g15
tp2007
a(S'could you schedule event'
p2008
g15
tp2009
a(S'please close active window'
p2010
g15
tp2011
a(S'do i have to do anything on tuesday'
p2012
g15
tp2013
a(S'check google calendar on thursday'
p2014
g15
tp2015
a(S'check my calendar for'
p2016
g15
tp2017
a(S'please could you check my gmail'
p2018
g15
tp2019
a(S'please get me the clock'
p2020
g15
tp2021
a(S'open dot net'
p2022
g15
tp2023
a(S'am i free on next'
p2024
g15
tp2025
a(S'spotify last please'
p2026
g15
tp2027
a(S"don't i have anything to do on this day"
p2028
g15
tp2029
a(S'check calendar on sunday'
p2030
g15
tp2031
a(S'create new event'
p2032
g15
tp2033
a(S'get live newsfeed'
p2034
g38
tp2035
a(S'create an event'
p2036
g15
tp2037
a(S'go to'
p2038
g15
tp2039
a(S"what's the current events"
p2040
g38
tp2041
a(S'can you add new event'
p2042
g15
tp2043
a(S'can you please schedule event'
p2044
g15
tp2045
a(S'open inbox please'
p2046
g15
tp2047
a(S'please do not get teh current events'
p2048
g15
tp2049
a(S'could you check new gmail please'
p2050
g15
tp2051
a(S'would you check new gmail'
p2052
g15
tp2053
a(S'make a new event'
p2054
g15
tp2055
a(S'please check my inbox'
p2056
g15
tp2057
a(S'start browser'
p2058
g15
tp2059
a(S'will you not get the news for me'
p2060
g15
tp2061
a(S'debrief me'
p2062
g38
tp2063
a(S'live newsfeed today'
p2064
g38
tp2065
a(S'not current news'
p2066
g15
tp2067
a(S"what's in mail"
p2068
g15
tp2069
a(S'close the active window'
p2070
g15
tp2071
a(S'do i have anything on tuesday'
p2072
g15
tp2073
a(S'please can you turn up the volume'
p2074
g15
tp2075
a(S'kill window'
p2076
g15
tp2077
a(S'turn up the volume'
p2078
g15
tp2079
a(S'what do i have on monday'
p2080
g15
tp2081
a(S"please what's new in my gmail"
p2082
g15
tp2083
a(S'what is on my calendar for thursday'
p2084
g15
tp2085
a(S'turn off the beats'
p2086
g15
tp2087
a(S'any events in a month'
p2088
g15
tp2089
a(S"don't get the the latest headlines"
p2090
g15
tp2091
a(S'schedule event'
p2092
g15
tp2093
a(S'not get the current events'
p2094
g15
tp2095
a(S'could you open my inbox please'
p2096
g15
tp2097
a(S'could you please schedule an event'
p2098
g15
tp2099
a(S'would you check new gmail please'
p2100
g15
tp2101
a(S'could you schedule a new event please'
p2102
g15
tp2103
a(S"what's in inbox please"
p2104
g15
tp2105
a(S'shut off my computer'
p2106
g15
tp2107
a(S'what are the current events'
p2108
g38
tp2109
a(S"what's not the live news feed"
p2110
g15
tp2111
a(S'please when is it'
p2112
g15
tp2113
a(S'could you check mail'
p2114
g15
tp2115
a(S'create event please'
p2116
g15
tp2117
a(S'train a classifier to try to predict the category of a post'
p2118
g15
tp2119
a(S'could you please make a new event'
p2120
g15
tp2121
a(S'check events on saturday'
p2122
g15
tp2123
a(S"don't i have to do anything in a week"
p2124
g15
tp2125
a(S'please turn off'
p2126
g15
tp2127
a(S"don't get live news"
p2128
g15
tp2129
a(S'stop song please'
p2130
g15
tp2131
a(S'get temperature'
p2132
g15
tp2133
a(S'current news'
p2134
g38
tp2135
a(S'check my gmail'
p2136
g15
tp2137
a(S'find news feed'
p2138
g38
tp2139
a(S"this week's weather"
p2140
g15
tp2141
a(S'please search for'
p2142
g15
tp2143
a(S'please turn off my computer'
p2144
g15
tp2145
a(S'please google for'
p2146
g15
tp2147
a(S'read me the clock please'
p2148
g15
tp2149
a(S'please what is new in my mail'
p2150
g15
tp2151
a(S'can you please shut off my computer'
p2152
g15
tp2153
a(S'is there anything to do'
p2154
g15
tp2155
a(S'anything new in gmail'
p2156
g15
tp2157
a(S'go to dot org'
p2158
g15
tp2159
a(S'can you open this program'
p2160
g15
tp2161
a(S'check my calendar for this day'
p2162
g15
tp2163
a(S'add a new event'
p2164
g15
tp2165
a(S'do i have to do anything on next'
p2166
g15
tp2167
a(S"if it's freezing this week"
p2168
g15
tp2169
a(S'would you check new mail'
p2170
g15
tp2171
a(S'what events do i have'
p2172
g15
tp2173
a(S'check my calendar for tomorrow'
p2174
g15
tp2175
a(S'what events are going on right now'
p2176
g38
tp2177
a(S'please check the clock right now'
p2178
g15
tp2179
a(S'will it snow this week'
p2180
g15
tp2181
a(S'open dot gov'
p2182
g15
tp2183
a(S'anything in gmail'
p2184
g15
tp2185
a(S'hey alice'
p2186
g15
tp2187
a(S'turn up the tunez please'
p2188
g15
tp2189
a(S'can you please create event'
p2190
g15
tp2191
a(S'not briefing'
p2192
g15
tp2193
a(S'can you open a browser'
p2194
g15
tp2195
a(S'put me on the lock screen'
p2196
g15
tp2197
a(S'can you turn the sound down'
p2198
g15
tp2199
a(S'google for'
p2200
g15
tp2201
a(S"don't i have anything to do tomorrow"
p2202
g15
tp2203
a(S"what're not the live news feed"
p2204
g15
tp2205
a(S'please spotify play last song'
p2206
g15
tp2207
a(S'check google calendar for this week'
p2208
g15
tp2209
a(S'please would you check mail'
p2210
g15
tp2211
a(S"don't i have to do anything on next"
p2212
g15
tp2213
a(S'turn off my computer please'
p2214
g15
tp2215
a(S'shut down please'
p2216
g15
tp2217
a(S'current weather'
p2218
g15
tp2219
a(S'okay alex'
p2220
g15
tp2221
a(S'how long can this data set get'
p2222
g15
tp2223
a(S'whats going on in the world todays please'
p2224
g38
tp2225
a(S'can you turn yourself off'
p2226
g15
tp2227
a(S'check google calendar for next'
p2228
g15
tp2229
a(S'what events do i have on this day'
p2230
g15
tp2231
a(S'check my calendar on next'
p2232
g15
tp2233
a(S"don't get current news"
p2234
g15
tp2235
a(S'mute please'
p2236
g15
tp2237
a(S'check google calendar for tomorrow'
p2238
g15
tp2239
a(S"what're the news"
p2240
g38
tp2241
a(S'can you please make event'
p2242
g15
tp2243
a(S'not current events please'
p2244
g15
tp2245
a(S'we stick to simple problems in this post for the sake of illustration'
p2246
g15
tp2247
a(S'can you please turn up the sound'
p2248
g15
tp2249
a(S'please open browser'
p2250
g15
tp2251
a(S'song stop'
p2252
g15
tp2253
a(S'please create new event'
p2254
g15
tp2255
a(S'do i have anything to do today'
p2256
g15
tp2257
a(S'is there anything i have to do in a week'
p2258
g15
tp2259
a(S"what're the current events"
p2260
g38
tp2261
a(S"please don't get the news"
p2262
g15
tp2263
a(S"get if it's freezing this week"
p2264
g15
tp2265
a(S'could you check gmail please'
p2266
g15
tp2267
a(S'put me on the lock screen please'
p2268
g15
tp2269
a(S'will you open mail please'
p2270
g15
tp2271
a(S'any events on friday'
p2272
g15
tp2273
a(S'check calendar for friday'
p2274
g15
tp2275
a(S'what is live newsfeed'
p2276
g38
tp2277
a(S'do not whats going on in the world todays'
p2278
g15
tp2279
a(S'could you please create an event'
p2280
g15
tp2281
a(S'start a default browser please'
p2282
g15
tp2283
a(S'google please'
p2284
g15
tp2285
a(S'add event'
p2286
g15
tp2287
a(S'are there any events on saturday'
p2288
g15
tp2289
a(S'see you'
p2290
g15
tp2291
a(S'what do i have to do in a month'
p2292
g15
tp2293
a(S'please what is in inbox'
p2294
g15
tp2295
a(S"don't find the news"
p2296
g15
tp2297
a(S'any events'
p2298
g15
tp2299
a(S'can you lock my computer please'
p2300
g15
tp2301
a(S'is there anything to do on today'
p2302
g15
tp2303
a(S'check calendar on tomorrow'
p2304
g15
tp2305
a(S'could you please add a new event'
p2306
g15
tp2307
a(S'brief me'
p2308
g38
tp2309
a(S'please get time'
p2310
g15
tp2311
a(S'sound higher please'
p2312
g15
tp2313
a(S'lock my computer please'
p2314
g15
tp2315
a(S"aren't there any events in a week"
p2316
g15
tp2317
a(S'do not tell me hwat is going on in the world todays'
p2318
g15
tp2319
a(S'check calendar for'
p2320
g15
tp2321
a(S'am i free on wednesday'
p2322
g15
tp2323
a(S'what is in my mail'
p2324
g15
tp2325
a(S"don't tell me current news"
p2326
g15
tp2327
a(S'is there anything to do on'
p2328
g15
tp2329
a(S'what is on my calendar for friday'
p2330
g15
tp2331
a(S'am i free in a week'
p2332
g15
tp2333
a(S"please what's in my gmail"
p2334
g15
tp2335
a(S'what events do i have on wednesday'
p2336
g15
tp2337
a(S'could you add new event please'
p2338
g15
tp2339
a(S'what events are on wednesday'
p2340
g15
tp2341
a(S"don't i have anything to do today"
p2342
g15
tp2343
a(S'do i have any events on next'
p2344
g15
tp2345
a(S'please shut my computer down'
p2346
g15
tp2347
a(S"don't give me the news"
p2348
g15
tp2349
a(S'please go back'
p2350
g15
tp2351
a(S"what isn't current events"
p2352
g15
tp2353
a(S"what's not the the news"
p2354
g15
tp2355
a(S'check my calendar on today'
p2356
g15
tp2357
a(S'please open gmail'
p2358
g15
tp2359
a(S"get this week's forecast"
p2360
g15
tp2361
a(S'am i free today'
p2362
g15
tp2363
a(S'will you open inbox'
p2364
g15
tp2365
a(S"please don't get the current events"
p2366
g15
tp2367
a(S'will it snow today'
p2368
g15
tp2369
a(S"don't i have to do anything today"
p2370
g15
tp2371
a(S'can you schedule new event'
p2372
g15
tp2373
a(S"aren't there any events on"
p2374
g15
tp2375
a(S'briefing'
p2376
g38
tp2377
a(S"today's temperature"
p2378
g15
tp2379
a(S'can you make a new event'
p2380
g15
tp2381
a(S'shut up please'
p2382
g15
tp2383
a(S'check events on'
p2384
g15
tp2385
a(S'dont whats going on in the world todays'
p2386
g15
tp2387
a(S'is it cloudy this week'
p2388
g15
tp2389
a(S'check gmail'
p2390
g15
tp2391
a(S'please would you check inbox'
p2392
g15
tp2393
a(S'do not find current events'
p2394
g15
tp2395
a(S"don't find live news"
p2396
g15
tp2397
a(S"don't gimme the news"
p2398
g15
tp2399
a(S"not today's news"
p2400
g15
tp2401
a(S"if it's cold this week"
p2402
g15
tp2403
a(S'send me to the lock screen'
p2404
g15
tp2405
a(S'will you open my mail please'
p2406
g15
tp2407
a(S'not intel'
p2408
g15
tp2409
a(S"aren't there any events on today"
p2410
g15
tp2411
a(S"don't i have any events in a month"
p2412
g15
tp2413
a(S'check my calendar on saturday'
p2414
g15
tp2415
a(S'check events on month'
p2416
g15
tp2417
a(S'google for please'
p2418
g15
tp2419
a(S'what do i have on'
p2420
g15
tp2421
a(S'would you check mail'
p2422
g15
tp2423
a(S"what's the news feed"
p2424
g38
tp2425
a(S'do not give me the news'
p2426
g15
tp2427
a(S"aren't there any events on this day"
p2428
g15
tp2429
a(S"get this week's weather"
p2430
g15
tp2431
a(S'could you schedule new event please'
p2432
g15
tp2433
a(S'what events are on sunday'
p2434
g15
tp2435
a(S'what is on my calendar'
p2436
g15
tp2437
a(S'check events for sunday'
p2438
g15
tp2439
a(S"don't i have anything on sunday"
p2440
g15
tp2441
a(S"don't i have anything to do in a week"
p2442
g15
tp2443
a(S'can you please schedule a new event'
p2444
g15
tp2445
a(S'real not fake news'
p2446
g15
tp2447
a(S'check events on this week'
p2448
g15
tp2449
a(S'not intelligence report'
p2450
g15
tp2451
a(S'are there any events in a month'
p2452
g15
tp2453
a(S'shut off my computer please'
p2454
g15
tp2455
a(S'make new event'
p2456
g15
tp2457
a(S'please get the current time'
p2458
g15
tp2459
a(S'play spotify please'
p2460
g15
tp2461
a(S'news today'
p2462
g38
tp2463
a(S'please get the clock'
p2464
g15
tp2465
a(S'am i free on sunday'
p2466
g15
tp2467
a(S'could you add new event'
p2468
g15
tp2469
a(S'please open a browser'
p2470
g15
tp2471
a(S'close window'
p2472
g15
tp2473
a(S'is it foggy today'
p2474
g15
tp2475
a(S'please close this window'
p2476
g15
tp2477
a(S'what is in my mail please'
p2478
g15
tp2479
a(S'please open my mail'
p2480
g15
tp2481
a(S'do i have any events in a week'
p2482
g15
tp2483
a(S'can you please open a browser'
p2484
g15
tp2485
a(S'can you schedule new event please'
p2486
g15
tp2487
a(S'could you make new event please'
p2488
g15
tp2489
a(S"don't i have to do anything on wednesday"
p2490
g15
tp2491
a(S'what is the news'
p2492
g38
tp2493
a(S'am i free for tuesday'
p2494
g15
tp2495
a(S'would you open mail please'
p2496
g15
tp2497
a(S'lock computer please'
p2498
g15
tp2499
a(S'spotify pause the song please'
p2500
g15
tp2501
a(S'check your watch please'
p2502
g15
tp2503
a(S"what isn't news"
p2504
g15
tp2505
a(S'what is in new gmail please'
p2506
g15
tp2507
a(S"what's this week's forecast"
p2508
g15
tp2509
a(S'alice'
p2510
g15
tp2511
a(S'give me intel'
p2512
g38
tp2513
a(S'headlines'
p2514
g38
tp2515
a(S'is there anything to do on saturday'
p2516
g15
tp2517
a(S'tell me the news'
p2518
g38
tp2519
a(S'please turn it down'
p2520
g15
tp2521
a(S"don't i have to do anything on monday"
p2522
g15
tp2523
a(S'check calendar on this day'
p2524
g15
tp2525
a(S"don't i have any events on thursday"
p2526
g15
tp2527
a(S'can you turn up the volume please'
p2528
g15
tp2529
a(S'not live newsfeed'
p2530
g15
tp2531
a(S'what do i have to do on next'
p2532
g15
tp2533
a(S'do not give me infornation on todays current events'
p2534
g15
tp2535
a(S"don't i have to do anything on tuesday"
p2536
g15
tp2537
a(S"aren't there any events in a month"
p2538
g15
tp2539
a(S"please what's new in my inbox"
p2540
g15
tp2541
a(S'please could you check mail'
p2542
g15
tp2543
a(S'check my calendar for friday'
p2544
g15
tp2545
a(S"what's in gmail please"
p2546
g15
tp2547
a(S'do not find the latest headlines'
p2548
g15
tp2549
a(S'can you lock computer please'
p2550
g15
tp2551
a(S'turn it down'
p2552
g15
tp2553
a(S'check google calendar on wednesday'
p2554
g15
tp2555
a(S"today's current events"
p2556
g38
tp2557
a(S'open a default browser please'
p2558
g15
tp2559
a(S"what's the news"
p2560
g38
tp2561
a(S"what's if it's foggy today"
p2562
g15
tp2563
a(S'what is in inbox please'
p2564
g15
tp2565
a(S'mute'
p2566
g15
tp2567
a(S'do i have to do anything on monday'
p2568
g15
tp2569
a(S"what's new in gmail please"
p2570
g15
tp2571
a(S'check mail'
p2572
g15
tp2573
a(S"what's new in my mail please"
p2574
g15
tp2575
a(S'please tell me whats going on in the news please'
p2576
g38
tp2577
a(S"don't tell me news feed"
p2578
g15
tp2579
a(S'please would you check gmail'
p2580
g15
tp2581
a(S'turn yourself off'
p2582
g15
tp2583
a(S'check if i have anything in my inbox'
p2584
g15
tp2585
a(S'unmute'
p2586
g15
tp2587
a(S'skip'
p2588
g15
tp2589
a(S'can you please turn off my computer'
p2590
g15
tp2591
a(S"don't i have anything on this day"
p2592
g15
tp2593
a(S'get the clock'
p2594
g15
tp2595
a(S"today's live newsfeed"
p2596
g38
tp2597
a(S'get news now'
p2598
g38
tp2599
a(S'dont read the news to me'
p2600
g15
tp2601
a(S'check events for friday'
p2602
g15
tp2603
a(S'will you not get the current events'
p2604
g15
tp2605
a(S'see ya alice'
p2606
g15
tp2607
a(S'could you add a new event please'
p2608
g15
tp2609
a(S'turn up the sound'
p2610
g15
tp2611
a(S'get news'
p2612
g38
tp2613
a(S"aren't there any events on saturday"
p2614
g15
tp2615
a(S"don't i have any events on wednesday"
p2616
g15
tp2617
a(S'what events are on today'
p2618
g15
tp2619
a(S'what do i have in a month'
p2620
g15
tp2621
a(S'spotify last song please'
p2622
g15
tp2623
a(S'could you make a new event'
p2624
g15
tp2625
a(S'do i have anything to do in a week'
p2626
g15
tp2627
a(S'am i free for a month'
p2628
g15
tp2629
a(S"what're not the news feed"
p2630
g15
tp2631
a(S'check calendar for saturday'
p2632
g15
tp2633
a(S'can you check my inbox please'
p2634
g15
tp2635
a(S'please could you open my inbox'
p2636
g15
tp2637
a(S'can you make event'
p2638
g15
tp2639
a(S'any events on thursday'
p2640
g15
tp2641
a(S"don't find news"
p2642
g15
tp2643
a(S"what're not the the news"
p2644
g15
tp2645
a(S'could you schedule an event please'
p2646
g15
tp2647
a(S'can you kill this window'
p2648
g15
tp2649
a(S'what is in my inbox please'
p2650
g15
tp2651
a(S'start browsing please'
p2652
g15
tp2653
a(S'please add a new event'
p2654
g15
tp2655
a(S'would you open my mail'
p2656
g15
tp2657
a(S'please what is in my mail'
p2658
g15
tp2659
a(S'what do i have on friday'
p2660
g15
tp2661
a(S'any events on sunday'
p2662
g15
tp2663
a(S'do i have to do anything on wednesday'
p2664
g15
tp2665
a(S'go spotify please'
p2666
g15
tp2667
a(S'go to dot com'
p2668
g15
tp2669
a(S'is it raining this week'
p2670
g15
tp2671
a(S'could you create event please'
p2672
g15
tp2673
a(S"what's not in live news"
p2674
g15
tp2675
a(S'is there anything i have to do on tuesday'
p2676
g15
tp2677
a(S'what is in mail please'
p2678
g15
tp2679
a(S'any gmail'
p2680
g15
tp2681
a(S'check events on this day'
p2682
g15
tp2683
a(S'please can you check new gmail'
p2684
g15
tp2685
a(S'can you please shut down the computer'
p2686
g15
tp2687
a(S"don't i have anything on thursday"
p2688
g15
tp2689
a(S'what events do i have on tuesday'
p2690
g15
tp2691
a(S'can you open browser please'
p2692
g15
tp2693
a(S'spotify play previous song please'
p2694
g15
tp2695
a(S'any events on tomorrow'
p2696
g15
tp2697
a(S'please can you check new mail'
p2698
g15
tp2699
a(S"if it's rainy this week"
p2700
g15
tp2701
a(S'read me the clock'
p2702
g15
tp2703
a(S'please stop song'
p2704
g15
tp2705
a(S'what events are on this day'
p2706
g15
tp2707
a(S"get if it's cold this week"
p2708
g15
tp2709
a(S'can you please schedule new event'
p2710
g15
tp2711
a(S'will you check my gmail please'
p2712
g15
tp2713
a(S'live news'
p2714
g38
tp2715
a(S"don't i have anything to do on monday"
p2716
g15
tp2717
a(S'please would you open my mail'
p2718
g15
tp2719
a(S"not today's live news"
p2720
g15
tp2721
a(S'can you put me on the lock screen please'
p2722
g15
tp2723
a(S"if it's snowing this week"
p2724
g15
tp2725
a(S'dont tell me the current events'
p2726
g15
tp2727
a(S'will you check my gmail'
p2728
g15
tp2729
a(S'can you shut off'
p2730
g15
tp2731
a(S'get the time please'
p2732
g15
tp2733
a(S'any mail'
p2734
g15
tp2735
a(S'stop'
p2736
g15
tp2737
a(S"don't i have any events on today"
p2738
g15
tp2739
a(S"please what's in new mail"
p2740
g15
tp2741
a(S'check the clock'
p2742
g15
tp2743
a(S'what events do i have on tomorrow'
p2744
g15
tp2745
a(S'what events are on tuesday'
p2746
g15
tp2747
a(S'could you make event please'
p2748
g15
tp2749
a(S"don't tell me live newsfeed"
p2750
g15
tp2751
a(S'what events do i have on next'
p2752
g15
tp2753
a(S'exit'
p2754
g15
tp2755
a(S'can you close this window'
p2756
g15
tp2757
a(S"what's the temperature today"
p2758
g15
tp2759
a(S'please what is in my inbox'
p2760
g15
tp2761
a(S"don't i have anything in a month"
p2762
g15
tp2763
a(S'please sound up'
p2764
g15
tp2765
a(S"what's the the news"
p2766
g38
tp2767
a(S"what's not in current news"
p2768
g15
tp2769
a(S'check my calendar for today'
p2770
g15
tp2771
a(S'are there any events in a week'
p2772
g15
tp2773
a(S'what are the news feed'
p2774
g38
tp2775
a(S'what are the the news'
p2776
g38
tp2777
a(S'spotify skip ahead please'
p2778
g15
tp2779
a(S'please shut off my computer'
p2780
g15
tp2781
a(S'please get clock'
p2782
g15
tp2783
a(S'are there any events on thursday'
p2784
g15
tp2785
a(S'open a default browser'
p2786
g15
tp2787
a(S'can you create a new event'
p2788
g15
tp2789
a(S'tell me live news feed'
p2790
g38
tp2791
a(S'check new mail please'
p2792
g15
tp2793
a(S'start a browser'
p2794
g15
tp2795
a(S"what's not the news feed"
p2796
g15
tp2797
a(S'can you make an event'
p2798
g15
tp2799
a(S"how's the temperature today"
p2800
g15
tp2801
a(S'could you add event'
p2802
g15
tp2803
a(S"aren't there any events on friday"
p2804
g15
tp2805
a(S'read the clock please'
p2806
g15
tp2807
a(S'check my calendar on this day'
p2808
g15
tp2809
a(S"what're the live news"
p2810
g38
tp2811
a(S'lock the screen please'
p2812
g15
tp2813
a(S'would you check my inbox please'
p2814
g15
tp2815
a(S'is there anything to do on monday'
p2816
g15
tp2817
a(S'do i have anything to do on thursday'
p2818
g15
tp2819
a(S"don't i have anything to do on tuesday"
p2820
g15
tp2821
a(S'please spotify play previous song'
p2822
g15
tp2823
a(S'will you check gmail please'
p2824
g15
tp2825
a(S'dont give me information of todays news'
p2826
g15
tp2827
a(S'what is news feed'
p2828
g38
tp2829
a(S'what time is it'
p2830
g15
tp2831
a(S"if it's raining today"
p2832
g15
tp2833
a(S"what's not the headlines"
p2834
g15
tp2835
a(S'anything in my gmail'
p2836
g15
tp2837
a(S"don't i have to do anything"
p2838
g15
tp2839
a(S'check events on monday'
p2840
g15
tp2841
a(S'would you check inbox'
p2842
g15
tp2843
a(S'search google please for'
p2844
g15
tp2845
a(S'open mail'
p2846
g15
tp2847
a(S'check the clock right now'
p2848
g15
tp2849
a(S'please create a new event'
p2850
g15
tp2851
a(S"don't i have to do anything tomorrow"
p2852
g15
tp2853
a(S'do not find out whats going on'
p2854
g15
tp2855
a(S'can you please mute'
p2856
g15
tp2857
a(S"what isn't live news"
p2858
g15
tp2859
a(S"what's today's forecast"
p2860
g15
tp2861
a(S'get clock'
p2862
g15
tp2863
a(S'lock'
p2864
g15
tp2865
a(S'can you check my inbox'
p2866
g15
tp2867
a(S'please do not give me the news'
p2868
g15
tp2869
a(S'read time'
p2870
g15
tp2871
a(S'turn off please'
p2872
g15
tp2873
a(S'could you create new event'
p2874
g15
tp2875
a(S'please will you open my mail'
p2876
g15
tp2877
a(S'what events are on'
p2878
g15
tp2879
a(S"don't get current events"
p2880
g15
tp2881
a(S'check events for next'
p2882
g15
tp2883
a(S"get if it's cold today"
p2884
g15
tp2885
a(S"please what's new in mail"
p2886
g15
tp2887
a(S'please can you check my mail'
p2888
g15
tp2889
a(S'check calendar for thursday'
p2890
g15
tp2891
a(S"what's if it's freezing today"
p2892
g15
tp2893
a(S'make the volume softer'
p2894
g15
tp2895
a(S'could you schedule new event'
p2896
g15
tp2897
a(S"don't i have to do anything on this day"
p2898
g15
tp2899
a(S'what is new in inbox please'
p2900
g15
tp2901
a(S'do i have any events on saturday'
p2902
g15
tp2903
a(S'stop spotify'
p2904
g15
tp2905
a(S'turn up'
p2906
g15
tp2907
a(S"what's in my inbox please"
p2908
g15
tp2909
a(S"don't i have anything to do on sunday"
p2910
g15
tp2911
a(S'create an event please'
p2912
g15
tp2913
a(S'can you please shutdown my computer'
p2914
g15
tp2915
a(S'please get the time'
p2916
g15
tp2917
a(S"today's forecast"
p2918
g15
tp2919
a(S'anything new in my gmail'
p2920
g15
tp2921
a(S'spotify previous please'
p2922
g15
tp2923
a(S'what is live news feed'
p2924
g38
tp2925
a(S'search'
p2926
g15
tp2927
a(S"this week's forecast"
p2928
g15
tp2929
a(S'please check inbox'
p2930
g15
tp2931
a(S'would you open gmail please'
p2932
g15
tp2933
a(S'check events for saturday'
p2934
g15
tp2935
a(S'please could you open my gmail'
p2936
g15
tp2937
a(S"if it's cloudy this week"
p2938
g15
tp2939
a(S'can you lock computer'
p2940
g15
tp2941
a(S'check my calendar on tomorrow'
p2942
g15
tp2943
a(S'spotify go back'
p2944
g15
tp2945
a(S'check google calendar for tuesday'
p2946
g15
tp2947
a(S"don't i have any events on this day"
p2948
g15
tp2949
a(S'do i have anything to do in a month'
p2950
g15
tp2951
a(S'please spotify start the song'
p2952
g15
tp2953
a(S'can you mute'
p2954
g15
tp2955
a(S'do i have anything to do on saturday'
p2956
g15
tp2957
a(S'can you check inbox please'
p2958
g15
tp2959
a(S"get if it's freezing today"
p2960
g15
tp2961
a(S'check google calendar on this day'
p2962
g15
tp2963
a(S'what is in new mail'
p2964
g15
tp2965
a(S'check my gmail please'
p2966
g15
tp2967
a(S'read the time please'
p2968
g15
tp2969
a(S'please sound higher'
p2970
g15
tp2971
a(S'could you please create new event'
p2972
g15
tp2973
a(S"don't i have anything to do on next"
p2974
g15
tp2975
a(S'please would you open my gmail'
p2976
g15
tp2977
a(S"what's not in the news"
p2978
g15
tp2979
a(S'search please'
p2980
g15
tp2981
a(S'am i free on saturday'
p2982
g15
tp2983
a(S'spotify play'
p2984
g15
tp2985
a(S"don't find current events"
p2986
g15
tp2987
a(S"don't i have to do anything on wednesday"
p2988
g15
tp2989
a(S'kill active window'
p2990
g15
tp2991
a(S'what is new in new gmail please'
p2992
g15
tp2993
a(S'start browsing'
p2994
g15
tp2995
a(S'open my inbox please'
p2996
g15
tp2997
a(S'please close the current window'
p2998
g15
tp2999
a(S'could you check my gmail please'
p3000
g15
tp3001
a(S'start default browser'
p3002
g15
tp3003
a(S'can you create an event please'
p3004
g15
tp3005
a(S'will you open gmail'
p3006
g15
tp3007
a(S"please what's in inbox"
p3008
g15
tp3009
a(S'can you turn up the tune'
p3010
g15
tp3011
a(S'alice next please'
p3012
g15
tp3013
a(S"if it's freezing today"
p3014
g15
tp3015
a(S'get the current events'
p3016
g38
tp3017
a(S'check events on sunday'
p3018
g15
tp3019
a(S'get live news feed'
p3020
g38
tp3021
a(S'bye bye'
p3022
g15
tp3023
a(S"what's new in my inbox"
p3024
g15
tp3025
a(S'please give me the news'
p3026
g38
tp3027
a(S'please give me the current events please'
p3028
g38
tp3029
a(S"what's not the current news"
p3030
g15
tp3031
a(S'will you check new mail'
p3032
g15
tp3033
a(S"don't tell me news"
p3034
g15
tp3035
a(S'please will you open mail'
p3036
g15
tp3037
a(S'give me the current events please'
p3038
g38
tp3039
a(S'can you please add new event'
p3040
g15
tp3041
a(S'please make a new event'
p3042
g15
tp3043
a(S"please what's new in new mail"
p3044
g15
tp3045
a(S"what's today's weather"
p3046
g15
tp3047
a(S'would you open mail'
p3048
g15
tp3049
a(S'search please for'
p3050
g15
tp3051
a(S'spotify stop playing'
p3052
g15
tp3053
a(S'can you add event please'
p3054
g15
tp3055
a(S"don't get the current events"
p3056
g15
tp3057
a(S'open a browser please'
p3058
g15
tp3059
a(S'turn it up please'
p3060
g15
tp3061
a(S"don't i have any events on"
p3062
g15
tp3063
a(S'intelligence report'
p3064
g38
tp3065
a(S"what's in my inbox"
p3066
g15
tp3067
a(S'please shutdown my computer'
p3068
g15
tp3069
a(S'what do i have on saturday'
p3070
g15
tp3071
a(S"don't gather information on"
p3072
g15
tp3073
a(S'spotify next'
p3074
g15
tp3075
a(S'can you please shut down my computer'
p3076
g15
tp3077
a(S'could you add event please'
p3078
g15
tp3079
a(S'open default browser please'
p3080
g15
tp3081
a(S"what isn't going on in the world today"
p3082
g15
tp3083
a(S'is there anything i have to do on'
p3084
g15
tp3085
a(S'tell me live news'
p3086
g38
tp3087
a(S'am i free for wednesday'
p3088
g15
tp3089
a(S'can you turn up the tunez'
p3090
g15
tp3091
a(S'please create an event'
p3092
g15
tp3093
a(S'headlines today'
p3094
g38
tp3095
a(S'spotify go to the last song'
p3096
g15
tp3097
a(S'not the news'
p3098
g15
tp3099
a(S'check google calendar on today'
p3100
g15
tp3101
a(S"if it's raining this week"
p3102
g15
tp3103
a(S'get current events'
p3104
g38
tp3105
a(S'what is new in my inbox'
p3106
g15
tp3107
a(S"today's weather"
p3108
g15
tp3109
a(S'anything new in my mail'
p3110
g15
tp3111
a(S'decrease the volume'
p3112
g15
tp3113
a(S"don't brief me"
p3114
g15
tp3115
a(S'can you make it louder please'
p3116
g15
tp3117
a(S'what are the live newsfeed'
p3118
g38
tp3119
a(S'what events do i have in a week'
p3120
g15
tp3121
a(S'can you please make a new event'
p3122
g15
tp3123
a(S'open my mail'
p3124
g15
tp3125
a(S'find current news'
p3126
g38
tp3127
a(S'can you turn off'
p3128
g15
tp3129
a(S'what is new in my mail please'
p3130
g15
tp3131
a(S'news now please'
p3132
g38
tp3133
a(S'volume higher please'
p3134
g15
tp3135
a(S'can you check gmail please'
p3136
g15
tp3137
a(S'is there anything i have to do on next'
p3138
g15
tp3139
a(S"how's the forecast this week"
p3140
g15
tp3141
a(S"if it's hot today"
p3142
g15
tp3143
a(S'please last song'
p3144
g15
tp3145
a(S'can you check gmail'
p3146
g15
tp3147
a(S'please would you open gmail'
p3148
g15
tp3149
a(S'what is new in inbox'
p3150
g15
tp3151
a(S'do i have anything in a month'
p3152
g15
tp3153
a(S'please search google for'
p3154
g15
tp3155
a(S"what's not in news feed"
p3156
g15
tp3157
a(S'do i have anything today'
p3158
g15
tp3159
a(S'is it hot today'
p3160
g15
tp3161
a(S'could you create event'
p3162
g15
tp3163
a(S'do i have anything in my inbox'
p3164
g15
tp3165
a(S'could you please add event'
p3166
g15
tp3167
a(S'read your watch'
p3168
g15
tp3169
a(S"don't i have to do anything today"
p3170
g15
tp3171
a(S'what are the current news'
p3172
g38
tp3173
a(S'start browser please'
p3174
g15
tp3175
a(S"don't get news now"
p3176
g15
tp3177
a(S'temperature'
p3178
g15
tp3179
a(S'would you check gmail'
p3180
g15
tp3181
a(S'anything new in my inbox'
p3182
g15
tp3183
a(S'do i have anything on'
p3184
g15
tp3185
a(S'will you check new gmail please'
p3186
g15
tp3187
a(S'turn up the tunes'
p3188
g15
tp3189
a(S"what's if it's freezing this week"
p3190
g15
tp3191
a(S'what is new in new gmail'
p3192
g15
tp3193
a(S'check events on friday'
p3194
g15
tp3195
a(S'check my mail'
p3196
g15
tp3197
a(S'any events on next'
p3198
g15
tp3199
a(S'can you shut down my computer'
p3200
g15
tp3201
a(S"don't i have any events in a week"
p3202
g15
tp3203
a(S'would you check gmail please'
p3204
g15
tp3205
a(S'current forecast'
p3206
g15
tp3207
a(S'could you please schedule event'
p3208
g15
tp3209
a(S'can you quit'
p3210
g15
tp3211
a(S'get current weather'
p3212
g15
tp3213
a(S'can you please shutdown the computer'
p3214
g15
tp3215
a(S'is there anything i have to do'
p3216
g15
tp3217
a(S'what events do i have on today'
p3218
g15
tp3219
a(S'can you check my mail please'
p3220
g15
tp3221
a(S'check calendar on saturday'
p3222
g15
tp3223
a(S'please can you check gmail'
p3224
g15
tp3225
a(S"what's not the live newsfeed"
p3226
g15
tp3227
a(S'read the time'
p3228
g15
tp3229
a(S"not today's news feed"
p3230
g15
tp3231
a(S'lower the volume'
p3232
g15
tp3233
a(S'can you create a new event please'
p3234
g15
tp3235
a(S"i think i didn't answer an earlier question"
p3236
g15
tp3237
a(S'kill the music'
p3238
g15
tp3239
a(S'any new mail'
p3240
g15
tp3241
a(S"please don't find out the latest headlines"
p3242
g15
tp3243
a(S'search google for please'
p3244
g15
tp3245
a(S'please could you open inbox'
p3246
g15
tp3247
a(S"what's not in current events"
p3248
g15
tp3249
a(S'do i have to do anything tomorrow'
p3250
g15
tp3251
a(S'am i free on tomorrow'
p3252
g15
tp3253
a(S'will you open my gmail please'
p3254
g15
tp3255
a(S'stop the tunez'
p3256
g15
tp3257
a(S'can you please exit'
p3258
g15
tp3259
a(S'please schedule new event'
p3260
g15
tp3261
a(S'a releasing moderate stalls beside the material cell'
p3262
g15
tp3263
a(S'am i free on thursday'
p3264
g15
tp3265
a(S"don't tell me live news"
p3266
g15
tp3267
a(S'get current temperature'
p3268
g15
tp3269
a(S'close current window'
p3270
g15
tp3271
a(S'please retrieve the current time'
p3272
g15
tp3273
a(S"what's new in my gmail please"
p3274
g15
tp3275
a(S'anything in mail'
p3276
g15
tp3277
a(S'do i have to do anything in a week'
p3278
g15
tp3279
a(S'can you check if i have anything in my inbox'
p3280
g15
tp3281
a(S'play '
p3282
g15
tp3283
a(S"what's in my gmail"
p3284
g15
tp3285
a(S"what's not in live news feed"
p3286
g15
tp3287
a(S'any new gmail'
p3288
g15
tp3289
a(S'can you check new mail'
p3290
g15
tp3291
a(S"what's in inbox"
p3292
g15
tp3293
a(S"don't debrief me"
p3294
g15
tp3295
a(S'check google calendar on saturday'
p3296
g15
tp3297
a(S'check google calendar for monday'
p3298
g15
tp3299
a(S'what is on my calendar for this month'
p3300
g15
tp3301
a(S'can you shut down'
p3302
g15
tp3303
a(S'lower the volume'
p3304
g15
tp3305
a(S'make a new event please'
p3306
g15
tp3307
a(S'check calendar on friday'
p3308
g15
tp3309
a(S'next spotify please'
p3310
g15
tp3311
a(S"not today's live newsfeed"
p3312
g15
tp3313
a(S'check my calendar on wednesday'
p3314
g15
tp3315
a(S'check google calendar for this month'
p3316
g15
tp3317
a(S'check the clock right now please'
p3318
g15
tp3319
a(S'please open dot com'
p3320
g15
tp3321
a(S"what aren't the live news feed"
p3322
g15
tp3323
a(S'please start default browser'
p3324
g15
tp3325
a(S'what is new in my inbox please'
p3326
g15
tp3327
a(S'what do i have'
p3328
g15
tp3329
a(S'what events do i have on thursday'
p3330
g15
tp3331
a(S'would you open inbox'
p3332
g15
tp3333
a(S'please retrieve what time it is'
p3334
g15
tp3335
a(S'dont give me the news'
p3336
g15
tp3337
a(S'can you make new event'
p3338
g15
tp3339
a(S'do not read the news to me'
p3340
g15
tp3341
a(S'do i have anything on friday'
p3342
g15
tp3343
a(S'is there anything i have to do on this day'
p3344
g15
tp3345
a(S"what're the live news feed"
p3346
g38
tp3347
a(S'please close the window'
p3348
g15
tp3349
a(S'can you make new event please'
p3350
g15
tp3351
a(S"what's the weather today"
p3352
g15
tp3353
a(S'could you make an event please'
p3354
g15
tp3355
a(S'issue commands'
p3356
g15
tp3357
a(S"what's if it's hot this week"
p3358
g15
tp3359
a(S"get if it's cloudy this week"
p3360
g15
tp3361
a(S'check google calendar for thursday'
p3362
g15
tp3363
a(S'any events on tuesday'
p3364
g15
tp3365
a(S'can you decrease the sound'
p3366
g15
tp3367
a(S'can you add event'
p3368
g15
tp3369
a(S'spotify play the song'
p3370
g15
tp3371
a(S'am i free'
p3372
g15
tp3373
a(S'give me the news please'
p3374
g38
tp3375
a(S'please spotify pause'
p3376
g15
tp3377
a(S'tell me news feed'
p3378
g38
tp3379
a(S'can you create event please'
p3380
g15
tp3381
a(S'could you schedule an event'
p3382
g15
tp3383
a(S'will you check inbox please'
p3384
g15
tp3385
a(S'retrieve the current time please'
p3386
g15
tp3387
a(S"if it's cloudy today"
p3388
g15
tp3389
a(S'dont find the news'
p3390
g15
tp3391
a(S"please what's in my inbox"
p3392
g15
tp3393
a(S'what do i have to do on'
p3394
g15
tp3395
a(S"what's this week's weather"
p3396
g15
tp3397
a(S'what is going on in the world today'
p3398
g38
tp3399
a(S'can you please turn the tune down'
p3400
g15
tp3401
a(S'live newsfeed'
p3402
g38
tp3403
a(S'turn down the volume'
p3404
g15
tp3405
a(S'make event'
p3406
g15
tp3407
a(S'do i have anything to do next'
p3408
g15
tp3409
a(S'go back please'
p3410
g15
tp3411
a(S'will you check inbox'
p3412
g15
tp3413
a(S'check my mail please'
p3414
g15
tp3415
a(S'is there anything i have to do on sunday'
p3416
g15
tp3417
a(S"what's the forecast this week"
p3418
g15
tp3419
a(S'extract the features using almost the same feature'
p3420
g15
tp3421
a(S"today's news"
p3422
g38
tp3423
a(S"what're not the current events"
p3424
g15
tp3425
a(S"what're the the news"
p3426
g38
tp3427
a(S'go to dot ee dee you'
p3428
g15
tp3429
a(S'what do i have to do on tuesday'
p3430
g15
tp3431
a(S'is there anything i have to do on friday'
p3432
g15
tp3433
a(S'check calendar for this month'
p3434
g15
tp3435
a(S'can you please turn the beat down'
p3436
g15
tp3437
a(S'lower the sound'
p3438
g15
tp3439
a(S'dont read the current events to me'
p3440
g15
tp3441
a(S"what aren't the live newsfeed"
p3442
g15
tp3443
a(S'can you please turn off the computer'
p3444
g15
tp3445
a(S'spotify next song '
p3446
g15
tp3447
a(S'can you shutdown my computer'
p3448
g15
tp3449
a(S'can you please kill current window'
p3450
g15
tp3451
a(S'can you create an event'
p3452
g15
tp3453
a(S'sound up please'
p3454
g15
tp3455
a(S"what's if it's hot today"
p3456
g15
tp3457
a(S'check calendar on monday'
p3458
g15
tp3459
a(S'please kill the active window'
p3460
g15
tp3461
a(S'shut my computer down please'
p3462
g15
tp3463
a(S'please schedule an event'
p3464
g15
tp3465
a(S'what is on my calendar for this day'
p3466
g15
tp3467
a(S'will you get the headlines'
p3468
g38
tp3469
a(S"today's forecast"
p3470
g15
tp3471
a(S'am i free on'
p3472
g15
tp3473
a(S'is there anything to do today'
p3474
g15
tp3475
a(S'give me intel on current events'
p3476
g38
tp3477
a(S'check calendar on wednesday'
p3478
g15
tp3479
a(S"what aren't the newsfeed"
p3480
g15
tp3481
a(S'is it rainy this week'
p3482
g15
tp3483
a(S"what isn't news feed"
p3484
g15
tp3485
a(S'find live news'
p3486
g38
tp3487
a(S'how is the forecast'
p3488
g15
tp3489
a(S"what's new in mail"
p3490
g15
tp3491
a(S'check my calendar on thursday'
p3492
g15
tp3493
a(S'set the volume to zero'
p3494
g15
tp3495
a(S'can you please kill the active window'
p3496
g15
tp3497
a(S'find the current events'
p3498
g38
tp3499
a(S'read the clock'
p3500
g15
tp3501
a(S'turn the beat down please'
p3502
g15
tp3503
a(S'will you open gmail please'
p3504
g15
tp3505
a(S'could you create a new event please'
p3506
g15
tp3507
a(S'create a new event'
p3508
g15
tp3509
a(S'do i have to do anything on friday'
p3510
g15
tp3511
a(S'will you check new gmail'
p3512
g15
tp3513
a(S'are there any events'
p3514
g15
tp3515
a(S'please add an event'
p3516
g15
tp3517
a(S'kill this window'
p3518
g15
tp3519
a(S'can you make event please'
p3520
g15
tp3521
a(S'check my calendar on friday'
p3522
g15
tp3523
a(S'please find out the latest headlines'
p3524
g38
tp3525
a(S'check calendar for this day'
p3526
g15
tp3527
a(S'can you close the current window'
p3528
g15
tp3529
a(S'is there anything i have to do on thursday'
p3530
g15
tp3531
a(S'check google calendar on sunday'
p3532
g15
tp3533
a(S"don't find news feed"
p3534
g15
tp3535
a(S'can you please create a new event'
p3536
g15
tp3537
a(S"get if it's foggy this week"
p3538
g15
tp3539
a(S'emergency shutdown'
p3540
g15
tp3541
a(S'get the current events'
p3542
g38
tp3543
a(S'is there anything to do on this day'
p3544
g15
tp3545
a(S'open dot com'
p3546
g15
tp3547
a(S'last song please'
p3548
g15
tp3549
a(S'can you please turn up the tunez'
p3550
g15
tp3551
a(S'can you turn the tune down'
p3552
g15
tp3553
a(S'can you schedule an event'
p3554
g15
tp3555
a(S"if it's foggy this week"
p3556
g15
tp3557
a(S'what events are on tomorrow'
p3558
g15
tp3559
a(S'please will you check inbox'
p3560
g15
tp3561
a(S'will you check my inbox please'
p3562
g15
tp3563
a(S'what is on my calendar for this week'
p3564
g15
tp3565
a(S'get me the clock please'
p3566
g15
tp3567
a(S'google search please for'
p3568
g15
tp3569
a(S"don't i have to do anything on friday"
p3570
g15
tp3571
a(S'please volume higher'
p3572
g15
tp3573
a(S'start default browser please'
p3574
g15
tp3575
a(S'check my calendar for thursday'
p3576
g15
tp3577
a(S'retrieve what time it is please'
p3578
g15
tp3579
a(S'what is on my calendar for wednesday'
p3580
g15
tp3581
a(S'start'
p3582
g15
tp3583
a(S'can you check my gmail please'
p3584
g15
tp3585
a(S'please pause song'
p3586
g15
tp3587
a(S"get today's forecast"
p3588
g15
tp3589
a(S'what are the current events today'
p3590
g38
tp3591
a(S"what aren't the headlines"
p3592
g15
tp3593
a(S'what do i have on tomorrow'
p3594
g15
tp3595
a(S"today's temperature"
p3596
g15
tp3597
a(S"how's the forecast"
p3598
g15
tp3599
a(S'news'
p3600
g38
tp3601
a(S'check my calendar for monday'
p3602
g15
tp3603
a(S"what aren't the current news"
p3604
g15
tp3605
a(S'what are the live news feed'
p3606
g38
tp3607
a(S"what isn't in the news today"
p3608
g15
tp3609
a(S'please what is new in new mail'
p3610
g15
tp3611
a(S'todays headlines'
p3612
g38
tp3613
a(S'check google calendar on'
p3614
g15
tp3615
a(S'check my calendar for wednesday'
p3616
g15
tp3617
a(S'shut my computer down'
p3618
g15
tp3619
a(S'check events for monday'
p3620
g15
tp3621
a(S"don't i have to do anything on friday"
p3622
g15
tp3623
a(S'please kill the current window'
p3624
g15
tp3625
a(S'make the volume lower'
p3626
g15
tp3627
a(S"don't i have to do anything on monday"
p3628
g15
tp3629
a(S'bye alice'
p3630
g15
tp3631
a(S'go to dot net'
p3632
g15
tp3633
a(S'please check new mail'
p3634
g15
tp3635
a(S"don't i have anything to do on friday"
p3636
g15
tp3637
a(S'would you check inbox please'
p3638
g15
tp3639
a(S'any events on this day'
p3640
g15
tp3641
a(S'do not give me the current events'
p3642
g15
tp3643
a(S'is it raining today'
p3644
g15
tp3645
a(S'please will you open inbox'
p3646
g15
tp3647
a(S'any events on saturday'
p3648
g15
tp3649
a(S"today's live news feed"
p3650
g38
tp3651
a(S'okay alice'
p3652
g15
tp3653
a(S'please what is new in my gmail'
p3654
g15
tp3655
a(S'anything in inbox'
p3656
g15
tp3657
a(S'not get the information'
p3658
g15
tp3659
a(S'live news feed today'
p3660
g38
tp3661
a(S'check google calendar on this week'
p3662
g15
tp3663
a(S'check google calendar on monday'
p3664
g15
tp3665
a(S'will you check new mail please'
p3666
g15
tp3667
a(S'can you add a new event'
p3668
g15
tp3669
a(S'get the clock please'
p3670
g15
tp3671
a(S"what aren't the current events today"
p3672
g15
tp3673
a(S'please spotify pause'
p3674
g15
tp3675
a(S'will you get the current headlines'
p3676
g38
tp3677
a(S'please start a browser'
p3678
g15
tp3679
a(S'please could you open mail'
p3680
g15
tp3681
a(S'spotify go ahead'
p3682
g15
tp3683
a(S'give me the current events'
p3684
g38
tp3685
a(S'turn the sound down please'
p3686
g15
tp3687
a(S'am i free for saturday'
p3688
g15
tp3689
a(S'check google calendar on friday'
p3690
g15
tp3691
a(S'check calendar'
p3692
g15
tp3693
a(S'current events please'
p3694
g38
tp3695
a(S'could you open inbox please'
p3696
g15
tp3697
a(S'can you turn the volume higher please'
p3698
g15
tp3699
a(S'any events in a week'
p3700
g15
tp3701
a(S'check what time it is please'
p3702
g15
tp3703
a(S"don't get newsfeed"
p3704
g15
tp3705
a(S"this week's temperature"
p3706
g15
tp3707
a(S'check my calendar on'
p3708
g15
tp3709
a(S'please make event'
p3710
g15
tp3711
a(S'can you shutdown'
p3712
g15
tp3713
a(S"what's new in mail please"
p3714
g15
tp3715
a(S"don't find the current events"
p3716
g15
tp3717
a(S"what's the clock"
p3718
g15
tp3719
a(S'schedule a new event please'
p3720
g15
tp3721
a(S'quit'
p3722
g15
tp3723
a(S'could you please schedule new event'
p3724
g15
tp3725
a(S'could you open my mail please'
p3726
g15
tp3727
a(S'spotify stop'
p3728
g15
tp3729
a(S'what is new in new mail'
p3730
g15
tp3731
a(S'could you add an event'
p3732
g15
tp3733
a(S'pause the song please'
p3734
g15
tp3735
asS'classifier'
p3736
ccopy_reg
_reconstructor
p3737
(csklearn.pipeline
Pipeline
p3738
c__builtin__
object
p3739
Ntp3740
Rp3741
(dp3742
S'_sklearn_version'
p3743
S'0.18.1'
p3744
sS'steps'
p3745
(lp3746
(S'vect'
p3747
g3737
(csklearn.feature_extraction.text
CountVectorizer
p3748
g3739
Ntp3749
Rp3750
(dp3751
S'decode_error'
p3752
Vstrict
p3753
sS'lowercase'
p3754
I01
sS'stop_words'
p3755
NsS'vocabulary'
p3756
NsS'tokenizer'
p3757
NsS'encoding'
p3758
Vutf-8
p3759
sS'token_pattern'
p3760
V(?u)\u005cb\u005cw\u005cw+\u005cb
p3761
sS'input'
p3762
Vcontent
p3763
sS'analyzer'
p3764
Vword
p3765
sS'vocabulary_'
p3766
(dp3767
Vraining
p3768
cnumpy.core.multiarray
scalar
p3769
(cnumpy
dtype
p3770
(S'i8'
p3771
I0
I1
tp3772
Rp3773
(I3
S'<'
p3774
NNNI-1
I-1
I0
tp3775
bS'\xac\x00\x00\x00\x00\x00\x00\x00'
p3776
tp3777
Rp3778
sVtodays
p3779
g3769
(g3773
S'\xe0\x00\x00\x00\x00\x00\x00\x00'
p3780
tp3781
Rp3782
sVmute
p3783
g3769
(g3773
S'\x86\x00\x00\x00\x00\x00\x00\x00'
p3784
tp3785
Rp3786
sVbyebye
p3787
g3769
(g3773
S'\x1b\x00\x00\x00\x00\x00\x00\x00'
p3788
tp3789
Rp3790
sVskip
p3791
g3769
(g3773
S'\xc4\x00\x00\x00\x00\x00\x00\x00'
p3792
tp3793
Rp3794
sVrandom
p3795
g3769
(g3773
S'\xae\x00\x00\x00\x00\x00\x00\x00'
p3796
tp3797
Rp3798
sVmonth
p3799
g3769
(g3773
S'\x84\x00\x00\x00\x00\x00\x00\x00'
p3800
tp3801
Rp3802
sVnot
p3803
g3769
(g3773
S'\x90\x00\x00\x00\x00\x00\x00\x00'
p3804
tp3805
Rp3806
sVsofter
p3807
g3769
(g3773
S'\xc7\x00\x00\x00\x00\x00\x00\x00'
p3808
tp3809
Rp3810
sVkill
p3811
g3769
(g3773
S'u\x00\x00\x00\x00\x00\x00\x00'
p3812
tp3813
Rp3814
sVedu
p3815
g3769
(g3773
S'@\x00\x00\x00\x00\x00\x00\x00'
p3816
tp3817
Rp3818
sVgo
p3819
g3769
(g3773
S'Y\x00\x00\x00\x00\x00\x00\x00'
p3820
tp3821
Rp3822
sVheadlines
p3823
g3769
(g3773
S'b\x00\x00\x00\x00\x00\x00\x00'
p3824
tp3825
Rp3826
sVfind
p3827
g3769
(g3773
S'K\x00\x00\x00\x00\x00\x00\x00'
p3828
tp3829
Rp3830
sVprevious
p3831
g3769
(g3773
S'\xa2\x00\x00\x00\x00\x00\x00\x00'
p3832
tp3833
Rp3834
sVspotify
p3835
g3769
(g3773
S'\xca\x00\x00\x00\x00\x00\x00\x00'
p3836
tp3837
Rp3838
sVpause
p3839
g3769
(g3773
S'\x9a\x00\x00\x00\x00\x00\x00\x00'
p3840
tp3841
Rp3842
sVhow
p3843
g3769
(g3773
S'f\x00\x00\x00\x00\x00\x00\x00'
p3844
tp3845
Rp3846
sVsnowing
p3847
g3769
(g3773
S'\xc6\x00\x00\x00\x00\x00\x00\x00'
p3848
tp3849
Rp3850
sVsunday
p3851
g3769
(g3773
S'\xd0\x00\x00\x00\x00\x00\x00\x00'
p3852
tp3853
Rp3854
sVsend
p3855
g3769
(g3773
S'\xbd\x00\x00\x00\x00\x00\x00\x00'
p3856
tp3857
Rp3858
sVshould
p3859
g3769
(g3773
S'\xbf\x00\x00\x00\x00\x00\x00\x00'
p3860
tp3861
Rp3862
sVto
p3863
g3769
(g3773
S'\xde\x00\x00\x00\x00\x00\x00\x00'
p3864
tp3865
Rp3866
sVwindow
p3867
g3769
(g3773
S'\xf6\x00\x00\x00\x00\x00\x00\x00'
p3868
tp3869
Rp3870
sVgoing
p3871
g3769
(g3773
S'Z\x00\x00\x00\x00\x00\x00\x00'
p3872
tp3873
Rp3874
sVmail
p3875
g3769
(g3773
S'~\x00\x00\x00\x00\x00\x00\x00'
p3876
tp3877
Rp3878
sVset
p3879
g3769
(g3773
S'\xbe\x00\x00\x00\x00\x00\x00\x00'
p3880
tp3881
Rp3882
sVbye
p3883
g3769
(g3773
S'\x1a\x00\x00\x00\x00\x00\x00\x00'
p3884
tp3885
Rp3886
sVreal
p3887
g3769
(g3773
S'\xb1\x00\x00\x00\x00\x00\x00\x00'
p3888
tp3889
Rp3890
sVdo
p3891
g3769
(g3773
S'7\x00\x00\x00\x00\x00\x00\x00'
p3892
tp3893
Rp3894
sVpredict
p3895
g3769
(g3773
S'\xa0\x00\x00\x00\x00\x00\x00\x00'
p3896
tp3897
Rp3898
sVgood
p3899
g3769
(g3773
S'[\x00\x00\x00\x00\x00\x00\x00'
p3900
tp3901
Rp3902
sVemergency
p3903
g3769
(g3773
S'B\x00\x00\x00\x00\x00\x00\x00'
p3904
tp3905
Rp3906
sVsong
p3907
g3769
(g3773
S'\xc8\x00\x00\x00\x00\x00\x00\x00'
p3908
tp3909
Rp3910
sVya
p3911
g3769
(g3773
S'\xfa\x00\x00\x00\x00\x00\x00\x00'
p3912
tp3913
Rp3914
sVmaterial
p3915
g3769
(g3773
S'\x80\x00\x00\x00\x00\x00\x00\x00'
p3916
tp3917
Rp3918
sVwatch
p3919
g3769
(g3773
S'\xed\x00\x00\x00\x00\x00\x00\x00'
p3920
tp3921
Rp3922
sVme
p3923
g3769
(g3773
S'\x81\x00\x00\x00\x00\x00\x00\x00'
p3924
tp3925
Rp3926
sVaren
p3927
g3769
(g3773
S'\r\x00\x00\x00\x00\x00\x00\x00'
p3928
tp3929
Rp3930
sVreport
p3931
g3769
(g3773
S'\xb3\x00\x00\x00\x00\x00\x00\x00'
p3932
tp3933
Rp3934
sVworld
p3935
g3769
(g3773
S'\xf7\x00\x00\x00\x00\x00\x00\x00'
p3936
tp3937
Rp3938
sVnow
p3939
g3769
(g3773
S'\x91\x00\x00\x00\x00\x00\x00\x00'
p3940
tp3941
Rp3942
sVday
p3943
g3769
(g3773
S'/\x00\x00\x00\x00\x00\x00\x00'
p3944
tp3945
Rp3946
sVdreams
p3947
g3769
(g3773
S'>\x00\x00\x00\x00\x00\x00\x00'
p3948
tp3949
Rp3950
sVlike
p3951
g3769
(g3773
S'x\x00\x00\x00\x00\x00\x00\x00'
p3952
tp3953
Rp3954
sVshoulder
p3955
g3769
(g3773
S'\xc0\x00\x00\x00\x00\x00\x00\x00'
p3956
tp3957
Rp3958
sVcold
p3959
g3769
(g3773
S'&\x00\x00\x00\x00\x00\x00\x00'
p3960
tp3961
Rp3962
sVmoderate
p3963
g3769
(g3773
S'\x82\x00\x00\x00\x00\x00\x00\x00'
p3964
tp3965
Rp3966
sValex
p3967
g3769
(g3773
S'\x04\x00\x00\x00\x00\x00\x00\x00'
p3968
tp3969
Rp3970
sVintel
p3971
g3769
(g3773
S'o\x00\x00\x00\x00\x00\x00\x00'
p3972
tp3973
Rp3974
sVgossips
p3975
g3769
(g3773
S']\x00\x00\x00\x00\x00\x00\x00'
p3976
tp3977
Rp3978
sVdidn
p3979
g3769
(g3773
S'6\x00\x00\x00\x00\x00\x00\x00'
p3980
tp3981
Rp3982
sVwednesday
p3983
g3769
(g3773
S'\xf0\x00\x00\x00\x00\x00\x00\x00'
p3984
tp3985
Rp3986
sVcloudy
p3987
g3769
(g3773
S'%\x00\x00\x00\x00\x00\x00\x00'
p3988
tp3989
Rp3990
sVtry
p3991
g3769
(g3773
S'\xe3\x00\x00\x00\x00\x00\x00\x00'
p3992
tp3993
Rp3994
sVunmute
p3995
g3769
(g3773
S'\xe9\x00\x00\x00\x00\x00\x00\x00'
p3996
tp3997
Rp3998
sVgimme
p3999
g3769
(g3773
S'V\x00\x00\x00\x00\x00\x00\x00'
p4000
tp4001
Rp4002
sVstuff
p4003
g3769
(g3773
S'\xcf\x00\x00\x00\x00\x00\x00\x00'
p4004
tp4005
Rp4006
sVnight
p4007
g3769
(g3773
S'\x8e\x00\x00\x00\x00\x00\x00\x00'
p4008
tp4009
Rp4010
sVtunes
p4011
g3769
(g3773
S'\xe6\x00\x00\x00\x00\x00\x00\x00'
p4012
tp4013
Rp4014
sVhwat
p4015
g3769
(g3773
S'g\x00\x00\x00\x00\x00\x00\x00'
p4016
tp4017
Rp4018
sVclassifier
p4019
g3769
(g3773
S'"\x00\x00\x00\x00\x00\x00\x00'
p4020
tp4021
Rp4022
sVinbox
p4023
g3769
(g3773
S'k\x00\x00\x00\x00\x00\x00\x00'
p4024
tp4025
Rp4026
sVteh
p4027
g3769
(g3773
S'\xd3\x00\x00\x00\x00\x00\x00\x00'
p4028
tp4029
Rp4030
sVgoogle
p4031
g3769
(g3773
S'\\\x00\x00\x00\x00\x00\x00\x00'
p4032
tp4033
Rp4034
sVretrieve
p4035
g3769
(g3773
S'\xb4\x00\x00\x00\x00\x00\x00\x00'
p4036
tp4037
Rp4038
sVee
p4039
g3769
(g3773
S'A\x00\x00\x00\x00\x00\x00\x00'
p4040
tp4041
Rp4042
sVintelligence
p4043
g3769
(g3773
S'p\x00\x00\x00\x00\x00\x00\x00'
p4044
tp4045
Rp4046
sVback
p4047
g3769
(g3773
S'\x0f\x00\x00\x00\x00\x00\x00\x00'
p4048
tp4049
Rp4050
sVhail
p4051
g3769
(g3773
S'`\x00\x00\x00\x00\x00\x00\x00'
p4052
tp4053
Rp4054
sValice
p4055
g3769
(g3773
S'\x05\x00\x00\x00\x00\x00\x00\x00'
p4056
tp4057
Rp4058
sVzero
p4059
g3769
(g3773
S'\xfe\x00\x00\x00\x00\x00\x00\x00'
p4060
tp4061
Rp4062
sVcomputer
p4063
g3769
(g3773
S')\x00\x00\x00\x00\x00\x00\x00'
p4064
tp4065
Rp4066
sVare
p4067
g3769
(g3773
S'\x0c\x00\x00\x00\x00\x00\x00\x00'
p4068
tp4069
Rp4070
sVclose
p4071
g3769
(g3773
S'$\x00\x00\x00\x00\x00\x00\x00'
p4072
tp4073
Rp4074
sVcalendar
p4075
g3769
(g3773
S'\x1c\x00\x00\x00\x00\x00\x00\x00'
p4076
tp4077
Rp4078
sVextract
p4079
g3769
(g3773
S'F\x00\x00\x00\x00\x00\x00\x00'
p4080
tp4081
Rp4082
sVevent
p4083
g3769
(g3773
S'C\x00\x00\x00\x00\x00\x00\x00'
p4084
tp4085
Rp4086
sVout
p4087
g3769
(g3773
S'\x98\x00\x00\x00\x00\x00\x00\x00'
p4088
tp4089
Rp4090
sVcategory
p4091
g3769
(g3773
S'\x1f\x00\x00\x00\x00\x00\x00\x00'
p4092
tp4093
Rp4094
sVwhat
p4095
g3769
(g3773
S'\xf2\x00\x00\x00\x00\x00\x00\x00'
p4096
tp4097
Rp4098
sVmonday
p4099
g3769
(g3773
S'\x83\x00\x00\x00\x00\x00\x00\x00'
p4100
tp4101
Rp4102
sVfor
p4103
g3769
(g3773
S'M\x00\x00\x00\x00\x00\x00\x00'
p4104
tp4105
Rp4106
sVclock
p4107
g3769
(g3773
S'#\x00\x00\x00\x00\x00\x00\x00'
p4108
tp4109
Rp4110
sVdebrief
p4111
g3769
(g3773
S'0\x00\x00\x00\x00\x00\x00\x00'
p4112
tp4113
Rp4114
sVcurrently
p4115
g3769
(g3773
S'-\x00\x00\x00\x00\x00\x00\x00'
p4116
tp4117
Rp4118
sVplease
p4119
g3769
(g3773
S'\x9d\x00\x00\x00\x00\x00\x00\x00'
p4120
tp4121
Rp4122
sVbrief
p4123
g3769
(g3773
S'\x16\x00\x00\x00\x00\x00\x00\x00'
p4124
tp4125
Rp4126
sVforecast
p4127
g3769
(g3773
S'N\x00\x00\x00\x00\x00\x00\x00'
p4128
tp4129
Rp4130
sVcurrent
p4131
g3769
(g3773
S',\x00\x00\x00\x00\x00\x00\x00'
p4132
tp4133
Rp4134
sVre
p4135
g3769
(g3773
S'\xaf\x00\x00\x00\x00\x00\x00\x00'
p4136
tp4137
Rp4138
sVexit
p4139
g3769
(g3773
S'E\x00\x00\x00\x00\x00\x00\x00'
p4140
tp4141
Rp4142
sVabove
p4143
g3769
(g3773
S'\x00\x00\x00\x00\x00\x00\x00\x00'
p4144
tp4145
Rp4146
sVnew
p4147
g3769
(g3773
S'\x8a\x00\x00\x00\x00\x00\x00\x00'
p4148
tp4149
Rp4150
sVnet
p4151
g3769
(g3773
S'\x88\x00\x00\x00\x00\x00\x00\x00'
p4152
tp4153
Rp4154
sVgov
p4155
g3769
(g3773
S'^\x00\x00\x00\x00\x00\x00\x00'
p4156
tp4157
Rp4158
sVissue
p4159
g3769
(g3773
S's\x00\x00\x00\x00\x00\x00\x00'
p4160
tp4161
Rp4162
sVbe
p4163
g3769
(g3773
S'\x11\x00\x00\x00\x00\x00\x00\x00'
p4164
tp4165
Rp4166
sVshut
p4167
g3769
(g3773
S'\xc1\x00\x00\x00\x00\x00\x00\x00'
p4168
tp4169
Rp4170
sVfriday
p4171
g3769
(g3773
S'Q\x00\x00\x00\x00\x00\x00\x00'
p4172
tp4173
Rp4174
sVtomorrow
p4175
g3769
(g3773
S'\xe1\x00\x00\x00\x00\x00\x00\x00'
p4176
tp4177
Rp4178
sVschedule
p4179
g3769
(g3773
S'\xb9\x00\x00\x00\x00\x00\x00\x00'
p4180
tp4181
Rp4182
sVscreen
p4183
g3769
(g3773
S'\xba\x00\x00\x00\x00\x00\x00\x00'
p4184
tp4185
Rp4186
sVdictates
p4187
g3769
(g3773
S'5\x00\x00\x00\x00\x00\x00\x00'
p4188
tp4189
Rp4190
sVfree
p4191
g3769
(g3773
S'O\x00\x00\x00\x00\x00\x00\x00'
p4192
tp4193
Rp4194
sVadd
p4195
g3769
(g3773
S'\x02\x00\x00\x00\x00\x00\x00\x00'
p4196
tp4197
Rp4198
sVillustration
p4199
g3769
(g3773
S'i\x00\x00\x00\x00\x00\x00\x00'
p4200
tp4201
Rp4202
sVactive
p4203
g3769
(g3773
S'\x01\x00\x00\x00\x00\x00\x00\x00'
p4204
tp4205
Rp4206
sVnews
p4207
g3769
(g3773
S'\x8b\x00\x00\x00\x00\x00\x00\x00'
p4208
tp4209
Rp4210
sVpost
p4211
g3769
(g3773
S'\x9f\x00\x00\x00\x00\x00\x00\x00'
p4212
tp4213
Rp4214
sVdon
p4215
g3769
(g3773
S':\x00\x00\x00\x00\x00\x00\x00'
p4216
tp4217
Rp4218
sVon
p4219
g3769
(g3773
S'\x95\x00\x00\x00\x00\x00\x00\x00'
p4220
tp4221
Rp4222
sVsearch
p4223
g3769
(g3773
S'\xbb\x00\x00\x00\x00\x00\x00\x00'
p4224
tp4225
Rp4226
sVlast
p4227
g3769
(g3773
S'v\x00\x00\x00\x00\x00\x00\x00'
p4228
tp4229
Rp4230
sVahead
p4231
g3769
(g3773
S'\x03\x00\x00\x00\x00\x00\x00\x00'
p4232
tp4233
Rp4234
sVof
p4235
g3769
(g3773
S'\x92\x00\x00\x00\x00\x00\x00\x00'
p4236
tp4237
Rp4238
sVcould
p4239
g3769
(g3773
S'*\x00\x00\x00\x00\x00\x00\x00'
p4240
tp4241
Rp4242
sVquiet
p4243
g3769
(g3773
S'\xa8\x00\x00\x00\x00\x00\x00\x00'
p4244
tp4245
Rp4246
sVturn
p4247
g3769
(g3773
S'\xe8\x00\x00\x00\x00\x00\x00\x00'
p4248
tp4249
Rp4250
sVisn
p4251
g3769
(g3773
S'r\x00\x00\x00\x00\x00\x00\x00'
p4252
tp4253
Rp4254
sVbrowsing
p4255
g3769
(g3773
S'\x19\x00\x00\x00\x00\x00\x00\x00'
p4256
tp4257
Rp4258
sVcom
p4259
g3769
(g3773
S"'\x00\x00\x00\x00\x00\x00\x00"
p4260
tp4261
Rp4262
sVthink
p4263
g3769
(g3773
S'\xda\x00\x00\x00\x00\x00\x00\x00'
p4264
tp4265
Rp4266
sVfeed
p4267
g3769
(g3773
S'J\x00\x00\x00\x00\x00\x00\x00'
p4268
tp4269
Rp4270
sVthis
p4271
g3769
(g3773
S'\xdb\x00\x00\x00\x00\x00\x00\x00'
p4272
tp4273
Rp4274
sVwhats
p4275
g3769
(g3773
S'\xf3\x00\x00\x00\x00\x00\x00\x00'
p4276
tp4277
Rp4278
sVdont
p4279
g3769
(g3773
S';\x00\x00\x00\x00\x00\x00\x00'
p4280
tp4281
Rp4282
sVpoint
p4283
g3769
(g3773
S'\x9e\x00\x00\x00\x00\x00\x00\x00'
p4284
tp4285
Rp4286
sVinfornation
p4287
g3769
(g3773
S'n\x00\x00\x00\x00\x00\x00\x00'
p4288
tp4289
Rp4290
sVsweet
p4291
g3769
(g3773
S'\xd1\x00\x00\x00\x00\x00\x00\x00'
p4292
tp4293
Rp4294
sVtuesday
p4295
g3769
(g3773
S'\xe4\x00\x00\x00\x00\x00\x00\x00'
p4296
tp4297
Rp4298
sVyourself
p4299
g3769
(g3773
S'\xfd\x00\x00\x00\x00\x00\x00\x00'
p4300
tp4301
Rp4302
sVdown
p4303
g3769
(g3773
S'=\x00\x00\x00\x00\x00\x00\x00'
p4304
tp4305
Rp4306
sVput
p4307
g3769
(g3773
S'\xa6\x00\x00\x00\x00\x00\x00\x00'
p4308
tp4309
Rp4310
sVweather
p4311
g3769
(g3773
S'\xef\x00\x00\x00\x00\x00\x00\x00'
p4312
tp4313
Rp4314
sVdecrease
p4315
g3769
(g3773
S'2\x00\x00\x00\x00\x00\x00\x00'
p4316
tp4317
Rp4318
sVthursday
p4319
g3769
(g3773
S'\xdc\x00\x00\x00\x00\x00\x00\x00'
p4320
tp4321
Rp4322
sVshutdown
p4323
g3769
(g3773
S'\xc2\x00\x00\x00\x00\x00\x00\x00'
p4324
tp4325
Rp4326
sVfake
p4327
g3769
(g3773
S'G\x00\x00\x00\x00\x00\x00\x00'
p4328
tp4329
Rp4330
sVopen
p4331
g3769
(g3773
S'\x96\x00\x00\x00\x00\x00\x00\x00'
p4332
tp4333
Rp4334
sVyour
p4335
g3769
(g3773
S'\xfc\x00\x00\x00\x00\x00\x00\x00'
p4336
tp4337
Rp4338
sVquit
p4339
g3769
(g3773
S'\xaa\x00\x00\x00\x00\x00\x00\x00'
p4340
tp4341
Rp4342
sVtemperature
p4343
g3769
(g3773
S'\xd5\x00\x00\x00\x00\x00\x00\x00'
p4344
tp4345
Rp4346
sVwould
p4347
g3769
(g3773
S'\xf8\x00\x00\x00\x00\x00\x00\x00'
p4348
tp4349
Rp4350
sVtunez
p4351
g3769
(g3773
S'\xe7\x00\x00\x00\x00\x00\x00\x00'
p4352
tp4353
Rp4354
sVsake
p4355
g3769
(g3773
S'\xb6\x00\x00\x00\x00\x00\x00\x00'
p4356
tp4357
Rp4358
sVdecent
p4359
g3769
(g3773
S'1\x00\x00\x00\x00\x00\x00\x00'
p4360
tp4361
Rp4362
sVcreate
p4363
g3769
(g3773
S'+\x00\x00\x00\x00\x00\x00\x00'
p4364
tp4365
Rp4366
sVthere
p4367
g3769
(g3773
S'\xd9\x00\x00\x00\x00\x00\x00\x00'
p4368
tp4369
Rp4370
sVquestion
p4371
g3769
(g3773
S'\xa7\x00\x00\x00\x00\x00\x00\x00'
p4372
tp4373
Rp4374
sVhey
p4375
g3769
(g3773
S'c\x00\x00\x00\x00\x00\x00\x00'
p4376
tp4377
Rp4378
sVlong
p4379
g3769
(g3773
S'{\x00\x00\x00\x00\x00\x00\x00'
p4380
tp4381
Rp4382
sVnext
p4383
g3769
(g3773
S'\x8d\x00\x00\x00\x00\x00\x00\x00'
p4384
tp4385
Rp4386
sVstart
p4387
g3769
(g3773
S'\xcc\x00\x00\x00\x00\x00\x00\x00'
p4388
tp4389
Rp4390
sVlive
p4391
g3769
(g3773
S'y\x00\x00\x00\x00\x00\x00\x00'
p4392
tp4393
Rp4394
sVprogram
p4395
g3769
(g3773
S'\xa5\x00\x00\x00\x00\x00\x00\x00'
p4396
tp4397
Rp4398
sVmusic
p4399
g3769
(g3773
S'\x85\x00\x00\x00\x00\x00\x00\x00'
p4400
tp4401
Rp4402
sVcall
p4403
g3769
(g3773
S'\x1d\x00\x00\x00\x00\x00\x00\x00'
p4404
tp4405
Rp4406
sVtell
p4407
g3769
(g3773
S'\xd4\x00\x00\x00\x00\x00\x00\x00'
p4408
tp4409
Rp4410
sVtoday
p4411
g3769
(g3773
S'\xdf\x00\x00\x00\x00\x00\x00\x00'
p4412
tp4413
Rp4414
sVpretends
p4415
g3769
(g3773
S'\xa1\x00\x00\x00\x00\x00\x00\x00'
p4416
tp4417
Rp4418
sVfunction
p4419
g3769
(g3773
S'S\x00\x00\x00\x00\x00\x00\x00'
p4420
tp4421
Rp4422
sVthat
p4423
g3769
(g3773
S'\xd7\x00\x00\x00\x00\x00\x00\x00'
p4424
tp4425
Rp4426
sVreleasing
p4427
g3769
(g3773
S'\xb2\x00\x00\x00\x00\x00\x00\x00'
p4428
tp4429
Rp4430
sVwritting
p4431
g3769
(g3773
S'\xf9\x00\x00\x00\x00\x00\x00\x00'
p4432
tp4433
Rp4434
sVcommands
p4435
g3769
(g3773
S'(\x00\x00\x00\x00\x00\x00\x00'
p4436
tp4437
Rp4438
sVit
p4439
g3769
(g3773
S't\x00\x00\x00\x00\x00\x00\x00'
p4440
tp4441
Rp4442
sVvolume
p4443
g3769
(g3773
S'\xec\x00\x00\x00\x00\x00\x00\x00'
p4444
tp4445
Rp4446
sVtrain
p4447
g3769
(g3773
S'\xe2\x00\x00\x00\x00\x00\x00\x00'
p4448
tp4449
Rp4450
sVstick
p4451
g3769
(g3773
S'\xcd\x00\x00\x00\x00\x00\x00\x00'
p4452
tp4453
Rp4454
sVbeat
p4455
g3769
(g3773
S'\x12\x00\x00\x00\x00\x00\x00\x00'
p4456
tp4457
Rp4458
sVfoggy
p4459
g3769
(g3773
S'L\x00\x00\x00\x00\x00\x00\x00'
p4460
tp4461
Rp4462
sVtgive
p4463
g3769
(g3773
S'\xd6\x00\x00\x00\x00\x00\x00\x00'
p4464
tp4465
Rp4466
sVdocument
p4467
g3769
(g3773
S'8\x00\x00\x00\x00\x00\x00\x00'
p4468
tp4469
Rp4470
sVsound
p4471
g3769
(g3773
S'\xc9\x00\x00\x00\x00\x00\x00\x00'
p4472
tp4473
Rp4474
sVanything
p4475
g3769
(g3773
S'\x0b\x00\x00\x00\x00\x00\x00\x00'
p4476
tp4477
Rp4478
sVdefault
p4479
g3769
(g3773
S'4\x00\x00\x00\x00\x00\x00\x00'
p4480
tp4481
Rp4482
sVsnow
p4483
g3769
(g3773
S'\xc5\x00\x00\x00\x00\x00\x00\x00'
p4484
tp4485
Rp4486
sVup
p4487
g3769
(g3773
S'\xea\x00\x00\x00\x00\x00\x00\x00'
p4488
tp4489
Rp4490
sVdogs
p4491
g3769
(g3773
S'9\x00\x00\x00\x00\x00\x00\x00'
p4492
tp4493
Rp4494
sVwill
p4495
g3769
(g3773
S'\xf5\x00\x00\x00\x00\x00\x00\x00'
p4496
tp4497
Rp4498
sVlouder
p4499
g3769
(g3773
S'|\x00\x00\x00\x00\x00\x00\x00'
p4500
tp4501
Rp4502
sVcan
p4503
g3769
(g3773
S'\x1e\x00\x00\x00\x00\x00\x00\x00'
p4504
tp4505
Rp4506
sVbriefing
p4507
g3769
(g3773
S'\x17\x00\x00\x00\x00\x00\x00\x00'
p4508
tp4509
Rp4510
sVproblem
p4511
g3769
(g3773
S'\xa3\x00\x00\x00\x00\x00\x00\x00'
p4512
tp4513
Rp4514
sVoutcome
p4515
g3769
(g3773
S'\x99\x00\x00\x00\x00\x00\x00\x00'
p4516
tp4517
Rp4518
sVmy
p4519
g3769
(g3773
S'\x87\x00\x00\x00\x00\x00\x00\x00'
p4520
tp4521
Rp4522
sVdee
p4523
g3769
(g3773
S'3\x00\x00\x00\x00\x00\x00\x00'
p4524
tp4525
Rp4526
sVbrowser
p4527
g3769
(g3773
S'\x18\x00\x00\x00\x00\x00\x00\x00'
p4528
tp4529
Rp4530
sVcell
p4531
g3769
(g3773
S' \x00\x00\x00\x00\x00\x00\x00'
p4532
tp4533
Rp4534
sVgive
p4535
g3769
(g3773
S'W\x00\x00\x00\x00\x00\x00\x00'
p4536
tp4537
Rp4538
sValmost
p4539
g3769
(g3773
S'\x06\x00\x00\x00\x00\x00\x00\x00'
p4540
tp4541
Rp4542
sVlock
p4543
g3769
(g3773
S'z\x00\x00\x00\x00\x00\x00\x00'
p4544
tp4545
Rp4546
sVis
p4547
g3769
(g3773
S'q\x00\x00\x00\x00\x00\x00\x00'
p4548
tp4549
Rp4550
sVin
p4551
g3769
(g3773
S'j\x00\x00\x00\x00\x00\x00\x00'
p4552
tp4553
Rp4554
sVam
p4555
g3769
(g3773
S'\x07\x00\x00\x00\x00\x00\x00\x00'
p4556
tp4557
Rp4558
sVfuck
p4559
g3769
(g3773
S'R\x00\x00\x00\x00\x00\x00\x00'
p4560
tp4561
Rp4562
sVbackbone
p4563
g3769
(g3773
S'\x10\x00\x00\x00\x00\x00\x00\x00'
p4564
tp4565
Rp4566
sVan
p4567
g3769
(g3773
S'\x08\x00\x00\x00\x00\x00\x00\x00'
p4568
tp4569
Rp4570
sVbeats
p4571
g3769
(g3773
S'\x13\x00\x00\x00\x00\x00\x00\x00'
p4572
tp4573
Rp4574
sVright
p4575
g3769
(g3773
S'\xb5\x00\x00\x00\x00\x00\x00\x00'
p4576
tp4577
Rp4578
sVat
p4579
g3769
(g3773
S'\x0e\x00\x00\x00\x00\x00\x00\x00'
p4580
tp4581
Rp4582
sVhave
p4583
g3769
(g3773
S'a\x00\x00\x00\x00\x00\x00\x00'
p4584
tp4585
Rp4586
sVstalls
p4587
g3769
(g3773
S'\xcb\x00\x00\x00\x00\x00\x00\x00'
p4588
tp4589
Rp4590
sVcheck
p4591
g3769
(g3773
S'!\x00\x00\x00\x00\x00\x00\x00'
p4592
tp4593
Rp4594
sVsimple
p4595
g3769
(g3773
S'\xc3\x00\x00\x00\x00\x00\x00\x00'
p4596
tp4597
Rp4598
sVif
p4599
g3769
(g3773
S'h\x00\x00\x00\x00\x00\x00\x00'
p4600
tp4601
Rp4602
sVinformation
p4603
g3769
(g3773
S'm\x00\x00\x00\x00\x00\x00\x00'
p4604
tp4605
Rp4606
sVrainy
p4607
g3769
(g3773
S'\xad\x00\x00\x00\x00\x00\x00\x00'
p4608
tp4609
Rp4610
sVanswer
p4611
g3769
(g3773
S'\t\x00\x00\x00\x00\x00\x00\x00'
p4612
tp4613
Rp4614
sVnoise
p4615
g3769
(g3773
S'\x8f\x00\x00\x00\x00\x00\x00\x00'
p4616
tp4617
Rp4618
sVmake
p4619
g3769
(g3773
S'\x7f\x00\x00\x00\x00\x00\x00\x00'
p4620
tp4621
Rp4622
sVget
p4623
g3769
(g3773
S'U\x00\x00\x00\x00\x00\x00\x00'
p4624
tp4625
Rp4626
sVwhen
p4627
g3769
(g3773
S'\xf4\x00\x00\x00\x00\x00\x00\x00'
p4628
tp4629
Rp4630
sVfeature
p4631
g3769
(g3773
S'H\x00\x00\x00\x00\x00\x00\x00'
p4632
tp4633
Rp4634
sVsame
p4635
g3769
(g3773
S'\xb7\x00\x00\x00\x00\x00\x00\x00'
p4636
tp4637
Rp4638
sVsaturday
p4639
g3769
(g3773
S'\xb8\x00\x00\x00\x00\x00\x00\x00'
p4640
tp4641
Rp4642
sVbeside
p4643
g3769
(g3773
S'\x15\x00\x00\x00\x00\x00\x00\x00'
p4644
tp4645
Rp4646
sVread
p4647
g3769
(g3773
S'\xb0\x00\x00\x00\x00\x00\x00\x00'
p4648
tp4649
Rp4650
sVhot
p4651
g3769
(g3773
S'e\x00\x00\x00\x00\x00\x00\x00'
p4652
tp4653
Rp4654
sVbefore
p4655
g3769
(g3773
S'\x14\x00\x00\x00\x00\x00\x00\x00'
p4656
tp4657
Rp4658
sVyou
p4659
g3769
(g3773
S'\xfb\x00\x00\x00\x00\x00\x00\x00'
p4660
tp4661
Rp4662
sVgmail
p4663
g3769
(g3773
S'X\x00\x00\x00\x00\x00\x00\x00'
p4664
tp4665
Rp4666
sVevents
p4667
g3769
(g3773
S'D\x00\x00\x00\x00\x00\x00\x00'
p4668
tp4669
Rp4670
sVhigher
p4671
g3769
(g3773
S'd\x00\x00\x00\x00\x00\x00\x00'
p4672
tp4673
Rp4674
sVweek
p4675
g3769
(g3773
S'\xf1\x00\x00\x00\x00\x00\x00\x00'
p4676
tp4677
Rp4678
sVplay
p4679
g3769
(g3773
S'\x9b\x00\x00\x00\x00\x00\x00\x00'
p4680
tp4681
Rp4682
sVokay
p4683
g3769
(g3773
S'\x94\x00\x00\x00\x00\x00\x00\x00'
p4684
tp4685
Rp4686
sVsee
p4687
g3769
(g3773
S'\xbc\x00\x00\x00\x00\x00\x00\x00'
p4688
tp4689
Rp4690
sVany
p4691
g3769
(g3773
S'\n\x00\x00\x00\x00\x00\x00\x00'
p4692
tp4693
Rp4694
sVstop
p4695
g3769
(g3773
S'\xce\x00\x00\x00\x00\x00\x00\x00'
p4696
tp4697
Rp4698
sVorg
p4699
g3769
(g3773
S'\x97\x00\x00\x00\x00\x00\x00\x00'
p4700
tp4701
Rp4702
sVearlier
p4703
g3769
(g3773
S'?\x00\x00\x00\x00\x00\x00\x00'
p4704
tp4705
Rp4706
sVproblems
p4707
g3769
(g3773
S'\xa4\x00\x00\x00\x00\x00\x00\x00'
p4708
tp4709
Rp4710
sVquieter
p4711
g3769
(g3773
S'\xa9\x00\x00\x00\x00\x00\x00\x00'
p4712
tp4713
Rp4714
sVrain
p4715
g3769
(g3773
S'\xab\x00\x00\x00\x00\x00\x00\x00'
p4716
tp4717
Rp4718
sVfreezing
p4719
g3769
(g3773
S'P\x00\x00\x00\x00\x00\x00\x00'
p4720
tp4721
Rp4722
sVfeatures
p4723
g3769
(g3773
S'I\x00\x00\x00\x00\x00\x00\x00'
p4724
tp4725
Rp4726
sVnever
p4727
g3769
(g3773
S'\x89\x00\x00\x00\x00\x00\x00\x00'
p4728
tp4729
Rp4730
sVdata
p4731
g3769
(g3773
S'.\x00\x00\x00\x00\x00\x00\x00'
p4732
tp4733
Rp4734
sVtune
p4735
g3769
(g3773
S'\xe5\x00\x00\x00\x00\x00\x00\x00'
p4736
tp4737
Rp4738
sVgrief
p4739
g3769
(g3773
S'_\x00\x00\x00\x00\x00\x00\x00'
p4740
tp4741
Rp4742
sVlower
p4743
g3769
(g3773
S'}\x00\x00\x00\x00\x00\x00\x00'
p4744
tp4745
Rp4746
sVoff
p4747
g3769
(g3773
S'\x93\x00\x00\x00\x00\x00\x00\x00'
p4748
tp4749
Rp4750
sVusing
p4751
g3769
(g3773
S'\xeb\x00\x00\x00\x00\x00\x00\x00'
p4752
tp4753
Rp4754
sVwe
p4755
g3769
(g3773
S'\xee\x00\x00\x00\x00\x00\x00\x00'
p4756
tp4757
Rp4758
sVgather
p4759
g3769
(g3773
S'T\x00\x00\x00\x00\x00\x00\x00'
p4760
tp4761
Rp4762
sVtale
p4763
g3769
(g3773
S'\xd2\x00\x00\x00\x00\x00\x00\x00'
p4764
tp4765
Rp4766
sVtime
p4767
g3769
(g3773
S'\xdd\x00\x00\x00\x00\x00\x00\x00'
p4768
tp4769
Rp4770
sVnewsfeed
p4771
g3769
(g3773
S'\x8c\x00\x00\x00\x00\x00\x00\x00'
p4772
tp4773
Rp4774
sVthe
p4775
g3769
(g3773
S'\xd8\x00\x00\x00\x00\x00\x00\x00'
p4776
tp4777
Rp4778
sVincrease
p4779
g3769
(g3773
S'l\x00\x00\x00\x00\x00\x00\x00'
p4780
tp4781
Rp4782
sVplaying
p4783
g3769
(g3773
S'\x9c\x00\x00\x00\x00\x00\x00\x00'
p4784
tp4785
Rp4786
sVdot
p4787
g3769
(g3773
S'<\x00\x00\x00\x00\x00\x00\x00'
p4788
tp4789
Rp4790
sVlatest
p4791
g3769
(g3773
S'w\x00\x00\x00\x00\x00\x00\x00'
p4792
tp4793
Rp4794
ssS'binary'
p4795
I00
sS'ngram_range'
p4796
(I1
I1
tp4797
sg3743
g3744
sS'max_df'
p4798
F1.0
sS'min_df'
p4799
I1
sS'max_features'
p4800
NsS'fixed_vocabulary_'
p4801
I00
sS'strip_accents'
p4802
NsS'dtype'
p4803
cnumpy
int64
p4804
sS'stop_words_'
p4805
c__builtin__
set
p4806
((lp4807
tp4808
Rp4809
sS'preprocessor'
p4810
Nsbtp4811
a(S'tfidf'
p4812
g3737
(csklearn.feature_extraction.text
TfidfTransformer
p4813
g3739
Ntp4814
Rp4815
(dp4816
S'smooth_idf'
p4817
I01
sg3743
g3744
sS'_idf_diag'
p4818
g3737
(cscipy.sparse.csr
csr_matrix
p4819
g3739
Ntp4820
Rp4821
(dp4822
S'indices'
p4823
cnumpy.core.multiarray
_reconstruct
p4824
(cnumpy
ndarray
p4825
(I0
tp4826
S'b'
p4827
tp4828
Rp4829
(I1
(I255
tp4830
g3770
(S'i4'
p4831
I0
I1
tp4832
Rp4833
(I3
S'<'
p4834
NNNI-1
I-1
I0
tp4835
bI00
S'\x00\x00\x00\x00\x01\x00\x00\x00\x02\x00\x00\x00\x03\x00\x00\x00\x04\x00\x00\x00\x05\x00\x00\x00\x06\x00\x00\x00\x07\x00\x00\x00\x08\x00\x00\x00\t\x00\x00\x00\n\x00\x00\x00\x0b\x00\x00\x00\x0c\x00\x00\x00\r\x00\x00\x00\x0e\x00\x00\x00\x0f\x00\x00\x00\x10\x00\x00\x00\x11\x00\x00\x00\x12\x00\x00\x00\x13\x00\x00\x00\x14\x00\x00\x00\x15\x00\x00\x00\x16\x00\x00\x00\x17\x00\x00\x00\x18\x00\x00\x00\x19\x00\x00\x00\x1a\x00\x00\x00\x1b\x00\x00\x00\x1c\x00\x00\x00\x1d\x00\x00\x00\x1e\x00\x00\x00\x1f\x00\x00\x00 \x00\x00\x00!\x00\x00\x00"\x00\x00\x00#\x00\x00\x00$\x00\x00\x00%\x00\x00\x00&\x00\x00\x00\'\x00\x00\x00(\x00\x00\x00)\x00\x00\x00*\x00\x00\x00+\x00\x00\x00,\x00\x00\x00-\x00\x00\x00.\x00\x00\x00/\x00\x00\x000\x00\x00\x001\x00\x00\x002\x00\x00\x003\x00\x00\x004\x00\x00\x005\x00\x00\x006\x00\x00\x007\x00\x00\x008\x00\x00\x009\x00\x00\x00:\x00\x00\x00;\x00\x00\x00<\x00\x00\x00=\x00\x00\x00>\x00\x00\x00?\x00\x00\x00@\x00\x00\x00A\x00\x00\x00B\x00\x00\x00C\x00\x00\x00D\x00\x00\x00E\x00\x00\x00F\x00\x00\x00G\x00\x00\x00H\x00\x00\x00I\x00\x00\x00J\x00\x00\x00K\x00\x00\x00L\x00\x00\x00M\x00\x00\x00N\x00\x00\x00O\x00\x00\x00P\x00\x00\x00Q\x00\x00\x00R\x00\x00\x00S\x00\x00\x00T\x00\x00\x00U\x00\x00\x00V\x00\x00\x00W\x00\x00\x00X\x00\x00\x00Y\x00\x00\x00Z\x00\x00\x00[\x00\x00\x00\\\x00\x00\x00]\x00\x00\x00^\x00\x00\x00_\x00\x00\x00`\x00\x00\x00a\x00\x00\x00b\x00\x00\x00c\x00\x00\x00d\x00\x00\x00e\x00\x00\x00f\x00\x00\x00g\x00\x00\x00h\x00\x00\x00i\x00\x00\x00j\x00\x00\x00k\x00\x00\x00l\x00\x00\x00m\x00\x00\x00n\x00\x00\x00o\x00\x00\x00p\x00\x00\x00q\x00\x00\x00r\x00\x00\x00s\x00\x00\x00t\x00\x00\x00u\x00\x00\x00v\x00\x00\x00w\x00\x00\x00x\x00\x00\x00y\x00\x00\x00z\x00\x00\x00{\x00\x00\x00|\x00\x00\x00}\x00\x00\x00~\x00\x00\x00\x7f\x00\x00\x00\x80\x00\x00\x00\x81\x00\x00\x00\x82\x00\x00\x00\x83\x00\x00\x00\x84\x00\x00\x00\x85\x00\x00\x00\x86\x00\x00\x00\x87\x00\x00\x00\x88\x00\x00\x00\x89\x00\x00\x00\x8a\x00\x00\x00\x8b\x00\x00\x00\x8c\x00\x00\x00\x8d\x00\x00\x00\x8e\x00\x00\x00\x8f\x00\x00\x00\x90\x00\x00\x00\x91\x00\x00\x00\x92\x00\x00\x00\x93\x00\x00\x00\x94\x00\x00\x00\x95\x00\x00\x00\x96\x00\x00\x00\x97\x00\x00\x00\x98\x00\x00\x00\x99\x00\x00\x00\x9a\x00\x00\x00\x9b\x00\x00\x00\x9c\x00\x00\x00\x9d\x00\x00\x00\x9e\x00\x00\x00\x9f\x00\x00\x00\xa0\x00\x00\x00\xa1\x00\x00\x00\xa2\x00\x00\x00\xa3\x00\x00\x00\xa4\x00\x00\x00\xa5\x00\x00\x00\xa6\x00\x00\x00\xa7\x00\x00\x00\xa8\x00\x00\x00\xa9\x00\x00\x00\xaa\x00\x00\x00\xab\x00\x00\x00\xac\x00\x00\x00\xad\x00\x00\x00\xae\x00\x00\x00\xaf\x00\x00\x00\xb0\x00\x00\x00\xb1\x00\x00\x00\xb2\x00\x00\x00\xb3\x00\x00\x00\xb4\x00\x00\x00\xb5\x00\x00\x00\xb6\x00\x00\x00\xb7\x00\x00\x00\xb8\x00\x00\x00\xb9\x00\x00\x00\xba\x00\x00\x00\xbb\x00\x00\x00\xbc\x00\x00\x00\xbd\x00\x00\x00\xbe\x00\x00\x00\xbf\x00\x00\x00\xc0\x00\x00\x00\xc1\x00\x00\x00\xc2\x00\x00\x00\xc3\x00\x00\x00\xc4\x00\x00\x00\xc5\x00\x00\x00\xc6\x00\x00\x00\xc7\x00\x00\x00\xc8\x00\x00\x00\xc9\x00\x00\x00\xca\x00\x00\x00\xcb\x00\x00\x00\xcc\x00\x00\x00\xcd\x00\x00\x00\xce\x00\x00\x00\xcf\x00\x00\x00\xd0\x00\x00\x00\xd1\x00\x00\x00\xd2\x00\x00\x00\xd3\x00\x00\x00\xd4\x00\x00\x00\xd5\x00\x00\x00\xd6\x00\x00\x00\xd7\x00\x00\x00\xd8\x00\x00\x00\xd9\x00\x00\x00\xda\x00\x00\x00\xdb\x00\x00\x00\xdc\x00\x00\x00\xdd\x00\x00\x00\xde\x00\x00\x00\xdf\x00\x00\x00\xe0\x00\x00\x00\xe1\x00\x00\x00\xe2\x00\x00\x00\xe3\x00\x00\x00\xe4\x00\x00\x00\xe5\x00\x00\x00\xe6\x00\x00\x00\xe7\x00\x00\x00\xe8\x00\x00\x00\xe9\x00\x00\x00\xea\x00\x00\x00\xeb\x00\x00\x00\xec\x00\x00\x00\xed\x00\x00\x00\xee\x00\x00\x00\xef\x00\x00\x00\xf0\x00\x00\x00\xf1\x00\x00\x00\xf2\x00\x00\x00\xf3\x00\x00\x00\xf4\x00\x00\x00\xf5\x00\x00\x00\xf6\x00\x00\x00\xf7\x00\x00\x00\xf8\x00\x00\x00\xf9\x00\x00\x00\xfa\x00\x00\x00\xfb\x00\x00\x00\xfc\x00\x00\x00\xfd\x00\x00\x00\xfe\x00\x00\x00'
p4836
tp4837
bsS'indptr'
p4838
g4824
(g4825
(I0
tp4839
g4827
tp4840
Rp4841
(I1
(I256
tp4842
g4833
I00
S'\x00\x00\x00\x00\x01\x00\x00\x00\x02\x00\x00\x00\x03\x00\x00\x00\x04\x00\x00\x00\x05\x00\x00\x00\x06\x00\x00\x00\x07\x00\x00\x00\x08\x00\x00\x00\t\x00\x00\x00\n\x00\x00\x00\x0b\x00\x00\x00\x0c\x00\x00\x00\r\x00\x00\x00\x0e\x00\x00\x00\x0f\x00\x00\x00\x10\x00\x00\x00\x11\x00\x00\x00\x12\x00\x00\x00\x13\x00\x00\x00\x14\x00\x00\x00\x15\x00\x00\x00\x16\x00\x00\x00\x17\x00\x00\x00\x18\x00\x00\x00\x19\x00\x00\x00\x1a\x00\x00\x00\x1b\x00\x00\x00\x1c\x00\x00\x00\x1d\x00\x00\x00\x1e\x00\x00\x00\x1f\x00\x00\x00 \x00\x00\x00!\x00\x00\x00"\x00\x00\x00#\x00\x00\x00$\x00\x00\x00%\x00\x00\x00&\x00\x00\x00\'\x00\x00\x00(\x00\x00\x00)\x00\x00\x00*\x00\x00\x00+\x00\x00\x00,\x00\x00\x00-\x00\x00\x00.\x00\x00\x00/\x00\x00\x000\x00\x00\x001\x00\x00\x002\x00\x00\x003\x00\x00\x004\x00\x00\x005\x00\x00\x006\x00\x00\x007\x00\x00\x008\x00\x00\x009\x00\x00\x00:\x00\x00\x00;\x00\x00\x00<\x00\x00\x00=\x00\x00\x00>\x00\x00\x00?\x00\x00\x00@\x00\x00\x00A\x00\x00\x00B\x00\x00\x00C\x00\x00\x00D\x00\x00\x00E\x00\x00\x00F\x00\x00\x00G\x00\x00\x00H\x00\x00\x00I\x00\x00\x00J\x00\x00\x00K\x00\x00\x00L\x00\x00\x00M\x00\x00\x00N\x00\x00\x00O\x00\x00\x00P\x00\x00\x00Q\x00\x00\x00R\x00\x00\x00S\x00\x00\x00T\x00\x00\x00U\x00\x00\x00V\x00\x00\x00W\x00\x00\x00X\x00\x00\x00Y\x00\x00\x00Z\x00\x00\x00[\x00\x00\x00\\\x00\x00\x00]\x00\x00\x00^\x00\x00\x00_\x00\x00\x00`\x00\x00\x00a\x00\x00\x00b\x00\x00\x00c\x00\x00\x00d\x00\x00\x00e\x00\x00\x00f\x00\x00\x00g\x00\x00\x00h\x00\x00\x00i\x00\x00\x00j\x00\x00\x00k\x00\x00\x00l\x00\x00\x00m\x00\x00\x00n\x00\x00\x00o\x00\x00\x00p\x00\x00\x00q\x00\x00\x00r\x00\x00\x00s\x00\x00\x00t\x00\x00\x00u\x00\x00\x00v\x00\x00\x00w\x00\x00\x00x\x00\x00\x00y\x00\x00\x00z\x00\x00\x00{\x00\x00\x00|\x00\x00\x00}\x00\x00\x00~\x00\x00\x00\x7f\x00\x00\x00\x80\x00\x00\x00\x81\x00\x00\x00\x82\x00\x00\x00\x83\x00\x00\x00\x84\x00\x00\x00\x85\x00\x00\x00\x86\x00\x00\x00\x87\x00\x00\x00\x88\x00\x00\x00\x89\x00\x00\x00\x8a\x00\x00\x00\x8b\x00\x00\x00\x8c\x00\x00\x00\x8d\x00\x00\x00\x8e\x00\x00\x00\x8f\x00\x00\x00\x90\x00\x00\x00\x91\x00\x00\x00\x92\x00\x00\x00\x93\x00\x00\x00\x94\x00\x00\x00\x95\x00\x00\x00\x96\x00\x00\x00\x97\x00\x00\x00\x98\x00\x00\x00\x99\x00\x00\x00\x9a\x00\x00\x00\x9b\x00\x00\x00\x9c\x00\x00\x00\x9d\x00\x00\x00\x9e\x00\x00\x00\x9f\x00\x00\x00\xa0\x00\x00\x00\xa1\x00\x00\x00\xa2\x00\x00\x00\xa3\x00\x00\x00\xa4\x00\x00\x00\xa5\x00\x00\x00\xa6\x00\x00\x00\xa7\x00\x00\x00\xa8\x00\x00\x00\xa9\x00\x00\x00\xaa\x00\x00\x00\xab\x00\x00\x00\xac\x00\x00\x00\xad\x00\x00\x00\xae\x00\x00\x00\xaf\x00\x00\x00\xb0\x00\x00\x00\xb1\x00\x00\x00\xb2\x00\x00\x00\xb3\x00\x00\x00\xb4\x00\x00\x00\xb5\x00\x00\x00\xb6\x00\x00\x00\xb7\x00\x00\x00\xb8\x00\x00\x00\xb9\x00\x00\x00\xba\x00\x00\x00\xbb\x00\x00\x00\xbc\x00\x00\x00\xbd\x00\x00\x00\xbe\x00\x00\x00\xbf\x00\x00\x00\xc0\x00\x00\x00\xc1\x00\x00\x00\xc2\x00\x00\x00\xc3\x00\x00\x00\xc4\x00\x00\x00\xc5\x00\x00\x00\xc6\x00\x00\x00\xc7\x00\x00\x00\xc8\x00\x00\x00\xc9\x00\x00\x00\xca\x00\x00\x00\xcb\x00\x00\x00\xcc\x00\x00\x00\xcd\x00\x00\x00\xce\x00\x00\x00\xcf\x00\x00\x00\xd0\x00\x00\x00\xd1\x00\x00\x00\xd2\x00\x00\x00\xd3\x00\x00\x00\xd4\x00\x00\x00\xd5\x00\x00\x00\xd6\x00\x00\x00\xd7\x00\x00\x00\xd8\x00\x00\x00\xd9\x00\x00\x00\xda\x00\x00\x00\xdb\x00\x00\x00\xdc\x00\x00\x00\xdd\x00\x00\x00\xde\x00\x00\x00\xdf\x00\x00\x00\xe0\x00\x00\x00\xe1\x00\x00\x00\xe2\x00\x00\x00\xe3\x00\x00\x00\xe4\x00\x00\x00\xe5\x00\x00\x00\xe6\x00\x00\x00\xe7\x00\x00\x00\xe8\x00\x00\x00\xe9\x00\x00\x00\xea\x00\x00\x00\xeb\x00\x00\x00\xec\x00\x00\x00\xed\x00\x00\x00\xee\x00\x00\x00\xef\x00\x00\x00\xf0\x00\x00\x00\xf1\x00\x00\x00\xf2\x00\x00\x00\xf3\x00\x00\x00\xf4\x00\x00\x00\xf5\x00\x00\x00\xf6\x00\x00\x00\xf7\x00\x00\x00\xf8\x00\x00\x00\xf9\x00\x00\x00\xfa\x00\x00\x00\xfb\x00\x00\x00\xfc\x00\x00\x00\xfd\x00\x00\x00\xfe\x00\x00\x00\xff\x00\x00\x00'
p4843
tp4844
bsS'maxprint'
p4845
I50
sS'_shape'
p4846
(I255
I255
tp4847
sg12
g4824
(g4825
(I0
tp4848
g4827
tp4849
Rp4850
(I1
(I255
tp4851
g3770
(S'f8'
p4852
I0
I1
tp4853
Rp4854
(I3
S'<'
p4855
NNNI-1
I-1
I0
tp4856
bI00
S'`F%\x87\xc7W\x1f@\x8e\xe9]\xca\x84H\x17@\xc0)\xe7o\xfb\xab\x13@\x08\xf7w;\xf3T\x1a@"\xffE\'\xff\x91\x1c@\xf8\xf1D\x0b\x1e\x86\x18@`F%\x87\xc7W\x1f@h)\xa8\x07\xa6@\x14@\xca\xec"\x84\xac\x90\x13@`F%\x87\xc7W\x1f@Z\r\x8c\xe9]\x96\x10@n\xf0\x03\xe6\x04\xd5\x0b@|c\x86K\x8d\xfa\x12@\x8ch\xb9{b\xc9\x14@`F%\x87\xc7W\x1f@\x08\xf7w;\xf3T\x1a@`F%\x87\xc7W\x1f@\xdbLYH\x95\xb8\x1d@\x13\xe3)\t\xb7\xe7\x18@`F%\x87\xc7W\x1f@\xdbLYH\x95\xb8\x1d@\xdbLYH\x95\xb8\x1d@\xdbLYH\x95\xb8\x1d@\xdbLYH\x95\xb8\x1d@\x8f\x8e\x1d\x81s\xa5\x14@"\xffE\'\xff\x91\x1c@\x9d\x05z\xe8\xcc\xf2\x1a@`F%\x87\xc7W\x1f@\x85\x8c\x8a\xb8+\xd9\x0e@`F%\x87\xc7W\x1f@/&\x80\xdc.\x01\x0b@`F%\x87\xc7W\x1f@`F%\x87\xc7W\x1f@*\x1f\xdf\xba\xa9\xce\x07@`F%\x87\xc7W\x1f@"w\xbb(<g\x15@\xba\xaae\xabU\xc0\x15@\x19\x0c\xae\xa9\x9aS\x19@\x19\x0c\xae\xa9\x9aS\x19@Q*\ti\x7f\xad\x1b@`F%\x87\xc7W\x1f@N!\xda\x1b\x9a\x03\x12@\x8ea\xd3\xcb\xc1\x1d\x10@\xc0)\xe7o\xfb\xab\x13@\xea\xd2\xfa\x050\xab\r@`F%\x87\xc7W\x1f@`F%\x87\xc7W\x1f@\xa3\x06(\xa6\x91\x02\x14@\xdbLYH\x95\xb8\x1d@`F%\x87\xc7W\x1f@\xdbLYH\x95\xb8\x1d@\xdbLYH\x95\xb8\x1d@\xf8\xf1D\x0b\x1e\x86\x18@`F%\x87\xc7W\x1f@`F%\x87\xc7W\x1f@E\xfd:O\x9d\xaf\t@`F%\x87\xc7W\x1f@`F%\x87\xc7W\x1f@\xd59"\xe7iJ\r@\xe1M\x07\x06Z\xc8\x16@\x8e\xe9]\xca\x84H\x17@\xc0)\xe7o\xfb\xab\x13@\xdbLYH\x95\xb8\x1d@`F%\x87\xc7W\x1f@\xdbLYH\x95\xb8\x1d@\xdbLYH\x95\xb8\x1d@`F%\x87\xc7W\x1f@\x83VD\x06\xc6j\x0c@Ad\x8aU\xb7\x91\t@Q*\ti\x7f\xad\x1b@`F%\x87\xc7W\x1f@\xdbLYH\x95\xb8\x1d@`F%\x87\xc7W\x1f@`F%\x87\xc7W\x1f@w7=D\xddB\x13@5\xb1\x99l#!\x14@\x19\x0c\xae\xa9\x9aS\x19@\xdb\x8e\xd4Z\x8a\xa0\x0e@E\xb6\xcc\x9c\xf8\xef\x15@\xf1\xf7\xbb\xc2(a\x14@\x19\x0c\xae\xa9\x9aS\x19@P\xa2~j\xbc\x82\x14@`F%\x87\xc7W\x1f@`F%\x87\xc7W\x1f@\x19\x0c\xae\xa9\x9aS\x19@\xf1\xa5\xa2=\xd0\xff\x0e@\xdbLYH\x95\xb8\x1d@\x8ch\xb9{b\xc9\x14@\xfa\xd1w\xa2\x01\x8e\x0e@\x04\xc7\r\xebn=\x15@u\xc7k\xd1\r\xdb\x17@"\xffE\'\xff\x91\x1c@\xfa8\xad\x11}O\x12@`F%\x87\xc7W\x1f@\xdbLYH\x95\xb8\x1d@`F%\x87\xc7W\x1f@\xdbLYH\x95\xb8\x1d@_\x18\x13\xc0\xca\xc3\t@\xc0)\xe7o\xfb\xab\x13@\xdbLYH\x95\xb8\x1d@\xe4\xb7f\xc76\xcc\x19@\x19\x0c\xae\xa9\x9aS\x19@\xca\xaf\x98\xdb*\x8f\x17@`F%\x87\xc7W\x1f@\x1e\r\\g_c\x12@`F%\x87\xc7W\x1f@3\x12w8\x0e\r\x0b@X\xd0\x1a|OL\x10@`F%\x87\xc7W\x1f@u\xc7k\xd1\r\xdb\x17@\xdbLYH\x95\xb8\x1d@\x08\xf7w;\xf3T\x1a@\xdbLYH\x95\xb8\x1d@\x9fWX\xeb7\x87\x0c@\xca\xaf\x98\xdb*\x8f\x17@`F%\x87\xc7W\x1f@\xe00\xdf%q\x12\x10@8\x80\x8cqE\x15\x15@u\xc7k\xd1\r\xdb\x17@\xca\xaf\x98\xdb*\x8f\x17@`F%\x87\xc7W\x1f@\x91!\xf2\xfb\x06\xac\x11@8\x80\x8cqE\x15\x15@`F%\x87\xc7W\x1f@\x9d\x05z\xe8\xcc\xf2\x1a@\x08\xf7w;\xf3T\x1a@!\xb4\xf5w\xa3{\x0e@B\x15<\xcf\x02\xb7\x12@`F%\x87\xc7W\x1f@X\xd0\x1a|OL\x10@`F%\x87\xc7W\x1f@P\xa2~j\xbc\x82\x14@P\xa2~j\xbc\x82\x14@\xdbLYH\x95\xb8\x1d@Q*\ti\x7f\xad\x1b@\xfcT\xdd\xa3\xd8\x87\t@\xdbLYH\x95\xb8\x1d@`F%\x87\xc7W\x1f@3\x12w8\x0e\r\x0b@\xda)\xeb\xfa\xed\xba\x0b@\x98TkI&\\\x13@\xc0)\xe7o\xfb\xab\x13@\xdbLYH\x95\xb8\x1d@`F%\x87\xc7W\x1f@X\xd0\x1a|OL\x10@\x13\xe3)\t\xb7\xe7\x18@Q*\ti\x7f\xad\x1b@\xca\xec"\x84\xac\x90\x13@\xdbLYH\x95\xb8\x1d@\xf2aE&tI\x06@\xe6\xe0\xdc\x9bQx\x0f@\xdbLYH\x95\xb8\x1d@Q*\ti\x7f\xad\x1b@`F%\x87\xc7W\x1f@\xe1M\x07\x06Z\xc8\x16@\xca\xaf\x98\xdb*\x8f\x17@\xdbLYH\x95\xb8\x1d@\x8c9\xc7\x86\xa4S\x01@`F%\x87\xc7W\x1f@\xdbLYH\x95\xb8\x1d@\xdbLYH\x95\xb8\x1d@`F%\x87\xc7W\x1f@\x08\xf7w;\xf3T\x1a@`F%\x87\xc7W\x1f@`F%\x87\xc7W\x1f@Q*\ti\x7f\xad\x1b@Q*\ti\x7f\xad\x1b@`F%\x87\xc7W\x1f@\xdbLYH\x95\xb8\x1d@`F%\x87\xc7W\x1f@\xdbLYH\x95\xb8\x1d@\xdbLYH\x95\xb8\x1d@\x19\x0c\xae\xa9\x9aS\x19@\x19\x0c\xae\xa9\x9aS\x19@`F%\x87\xc7W\x1f@E\xb6\xcc\x9c\xf8\xef\x15@\xd5\x9bJ\xa9\xee!\x16@`F%\x87\xc7W\x1f@`F%\x87\xc7W\x1f@\xdbLYH\x95\xb8\x1d@\x13\xe3)\t\xb7\xe7\x18@\x9d\x05z\xe8\xcc\xf2\x1a@`F%\x87\xc7W\x1f@`F%\x87\xc7W\x1f@P\xa2~j\xbc\x82\x14@\xc0)\xe7o\xfb\xab\x13@\x8e\xe9]\xca\x84H\x17@\xba\xaae\xabU\xc0\x15@"\xffE\'\xff\x91\x1c@\x9d\x05z\xe8\xcc\xf2\x1a@Q*\ti\x7f\xad\x1b@`F%\x87\xc7W\x1f@`F%\x87\xc7W\x1f@\xc0)\xe7o\xfb\xab\x13@\xe1M\x07\x06Z\xc8\x16@`F%\x87\xc7W\x1f@\x9d\x05z\xe8\xcc\xf2\x1a@\xdbLYH\x95\xb8\x1d@\x19\x0c\xae\xa9\x9aS\x19@\xdbLYH\x95\xb8\x1d@\x9d}\xef\xe9\t\xc8\x13@E\xb6\xcc\x9c\xf8\xef\x15@N!\xda\x1b\x9a\x03\x12@`F%\x87\xc7W\x1f@8\x80\x8cqE\x15\x15@`F%\x87\xc7W\x1f@`\xbe\x9a\x88\x04-\x18@`F%\x87\xc7W\x1f@P\xa2~j\xbc\x82\x14@\xdbLYH\x95\xb8\x1d@`F%\x87\xc7W\x1f@`F%\x87\xc7W\x1f@\x8f\x8e\x1d\x81s\xa5\x14@E\xb6\xcc\x9c\xf8\xef\x15@`F%\x87\xc7W\x1f@`F%\x87\xc7W\x1f@\x10\xa7\xc8\xe9\x06A\x05@(dpS\xfdj\x11@`F%\x87\xc7W\x1f@\x0eX\xef\xcacW\x0e@P\xa2~j\xbc\x82\x14@\x08o\xed<0*\x13@\x96\x1a\x991\xbc\x17\x0c@\xa9\'\x80UW\xee\r@\xdb\xc4\xceI\xd2\x8d\x16@h)\xa8\x07\xa6@\x14@`F%\x87\xc7W\x1f@`F%\x87\xc7W\x1f@P\xa2~j\xbc\x82\x14@\x08\xf7w;\xf3T\x1a@\xdbLYH\x95\xb8\x1d@\x08\xf7w;\xf3T\x1a@\x82\xe2\x07\x103\xe6\x10@Q*\ti\x7f\xad\x1b@\xca\xec"\x84\xac\x90\x13@`F%\x87\xc7W\x1f@8\x80\x8cqE\x15\x15@\x08\xf7w;\xf3T\x1a@`F%\x87\xc7W\x1f@E\xb6\xcc\x9c\xf8\xef\x15@P\xa2~j\xbc\x82\x14@\x1c\xa9\xa1Y\xabp\x10@\xd2\xe5\xbbJ\x03\x1c\x06@\x19\x0c\xae\xa9\x9aS\x19@\xdbLYH\x95\xb8\x1d@\x12[\x9f\n\xf4\xbc\x11@\x08o\xed<0*\x13@\xe4\xb7f\xc76\xcc\x19@\x96\x17\xfa\xdb\x17\x12\x13@`F%\x87\xc7W\x1f@\xdbLYH\x95\xb8\x1d@a\r\xf6y\x14*\x05@\x08\xf7w;\xf3T\x1a@Q*\ti\x7f\xad\x1b@Q*\ti\x7f\xad\x1b@'
p4857
tp4858
bsbsS'use_idf'
p4859
I01
sS'sublinear_tf'
p4860
I00
sS'norm'
p4861
Vl2
p4862
sbtp4863
a(S'clsfr'
p4864
g3737
(csklearn.linear_model.stochastic_gradient
SGDClassifier
p4865
g3739
Ntp4866
Rp4867
(dp4868
S't_'
p4869
F9301.0
sS'n_jobs'
p4870
I1
sS'shuffle'
p4871
I01
sS'verbose'
p4872
I0
sS'classes_'
p4873
g4824
(g4825
(I0
tp4874
g4827
tp4875
Rp4876
(I1
(I2
tp4877
g3770
(S'S5'
p4878
I0
I1
tp4879
Rp4880
(I3
S'|'
p4881
NNNI5
I1
I0
tp4882
bI00
S'FalseTrue\x00'
p4883
tp4884
bsS'class_weight'
p4885
NsS'fit_intercept'
p4886
I01
sg8
g9
sS'random_state'
p4887
I716
sg3743
g3744
sS'loss_function'
p4888
csklearn.linear_model.sgd_fast
Hinge
p4889
(F1.0
tp4890
Rp4891
sS'C'
p4892
F1.0
sg7
I5
sS'epsilon'
p4893
F0.1
sS'learning_rate'
p4894
S'optimal'
p4895
sS'coef_'
p4896
g4824
(g4825
(I0
tp4897
g4827
tp4898
Rp4899
(I1
(I1
I255
tp4900
g4854
I00
S'\x00\x00\x00\x00\x00\x00\x00\x00\x00\x00\x00\x00\x00\x00\x00\x00\x00\x00\x00\x00\x00\x00\x00\x00\x00\x00\x00\x00\x00\x00\x00\x00)gh:\xc6~\xe6\xbf-\x97\xdd\x81!|\xf1\xbf-\'8["\x1c\xc9\xbf\xe9\x84\x17\xce\x84\xc2\x01\xc0\x00\x00\x00\x00\x00\x00\x00\x00\x00\x00\x00\x00\x00\x00\x00\x00\x84x\x17\xae\x9aZ\xff\xbf\xf2S\xe1\xf2\x8eF\xf9\xbfs\t\x8fg\x8e\xb7\xe1?p"K\xe1X\xca\x10\xc0\x00\x00\x00\x00\x00\x00\x00\x00\x00\x00\x00\x00\x00\x00\x00\x00\x00\x00\x00\x00\x00\x00\x00\x00;\x8eB"\xb7/\r\xc0\x00\x00\x00\x00\x00\x00\x00\x00\x00\x00\x00\x00\x00\x00\x00\x00\x00\x00\x00\x00\x00\x00\x00\x00\xac\x1fO\xee\xf1^\xdd\xbf(bF\xdc1q\xf2?@F\x98y7\xa9\xf5?\xdd*\xde\xdf?\x8f\xe0\xbf\x00\x00\x00\x00\x00\x00\x00\x00cz\xf5\xc6\xef\xc7\x08\xc0k\xfb\x97\xba0\x08\x12\xc0\x91G\x0e\x93L\xcf\x02\xc0\x00\x00\x00\x00\x00\x00\x00\x00D\x0b\xc7\xb5+#\xd4?\x00\x00\x00\x00\x00\x00\x00\x00bM&u\xc4\xa3\xc4\xbf\xa8\xe3\xd6\x80\xde\xce\r\xc0\x00\x00\x00\x00\x00\x00\x00\x001/,|\xf4g\t\xc0n\xa9\x95-\x12\xb8\x08\xc0\xcc]%\xca\x8b\xb0\xfd\xbf\x00\x00\x00\x00\x00\x00\x00\x00\x83\xee~=\x9fX\xf7\xbf\x00\x00\x00\x00\x00\x00\x00\x00+\xbd\x84o\xc7U\xba\xbf\x00\x00\x00\x00\x00\x00\x00\x00\x00\x00\x00\x00\x00\x00\x00\x00\x8dlI\xa70\xd7\x02@\x00\x00\x00\x00\x00\x00\x00\x00\x00\x00\x00\x00\x00\x00\x00\x00B\x9bi5\xe5\x9d\xd9\xbf\xbed\x9e\xfb\xbe\xca\xf3?}\x92\t\xb9]\xa7\xd4\xbf\x00\x00\x00\x00\x00\x00\x00\x00\x00\x00\x00\x00\x00\x00\x00\x00\xb8\xf6\x90lm\xab\xe3\xbf\x00\x00\x00\x00\x00\x00\x00\x00\x00\x00\x00\x00\x00\x00\x00\x00-\xf8\xa3\xe3\xf2\xb3\x04\xc0\x00\x00\x00\x00\x00\x00\x00\x00\x00\x00\x00\x00\x00\x00\x00\x00fO%v#\xf3&\xc0\xb3`\x130\xd7?\x14\xc0_\xb5\x1b\x96\xb3\xa3\xf3\xbfsu\x8c\x080\xc2\xbc\xbf\xb3\x90\xd8\x8d\xcfF\xe3\xbf\x00\x00\x00\x00\x00\x00\x00\x00\x00\x00\x00\x00\x00\x00\x00\x00\x00\x00\x00\x00\x00\x00\x00\x00\x00\x00\x00\x00\x00\x00\x00\x00\xcf\xd2S\x85\xa8z\xf2\xbf\x0f\xff\x10O\x91\x0b\x00@\x00\x00\x00\x00\x00\x00\x00\x00-\'8["\x1c\xc9\xbf2O\x1f\xbc\x95h\xe1?-\'8["\x1c\xc9\xbf-\'8["\x1c\xc9\xbfq.w\x89\xde_\xeb?*\xda\xec\x8e\x1b:\xf0?\x00\x00\x00\x00\x00\x00\x00\x00\x89D]\x9c\xf9u\x02\xc0\xf0\x1f\xfbU\x86j\x10\xc0\x01\xd3=+\x07\xdf\x01\xc0\xcc;\xb4\xf4\xe1\xfa\x0b\xc0\x00\x00\x00\x00\x00\x00\x00\x00\x00\x00\x00\x00\x00\x00\x00\x00\x00\x00\x00\x00\x00\x00\x00\x00\x7f\x86cUD\xd7\xfe?\xbd\x8dkn\x03f\xd3?\x00\x00\x00\x00\x00\x00\x00\x00\x08\x96X?\x87\xea\xb2?\x00\x00\x00\x00\x00\x00\x00\x00?\x04\x0f\x85z\xea\xf1\xbf\xd2\x83\xae\xf7\xd9\x95\x05@\x00\x00\x00\x00\x00\x00\x00\x00\xc5BN1dT\x06\xc0}\x92\t\xb9]\xa7\xd4\xbf\x00\x00\x00\x00\x00\x00\x00\x00\x00\x00\x00\x00\x00\x00\x00\x00\x00\x00\x00\x00\x00\x00\x00\x00\xff\x80\xfb\\\xf1e\xf7\xbf\xe2\x1e\xcf\xb7\x98\xce\x10@\xc6\xb1[\x90\xb8f\xe7\xbf?"\x86\xddG\x8c\x00\xc0\x00\x00\x00\x00\x00\x00\x00\x00\x00\x00\x00\x00\x00\x00\x00\x00\x00\x00\x00\x00\x00\x00\x00\x00o\x1f\xaf\xeeQ\x8e\xf5\xbf\x00\x00\x00\x00\x00\x00\x00\x00P\xc77\xaa%D\xe4\xbf\xdb\x13!X\xd8v\x04\xc0e\x88\xea\x0b:\x97\xe5\xbf)\xb3\xdd#\xf1D\x01@\xe7%!n4\x01\x07\xc0\xb5\x1e\x1d;\xc5\xb6\x0b@\xa0(R,Q|\xf1?\xd3\xddf\\\xb6?\xf7?e{g1@=\x0b\xc0\x00\x00\x00\x00\x00\x00\x00\x00\x0c\x06\xbc\xec -\x0b\xc0Z&\xac\xc0\xb7\xb5\x08\xc0\x00\x00\x00\x00\x00\x00\x00\x00\xec\x8b%\x084\x1b\xdb\xbf\x00\x00\x00\x00\x00\x00\x00\x00\x91@p\xb3\x8d\xa2\xe3?\xd2C\x94yH\xb6\xe7\xbf\x00\x00\x00\x00\x00\x00\x00\x00\x00\x00\x00\x00\x00\x00\x00\x00\xf4\xd8\xe8\x84\x9e\xb0\xe1\xbfe\xf3\xd6MV\x94\x03\xc0U\xee\x94+f\x02\xf8\xbfbM&u\xc4\xa3\xc4\xbf\xc0\xc4!\rL$\x01@bM&u\xc4\xa3\xc4\xbf\x00\x00\x00\x00\x00\x00\x00\x00\x01\xb2\x1c\xe5\x102\xd7\xbf\x1b!9\x1d\xb6j\x11\xc0\x1d\xectU\xd7~\xeb\xbft\xd5\x1f=\x06f\x00\xc0\x00\x00\x00\x00\x00\x00\x00\x00fD\x8b\xb8\x01\xb0\xfa\xbfu"\xf5&>\x97\xf1\xbf\x02\x035I\xec!\x10@g\xab"\xc7S\x1e\x10@\xb2[\xd6|&@\x01\xc0\x00\x00\x00\x00\x00\x00\x00\x00\x00\x00\x00\x00\x00\x00\x00\x00\xd6\x80\x06pz\x1d"\xc0\xed@\xaeu3\xe6\xf9?\x1e0F\xe3m\xb2\xef\xbfmN\xd0qu\xb7\x0c\xc0\x00\x00\x00\x00\x00\x00\x00\x00\xf1\xdbQ{\x03w\x02\xc0\xfe\x8eP\x86\xd8\xc1\x03\xc0\x00\x00\x00\x00\x00\x00\x00\x00\x87\x9f\xc7\x87\xd4r\xdf?\x00\x00\x00\x00\x00\x00\x00\x00M\xdb}\xbc\xb5\x8b\x11\xc0\xb5\xc4\xa4J\x80\x89\xf9\xbf\x00\x00\x00\x00\x00\x00\x00\x00\xdf\x92u[\x1c\xee\xec\xbf\x00\x00\x00\x00\x00\x00\x00\x00\x00\x00\x00\x00\x00\x00\x00\x00\x00\x00\x00\x00\x00\x00\x00\x00o\xa2\xdb_\x94\x86\x07\xc0\x00\x00\x00\x00\x00\x00\x00\x00}\x92\t\xb9]\xa7\xd4\xbf\x00\x00\x00\x00\x00\x00\x00\x00\x00\x00\x00\x00\x00\x00\x00\x00\x00\x00\x00\x00\x00\x00\x00\x00\x00\x00\x00\x00\x00\x00\x00\x00;\x8eB"\xb7/\r\xc0\x00\x00\x00\x00\x00\x00\x00\x00\x00\x00\x00\x00\x00\x00\x00\x00\x00\x00\x00\x00\x00\x00\x00\x00\x00\x00\x00\x00\x00\x00\x00\x00\x00\x00\x00\x00\x00\x00\x00\x00\x00\x00\x00\x00\x00\x00\x00\x00\xb0}\x0eo\xdcT\xff?\xba@\xb8\x81R8\x11\xc0\x00\x00\x00\x00\x00\x00\x00\x00bM&u\xc4\xa3\xc4\xbf\xa0(R,Q|\xf1?\x00\x00\x00\x00\x00\x00\x00\x00\x02\x152\x92Gr\xe2?\x00\x00\x00\x00\x00\x00\x00\x00-\'8["\x1c\xc9\xbf\x00\x00\x00\x00\x00\x00\x00\x00VX\xe0f\x9f\x95\xf9\xbfm\x0f\xe4\xbc\xc3/\xea\xbfAA?\\\x7f\x0b\x10\xc0\xefV\xf6q\xaf^\xf4\xbf\xda\x80\xb2\x91\x0bO\xee\xbf\x00\x00\x00\x00\x00\x00\x00\x00\x00\x00\x00\x00\x00\x00\x00\x00}\x92\t\xb9]\xa7\xd4\xbfT\xaf\x96]3o\xe5\xbf\xa4a\xce\xa7\x97\xe8\x0e\xc0\x00\x00\x00\x00\x00\x00\x00\x00\xf7\xb5d\xb6\x1d5\xf1\xbf\x00\x00\x00\x00\x00\x00\x00\x00\x00\x00\x00\x00\x00\x00\x00\x00\x00\x00\x00\x00\x00\x00\x00\x00\x1cgt\xe2-q\xf5\xbf\xbf\xf6\r\x0f\xbe$\xfc\xbf\x85\xf2\x18|!\xbf\x0b\xc0bM&u\xc4\xa3\xc4\xbfI\x9c\x1f\x99\xef\xe8\xe0\xbf\x00\x00\x00\x00\x00\x00\x00\x00k0\xcaG\x1c\xb5\x00\xc0\x00\x00\x00\x00\x00\x00\x00\x00\xbf\xfb\x14\xe8\x0e(\xd3\xbf\xb3\x90\xd8\x8d\xcfF\xe3\xbfo\xa2\xdb_\x94\x86\x07\xc0\x00\x00\x00\x00\x00\x00\x00\x00\xb4\xbf\xc8\x02\xbc\xcf\xea\xbf\xaaw\xba\x0f \n\x00\xc0\x00\x00\x00\x00\x00\x00\x00\x00\x00\x00\x00\x00\x00\x00\x00\x00\n\xf1\xc28\xb8\xb4\xf5?\xa3\xda^\xd0\xdd\xc2\xf0\xbf\x00\x00\x00\x00\x00\x00\x00\x00\xb5\xb8\xe6.\x120\x03\xc0\x1c\xe9\x1e\x83E\x03\t\xc0\xf85\xb8\xc8MR\x14\xc0\x98!T\x1d\xd0\xd6\xf8\xbf\xc7\xa9f&Vm\xf0?\x08\xe3;\xed%\x05\xeb\xbf\x00\x00\x00\x00\x00\x00\x00\x00\x00\x00\x00\x00\x00\x00\x00\x00\x00\x00\x00\x00\x00\x00\x00\x00\x00\x00\x00\x00\x00\x00\x00\x00\x00\x00\x00\x00\x00\x00\x00\x00\x00\x00\x00\x00\x00\x00\x00\x00\x00\x00\x00\x00\x00\x00\x00\x00\xd3Xb\x8d\xc2\xcd\x08\xc0%F#\x0b`~\x16\xc0WWo\x94)\xbe\xe1\xbf-\'8["\x1c\xc9\xbf\x10\xfb\xcb\x11\xde\xaf\xec\xbf\x00\x00\x00\x00\x00\x00\x00\x00\x00\x00\x00\x00\x00\x00\x00\x00\x0c\xcf\x95m>\xea\x00\xc0\xff\n\xed\xb5T\x08\xf3\xbf\xad\x84k \x9b)\x02\xc0q\xf9:\xbb~p\x00\xc0z\xf1L\x19\xab\\\xf9?\x00\x00\x00\x00\x00\x00\x00\x00\xdax\xccEG\xd5\xf1?\xd0\xd9s\x19\x95\xc7\x05\xc0\xbc\x83[\xc2\xac%\xf9?\x0e\xef\xf5\xb2\x9c\x7f\x08\xc0\x00\x00\x00\x00\x00\x00\x00\x00\xc6\xf0<\xb7\xb70\xf5\xbf\xb7\x8c\x19$\x0f5\xe9\xbf\x00\x00\x00\x00\x00\x00\x00\x00\x00\x00\x00\x00\x00\x00\x00\x00\x00\x00\x00\x00\x00\x00\x00\x00'
p4901
tp4902
bsg11
F0.001
sS'intercept_'
p4903
g4824
(g4825
(I0
tp4904
g4827
tp4905
Rp4906
(I1
(I1
tp4907
g4854
I00
S'\xcf\x87\xc6\xae\xaa\x13\xf0\xbf'
p4908
tp4909
bsS'_expanded_class_weight'
p4910
g4824
(g4825
(I0
tp4911
g4827
tp4912
Rp4913
(I1
(I2
tp4914
g4854
I00
S'\x00\x00\x00\x00\x00\x00\xf0?\x00\x00\x00\x00\x00\x00\xf0?'
p4915
tp4916
bsS'warm_start'
p4917
I00
sg2
g3
sS'eta0'
p4918
F0.0
sS'l1_ratio'
p4919
F0.15
sS'average'
p4920
I00
sS'power_t'
p4921
F0.5
sbtp4922
asbsb.