(ialicized_models
CommandMatchingModel
p0
(dp1
S'loss'
p2
S'hinge'
p3
sS'grammar'
p4
NsS'name'
p5
S'GOOGLE_CALENDAR_ADD_EVENT.model'
p6
sS'n_iter'
p7
I5
sS'penalty'
p8
S'none'
p9
sS'trained'
p10
I01
sS'alpha'
p11
F0.001
sS'data'
p12
(lp13
(S'will it snow this week'
p14
S'False'
p15
tp16
a(S'please would you open my inbox'
p17
g15
tp18
a(S"what's if it's raining this week"
p19
g15
tp20
a(S'read the time'
p21
g15
tp22
a(S'add event please'
p23
S'True'
p24
tp25
a(S'can you close the active window'
p26
g15
tp27
a(S'please tell me whats going on in the news please'
p28
g15
tp29
a(S"don't i have to do anything on monday"
p30
g15
tp31
a(S'any gmail'
p32
g15
tp33
a(S'am i free'
p34
g15
tp35
a(S'read the time please'
p36
g15
tp37
a(S'add an event please'
p38
g24
tp39
a(S'go to dot org'
p40
g15
tp41
a(S'could you create new event'
p42
g24
tp43
a(S'check my calendar for this day'
p44
g15
tp45
a(S'what are the latest events '
p46
g15
tp47
a(S'will it hail today'
p48
g15
tp49
a(S'please turn off my computer'
p50
g15
tp51
a(S'is there anything i have to do on saturday'
p52
g15
tp53
a(S'is it hot this week'
p54
g15
tp55
a(S'make an event'
p56
g24
tp57
a(S'please open a browser'
p58
g15
tp59
a(S'turn the tune down'
p60
g15
tp61
a(S'turn down the volume'
p62
g15
tp63
a(S'please give me the news'
p64
g15
tp65
a(S'please check your watch'
p66
g15
tp67
a(S'can you add a new event please'
p68
g24
tp69
a(S"what're the current events"
p70
g15
tp71
a(S'will you check new mail'
p72
g15
tp73
a(S'could you check my inbox please'
p74
g15
tp75
a(S'please lock the screen'
p76
g15
tp77
a(S'please what is in my gmail'
p78
g15
tp79
a(S'could you check gmail please'
p80
g15
tp81
a(S"what's the temperature today"
p82
g15
tp83
a(S'what do i have in a week'
p84
g15
tp85
a(S'please will you open inbox'
p86
g15
tp87
a(S'do i have to do anything on thursday'
p88
g15
tp89
a(S'do i have to do anything on monday'
p90
g15
tp91
a(S'get the current events'
p92
g15
tp93
a(S'can you please shut down the computer'
p94
g15
tp95
a(S'can you please close the current window'
p96
g15
tp97
a(S'please volume higher'
p98
g15
tp99
a(S'can you check new gmail'
p100
g15
tp101
a(S'can you turn yourself off'
p102
g15
tp103
a(S'check events for tomorrow'
p104
g15
tp105
a(S'please check the clock right now'
p106
g15
tp107
a(S'turn up the sound please'
p108
g15
tp109
a(S'spotify skip ahead please'
p110
g15
tp111
a(S'what events do i have on saturday'
p112
g15
tp113
a(S'stop the tunez'
p114
g15
tp115
a(S'could you create an event'
p116
g24
tp117
a(S'bye alice'
p118
g15
tp119
a(S'what do i have on monday'
p120
g15
tp121
a(S'do i have anything in my inbox'
p122
g15
tp123
a(S'get current time'
p124
g15
tp125
a(S'spotify pause'
p126
g15
tp127
a(S'check my calendar for this month'
p128
g15
tp129
a(S'search for'
p130
g15
tp131
a(S'please read time'
p132
g15
tp133
a(S'can you please open a browser'
p134
g15
tp135
a(S'get live newsfeed'
p136
g15
tp137
a(S'could you open my inbox please'
p138
g15
tp139
a(S'could you add an event'
p140
g24
tp141
a(S'find current news'
p142
g15
tp143
a(S'what is on my calendar for saturday'
p144
g15
tp145
a(S'read time'
p146
g15
tp147
a(S"what's this week's forecast"
p148
g15
tp149
a(S'what is in my mail'
p150
g15
tp151
a(S'what events are on next'
p152
g15
tp153
a(S'please could you check my inbox'
p154
g15
tp155
a(S'could you make an event'
p156
g24
tp157
a(S'what is in my gmail'
p158
g15
tp159
a(S'please sound higher'
p160
g15
tp161
a(S"what's in my gmail please"
p162
g15
tp163
a(S"what's if it's freezing today"
p164
g15
tp165
a(S'can you please turn off'
p166
g15
tp167
a(S"what's new in new gmail please"
p168
g15
tp169
a(S'skip'
p170
g15
tp171
a(S"don't i have anything to do in a week"
p172
g15
tp173
a(S'can you turn off the computer'
p174
g15
tp175
a(S'would you check my mail please'
p176
g15
tp177
a(S'do i have anything to do next'
p178
g15
tp179
a(S'check my calendar on friday'
p180
g15
tp181
a(S'sound up please'
p182
g15
tp183
a(S'shutdown my computer please'
p184
g15
tp185
a(S'schedule a new event please'
p186
g24
tp187
a(S'please check what time it is'
p188
g15
tp189
a(S'can you unmute'
p190
g15
tp191
a(S"what's the forecast this week"
p192
g15
tp193
a(S'open default browser please'
p194
g15
tp195
a(S'what do i have on thursday'
p196
g15
tp197
a(S'please would you open my mail'
p198
g15
tp199
a(S'check my calendar for today'
p200
g15
tp201
a(S'would you check my gmail'
p202
g15
tp203
a(S"what's if it's freezing this week"
p204
g15
tp205
a(S'can you turn up the tune'
p206
g15
tp207
a(S'can you please close active window'
p208
g15
tp209
a(S'please google'
p210
g15
tp211
a(S'please go to dot com'
p212
g15
tp213
a(S'can you make new event please'
p214
g24
tp215
a(S'could you please add event'
p216
g24
tp217
a(S'find news feed'
p218
g15
tp219
a(S'last song please'
p220
g15
tp221
a(S'any new gmail'
p222
g15
tp223
a(S'what is on my calendar for this month'
p224
g15
tp225
a(S'live news feed today'
p226
g15
tp227
a(S'start a browser please'
p228
g15
tp229
a(S'would you open gmail please'
p230
g15
tp231
a(S'would you check mail'
p232
g15
tp233
a(S'skip spotify please'
p234
g15
tp235
a(S'check events for this week'
p236
g15
tp237
a(S"don't i have anything to do on"
p238
g15
tp239
a(S'is it raining today'
p240
g15
tp241
a(S'close the active window'
p242
g15
tp243
a(S'is there anything i have to do on next'
p244
g15
tp245
a(S'is there anything i have to do on thursday'
p246
g15
tp247
a(S'do i have to do anything'
p248
g15
tp249
a(S"today's temperature"
p250
g15
tp251
a(S'any new mail'
p252
g15
tp253
a(S'check calendar on saturday'
p254
g15
tp255
a(S"don't i have to do anything on friday"
p256
g15
tp257
a(S"what's in new gmail"
p258
g15
tp259
a(S'please could you check my mail'
p260
g15
tp261
a(S"what's if it's snowing this week"
p262
g15
tp263
a(S'can you schedule an event please'
p264
g24
tp265
a(S'do i have any events on saturday'
p266
g15
tp267
a(S'google search for please'
p268
g15
tp269
a(S'hey alex'
p270
g15
tp271
a(S'is there anything to do on saturday'
p272
g15
tp273
a(S'what time is it now'
p274
g15
tp275
a(S'go to dot com'
p276
g15
tp277
a(S'am i free'
p278
g15
tp279
a(S'get weather'
p280
g15
tp281
a(S"don't i have to do anything today"
p282
g15
tp283
a(S'what is new in new gmail please'
p284
g15
tp285
a(S"today's live newsfeed"
p286
g15
tp287
a(S'is it cold today'
p288
g15
tp289
a(S"what's if it's cloudy today"
p290
g15
tp291
a(S'please would you open my gmail'
p292
g15
tp293
a(S'google for please'
p294
g15
tp295
a(S'open inbox please'
p296
g15
tp297
a(S'could you make event please'
p298
g24
tp299
a(S'could you please add new event'
p300
g24
tp301
a(S'newsfeed'
p302
g15
tp303
a(S'lower the tunes please'
p304
g15
tp305
a(S'brief me'
p306
g15
tp307
a(S"this week's forecast"
p308
g15
tp309
a(S'are there any events in a month'
p310
g15
tp311
a(S'will you check gmail please'
p312
g15
tp313
a(S"don't i have anything to do on thursday"
p314
g15
tp315
a(S'check gmail'
p316
g15
tp317
a(S"don't i have any events on next"
p318
g15
tp319
a(S'tell me news feed'
p320
g15
tp321
a(S'find current events'
p322
g15
tp323
a(S'add a new event'
p324
g24
tp325
a(S'shutdown the computer'
p326
g15
tp327
a(S'could you add a new event please'
p328
g24
tp329
a(S'please search'
p330
g15
tp331
a(S"if it's cold this week"
p332
g15
tp333
a(S"if it's rainy this week"
p334
g15
tp335
a(S'can you please create a new event'
p336
g24
tp337
a(S'shut my computer down please'
p338
g15
tp339
a(S'can you turn yourself off please'
p340
g15
tp341
a(S"don't i have to do anything on tuesday"
p342
g15
tp343
a(S'tell me current news'
p344
g15
tp345
a(S'can you make it louder please'
p346
g15
tp347
a(S'do i have to do anything next'
p348
g15
tp349
a(S'open browser'
p350
g15
tp351
a(S"please what's in my mail"
p352
g15
tp353
a(S'check calendar on next'
p354
g15
tp355
a(S'can you please shut my computer down'
p356
g15
tp357
a(S'can you lock the screen'
p358
g15
tp359
a(S'please make a new event'
p360
g24
tp361
a(S'make the sound louder'
p362
g15
tp363
a(S'go back'
p364
g15
tp365
a(S'start the song'
p366
g15
tp367
a(S'can you lock computer'
p368
g15
tp369
a(S'could you schedule event'
p370
g24
tp371
a(S'what do i have to do on wednesday'
p372
g15
tp373
a(S'can you add an event'
p374
g24
tp375
a(S'what do i have on friday'
p376
g15
tp377
a(S'make new event please'
p378
g24
tp379
a(S'can you create new event'
p380
g24
tp381
a(S'open default browser'
p382
g15
tp383
a(S'please give me the current events please'
p384
g15
tp385
a(S'what events do i have on today'
p386
g15
tp387
a(S'check google calendar for this day'
p388
g15
tp389
a(S'get the time please'
p390
g15
tp391
a(S'spotify next song '
p392
g15
tp393
a(S'please what is new in my mail'
p394
g15
tp395
a(S'please spotify go '
p396
g15
tp397
a(S'what do i have to do on sunday'
p398
g15
tp399
a(S"please what's new in gmail"
p400
g15
tp401
a(S'am i free for thursday'
p402
g15
tp403
a(S'what events do i have'
p404
g15
tp405
a(S'open'
p406
g15
tp407
a(S'can you shut off'
p408
g15
tp409
a(S'can you please kill the window'
p410
g15
tp411
a(S'do i have any events on this day'
p412
g15
tp413
a(S'spotify stop'
p414
g15
tp415
a(S'can you make a new event please'
p416
g24
tp417
a(S'can you schedule a new event'
p418
g24
tp419
a(S"don't i have anything on this day"
p420
g15
tp421
a(S'check google calendar for tuesday'
p422
g15
tp423
a(S'can you please make an event'
p424
g24
tp425
a(S'please open my inbox'
p426
g15
tp427
a(S'is there anything to do on next'
p428
g15
tp429
a(S'check google calendar for today'
p430
g15
tp431
a(S'create a new event please'
p432
g24
tp433
a(S'could you check new mail'
p434
g15
tp435
a(S'mute'
p436
g15
tp437
a(S'the tale pretends'
p438
g15
tp439
a(S'please could you open gmail'
p440
g15
tp441
a(S'could you check mail please'
p442
g15
tp443
a(S'check my gmail please'
p444
g15
tp445
a(S'turn the volume to zero'
p446
g15
tp447
a(S'anything new in gmail'
p448
g15
tp449
a(S'do i have anything on sunday'
p450
g15
tp451
a(S'please get the clock'
p452
g15
tp453
a(S'please can you turn up the volume'
p454
g15
tp455
a(S'please start'
p456
g15
tp457
a(S"don't i have anything on next"
p458
g15
tp459
a(S'forecast'
p460
g15
tp461
a(S"what's the news feed"
p462
g15
tp463
a(S'what is on my calendar for monday'
p464
g15
tp465
a(S'can you create an event'
p466
g24
tp467
a(S'do i have to do anything on saturday'
p468
g15
tp469
a(S'could you make a new event'
p470
g24
tp471
a(S'debrief me'
p472
g15
tp473
a(S'please start a default browser'
p474
g15
tp475
a(S"get today's temperature"
p476
g15
tp477
a(S'add new event'
p478
g24
tp479
a(S'check the clock'
p480
g15
tp481
a(S'create event'
p482
g24
tp483
a(S'shut down the computer'
p484
g15
tp485
a(S'what do i have on this day'
p486
g15
tp487
a(S'do i have any events on wednesday'
p488
g15
tp489
a(S'could you make new event'
p490
g24
tp491
a(S'can you please turn up the sound'
p492
g15
tp493
a(S'spotify go back to the last song '
p494
g15
tp495
a(S'can you open browser please'
p496
g15
tp497
a(S'spotify skip'
p498
g15
tp499
a(S'spotify pause the song please'
p500
g15
tp501
a(S'turn up the volume please'
p502
g15
tp503
a(S'do i have any events in a week'
p504
g15
tp505
a(S'please spotify play last song'
p506
g15
tp507
a(S'okay alex'
p508
g15
tp509
a(S'can you please schedule an event'
p510
g24
tp511
a(S'could you schedule a new event'
p512
g24
tp513
a(S'what events do i have on tomorrow'
p514
g15
tp515
a(S'check events for saturday'
p516
g15
tp517
a(S'what time is it currently'
p518
g15
tp519
a(S"aren't there any events on next"
p520
g15
tp521
a(S'is there anything to do on'
p522
g15
tp523
a(S'get current temperature'
p524
g15
tp525
a(S'please what is new in new gmail'
p526
g15
tp527
a(S'please retrieve the time'
p528
g15
tp529
a(S'what do i have to do on friday'
p530
g15
tp531
a(S"what's if it's hot today"
p532
g15
tp533
a(S'bye'
p534
g15
tp535
a(S'live news feed'
p536
g15
tp537
a(S'please would you check mail'
p538
g15
tp539
a(S'please check my gmail'
p540
g15
tp541
a(S'please spotify previous'
p542
g15
tp543
a(S'any mail'
p544
g15
tp545
a(S"what's new in my mail"
p546
g15
tp547
a(S'check calendar on monday'
p548
g15
tp549
a(S'see you'
p550
g15
tp551
a(S'get news now'
p552
g15
tp553
a(S'shut off please'
p554
g15
tp555
a(S'please add an event'
p556
g24
tp557
a(S'please send me to the lock screen'
p558
g15
tp559
a(S'what events are on thursday'
p560
g15
tp561
a(S'temperature'
p562
g15
tp563
a(S"don't i have anything in a week"
p564
g15
tp565
a(S'can you schedule event'
p566
g24
tp567
a(S'is there anything to do'
p568
g15
tp569
a(S'can you please kill the current window'
p570
g15
tp571
a(S"what's in new mail please"
p572
g15
tp573
a(S'okay alice'
p574
g15
tp575
a(S'do i have anything in a month'
p576
g15
tp577
a(S'check inbox'
p578
g15
tp579
a(S'please shut my computer down'
p580
g15
tp581
a(S'check calendar for this day'
p582
g15
tp583
a(S'can you make an event'
p584
g24
tp585
a(S'could you check my mail please'
p586
g15
tp587
a(S'check events'
p588
g15
tp589
a(S'what is in new mail'
p590
g15
tp591
a(S"don't i have to do anything on next"
p592
g15
tp593
a(S'good night alice'
p594
g15
tp595
a(S'is it foggy this week'
p596
g15
tp597
a(S'would you check new mail'
p598
g15
tp599
a(S'exit please'
p600
g15
tp601
a(S'check events on saturday'
p602
g15
tp603
a(S'check google calendar on sunday'
p604
g15
tp605
a(S'do i have to do anything on tuesday'
p606
g15
tp607
a(S'what is on my calendar for wednesday'
p608
g15
tp609
a(S'please make an event'
p610
g24
tp611
a(S'open my mail please'
p612
g15
tp613
a(S'shut off'
p614
g15
tp615
a(S'please open my mail'
p616
g15
tp617
a(S"this week's temperature"
p618
g15
tp619
a(S'please turn it up'
p620
g15
tp621
a(S'check google calendar on tomorrow'
p622
g15
tp623
a(S'do i have any events on today'
p624
g15
tp625
a(S'can you unmute please'
p626
g15
tp627
a(S'will you open my inbox'
p628
g15
tp629
a(S'kill this window'
p630
g15
tp631
a(S'please can you check mail'
p632
g15
tp633
a(S'can you exit'
p634
g15
tp635
a(S"how's the forecast today"
p636
g15
tp637
a(S'start'
p638
g15
tp639
a(S'please start browser'
p640
g15
tp641
a(S'can you create event please'
p642
g24
tp643
a(S"what's in gmail"
p644
g15
tp645
a(S'would you check inbox please'
p646
g15
tp647
a(S'please check new gmail'
p648
g15
tp649
a(S'what do i have on tuesday'
p650
g15
tp651
a(S'please spotify pause'
p652
g15
tp653
a(S'please start default browser'
p654
g15
tp655
a(S"what's the temperature this week"
p656
g15
tp657
a(S'is it cloudy this week'
p658
g15
tp659
a(S'tell me live news'
p660
g15
tp661
a(S"get if it's snowing today"
p662
g15
tp663
a(S'can you turn off'
p664
g15
tp665
a(S'please google search for'
p666
g15
tp667
a(S'news'
p668
g15
tp669
a(S'can you add event'
p670
g24
tp671
a(S'get the current time'
p672
g15
tp673
a(S"don't i have anything on"
p674
g15
tp675
a(S'turn up the beat please'
p676
g15
tp677
a(S'can you add event please'
p678
g24
tp679
a(S'please what is in new gmail'
p680
g15
tp681
a(S'please retrieve the current time'
p682
g15
tp683
a(S"don't i have anything to do on next"
p684
g15
tp685
a(S'please read the time'
p686
g15
tp687
a(S'lower the tunez please'
p688
g15
tp689
a(S'can you schedule an event'
p690
g24
tp691
a(S'can you please shutdown the computer'
p692
g15
tp693
a(S'make a new event'
p694
g24
tp695
a(S'please kill the current window'
p696
g15
tp697
a(S"what's if it's cold today"
p698
g15
tp699
a(S'can you turn off my computer'
p700
g15
tp701
a(S'can you please kill active window'
p702
g15
tp703
a(S"what're the news feed"
p704
g15
tp705
a(S'can you create an event please'
p706
g24
tp707
a(S'do i have anything on'
p708
g15
tp709
a(S"what's the temperature"
p710
g15
tp711
a(S'go to dot edu'
p712
g15
tp713
a(S'check google calendar on'
p714
g15
tp715
a(S'check events on monday'
p716
g15
tp717
a(S'any events on sunday'
p718
g15
tp719
a(S'live newsfeed'
p720
g15
tp721
a(S'please kill this window'
p722
g15
tp723
a(S"please what's in my gmail"
p724
g15
tp725
a(S'open my gmail please'
p726
g15
tp727
a(S'is there anything i have to do on monday'
p728
g15
tp729
a(S'are there any events on monday'
p730
g15
tp731
a(S'what time is it'
p732
g15
tp733
a(S'could you open my mail please'
p734
g15
tp735
a(S'can you please close current window'
p736
g15
tp737
a(S'will you check my gmail'
p738
g15
tp739
a(S"what's the current news"
p740
g15
tp741
a(S'turn yourself off please'
p742
g15
tp743
a(S'give me intel'
p744
g15
tp745
a(S'current forecast'
p746
g15
tp747
a(S'is there anything i have to do today'
p748
g15
tp749
a(S'check events for tuesday'
p750
g15
tp751
a(S'anything in my inbox'
p752
g15
tp753
a(S'please what is new in gmail'
p754
g15
tp755
a(S'check my calendar on monday'
p756
g15
tp757
a(S'turn down the sound'
p758
g15
tp759
a(S'please will you open my gmail'
p760
g15
tp761
a(S'can you schedule event please'
p762
g24
tp763
a(S'check calendar on this day'
p764
g15
tp765
a(S'check google calendar for saturday'
p766
g15
tp767
a(S'go ahead'
p768
g15
tp769
a(S'what events do i have on tuesday'
p770
g15
tp771
a(S'lower the volume'
p772
g15
tp773
a(S'check mail please'
p774
g15
tp775
a(S'open dot com'
p776
g15
tp777
a(S'please create a new event'
p778
g24
tp779
a(S"how's the weather"
p780
g15
tp781
a(S"don't i have any events on monday"
p782
g15
tp783
a(S"aren't there any events"
p784
g15
tp785
a(S"today's temperature"
p786
g15
tp787
a(S'check my calendar for monday'
p788
g15
tp789
a(S"aren't there any events on monday"
p790
g15
tp791
a(S'live newsfeed today'
p792
g15
tp793
a(S'am i free on next'
p794
g15
tp795
a(S'can you open a browser'
p796
g15
tp797
a(S'is there anything to do on tuesday'
p798
g15
tp799
a(S'check google calendar for this day'
p800
g15
tp801
a(S'please will you open my mail'
p802
g15
tp803
a(S'shutdown please'
p804
g15
tp805
a(S'find headlines'
p806
g15
tp807
a(S'check my calendar for wednesday'
p808
g15
tp809
a(S'please pause the song'
p810
g15
tp811
a(S'can you check mail'
p812
g15
tp813
a(S'please will you check inbox'
p814
g15
tp815
a(S'pause please'
p816
g15
tp817
a(S'check events on sunday'
p818
g15
tp819
a(S'play the song before'
p820
g15
tp821
a(S'please stop song'
p822
g15
tp823
a(S'spotify play last song please'
p824
g15
tp825
a(S'tell me news'
p826
g15
tp827
a(S'stop the song'
p828
g15
tp829
a(S'am i free on sunday'
p830
g15
tp831
a(S'is there anything i have to do in a week'
p832
g15
tp833
a(S'check my calendar on wednesday'
p834
g15
tp835
a(S'start a browser'
p836
g15
tp837
a(S"don't i have to do anything"
p838
g15
tp839
a(S'what is on my calendar for this week'
p840
g15
tp841
a(S'do i have anything on this day'
p842
g15
tp843
a(S'check calendar on this week'
p844
g15
tp845
a(S"don't i have to do anything on"
p846
g15
tp847
a(S'check calendar for friday'
p848
g15
tp849
a(S'gather information on'
p850
g15
tp851
a(S"get if it's foggy today"
p852
g15
tp853
a(S'can you turn the volume higher please'
p854
g15
tp855
a(S'shut down my computer'
p856
g15
tp857
a(S'please open my gmail'
p858
g15
tp859
a(S'what are the current events'
p860
g15
tp861
a(S'can you turn my computer off'
p862
g15
tp863
a(S"what's if it's foggy today"
p864
g15
tp865
a(S'will you get the current headlines'
p866
g15
tp867
a(S"don't i have to do anything on sunday"
p868
g15
tp869
a(S'what is new in gmail please'
p870
g15
tp871
a(S"if it's foggy today"
p872
g15
tp873
a(S'current events'
p874
g15
tp875
a(S'will you check my gmail please'
p876
g15
tp877
a(S'check google calendar for monday'
p878
g15
tp879
a(S'check inbox please'
p880
g15
tp881
a(S"please what's new in my mail"
p882
g15
tp883
a(S'please add new event'
p884
g24
tp885
a(S"don't i have anything to do in a month"
p886
g15
tp887
a(S'is it freezing this week'
p888
g15
tp889
a(S'turn the beat down please'
p890
g15
tp891
a(S'do i have anything on thursday'
p892
g15
tp893
a(S'what is newsfeed'
p894
g15
tp895
a(S'check calendar for tuesday'
p896
g15
tp897
a(S'would you open inbox'
p898
g15
tp899
a(S'could you schedule an event please'
p900
g24
tp901
a(S'please add a new event'
p902
g24
tp903
a(S'please will you check my inbox'
p904
g15
tp905
a(S'can you make event'
p906
g24
tp907
a(S'please get the current time'
p908
g15
tp909
a(S'would you check inbox'
p910
g15
tp911
a(S'will you check my inbox'
p912
g15
tp913
a(S"don't i have to do anything on next"
p914
g15
tp915
a(S"what's the headlines"
p916
g15
tp917
a(S'close active window'
p918
g15
tp919
a(S'please add event'
p920
g24
tp921
a(S'what do i have to do on thursday'
p922
g15
tp923
a(S'are there any events'
p924
g15
tp925
a(S'are there any events on tomorrow'
p926
g15
tp927
a(S'intel'
p928
g15
tp929
a(S'play song'
p930
g15
tp931
a(S'turn up the tune'
p932
g15
tp933
a(S'please will you check new gmail'
p934
g15
tp935
a(S'is it rainy today'
p936
g15
tp937
a(S'please what is new in my gmail'
p938
g15
tp939
a(S'could you open mail please'
p940
g15
tp941
a(S'open my gmail'
p942
g15
tp943
a(S'check my calendar for sunday'
p944
g15
tp945
a(S'can you quit'
p946
g15
tp947
a(S'open mail please'
p948
g15
tp949
a(S'will you open my gmail please'
p950
g15
tp951
a(S'get the clock'
p952
g15
tp953
a(S'can you please kill the active window'
p954
g15
tp955
a(S"don't i have anything to do on wednesday"
p956
g15
tp957
a(S'shutdown the computer please'
p958
g15
tp959
a(S'check google calendar on this day'
p960
g15
tp961
a(S'please check new mail'
p962
g15
tp963
a(S"don't i have to do anything on saturday"
p964
g15
tp965
a(S"if it's freezing today"
p966
g15
tp967
a(S'go to dot gov'
p968
g15
tp969
a(S'can you please schedule new event'
p970
g24
tp971
a(S'please check the clock'
p972
g15
tp973
a(S'check calendar on thursday'
p974
g15
tp975
a(S"get if it's cold this week"
p976
g15
tp977
a(S'open my inbox please'
p978
g15
tp979
a(S"don't i have anything to do on saturday"
p980
g15
tp981
a(S'please will you check new mail'
p982
g15
tp983
a(S'please spotify start the song'
p984
g15
tp985
a(S'lock computer please'
p986
g15
tp987
a(S'would you check my inbox'
p988
g15
tp989
a(S'is it snowing today'
p990
g15
tp991
a(S"get if it's snowing this week"
p992
g15
tp993
a(S'check events for friday'
p994
g15
tp995
a(S'is there anything i have to do'
p996
g15
tp997
a(S"please what's in inbox"
p998
g15
tp999
a(S'please would you check gmail'
p1000
g15
tp1001
a(S'what are the current events today'
p1002
g15
tp1003
a(S'is it hot today'
p1004
g15
tp1005
a(S'turn off my computer please'
p1006
g15
tp1007
a(S'please close this window'
p1008
g15
tp1009
a(S'check my calendar on sunday'
p1010
g15
tp1011
a(S"don't i have to do anything tomorrow"
p1012
g15
tp1013
a(S'check your watch please'
p1014
g15
tp1015
a(S'can you please add a new event'
p1016
g24
tp1017
a(S'what is in gmail please'
p1018
g15
tp1019
a(S'am i free for monday'
p1020
g15
tp1021
a(S'what is going on in the world today'
p1022
g15
tp1023
a(S'please could you check new mail'
p1024
g15
tp1025
a(S'check events on tomorrow'
p1026
g15
tp1027
a(S'please create event'
p1028
g24
tp1029
a(S'send me to the lock screen please'
p1030
g15
tp1031
a(S'am i free for'
p1032
g15
tp1033
a(S'google for'
p1034
g15
tp1035
a(S'do i have any events on next'
p1036
g15
tp1037
a(S'can you please close this window'
p1038
g15
tp1039
a(S'fake news'
p1040
g15
tp1041
a(S'turn it off'
p1042
g15
tp1043
a(S'could you check my gmail'
p1044
g15
tp1045
a(S'find the current events'
p1046
g15
tp1047
a(S'turn the sound down please'
p1048
g15
tp1049
a(S'close the current window'
p1050
g15
tp1051
a(S"please what's in new gmail"
p1052
g15
tp1053
a(S'what is on my calendar for tuesday'
p1054
g15
tp1055
a(S'please would you check my mail'
p1056
g15
tp1057
a(S'open a default browser'
p1058
g15
tp1059
a(S'can you please add event'
p1060
g24
tp1061
a(S'open browser please'
p1062
g15
tp1063
a(S'can you please make new event'
p1064
g24
tp1065
a(S'check calendar on today'
p1066
g15
tp1067
a(S'check my calendar on saturday'
p1068
g15
tp1069
a(S'could you make event'
p1070
g24
tp1071
a(S'volume up'
p1072
g15
tp1073
a(S'current temperature'
p1074
g15
tp1075
a(S'please make event'
p1076
g24
tp1077
a(S'check calendar for tomorrow'
p1078
g15
tp1079
a(S'can you please make a new event'
p1080
g24
tp1081
a(S'please can you check new mail'
p1082
g15
tp1083
a(S'give me the current events'
p1084
g15
tp1085
a(S"today's newsfeed"
p1086
g15
tp1087
a(S"how's the weather today"
p1088
g15
tp1089
a(S'check calendar for thursday'
p1090
g15
tp1091
a(S'sound higher please'
p1092
g15
tp1093
a(S'is it raining this week'
p1094
g15
tp1095
a(S'check calendar on tuesday'
p1096
g15
tp1097
a(S"please what's in new mail"
p1098
g15
tp1099
a(S'do i have anything on tuesday'
p1100
g15
tp1101
a(S'am i free for friday'
p1102
g15
tp1103
a(S'please shutdown'
p1104
g15
tp1105
a(S'check the clock right now please'
p1106
g15
tp1107
a(S'go back please'
p1108
g15
tp1109
a(S'do i have anything on next'
p1110
g15
tp1111
a(S'what events do i have in a month'
p1112
g15
tp1113
a(S'please can you check inbox'
p1114
g15
tp1115
a(S'do i have anything to do in a month'
p1116
g15
tp1117
a(S'schedule event'
p1118
g24
tp1119
a(S'please start a browser'
p1120
g15
tp1121
a(S"how's the temperature this week"
p1122
g15
tp1123
a(S'check google calendar on saturday'
p1124
g15
tp1125
a(S'please open browser'
p1126
g15
tp1127
a(S'kill the active program'
p1128
g15
tp1129
a(S"what's today's forecast"
p1130
g15
tp1131
a(S'when is it please'
p1132
g15
tp1133
a(S"if it's raining this week"
p1134
g15
tp1135
a(S'can you turn up the tunez'
p1136
g15
tp1137
a(S'next song'
p1138
g15
tp1139
a(S'could you schedule new event please'
p1140
g24
tp1141
a(S'open dot net'
p1142
g15
tp1143
a(S"today's news feed"
p1144
g15
tp1145
a(S'what is on my calendar for this day'
p1146
g15
tp1147
a(S'can you please turn my computer off'
p1148
g15
tp1149
a(S'can you shut off my computer'
p1150
g15
tp1151
a(S"please what's new in my inbox"
p1152
g15
tp1153
a(S'is there anything to do today'
p1154
g15
tp1155
a(S'any events on wednesday'
p1156
g15
tp1157
a(S'start browser please'
p1158
g15
tp1159
a(S'can you check new mail please'
p1160
g15
tp1161
a(S'is there anything i have to do on wednesday'
p1162
g15
tp1163
a(S'get me the news todays'
p1164
g15
tp1165
a(S'search'
p1166
g15
tp1167
a(S'please louder'
p1168
g15
tp1169
a(S'check the clock please'
p1170
g15
tp1171
a(S'go back to the last song '
p1172
g15
tp1173
a(S'what are the headlines'
p1174
g15
tp1175
a(S'please schedule new event'
p1176
g24
tp1177
a(S'turn up the volume'
p1178
g15
tp1179
a(S'pause the song please'
p1180
g15
tp1181
a(S'could you schedule new event'
p1182
g24
tp1183
a(S'please close active window'
p1184
g15
tp1185
a(S'will you open mail please'
p1186
g15
tp1187
a(S'please check my inbox'
p1188
g15
tp1189
a(S'find newsfeed'
p1190
g15
tp1191
a(S'get clock please'
p1192
g15
tp1193
a(S'please get time'
p1194
g15
tp1195
a(S'could you schedule event please'
p1196
g24
tp1197
a(S'alice next please'
p1198
g15
tp1199
a(S'what do i have to do on tuesday'
p1200
g15
tp1201
a(S'could you open gmail'
p1202
g15
tp1203
a(S"what's in mail"
p1204
g15
tp1205
a(S'what do i have to do on monday'
p1206
g15
tp1207
a(S"if it's foggy this week"
p1208
g15
tp1209
a(S'please can you check my gmail'
p1210
g15
tp1211
a(S'can you check my mail'
p1212
g15
tp1213
a(S'start browsing please'
p1214
g15
tp1215
a(S'can you mute'
p1216
g15
tp1217
a(S'please could you check inbox'
p1218
g15
tp1219
a(S'any events on today'
p1220
g15
tp1221
a(S'do i have anything to do on friday'
p1222
g15
tp1223
a(S'will it hail this week'
p1224
g15
tp1225
a(S'add a new event please'
p1226
g24
tp1227
a(S'open my inbox'
p1228
g15
tp1229
a(S'turn it down'
p1230
g15
tp1231
a(S'add an event'
p1232
g24
tp1233
a(S'google please'
p1234
g15
tp1235
a(S'spotify go please'
p1236
g15
tp1237
a(S'get the information'
p1238
g15
tp1239
a(S'spotify go to the last song'
p1240
g15
tp1241
a(S'what events are in a week'
p1242
g15
tp1243
a(S"don't i have to do anything on friday"
p1244
g15
tp1245
a(S'am i free today'
p1246
g15
tp1247
a(S"don't i have anything on monday"
p1248
g15
tp1249
a(S'gimme the news'
p1250
g15
tp1251
a(S'can you please turn the sound down'
p1252
g15
tp1253
a(S'could you open my gmail please'
p1254
g15
tp1255
a(S'please what is new in mail'
p1256
g15
tp1257
a(S'search for please'
p1258
g15
tp1259
a(S'what events do i have on sunday'
p1260
g15
tp1261
a(S'could you please make event'
p1262
g24
tp1263
a(S'make the volume softer'
p1264
g15
tp1265
a(S"don't i have to do anything in a week"
p1266
g15
tp1267
a(S"what's the clock"
p1268
g15
tp1269
a(S'do i have to do anything on next'
p1270
g15
tp1271
a(S'do i have any events on tuesday'
p1272
g15
tp1273
a(S'please start spotify'
p1274
g15
tp1275
a(S'do i have any events'
p1276
g15
tp1277
a(S'can you get the current events'
p1278
g15
tp1279
a(S'would you open gmail'
p1280
g15
tp1281
a(S'check my calendar for tuesday'
p1282
g15
tp1283
a(S'do i have to do anything in a week'
p1284
g15
tp1285
a(S'do i have anything to do on thursday'
p1286
g15
tp1287
a(S'do i have to do anything tomorrow'
p1288
g15
tp1289
a(S'would you check my mail'
p1290
g15
tp1291
a(S'please shutdown my computer'
p1292
g15
tp1293
a(S'could you open gmail please'
p1294
g15
tp1295
a(S'any events in a week'
p1296
g15
tp1297
a(S'make event'
p1298
g24
tp1299
a(S'anything in inbox'
p1300
g15
tp1301
a(S'please check the current time'
p1302
g15
tp1303
a(S'shut off my computer please'
p1304
g15
tp1305
a(S'tell me headlines'
p1306
g15
tp1307
a(S'gather information on todays current events please'
p1308
g15
tp1309
a(S'what is on my calendar for sunday'
p1310
g15
tp1311
a(S'check events on this day'
p1312
g15
tp1313
a(S'please can you check my inbox'
p1314
g15
tp1315
a(S'check the current time please'
p1316
g15
tp1317
a(S'will you check new gmail please'
p1318
g15
tp1319
a(S'is there anything i have to do on sunday'
p1320
g15
tp1321
a(S"what's the forecast today"
p1322
g15
tp1323
a(S'bye bye'
p1324
g15
tp1325
a(S'what is in my inbox'
p1326
g15
tp1327
a(S"what's in new gmail please"
p1328
g15
tp1329
a(S'what are the live news'
p1330
g15
tp1331
a(S"what's the news"
p1332
g15
tp1333
a(S'what is in mail please'
p1334
g15
tp1335
a(S'do i have anything on friday'
p1336
g15
tp1337
a(S'can you please create event'
p1338
g24
tp1339
a(S'am i free on wednesday'
p1340
g15
tp1341
a(S'can you please close the active window'
p1342
g15
tp1343
a(S'is it snowing this week'
p1344
g15
tp1345
a(S'what is news feed'
p1346
g15
tp1347
a(S'can you shutdown the computer'
p1348
g15
tp1349
a(S'google search'
p1350
g15
tp1351
a(S'can you please shutdown my computer'
p1352
g15
tp1353
a(S'do i have any events on friday'
p1354
g15
tp1355
a(S'please what is in inbox'
p1356
g15
tp1357
a(S'am i free on'
p1358
g15
tp1359
a(S'what do i have to do in a week'
p1360
g15
tp1361
a(S'predict the outcome on a new document'
p1362
g15
tp1363
a(S"if it's cold today"
p1364
g15
tp1365
a(S'spotify skip ahead'
p1366
g15
tp1367
a(S'please check inbox'
p1368
g15
tp1369
a(S"if it's cloudy this week"
p1370
g15
tp1371
a(S'please search for'
p1372
g15
tp1373
a(S"this week's temperature"
p1374
g15
tp1375
a(S'get news'
p1376
g15
tp1377
a(S'check new mail'
p1378
g15
tp1379
a(S'any events'
p1380
g15
tp1381
a(S'check google calendar for tomorrow'
p1382
g15
tp1383
a(S'please would you check new mail'
p1384
g15
tp1385
a(S'retrieve the time please'
p1386
g15
tp1387
a(S'please go to'
p1388
g15
tp1389
a(S"get if it's hot today"
p1390
g15
tp1391
a(S'what time is it right now'
p1392
g15
tp1393
a(S'make an event please'
p1394
g24
tp1395
a(S'kill window'
p1396
g15
tp1397
a(S'how is the temperature'
p1398
g15
tp1399
a(S'decrease the volume'
p1400
g15
tp1401
a(S'do i have any events on sunday'
p1402
g15
tp1403
a(S'get news feed'
p1404
g15
tp1405
a(S'can you turn the tune down'
p1406
g15
tp1407
a(S'is there anything to do on tomorrow'
p1408
g15
tp1409
a(S'close this window'
p1410
g15
tp1411
a(S'turn up the beat'
p1412
g15
tp1413
a(S"don't i have anything to do"
p1414
g15
tp1415
a(S'could you please create event'
p1416
g24
tp1417
a(S"today's live news feed"
p1418
g15
tp1419
a(S'check my calendar on tuesday'
p1420
g15
tp1421
a(S'time please'
p1422
g15
tp1423
a(S"what's this week's temperature"
p1424
g15
tp1425
a(S'current news'
p1426
g15
tp1427
a(S"what's new in gmail please"
p1428
g15
tp1429
a(S"what's in my inbox"
p1430
g15
tp1431
a(S"what's the weather this week"
p1432
g15
tp1433
a(S"what's if it's cold this week"
p1434
g15
tp1435
a(S'google'
p1436
g15
tp1437
a(S'can you create a new event please'
p1438
g24
tp1439
a(S"don't i have anything to do on tuesday"
p1440
g15
tp1441
a(S'pause spotify'
p1442
g15
tp1443
a(S"what's the forecast"
p1444
g15
tp1445
a(S'please what is new in inbox'
p1446
g15
tp1447
a(S'check my calendar on this week'
p1448
g15
tp1449
a(S"don't i have any events in a week"
p1450
g15
tp1451
a(S'could you check my gmail please'
p1452
g15
tp1453
a(S'please spotify pause'
p1454
g15
tp1455
a(S'louder please'
p1456
g15
tp1457
a(S"please what's in gmail"
p1458
g15
tp1459
a(S'make the sound softer'
p1460
g15
tp1461
a(S'will you check my mail please'
p1462
g15
tp1463
a(S'will you open gmail please'
p1464
g15
tp1465
a(S'what is new in my gmail'
p1466
g15
tp1467
a(S"what're the live news"
p1468
g15
tp1469
a(S'will you get the headlines'
p1470
g15
tp1471
a(S"don't i have anything on thursday"
p1472
g15
tp1473
a(S'read the clock please'
p1474
g15
tp1475
a(S'make the volume zero'
p1476
g15
tp1477
a(S'will you check mail'
p1478
g15
tp1479
a(S'what is new in inbox'
p1480
g15
tp1481
a(S'are there any events in a week'
p1482
g15
tp1483
a(S'increase the volume'
p1484
g15
tp1485
a(S'go to'
p1486
g15
tp1487
a(S'will you open my inbox please'
p1488
g15
tp1489
a(S'what events are on monday'
p1490
g15
tp1491
a(S'turn my computer off please'
p1492
g15
tp1493
a(S'please kill active window'
p1494
g15
tp1495
a(S'are there any events on'
p1496
g15
tp1497
a(S'could you check mail'
p1498
g15
tp1499
a(S'please make new event'
p1500
g24
tp1501
a(S'please schedule an event'
p1502
g24
tp1503
a(S"this week's weather"
p1504
g15
tp1505
a(S'can you please create an event'
p1506
g24
tp1507
a(S'shutdown'
p1508
g15
tp1509
a(S"what's this week's weather"
p1510
g15
tp1511
a(S"what's in my mail"
p1512
g15
tp1513
a(S'give me the news'
p1514
g15
tp1515
a(S'please kill the window'
p1516
g15
tp1517
a(S'turn up the tunez'
p1518
g15
tp1519
a(S'please sound up'
p1520
g15
tp1521
a(S'get current events'
p1522
g15
tp1523
a(S'check my inbox'
p1524
g15
tp1525
a(S'could you open my mail'
p1526
g15
tp1527
a(S'get current news'
p1528
g15
tp1529
a(S'lock my computer'
p1530
g15
tp1531
a(S'can you please add an event'
p1532
g24
tp1533
a(S"please what's new in my gmail"
p1534
g15
tp1535
a(S'any events on next'
p1536
g15
tp1537
a(S'what do i have on'
p1538
g15
tp1539
a(S'could you schedule an event'
p1540
g24
tp1541
a(S'close current window'
p1542
g15
tp1543
a(S'get current weather'
p1544
g15
tp1545
a(S'kill the noise'
p1546
g15
tp1547
a(S'can you kill the current window'
p1548
g15
tp1549
a(S'briefing'
p1550
g15
tp1551
a(S'turn up the sound'
p1552
g15
tp1553
a(S'spotify start please'
p1554
g15
tp1555
a(S'what do i have on saturday'
p1556
g15
tp1557
a(S'retrieve the time'
p1558
g15
tp1559
a(S'please shut off my computer'
p1560
g15
tp1561
a(S'anything in my mail'
p1562
g15
tp1563
a(S'check google calendar on this week'
p1564
g15
tp1565
a(S'are there any events on tuesday'
p1566
g15
tp1567
a(S'will you check gmail'
p1568
g15
tp1569
a(S'check events for this day'
p1570
g15
tp1571
a(S"don't i have anything on tuesday"
p1572
g15
tp1573
a(S"what's if it's snowing today"
p1574
g15
tp1575
a(S'is it foggy today'
p1576
g15
tp1577
a(S"please what's new in new mail"
p1578
g15
tp1579
a(S'what is new in new mail'
p1580
g15
tp1581
a(S'current events today'
p1582
g15
tp1583
a(S'will it snow today'
p1584
g15
tp1585
a(S'spotify previous please'
p1586
g15
tp1587
a(S'can you turn up the volume please'
p1588
g15
tp1589
a(S'shut off my computer'
p1590
g15
tp1591
a(S'what is new in my inbox'
p1592
g15
tp1593
a(S'please last song'
p1594
g15
tp1595
a(S'get me the clock please'
p1596
g15
tp1597
a(S'what is new in my inbox please'
p1598
g15
tp1599
a(S"get today's weather"
p1600
g15
tp1601
a(S'can you shut down'
p1602
g15
tp1603
a(S'can you send me to the lock screen'
p1604
g15
tp1605
a(S'bye bye alice'
p1606
g15
tp1607
a(S'is there anything i have to do on'
p1608
g15
tp1609
a(S"get if it's freezing this week"
p1610
g15
tp1611
a(S'check google calendar for thursday'
p1612
g15
tp1613
a(S'create a new event'
p1614
g24
tp1615
a(S"how's the temperature today"
p1616
g15
tp1617
a(S'do i have anything in a week'
p1618
g15
tp1619
a(S'will you check my mail'
p1620
g15
tp1621
a(S'please spotify last song'
p1622
g15
tp1623
a(S'get clock'
p1624
g15
tp1625
a(S'check my calendar for tomorrow'
p1626
g15
tp1627
a(S'check calendar for'
p1628
g15
tp1629
a(S'can you please add new event'
p1630
g24
tp1631
a(S"get if it's cloudy this week"
p1632
g15
tp1633
a(S"don't i have to do anything on this day"
p1634
g15
tp1635
a(S"what's in new mail"
p1636
g15
tp1637
a(S'please shutdown the computer'
p1638
g15
tp1639
a(S'could you create a new event'
p1640
g24
tp1641
a(S'put me on the lock screen'
p1642
g15
tp1643
a(S"what's new in mail please"
p1644
g15
tp1645
a(S'can you turn up the sound'
p1646
g15
tp1647
a(S'am i free on saturday'
p1648
g15
tp1649
a(S"don't i have anything"
p1650
g15
tp1651
a(S'what do i have'
p1652
g15
tp1653
a(S'lock the screen'
p1654
g15
tp1655
a(S'can you create a new event'
p1656
g24
tp1657
a(S"aren't there any events on tuesday"
p1658
g15
tp1659
a(S'please shut down my computer'
p1660
g15
tp1661
a(S'create an event'
p1662
g24
tp1663
a(S'do i have anything to do on next'
p1664
g15
tp1665
a(S'what events are on sunday'
p1666
g15
tp1667
a(S'close window'
p1668
g15
tp1669
a(S'am i free for saturday'
p1670
g15
tp1671
a(S"aren't there any events on thursday"
p1672
g15
tp1673
a(S'retrieve what time it is'
p1674
g15
tp1675
a(S'what is in inbox please'
p1676
g15
tp1677
a(S'can you schedule a new event please'
p1678
g24
tp1679
a(S'please google search'
p1680
g15
tp1681
a(S'please could you check gmail'
p1682
g15
tp1683
a(S'start spotify please'
p1684
g15
tp1685
a(S'please spotify play previous song'
p1686
g15
tp1687
a(S'what do i have on wednesday'
p1688
g15
tp1689
a(S'what is new in mail please'
p1690
g15
tp1691
a(S'please could you check my gmail'
p1692
g15
tp1693
a(S'read the clock'
p1694
g15
tp1695
a(S'is there anything to do on friday'
p1696
g15
tp1697
a(S'please search google'
p1698
g15
tp1699
a(S"don't i have any events on thursday"
p1700
g15
tp1701
a(S'turn my computer off'
p1702
g15
tp1703
a(S"aren't there any events on friday"
p1704
g15
tp1705
a(S"don't i have to do anything on"
p1706
g15
tp1707
a(S'am i free for wednesday'
p1708
g15
tp1709
a(S'search google please'
p1710
g15
tp1711
a(S'schedule an event'
p1712
g24
tp1713
a(S'emergency shutdown'
p1714
g15
tp1715
a(S'would you open inbox please'
p1716
g15
tp1717
a(S'what is in my mail please'
p1718
g15
tp1719
a(S'can you kill this window'
p1720
g15
tp1721
a(S'what do i have to do on'
p1722
g15
tp1723
a(S'is there anything to do on wednesday'
p1724
g15
tp1725
a(S'read your watch'
p1726
g15
tp1727
a(S'what events are going on right now'
p1728
g15
tp1729
a(S'can you please mute'
p1730
g15
tp1731
a(S'check google calendar for this month'
p1732
g15
tp1733
a(S"how's the temperature"
p1734
g15
tp1735
a(S'can you add new event'
p1736
g24
tp1737
a(S'start song'
p1738
g15
tp1739
a(S'spotify go ahead'
p1740
g15
tp1741
a(S'tell me live news feed'
p1742
g15
tp1743
a(S'is there anything to do on today'
p1744
g15
tp1745
a(S'please will you open gmail'
p1746
g15
tp1747
a(S"what's today's weather"
p1748
g15
tp1749
a(S'schedule an event please'
p1750
g24
tp1751
a(S'do i have to do anything on sunday'
p1752
g15
tp1753
a(S'what do i have on tomorrow'
p1754
g15
tp1755
a(S'check calendar on friday'
p1756
g15
tp1757
a(S'check my gmail'
p1758
g15
tp1759
a(S'give me the news please'
p1760
g15
tp1761
a(S'check my mail'
p1762
g15
tp1763
a(S"don't i have anything to do tomorrow"
p1764
g15
tp1765
a(S'put me on the lock screen please'
p1766
g15
tp1767
a(S'what are the the news'
p1768
g15
tp1769
a(S"don't i have to do anything on thursday"
p1770
g15
tp1771
a(S'please read your watch'
p1772
g15
tp1773
a(S"what's the weather"
p1774
g15
tp1775
a(S'see ya'
p1776
g15
tp1777
a(S"today's news"
p1778
g15
tp1779
a(S'will it rain this week'
p1780
g15
tp1781
a(S'can you check gmail'
p1782
g15
tp1783
a(S'do i have anything to do on this day'
p1784
g15
tp1785
a(S'can you please shut down'
p1786
g15
tp1787
a(S'please would you check my gmail'
p1788
g15
tp1789
a(S'whats going on in the world todays please'
p1790
g15
tp1791
a(S'news feed'
p1792
g15
tp1793
a(S"what's if it's cloudy this week"
p1794
g15
tp1795
a(S'spotify next'
p1796
g15
tp1797
a(S'could you add new event please'
p1798
g24
tp1799
a(S"don't i have any events on friday"
p1800
g15
tp1801
a(S'check my inbox please'
p1802
g15
tp1803
a(S'kill current window'
p1804
g15
tp1805
a(S'find news'
p1806
g15
tp1807
a(S'would you open mail'
p1808
g15
tp1809
a(S"aren't there any events on wednesday"
p1810
g15
tp1811
a(S'open dot ee dee you'
p1812
g15
tp1813
a(S'is there anything to do in a week'
p1814
g15
tp1815
a(S'please lock computer'
p1816
g15
tp1817
a(S'shut the fuck up'
p1818
g15
tp1819
a(S'get the current time please'
p1820
g15
tp1821
a(S'spotify play the last song'
p1822
g15
tp1823
a(S'any events on thursday'
p1824
g15
tp1825
a(S'could you please schedule a new event'
p1826
g24
tp1827
a(S'please schedule a new event'
p1828
g24
tp1829
a(S'can you please create new event'
p1830
g24
tp1831
a(S'please get clock'
p1832
g15
tp1833
a(S'please will you check my gmail'
p1834
g15
tp1835
a(S"don't i have anything in a month"
p1836
g15
tp1837
a(S'would you open my mail please'
p1838
g15
tp1839
a(S'turn it down'
p1840
g15
tp1841
a(S"don't i have to do anything on wednesday"
p1842
g15
tp1843
a(S'spotify pause please'
p1844
g15
tp1845
a(S'good bye'
p1846
g15
tp1847
a(S'can you shut down my computer'
p1848
g15
tp1849
a(S'search google for'
p1850
g15
tp1851
a(S'tell me the news'
p1852
g15
tp1853
a(S'please be quiet'
p1854
g15
tp1855
a(S'could you add a new event'
p1856
g24
tp1857
a(S'please could you open my mail'
p1858
g15
tp1859
a(S'what events are'
p1860
g15
tp1861
a(S'can you get the latest headlines'
p1862
g15
tp1863
a(S'lock the screen please'
p1864
g15
tp1865
a(S"don't i have any events on tuesday"
p1866
g15
tp1867
a(S"get if it's foggy this week"
p1868
g15
tp1869
a(S'what is in my gmail please'
p1870
g15
tp1871
a(S'hey alice'
p1872
g15
tp1873
a(S'what is on my calendar for thursday'
p1874
g15
tp1875
a(S'what events do i have on'
p1876
g15
tp1877
a(S'what is on my calendar'
p1878
g15
tp1879
a(S'check events on'
p1880
g15
tp1881
a(S'check gmail please'
p1882
g15
tp1883
a(S'what is on my calendar for next'
p1884
g15
tp1885
a(S'shut down my computer please'
p1886
g15
tp1887
a(S'start default browser'
p1888
g15
tp1889
a(S"don't i have any events on tomorrow"
p1890
g15
tp1891
a(S'check google calendar on tuesday'
p1892
g15
tp1893
a(S"get if it's rainy this week"
p1894
g15
tp1895
a(S'can you send me to the lock screen please'
p1896
g15
tp1897
a(S'what events are on'
p1898
g15
tp1899
a(S'go to dot net'
p1900
g15
tp1901
a(S'shut my computer down'
p1902
g15
tp1903
a(S'check my calendar for this day'
p1904
g15
tp1905
a(S'please could you check new gmail'
p1906
g15
tp1907
a(S'can you check inbox please'
p1908
g15
tp1909
a(S'make the sound quieter'
p1910
g15
tp1911
a(S'what do i have on sunday'
p1912
g15
tp1913
a(S'anything new in my gmail'
p1914
g15
tp1915
a(S'open dot org'
p1916
g15
tp1917
a(S'can you shutdown'
p1918
g15
tp1919
a(S'check events for'
p1920
g15
tp1921
a(S'check my calendar for thursday'
p1922
g15
tp1923
a(S'can you shut up'
p1924
g15
tp1925
a(S"if it's hot this week"
p1926
g15
tp1927
a(S'is there anything to do in a month'
p1928
g15
tp1929
a(S'do i have anything tomorrow'
p1930
g15
tp1931
a(S'would you open my mail'
p1932
g15
tp1933
a(S'are there any events on next'
p1934
g15
tp1935
a(S'shut down'
p1936
g15
tp1937
a(S'check calendar on wednesday'
p1938
g15
tp1939
a(S'check my calendar on this day'
p1940
g15
tp1941
a(S'read me the clock please'
p1942
g15
tp1943
a(S'next'
p1944
g15
tp1945
a(S'are there any events on today'
p1946
g15
tp1947
a(S'schedule a new event'
p1948
g24
tp1949
a(S'do i have anything to do on wednesday'
p1950
g15
tp1951
a(S'good night'
p1952
g15
tp1953
a(S"what're the news"
p1954
g15
tp1955
a(S"get if it's hot this week"
p1956
g15
tp1957
a(S'please turn it down'
p1958
g15
tp1959
a(S'please when is it'
p1960
g15
tp1961
a(S"how's the weather this week"
p1962
g15
tp1963
a(S'can you kill the window'
p1964
g15
tp1965
a(S'schedule event please'
p1966
g24
tp1967
a(S'make a new event please'
p1968
g24
tp1969
a(S'tell me live newsfeed'
p1970
g15
tp1971
a(S"don't i have anything to do on sunday"
p1972
g15
tp1973
a(S'could you please add a new event'
p1974
g24
tp1975
a(S'please start browsing'
p1976
g15
tp1977
a(S'what events do i have in a week'
p1978
g15
tp1979
a(S'are there any events on this day'
p1980
g15
tp1981
a(S'please search google for'
p1982
g15
tp1983
a(S'kill the active window'
p1984
g15
tp1985
a(S'issue commands'
p1986
g15
tp1987
a(S'do i have anything to do'
p1988
g15
tp1989
a(S"don't i have anything tomorrow"
p1990
g15
tp1991
a(S'check events for this month'
p1992
g15
tp1993
a(S'please open gmail'
p1994
g15
tp1995
a(S'check google calendar on month'
p1996
g15
tp1997
a(S'any events on friday'
p1998
g15
tp1999
a(S'what events are on tuesday'
p2000
g15
tp2001
a(S'check what time it is please'
p2002
g15
tp2003
a(S'close current program'
p2004
g15
tp2005
a(S'clock'
p2006
g15
tp2007
a(S"what're the headlines"
p2008
g15
tp2009
a(S'check my calendar on next'
p2010
g15
tp2011
a(S'create an event please'
p2012
g24
tp2013
a(S"get if it's rainy today"
p2014
g15
tp2015
a(S'what events are on today'
p2016
g15
tp2017
a(S'be quiet'
p2018
g15
tp2019
a(S'what do i have to do on tomorrow'
p2020
g15
tp2021
a(S'next spotify please'
p2022
g15
tp2023
a(S'kill the current window'
p2024
g15
tp2025
a(S"what's new in my inbox please"
p2026
g15
tp2027
a(S'make event please'
p2028
g24
tp2029
a(S"this week's forecast"
p2030
g15
tp2031
a(S'can you please turn up the beat'
p2032
g15
tp2033
a(S'what is news'
p2034
g15
tp2035
a(S'do i have to do anything on friday'
p2036
g15
tp2037
a(S"what's if it's raining today"
p2038
g15
tp2039
a(S'check events for monday'
p2040
g15
tp2041
a(S'please open mail'
p2042
g15
tp2043
a(S'can you put me on the lock screen please'
p2044
g15
tp2045
a(S"what's the live news feed"
p2046
g15
tp2047
a(S"aren't there any events in a month"
p2048
g15
tp2049
a(S'check calendar for saturday'
p2050
g15
tp2051
a(S"what're the current news"
p2052
g15
tp2053
a(S'please would you open gmail'
p2054
g15
tp2055
a(S'kill active window'
p2056
g15
tp2057
a(S'anything new in inbox'
p2058
g15
tp2059
a(S'what is new in my mail please'
p2060
g15
tp2061
a(S'check what time it is'
p2062
g15
tp2063
a(S'check events on this week'
p2064
g15
tp2065
a(S'open gmail'
p2066
g15
tp2067
a(S'create new event please'
p2068
g24
tp2069
a(S'weather'
p2070
g15
tp2071
a(S"what's new in new mail"
p2072
g15
tp2073
a(S"don't i have anything to do on friday"
p2074
g15
tp2075
a(S'what is in new gmail please'
p2076
g15
tp2077
a(S'can you please kill this window'
p2078
g15
tp2079
a(S'any events on'
p2080
g15
tp2081
a(S'pause song please'
p2082
g15
tp2083
a(S'could you add an event please'
p2084
g24
tp2085
a(S'can you turn up the beat'
p2086
g15
tp2087
a(S'can you check my mail please'
p2088
g15
tp2089
a(S"don't i have any events on this day"
p2090
g15
tp2091
a(S'turn off'
p2092
g15
tp2093
a(S'check google calendar on monday'
p2094
g15
tp2095
a(S'turn it up please'
p2096
g15
tp2097
a(S'stop playing'
p2098
g15
tp2099
a(S'what events are in a month'
p2100
g15
tp2101
a(S'spotify go back'
p2102
g15
tp2103
a(S'please will you open mail'
p2104
g15
tp2105
a(S'check if i have anything in my inbox'
p2106
g15
tp2107
a(S'can you check if i have anything in my inbox'
p2108
g15
tp2109
a(S'check google calendar for next'
p2110
g15
tp2111
a(S'send me to the lock screen'
p2112
g15
tp2113
a(S"aren't there any events on this day"
p2114
g15
tp2115
a(S"if it's freezing this week"
p2116
g15
tp2117
a(S"please what's new in inbox"
p2118
g15
tp2119
a(S"aren't there any events on saturday"
p2120
g15
tp2121
a(S"what's if it's rainy today"
p2122
g15
tp2123
a(S'anything in gmail'
p2124
g15
tp2125
a(S'check my calendar for friday'
p2126
g15
tp2127
a(S'check google calendar on thursday'
p2128
g15
tp2129
a(S'please kill the active window'
p2130
g15
tp2131
a(S'what do i have on next'
p2132
g15
tp2133
a(S'what are the live newsfeed'
p2134
g15
tp2135
a(S'please would you open mail'
p2136
g15
tp2137
a(S'will you check inbox please'
p2138
g15
tp2139
a(S"don't i have any events in a month"
p2140
g15
tp2141
a(S'shut down the computer please'
p2142
g15
tp2143
a(S'what is in my inbox please'
p2144
g15
tp2145
a(S"today's weather"
p2146
g15
tp2147
a(S"don't i have any events on today"
p2148
g15
tp2149
a(S"what's new in gmail"
p2150
g15
tp2151
a(S'would you check gmail'
p2152
g15
tp2153
a(S'could you please make an event'
p2154
g24
tp2155
a(S'check events on today'
p2156
g15
tp2157
a(S'find live newsfeed'
p2158
g15
tp2159
a(S'would you open my gmail please'
p2160
g15
tp2161
a(S'please would you check my inbox'
p2162
g15
tp2163
a(S'a releasing moderate stalls beside the material cell'
p2164
g15
tp2165
a(S"don't i have anything to do today"
p2166
g15
tp2167
a(S'get current time please'
p2168
g15
tp2169
a(S'what is live newsfeed'
p2170
g15
tp2171
a(S'please close the current window'
p2172
g15
tp2173
a(S'set the volume zero'
p2174
g15
tp2175
a(S'what events do i have on wednesday'
p2176
g15
tp2177
a(S'can you make a new event'
p2178
g24
tp2179
a(S"what's the newsfeed"
p2180
g15
tp2181
a(S"if it's cloudy today"
p2182
g15
tp2183
a(S'what do i have to do'
p2184
g15
tp2185
a(S'could you check my inbox'
p2186
g15
tp2187
a(S"what's the live newsfeed"
p2188
g15
tp2189
a(S'could you please create a new event'
p2190
g24
tp2191
a(S'check events for sunday'
p2192
g15
tp2193
a(S'would you check new gmail'
p2194
g15
tp2195
a(S'please lock my computer'
p2196
g15
tp2197
a(S'what is current events'
p2198
g15
tp2199
a(S"today's forecast"
p2200
g15
tp2201
a(S'any events in a month'
p2202
g15
tp2203
a(S"don't i have any events"
p2204
g15
tp2205
a(S'is there anything to do on monday'
p2206
g15
tp2207
a(S'is it rainy this week'
p2208
g15
tp2209
a(S'please spotify start'
p2210
g15
tp2211
a(S'please open a browser'
p2212
g15
tp2213
a(S"what's new in my inbox"
p2214
g15
tp2215
a(S'can you please shutdown'
p2216
g15
tp2217
a(S'find live news'
p2218
g15
tp2219
a(S'could you create event'
p2220
g24
tp2221
a(S'please could you open my inbox'
p2222
g15
tp2223
a(S'what is in new gmail'
p2224
g15
tp2225
a(S'do i have anything today'
p2226
g15
tp2227
a(S'is there anything to do on thursday'
p2228
g15
tp2229
a(S"aren't there any events on sunday"
p2230
g15
tp2231
a(S'can you create new event please'
p2232
g24
tp2233
a(S'start a default browser'
p2234
g15
tp2235
a(S"what's weather"
p2236
g15
tp2237
a(S'what events are on tomorrow'
p2238
g15
tp2239
a(S'am i free for a month'
p2240
g15
tp2241
a(S'can you check mail please'
p2242
g15
tp2243
a(S"aren't there any events on today"
p2244
g15
tp2245
a(S'check your watch'
p2246
g15
tp2247
a(S'make new event'
p2248
g24
tp2249
a(S'check events on friday'
p2250
g15
tp2251
a(S'check events for today'
p2252
g15
tp2253
a(S"don't i have any events on"
p2254
g15
tp2255
a(S'turn up the tunes'
p2256
g15
tp2257
a(S'lower the volume'
p2258
g15
tp2259
a(S'google search please'
p2260
g15
tp2261
a(S'anything new in my mail'
p2262
g15
tp2263
a(S'do i have any events on'
p2264
g15
tp2265
a(S'can you schedule new event'
p2266
g24
tp2267
a(S'check google calendar for wednesday'
p2268
g15
tp2269
a(S'check google calendar for sunday'
p2270
g15
tp2271
a(S'how is the forecast'
p2272
g15
tp2273
a(S'can you check my gmail please'
p2274
g15
tp2275
a(S'current events'
p2276
g15
tp2277
a(S'shut up'
p2278
g15
tp2279
a(S'news today'
p2280
g15
tp2281
a(S'please what is in new mail'
p2282
g15
tp2283
a(S'am i free for this day'
p2284
g15
tp2285
a(S"don't i have to do anything in a month"
p2286
g15
tp2287
a(S"what're the live news feed"
p2288
g15
tp2289
a(S'turn off my computer'
p2290
g15
tp2291
a(S'can you add new event please'
p2292
g24
tp2293
a(S"don't i have anything today"
p2294
g15
tp2295
a(S'the news'
p2296
g15
tp2297
a(S'current time'
p2298
g15
tp2299
a(S'please will you open my inbox'
p2300
g15
tp2301
a(S'news now please'
p2302
g15
tp2303
a(S'please create new event'
p2304
g24
tp2305
a(S'please pause song'
p2306
g15
tp2307
a(S'alex'
p2308
g15
tp2309
a(S'what are the current news'
p2310
g15
tp2311
a(S'am i free in a week'
p2312
g15
tp2313
a(S'can you turn up the volume'
p2314
g15
tp2315
a(S"what's in inbox please"
p2316
g15
tp2317
a(S'check calendar for this week'
p2318
g15
tp2319
a(S'unmute please'
p2320
g15
tp2321
a(S'check calendar for wednesday'
p2322
g15
tp2323
a(S'could you open my inbox'
p2324
g15
tp2325
a(S'check my calendar on'
p2326
g15
tp2327
a(S'open a browser'
p2328
g15
tp2329
a(S'live news today'
p2330
g15
tp2331
a(S'spotify play the song before'
p2332
g15
tp2333
a(S'check events for thursday'
p2334
g15
tp2335
a(S'please turn off'
p2336
g15
tp2337
a(S'get newsfeed'
p2338
g15
tp2339
a(S'is there anything to do on this day'
p2340
g15
tp2341
a(S'search google please for'
p2342
g15
tp2343
a(S"what's in my inbox please"
p2344
g15
tp2345
a(S'check the current time'
p2346
g15
tp2347
a(S'turn yourself off'
p2348
g15
tp2349
a(S'schedule new event'
p2350
g24
tp2351
a(S'what is new in my gmail please'
p2352
g15
tp2353
a(S'get the current events'
p2354
g15
tp2355
a(S'what is live news feed'
p2356
g15
tp2357
a(S'go spotify please'
p2358
g15
tp2359
a(S'what is new in new gmail'
p2360
g15
tp2361
a(S'what is new in mail'
p2362
g15
tp2363
a(S'could you please make new event'
p2364
g24
tp2365
a(S'please what is in my mail'
p2366
g15
tp2367
a(S'turn off the computer'
p2368
g15
tp2369
a(S'do i have anything on saturday'
p2370
g15
tp2371
a(S'lock computer'
p2372
g15
tp2373
a(S'can you open this program'
p2374
g15
tp2375
a(S'are there any events on friday'
p2376
g15
tp2377
a(S'could you add event'
p2378
g24
tp2379
a(S'am i free in a month'
p2380
g15
tp2381
a(S'read me the clock'
p2382
g15
tp2383
a(S'could you check my mail'
p2384
g15
tp2385
a(S'search please'
p2386
g15
tp2387
a(S'a decent problem gossips beside the shoulder'
p2388
g15
tp2389
a(S'shut up please'
p2390
g15
tp2391
a(S'please turn off the computer'
p2392
g15
tp2393
a(S'please can you check gmail'
p2394
g15
tp2395
a(S'please schedule event'
p2396
g24
tp2397
a(S'do i have any events on thursday'
p2398
g15
tp2399
a(S"get this week's forecast"
p2400
g15
tp2401
a(S'any events on this day'
p2402
g15
tp2403
a(S'get forecast'
p2404
g15
tp2405
a(S'please what is in gmail'
p2406
g15
tp2407
a(S"what's in my mail please"
p2408
g15
tp2409
a(S'add new event please'
p2410
g24
tp2411
a(S'can you please shut down my computer'
p2412
g15
tp2413
a(S'is there anything i have to do on tomorrow'
p2414
g15
tp2415
a(S'turn up'
p2416
g15
tp2417
a(S'are there any events on sunday'
p2418
g15
tp2419
a(S'can you turn the beat down'
p2420
g15
tp2421
a(S'can you make event please'
p2422
g24
tp2423
a(S'can you check my inbox please'
p2424
g15
tp2425
a(S'what is in the news today'
p2426
g15
tp2427
a(S'lock'
p2428
g15
tp2429
a(S'spotify pause please'
p2430
g15
tp2431
a(S'can you check new mail'
p2432
g15
tp2433
a(S"don't i have any events on wednesday"
p2434
g15
tp2435
a(S'can you shutdown my computer'
p2436
g15
tp2437
a(S'would you check new gmail please'
p2438
g15
tp2439
a(S'can you please turn the tune down'
p2440
g15
tp2441
a(S'could you open inbox'
p2442
g15
tp2443
a(S'please pause'
p2444
g15
tp2445
a(S'can you please turn off my computer'
p2446
g15
tp2447
a(S'can you check my inbox'
p2448
g15
tp2449
a(S'check calendar for next'
p2450
g15
tp2451
a(S'do i have to do anything today'
p2452
g15
tp2453
a(S"what's the time"
p2454
g15
tp2455
a(S'please could you open my gmail'
p2456
g15
tp2457
a(S'is there anything to do on sunday'
p2458
g15
tp2459
a(S'please can you make it louder'
p2460
g15
tp2461
a(S'google please for'
p2462
g15
tp2463
a(S'can you lock computer please'
p2464
g15
tp2465
a(S'check google calendar for this week'
p2466
g15
tp2467
a(S'please shut off'
p2468
g15
tp2469
a(S'can you please shut off my computer'
p2470
g15
tp2471
a(S'please can you check new gmail'
p2472
g15
tp2473
a(S'check calendar'
p2474
g15
tp2475
a(S'get live news feed'
p2476
g15
tp2477
a(S"don't i have to do anything on wednesday"
p2478
g15
tp2479
a(S'mute please'
p2480
g15
tp2481
a(S"what's the weather today"
p2482
g15
tp2483
a(S'can you turn the sound down'
p2484
g15
tp2485
a(S'please would you open inbox'
p2486
g15
tp2487
a(S'can you please exit'
p2488
g15
tp2489
a(S"don't i have to do anything on monday"
p2490
g15
tp2491
a(S'would you open my inbox'
p2492
g15
tp2493
a(S'spotify play previous song please'
p2494
g15
tp2495
a(S'open a browser please'
p2496
g15
tp2497
a(S'are there any events on saturday'
p2498
g15
tp2499
a(S"what's new in mail"
p2500
g15
tp2501
a(S'intelligence report'
p2502
g15
tp2503
a(S'can you please schedule a new event'
p2504
g24
tp2505
a(S'would you open mail please'
p2506
g15
tp2507
a(S'what is live news'
p2508
g15
tp2509
a(S'check my calendar for'
p2510
g15
tp2511
a(S'i like dogs'
p2512
g15
tp2513
a(S'can you shut down the computer'
p2514
g15
tp2515
a(S"don't i have any events on sunday"
p2516
g15
tp2517
a(S'turn up the volume'
p2518
g15
tp2519
a(S'turn up the the beat'
p2520
g15
tp2521
a(S'what events are on this day'
p2522
g15
tp2523
a(S'what events are on saturday'
p2524
g15
tp2525
a(S'current weather'
p2526
g15
tp2527
a(S'find live news feed'
p2528
g15
tp2529
a(S'what is the news'
p2530
g15
tp2531
a(S'news feed today'
p2532
g15
tp2533
a(S'please play spotify '
p2534
g15
tp2535
a(S'can you create event'
p2536
g24
tp2537
a(S'what are the live news feed'
p2538
g15
tp2539
a(S'can you lock the screen please'
p2540
g15
tp2541
a(S'can you please kill current window'
p2542
g15
tp2543
a(S'do i have anything to do on tuesday'
p2544
g15
tp2545
a(S'check my calendar'
p2546
g15
tp2547
a(S'please get the news'
p2548
g15
tp2549
a(S'what is in inbox'
p2550
g15
tp2551
a(S"if it's rainy today"
p2552
g15
tp2553
a(S"what's new in my gmail"
p2554
g15
tp2555
a(S'could you create an event please'
p2556
g24
tp2557
a(S"please what's in my inbox"
p2558
g15
tp2559
a(S'get headlines'
p2560
g15
tp2561
a(S'retrieve the current time'
p2562
g15
tp2563
a(S'please close the active window'
p2564
g15
tp2565
a(S'what events do i have on monday'
p2566
g15
tp2567
a(S"what's new in inbox"
p2568
g15
tp2569
a(S"if it's snowing this week"
p2570
g15
tp2571
a(S'could you create new event please'
p2572
g24
tp2573
a(S"don't i have anything on sunday"
p2574
g15
tp2575
a(S'do i have anything'
p2576
g15
tp2577
a(S'read time please'
p2578
g15
tp2579
a(S'could you make a new event please'
p2580
g24
tp2581
a(S'spotify stop the song '
p2582
g15
tp2583
a(S'please will you check my mail'
p2584
g15
tp2585
a(S'alice go ahead please'
p2586
g15
tp2587
a(S'please will you check gmail'
p2588
g15
tp2589
a(S'song stop'
p2590
g15
tp2591
a(S'will you get the current events for me'
p2592
g15
tp2593
a(S'do i have any events on monday'
p2594
g15
tp2595
a(S"what's the current events"
p2596
g15
tp2597
a(S'quit'
p2598
g15
tp2599
a(S'get the clock please'
p2600
g15
tp2601
a(S'what do i have on today'
p2602
g15
tp2603
a(S'what do i have to do on saturday'
p2604
g15
tp2605
a(S'can you schedule new event please'
p2606
g24
tp2607
a(S'please open'
p2608
g15
tp2609
a(S'find the news'
p2610
g15
tp2611
a(S'what is on my calendar for today'
p2612
g15
tp2613
a(S'can you lock my computer please'
p2614
g15
tp2615
a(S"don't i have to do anything tomorrow"
p2616
g15
tp2617
a(S'could you check new gmail'
p2618
g15
tp2619
a(S"don't i have to do anything on this day"
p2620
g15
tp2621
a(S'could you create event please'
p2622
g24
tp2623
a(S'could you check new gmail please'
p2624
g15
tp2625
a(S'spotify play the song'
p2626
g15
tp2627
a(S'is there anything i have to do tomorrow'
p2628
g15
tp2629
a(S'can you make an event please'
p2630
g24
tp2631
a(S"what's the live news"
p2632
g15
tp2633
a(S"get if it's cloudy today"
p2634
g15
tp2635
a(S'could you make new event please'
p2636
g24
tp2637
a(S'will you open my mail please'
p2638
g15
tp2639
a(S'anything new in my inbox'
p2640
g15
tp2641
a(S'can you add an event please'
p2642
g24
tp2643
a(S'what is in gmail'
p2644
g15
tp2645
a(S'check the clock right now'
p2646
g15
tp2647
a(S'what is headlines'
p2648
g15
tp2649
a(S'is it cold this week'
p2650
g15
tp2651
a(S'kill the music'
p2652
g15
tp2653
a(S'please give me current events'
p2654
g15
tp2655
a(S"today's current news "
p2656
g15
tp2657
a(S'please open inbox'
p2658
g15
tp2659
a(S'what do i have to do on next'
p2660
g15
tp2661
a(S"what's forecast"
p2662
g15
tp2663
a(S'please close current window'
p2664
g15
tp2665
a(S'stop spotify'
p2666
g15
tp2667
a(S'am i free on monday'
p2668
g15
tp2669
a(S'get me the clock'
p2670
g15
tp2671
a(S"don't i have to do anything on tuesday"
p2672
g15
tp2673
a(S"aren't there any events in a week"
p2674
g15
tp2675
a(S'get time'
p2676
g15
tp2677
a(S"please what's new in mail"
p2678
g15
tp2679
a(S'open mail'
p2680
g15
tp2681
a(S"don't i have to do anything on sunday"
p2682
g15
tp2683
a(S'do i have anything to do in a week'
p2684
g15
tp2685
a(S'please kill current window'
p2686
g15
tp2687
a(S'do i have anything on wednesday'
p2688
g15
tp2689
a(S'is there anything i have to do on today'
p2690
g15
tp2691
a(S"don't i have to do anything today"
p2692
g15
tp2693
a(S"this week's weather"
p2694
g15
tp2695
a(S'check calendar for this day'
p2696
g15
tp2697
a(S'what is new in gmail'
p2698
g15
tp2699
a(S'what events do i have on thursday'
p2700
g15
tp2701
a(S'could you check new mail please'
p2702
g15
tp2703
a(S'please go spotify '
p2704
g15
tp2705
a(S'please would you check inbox'
p2706
g15
tp2707
a(S'read your watch please'
p2708
g15
tp2709
a(S'please check gmail'
p2710
g15
tp2711
a(S'is it freezing today'
p2712
g15
tp2713
a(S'get temperature'
p2714
g15
tp2715
a(S'headlines today'
p2716
g15
tp2717
a(S'shutdown my computer'
p2718
g15
tp2719
a(S'please go back'
p2720
g15
tp2721
a(S'current news today'
p2722
g15
tp2723
a(S'spotify shut up'
p2724
g15
tp2725
a(S'could you please add an event'
p2726
g24
tp2727
a(S'can you please turn up the tunez'
p2728
g15
tp2729
a(S'will you check mail please'
p2730
g15
tp2731
a(S"what's if it's foggy this week"
p2732
g15
tp2733
a(S"don't i have anything to do on this day"
p2734
g15
tp2735
a(S"don't i have to do anything on thursday"
p2736
g15
tp2737
a(S"what're the newsfeed"
p2738
g15
tp2739
a(S'do i have anything to do tomorrow'
p2740
g15
tp2741
a(S'what events do i have on friday'
p2742
g15
tp2743
a(S'please what is in mail'
p2744
g15
tp2745
a(S'is it cloudy today'
p2746
g15
tp2747
a(S'stop'
p2748
g15
tp2749
a(S'current events please'
p2750
g15
tp2751
a(S'could you add new event'
p2752
g24
tp2753
a(S'turn off the beats'
p2754
g15
tp2755
a(S'exit'
p2756
g15
tp2757
a(S'will you open my mail'
p2758
g15
tp2759
a(S'we stick to simple problems in this post for the sake of illustration'
p2760
g15
tp2761
a(S'can you please turn up the tune'
p2762
g15
tp2763
a(S'open a default browser please'
p2764
g15
tp2765
a(S'what do i have to do on this day'
p2766
g15
tp2767
a(S'do i have anything to do today'
p2768
g15
tp2769
a(S'please check mail'
p2770
g15
tp2771
a(S'will you open my gmail'
p2772
g15
tp2773
a(S'give me the current events please'
p2774
g15
tp2775
a(S'what events are on friday'
p2776
g15
tp2777
a(S'unmute'
p2778
g15
tp2779
a(S'please get the current events'
p2780
g15
tp2781
a(S'check calendar on sunday'
p2782
g15
tp2783
a(S'do i have to do anything to do'
p2784
g15
tp2785
a(S'can you please shut off'
p2786
g15
tp2787
a(S'can you make new event'
p2788
g24
tp2789
a(S'spotify previous song please'
p2790
g15
tp2791
a(S'any events on tuesday'
p2792
g15
tp2793
a(S"if it's snowing today"
p2794
g15
tp2795
a(S"don't i have to do anything in a week"
p2796
g15
tp2797
a(S'check my calendar on today'
p2798
g15
tp2799
a(S'what is current news'
p2800
g15
tp2801
a(S'check new mail please'
p2802
g15
tp2803
a(S'would you open my inbox please'
p2804
g15
tp2805
a(S'what do i have to do in a month'
p2806
g15
tp2807
a(S'could you please schedule new event'
p2808
g24
tp2809
a(S'am i free for sunday'
p2810
g15
tp2811
a(S'what is new in new mail please'
p2812
g15
tp2813
a(S'check my calendar on tomorrow'
p2814
g15
tp2815
a(S'what is in new mail please'
p2816
g15
tp2817
a(S'check my calendar for this week'
p2818
g15
tp2819
a(S'check google calendar on next'
p2820
g15
tp2821
a(S"aren't there any events on tomorrow"
p2822
g15
tp2823
a(S'check calendar for monday'
p2824
g15
tp2825
a(S'will you check new gmail'
p2826
g15
tp2827
a(S"get this week's temperature"
p2828
g15
tp2829
a(S'shut down please'
p2830
g15
tp2831
a(S'please could you check mail'
p2832
g15
tp2833
a(S'go ahead spotify please'
p2834
g15
tp2835
a(S"what's new in inbox please"
p2836
g15
tp2837
a(S'please can you turn the volume higher'
p2838
g15
tp2839
a(S"what's the the news"
p2840
g15
tp2841
a(S'open gmail please'
p2842
g15
tp2843
a(S'please create an event'
p2844
g24
tp2845
a(S'please pause spotify'
p2846
g15
tp2847
a(S'can you check inbox'
p2848
g15
tp2849
a(S'open dot gov'
p2850
g15
tp2851
a(S'will you check my inbox please'
p2852
g15
tp2853
a(S'lock my computer please'
p2854
g15
tp2855
a(S'please read me the clock'
p2856
g15
tp2857
a(S"today's forecast"
p2858
g15
tp2859
a(S'can you add a new event'
p2860
g24
tp2861
a(S'could you please schedule event'
p2862
g24
tp2863
a(S'train a classifier to try to predict the category of a post'
p2864
g15
tp2865
a(S"what's in mail please"
p2866
g15
tp2867
a(S'what is the news today'
p2868
g15
tp2869
a(S'what is new in inbox please'
p2870
g15
tp2871
a(S'please find out the latest headlines'
p2872
g15
tp2873
a(S'spotify start the song please'
p2874
g15
tp2875
a(S'check mail'
p2876
g15
tp2877
a(S'can you put me on the lock screen'
p2878
g15
tp2879
a(S"what's if it's hot this week"
p2880
g15
tp2881
a(S'check calendar'
p2882
g15
tp2883
a(S'check calendar on'
p2884
g15
tp2885
a(S'set volume 0'
p2886
g15
tp2887
a(S'check events on month'
p2888
g15
tp2889
a(S'could you please schedule an event'
p2890
g24
tp2891
a(S"get this week's weather"
p2892
g15
tp2893
a(S'am i free on thursday'
p2894
g15
tp2895
a(S'alice'
p2896
g15
tp2897
a(S'sweet dreams alice'
p2898
g15
tp2899
a(S'check calendar for sunday'
p2900
g15
tp2901
a(S'can you close this window'
p2902
g15
tp2903
a(S'do i have anything to do on saturday'
p2904
g15
tp2905
a(S'what events are on wednesday'
p2906
g15
tp2907
a(S'check calendar for today'
p2908
g15
tp2909
a(S'turn up the tunez please'
p2910
g15
tp2911
a(S'todays headlines'
p2912
g15
tp2913
a(S"don't i have anything on saturday"
p2914
g15
tp2915
a(S'check events for wednesday'
p2916
g15
tp2917
a(S'what are the news'
p2918
g15
tp2919
a(S'could you check inbox'
p2920
g15
tp2921
a(S"what're the live newsfeed"
p2922
g15
tp2923
a(S'am i free on friday'
p2924
g15
tp2925
a(S'tell me newsfeed'
p2926
g15
tp2927
a(S'get the news'
p2928
g15
tp2929
a(S'please read the clock'
p2930
g15
tp2931
a(S'are there any events on wednesday'
p2932
g15
tp2933
a(S'will you open inbox'
p2934
g15
tp2935
a(S'start browsing'
p2936
g15
tp2937
a(S'check events for next'
p2938
g15
tp2939
a(S'check new gmail'
p2940
g15
tp2941
a(S'am i free for today'
p2942
g15
tp2943
a(S'headlines'
p2944
g15
tp2945
a(S'please turn my computer off'
p2946
g15
tp2947
a(S'is there anything i have to do on this day'
p2948
g15
tp2949
a(S"today's weather"
p2950
g15
tp2951
a(S'please could you open inbox'
p2952
g15
tp2953
a(S'google search please for'
p2954
g15
tp2955
a(S"how's the forecast this week"
p2956
g15
tp2957
a(S'do i have any events on tomorrow'
p2958
g15
tp2959
a(S'am i free for next'
p2960
g15
tp2961
a(S'set the volume to zero'
p2962
g15
tp2963
a(S'what is in mail'
p2964
g15
tp2965
a(S'could you schedule a new event please'
p2966
g24
tp2967
a(S'please what is in my inbox'
p2968
g15
tp2969
a(S'check my calendar for saturday'
p2970
g15
tp2971
a(S'search google for please'
p2972
g15
tp2973
a(S'what events do i have on next'
p2974
g15
tp2975
a(S'do i have anything to do on monday'
p2976
g15
tp2977
a(S'music down'
p2978
g15
tp2979
a(S'can you shut my computer down'
p2980
g15
tp2981
a(S'could you please create new event'
p2982
g24
tp2983
a(S'go to dot ee dee you'
p2984
g15
tp2985
a(S'could you please create an event'
p2986
g24
tp2987
a(S'is there anything i have to do in a month'
p2988
g15
tp2989
a(S'spotify last please'
p2990
g15
tp2991
a(S'extract the features using almost the same feature'
p2992
g15
tp2993
a(S'would you open my gmail'
p2994
g15
tp2995
a(S'is there anything i have to do on friday'
p2996
g15
tp2997
a(S'do i have any events in a month'
p2998
g15
tp2999
a(S'kill the program'
p3000
g15
tp3001
a(S'could you open inbox please'
p3002
g15
tp3003
a(S"what's today's temperature"
p3004
g15
tp3005
a(S'open my mail'
p3006
g15
tp3007
a(S'please get me the clock'
p3008
g15
tp3009
a(S'can you check my gmail'
p3010
g15
tp3011
a(S'a backbone dictates above my grief'
p3012
g15
tp3013
a(S'can you open a browser please'
p3014
g15
tp3015
a(S"what's in my gmail"
p3016
g15
tp3017
a(S'could you please make a new event'
p3018
g24
tp3019
a(S'will you open inbox please'
p3020
g15
tp3021
a(S'can you please turn off the computer'
p3022
g15
tp3023
a(S'volume higher please'
p3024
g15
tp3025
a(S'any events on tomorrow'
p3026
g15
tp3027
a(S'lower the sound'
p3028
g15
tp3029
a(S'check calendar on month'
p3030
g15
tp3031
a(S'can you please shut up'
p3032
g15
tp3033
a(S'will you get the news for me'
p3034
g15
tp3035
a(S'how is the weather'
p3036
g15
tp3037
a(S'would you check mail please'
p3038
g15
tp3039
a(S'tell me current events'
p3040
g15
tp3041
a(S'check google calendar on wednesday'
p3042
g15
tp3043
a(S'can you please schedule event'
p3044
g24
tp3045
a(S"if it's raining today"
p3046
g15
tp3047
a(S'can you get information on the current events'
p3048
g15
tp3049
a(S'check events on wednesday'
p3050
g15
tp3051
a(S"don't i have any events on saturday"
p3052
g15
tp3053
a(S'please what is new in new mail'
p3054
g15
tp3055
a(S'start browser'
p3056
g15
tp3057
a(S'spotify play'
p3058
g15
tp3059
a(S'could you check inbox please'
p3060
g15
tp3061
a(S'would you check gmail please'
p3062
g15
tp3063
a(S'would you check new mail please'
p3064
g15
tp3065
a(S'will you open mail'
p3066
g15
tp3067
a(S'stop song please'
p3068
g15
tp3069
a(S'check google calendar'
p3070
g15
tp3071
a(S"what's if it's rainy this week"
p3072
g15
tp3073
a(S"what's temperature"
p3074
g15
tp3075
a(S"what's new in my mail please"
p3076
g15
tp3077
a(S'any events on monday'
p3078
g15
tp3079
a(S'check google calendar for'
p3080
g15
tp3081
a(S'what are the news feed'
p3082
g15
tp3083
a(S'please would you check new gmail'
p3084
g15
tp3085
a(S"what's in inbox"
p3086
g15
tp3087
a(S'please spotify pause the song'
p3088
g15
tp3089
a(S'please open dot com'
p3090
g15
tp3091
a(S'do i have to do anything on this day'
p3092
g15
tp3093
a(S'spotify last song please'
p3094
g15
tp3095
a(S"what's new in new mail please"
p3096
g15
tp3097
a(S'pause spotify please'
p3098
g15
tp3099
a(S'what are the newsfeed'
p3100
g15
tp3101
a(S'please google for'
p3102
g15
tp3103
a(S"don't i have anything on wednesday"
p3104
g15
tp3105
a(S'play spotify please'
p3106
g15
tp3107
a(S'retrieve the current time please'
p3108
g15
tp3109
a(S'can you check new gmail please'
p3110
g15
tp3111
a(S'sweet dreams'
p3112
g15
tp3113
a(S'can you please turn the beat down'
p3114
g15
tp3115
a(S'create event please'
p3116
g24
tp3117
a(S'could you open mail'
p3118
g15
tp3119
a(S'anything in mail'
p3120
g15
tp3121
a(S'anything new in mail'
p3122
g15
tp3123
a(S'check calendar on tomorrow'
p3124
g15
tp3125
a(S'would you check my gmail please'
p3126
g15
tp3127
a(S'retrieve what time it is please'
p3128
g15
tp3129
a(S'is there anything to do tomorrow'
p3130
g15
tp3131
a(S'check new gmail please'
p3132
g15
tp3133
a(S'please shut down the computer'
p3134
g15
tp3135
a(S"please what's new in new gmail"
p3136
g15
tp3137
a(S'can you please make event'
p3138
g24
tp3139
a(S'byebye'
p3140
g15
tp3141
a(S'live news'
p3142
g15
tp3143
a(S'will you check new mail please'
p3144
g15
tp3145
a(S'will it rain today'
p3146
g15
tp3147
a(S"if it's hot today"
p3148
g15
tp3149
a(S'time'
p3150
g15
tp3151
a(S'are there any events on thursday'
p3152
g15
tp3153
a(S'open inbox'
p3154
g15
tp3155
a(S'get current forecast'
p3156
g15
tp3157
a(S'do i have to do anything in a month'
p3158
g15
tp3159
a(S'could you open my gmail'
p3160
g15
tp3161
a(S"what's in gmail please"
p3162
g15
tp3163
a(S'am i free on tomorrow'
p3164
g15
tp3165
a(S'is there anything i have to do on tuesday'
p3166
g15
tp3167
a(S'add event'
p3168
g24
tp3169
a(S'am i free for tuesday'
p3170
g15
tp3171
a(S'check events on tuesday'
p3172
g15
tp3173
a(S'please spotify last'
p3174
g15
tp3175
a(S'do i have anything on monday'
p3176
g15
tp3177
a(S'please can you check my mail'
p3178
g15
tp3179
a(S'can you lock my computer please'
p3180
g15
tp3181
a(S'can you decrease the sound'
p3182
g15
tp3183
a(S'will you check inbox'
p3184
g15
tp3185
a(S"don't i have to do anything"
p3186
g15
tp3187
a(S'what is new in my mail'
p3188
g15
tp3189
a(S"get if it's cold today"
p3190
g15
tp3191
a(S'search please for'
p3192
g15
tp3193
a(S"i think i didn't answer an earlier question"
p3194
g15
tp3195
a(S'schedule new event please'
p3196
g24
tp3197
a(S'would you check my inbox please'
p3198
g15
tp3199
a(S'what do i have to do on today'
p3200
g15
tp3201
a(S'check my calendar on this month'
p3202
g15
tp3203
a(S"get today's forecast"
p3204
g15
tp3205
a(S'please what is new in my inbox'
p3206
g15
tp3207
a(S'make the sound higher'
p3208
g15
tp3209
a(S'check google calendar on friday'
p3210
g15
tp3211
a(S"don't i have to do anything on saturday"
p3212
g15
tp3213
a(S'start a default browser please'
p3214
g15
tp3215
a(S'make the volume 0'
p3216
g15
tp3217
a(S'please could you open mail'
p3218
g15
tp3219
a(S"get if it's raining today"
p3220
g15
tp3221
a(S'check calendar for this month'
p3222
g15
tp3223
a(S'google search for'
p3224
g15
tp3225
a(S"today's live news"
p3226
g15
tp3227
a(S'am i free on tuesday'
p3228
g15
tp3229
a(S'check my calendar on thursday'
p3230
g15
tp3231
a(S'could you add event please'
p3232
g24
tp3233
a(S"don't i have anything on friday"
p3234
g15
tp3235
a(S'can you check gmail please'
p3236
g15
tp3237
a(S'get time please'
p3238
g15
tp3239
a(S'check my mail please'
p3240
g15
tp3241
a(S'what is on my calendar for friday'
p3242
g15
tp3243
a(S'please retrieve what time it is'
p3244
g15
tp3245
a(S'can you close the current window'
p3246
g15
tp3247
a(S'will you open gmail'
p3248
g15
tp3249
a(S'what do i have in a month'
p3250
g15
tp3251
a(S'give me intel on current events'
p3252
g15
tp3253
a(S'turn off please'
p3254
g15
tp3255
a(S'please close the window'
p3256
g15
tp3257
a(S'do i have anything to do on sunday'
p3258
g15
tp3259
a(S"today's headlines"
p3260
g15
tp3261
a(S'what events do i have on this day'
p3262
g15
tp3263
a(S'turn the beat down'
p3264
g15
tp3265
a(S'please check my mail'
p3266
g15
tp3267
a(S'get the the latest headlines'
p3268
g15
tp3269
a(S"get if it's raining this week"
p3270
g15
tp3271
a(S'check events on'
p3272
g15
tp3273
a(S"get if it's freezing today"
p3274
g15
tp3275
a(S'am i free for a week'
p3276
g15
tp3277
a(S'am i free for tomorrow'
p3278
g15
tp3279
a(S'please get current time'
p3280
g15
tp3281
a(S'create new event'
p3282
g24
tp3283
a(S'gather the latest headlines please'
p3284
g15
tp3285
a(S'please shut down'
p3286
g15
tp3287
a(S"what's new in new gmail"
p3288
g15
tp3289
a(S'can you please turn up the volume'
p3290
g15
tp3291
a(S"what're the the news"
p3292
g15
tp3293
a(S'am i free on this day'
p3294
g15
tp3295
a(S'turn up the sound'
p3296
g15
tp3297
a(S'search google'
p3298
g15
tp3299
a(S'please spotify previous song'
p3300
g15
tp3301
a(S"don't i have anything to do on monday"
p3302
g15
tp3303
a(S'check events on thursday'
p3304
g15
tp3305
a(S'please get the time'
p3306
g15
tp3307
a(S'play '
p3308
g15
tp3309
a(S'turn off the sound please'
p3310
g15
tp3311
a(S'do i have to do anything on wednesday'
p3312
g15
tp3313
a(S"today's current events"
p3314
g15
tp3315
a(S'what is on my calendar for'
p3316
g15
tp3317
a(S'check my calendar for next'
p3318
g15
tp3319
a(S'check google calendar on today'
p3320
g15
tp3321
a(S'anything in my gmail'
p3322
g15
tp3323
a(S'see ya alice'
p3324
g15
tp3325
a(S'will you open a browser'
p3326
g15
tp3327
a(S'please will you check mail'
p3328
g15
tp3329
a(S'start default browser please'
p3330
g15
tp3331
a(S'check google calendar for friday'
p3332
g15
tp3333
a(S'make the volume lower'
p3334
g15
tp3335
a(S"aren't there any events on"
p3336
g15
tp3337
a(S'turn off the computer please'
p3338
g15
tp3339
a(S'get the time'
p3340
g15
tp3341
a(S'any events on saturday'
p3342
g15
tp3343
a(S'spotify stop playing'
p3344
g15
tp3345
a(S'open dot edu'
p3346
g15
tp3347
a(S'will you get the current events'
p3348
g15
tp3349
a(S'the news today'
p3350
g15
tp3351
a(S"don't i have to do anything in a month"
p3352
g15
tp3353
a(S'get live news'
p3354
g15
tp3355
a(S'could you create a new event please'
p3356
g24
tp3357
a(S'what is on my calendar for tomorrow'
p3358
g15
tp3359
a(S"please what's in mail"
p3360
g15
tp3361
a(S'check events for this day'
p3362
g15
tp3363
a(S"how's the forecast"
p3364
g15
tp3365
a(S"what's new in my gmail please"
p3366
g15
tp3367
a(S'could you make an event please'
p3368
g24
tp3369
asS'classifier'
p3370
ccopy_reg
_reconstructor
p3371
(csklearn.pipeline
Pipeline
p3372
c__builtin__
object
p3373
Ntp3374
Rp3375
(dp3376
S'_sklearn_version'
p3377
S'0.18.1'
p3378
sS'steps'
p3379
(lp3380
(S'vect'
p3381
g3371
(csklearn.feature_extraction.text
CountVectorizer
p3382
g3373
Ntp3383
Rp3384
(dp3385
S'decode_error'
p3386
Vstrict
p3387
sS'lowercase'
p3388
I01
sS'stop_words'
p3389
NsS'vocabulary'
p3390
NsS'tokenizer'
p3391
NsS'encoding'
p3392
Vutf-8
p3393
sS'token_pattern'
p3394
V(?u)\u005cb\u005cw\u005cw+\u005cb
p3395
sS'input'
p3396
Vcontent
p3397
sS'analyzer'
p3398
Vword
p3399
sS'vocabulary_'
p3400
(dp3401
Vraining
p3402
cnumpy.core.multiarray
scalar
p3403
(cnumpy
dtype
p3404
(S'i8'
p3405
I0
I1
tp3406
Rp3407
(I3
S'<'
p3408
NNNI-1
I-1
I0
tp3409
bS'\xa0\x00\x00\x00\x00\x00\x00\x00'
p3410
tp3411
Rp3412
sVtodays
p3413
g3403
(g3407
S'\xcd\x00\x00\x00\x00\x00\x00\x00'
p3414
tp3415
Rp3416
sVmute
p3417
g3403
(g3407
S'}\x00\x00\x00\x00\x00\x00\x00'
p3418
tp3419
Rp3420
sVskip
p3421
g3403
(g3407
S'\xb5\x00\x00\x00\x00\x00\x00\x00'
p3422
tp3423
Rp3424
sVmonth
p3425
g3403
(g3407
S'{\x00\x00\x00\x00\x00\x00\x00'
p3426
tp3427
Rp3428
sVsofter
p3429
g3403
(g3407
S'\xb8\x00\x00\x00\x00\x00\x00\x00'
p3430
tp3431
Rp3432
sVkill
p3433
g3403
(g3407
S'm\x00\x00\x00\x00\x00\x00\x00'
p3434
tp3435
Rp3436
sVedu
p3437
g3403
(g3407
S'<\x00\x00\x00\x00\x00\x00\x00'
p3438
tp3439
Rp3440
sVgo
p3441
g3403
(g3407
S'T\x00\x00\x00\x00\x00\x00\x00'
p3442
tp3443
Rp3444
sVcold
p3445
g3403
(g3407
S'$\x00\x00\x00\x00\x00\x00\x00'
p3446
tp3447
Rp3448
sVfind
p3449
g3403
(g3407
S'G\x00\x00\x00\x00\x00\x00\x00'
p3450
tp3451
Rp3452
sVprevious
p3453
g3403
(g3407
S'\x96\x00\x00\x00\x00\x00\x00\x00'
p3454
tp3455
Rp3456
sVspotify
p3457
g3403
(g3407
S'\xbb\x00\x00\x00\x00\x00\x00\x00'
p3458
tp3459
Rp3460
sVpause
p3461
g3403
(g3407
S'\x8f\x00\x00\x00\x00\x00\x00\x00'
p3462
tp3463
Rp3464
sVsnowing
p3465
g3403
(g3407
S'\xb7\x00\x00\x00\x00\x00\x00\x00'
p3466
tp3467
Rp3468
sVhot
p3469
g3403
(g3407
S'`\x00\x00\x00\x00\x00\x00\x00'
p3470
tp3471
Rp3472
sVsend
p3473
g3403
(g3407
S'\xaf\x00\x00\x00\x00\x00\x00\x00'
p3474
tp3475
Rp3476
sVaren
p3477
g3403
(g3407
S'\r\x00\x00\x00\x00\x00\x00\x00'
p3478
tp3479
Rp3480
sVto
p3481
g3403
(g3407
S'\xcb\x00\x00\x00\x00\x00\x00\x00'
p3482
tp3483
Rp3484
sVadd
p3485
g3403
(g3407
S'\x02\x00\x00\x00\x00\x00\x00\x00'
p3486
tp3487
Rp3488
sVgoing
p3489
g3403
(g3407
S'U\x00\x00\x00\x00\x00\x00\x00'
p3490
tp3491
Rp3492
sVmail
p3493
g3403
(g3407
S'u\x00\x00\x00\x00\x00\x00\x00'
p3494
tp3495
Rp3496
sVbye
p3497
g3403
(g3407
S'\x19\x00\x00\x00\x00\x00\x00\x00'
p3498
tp3499
Rp3500
sVdo
p3501
g3403
(g3407
S'4\x00\x00\x00\x00\x00\x00\x00'
p3502
tp3503
Rp3504
sVpredict
p3505
g3403
(g3407
S'\x94\x00\x00\x00\x00\x00\x00\x00'
p3506
tp3507
Rp3508
sVgood
p3509
g3403
(g3407
S'V\x00\x00\x00\x00\x00\x00\x00'
p3510
tp3511
Rp3512
sVemergency
p3513
g3403
(g3407
S'>\x00\x00\x00\x00\x00\x00\x00'
p3514
tp3515
Rp3516
sVget
p3517
g3403
(g3407
S'P\x00\x00\x00\x00\x00\x00\x00'
p3518
tp3519
Rp3520
sVya
p3521
g3403
(g3407
S'\xe6\x00\x00\x00\x00\x00\x00\x00'
p3522
tp3523
Rp3524
sVmaterial
p3525
g3403
(g3407
S'w\x00\x00\x00\x00\x00\x00\x00'
p3526
tp3527
Rp3528
sVwatch
p3529
g3403
(g3407
S'\xda\x00\x00\x00\x00\x00\x00\x00'
p3530
tp3531
Rp3532
sVanswer
p3533
g3403
(g3407
S'\t\x00\x00\x00\x00\x00\x00\x00'
p3534
tp3535
Rp3536
sVreport
p3537
g3403
(g3407
S'\xa5\x00\x00\x00\x00\x00\x00\x00'
p3538
tp3539
Rp3540
sVworld
p3541
g3403
(g3407
S'\xe4\x00\x00\x00\x00\x00\x00\x00'
p3542
tp3543
Rp3544
sVnow
p3545
g3403
(g3407
S'\x86\x00\x00\x00\x00\x00\x00\x00'
p3546
tp3547
Rp3548
sVday
p3549
g3403
(g3407
S',\x00\x00\x00\x00\x00\x00\x00'
p3550
tp3551
Rp3552
sVdreams
p3553
g3403
(g3407
S':\x00\x00\x00\x00\x00\x00\x00'
p3554
tp3555
Rp3556
sVintel
p3557
g3403
(g3407
S'h\x00\x00\x00\x00\x00\x00\x00'
p3558
tp3559
Rp3560
sVshoulder
p3561
g3403
(g3407
S'\xb1\x00\x00\x00\x00\x00\x00\x00'
p3562
tp3563
Rp3564
sVmoderate
p3565
g3403
(g3407
S'y\x00\x00\x00\x00\x00\x00\x00'
p3566
tp3567
Rp3568
sValex
p3569
g3403
(g3407
S'\x04\x00\x00\x00\x00\x00\x00\x00'
p3570
tp3571
Rp3572
sVlike
p3573
g3403
(g3407
S'p\x00\x00\x00\x00\x00\x00\x00'
p3574
tp3575
Rp3576
sVgossips
p3577
g3403
(g3407
S'X\x00\x00\x00\x00\x00\x00\x00'
p3578
tp3579
Rp3580
sVdidn
p3581
g3403
(g3407
S'3\x00\x00\x00\x00\x00\x00\x00'
p3582
tp3583
Rp3584
sValice
p3585
g3403
(g3407
S'\x05\x00\x00\x00\x00\x00\x00\x00'
p3586
tp3587
Rp3588
sVcloudy
p3589
g3403
(g3407
S'#\x00\x00\x00\x00\x00\x00\x00'
p3590
tp3591
Rp3592
sVtry
p3593
g3403
(g3407
S'\xd0\x00\x00\x00\x00\x00\x00\x00'
p3594
tp3595
Rp3596
sVtunez
p3597
g3403
(g3407
S'\xd4\x00\x00\x00\x00\x00\x00\x00'
p3598
tp3599
Rp3600
sVgimme
p3601
g3403
(g3407
S'Q\x00\x00\x00\x00\x00\x00\x00'
p3602
tp3603
Rp3604
sVnight
p3605
g3403
(g3407
S'\x84\x00\x00\x00\x00\x00\x00\x00'
p3606
tp3607
Rp3608
sVtunes
p3609
g3403
(g3407
S'\xd3\x00\x00\x00\x00\x00\x00\x00'
p3610
tp3611
Rp3612
sVclassifier
p3613
g3403
(g3407
S' \x00\x00\x00\x00\x00\x00\x00'
p3614
tp3615
Rp3616
sVinbox
p3617
g3403
(g3407
S'e\x00\x00\x00\x00\x00\x00\x00'
p3618
tp3619
Rp3620
sVset
p3621
g3403
(g3407
S'\xb0\x00\x00\x00\x00\x00\x00\x00'
p3622
tp3623
Rp3624
sVretrieve
p3625
g3403
(g3407
S'\xa6\x00\x00\x00\x00\x00\x00\x00'
p3626
tp3627
Rp3628
sVee
p3629
g3403
(g3407
S'=\x00\x00\x00\x00\x00\x00\x00'
p3630
tp3631
Rp3632
sVintelligence
p3633
g3403
(g3407
S'i\x00\x00\x00\x00\x00\x00\x00'
p3634
tp3635
Rp3636
sVfake
p3637
g3403
(g3407
S'C\x00\x00\x00\x00\x00\x00\x00'
p3638
tp3639
Rp3640
sVback
p3641
g3403
(g3407
S'\x0e\x00\x00\x00\x00\x00\x00\x00'
p3642
tp3643
Rp3644
sVhail
p3645
g3403
(g3407
S'[\x00\x00\x00\x00\x00\x00\x00'
p3646
tp3647
Rp3648
sVwednesday
p3649
g3403
(g3407
S'\xdd\x00\x00\x00\x00\x00\x00\x00'
p3650
tp3651
Rp3652
sVzero
p3653
g3403
(g3407
S'\xea\x00\x00\x00\x00\x00\x00\x00'
p3654
tp3655
Rp3656
sVcomputer
p3657
g3403
(g3407
S"'\x00\x00\x00\x00\x00\x00\x00"
p3658
tp3659
Rp3660
sVare
p3661
g3403
(g3407
S'\x0c\x00\x00\x00\x00\x00\x00\x00'
p3662
tp3663
Rp3664
sVclose
p3665
g3403
(g3407
S'"\x00\x00\x00\x00\x00\x00\x00'
p3666
tp3667
Rp3668
sVcalendar
p3669
g3403
(g3407
S'\x1b\x00\x00\x00\x00\x00\x00\x00'
p3670
tp3671
Rp3672
sVextract
p3673
g3403
(g3407
S'B\x00\x00\x00\x00\x00\x00\x00'
p3674
tp3675
Rp3676
sVsaturday
p3677
g3403
(g3407
S'\xaa\x00\x00\x00\x00\x00\x00\x00'
p3678
tp3679
Rp3680
sVout
p3681
g3403
(g3407
S'\x8d\x00\x00\x00\x00\x00\x00\x00'
p3682
tp3683
Rp3684
sVcategory
p3685
g3403
(g3407
S'\x1d\x00\x00\x00\x00\x00\x00\x00'
p3686
tp3687
Rp3688
sVwhat
p3689
g3403
(g3407
S'\xdf\x00\x00\x00\x00\x00\x00\x00'
p3690
tp3691
Rp3692
sVmonday
p3693
g3403
(g3407
S'z\x00\x00\x00\x00\x00\x00\x00'
p3694
tp3695
Rp3696
sVfor
p3697
g3403
(g3407
S'I\x00\x00\x00\x00\x00\x00\x00'
p3698
tp3699
Rp3700
sVclock
p3701
g3403
(g3407
S'!\x00\x00\x00\x00\x00\x00\x00'
p3702
tp3703
Rp3704
sVdebrief
p3705
g3403
(g3407
S'-\x00\x00\x00\x00\x00\x00\x00'
p3706
tp3707
Rp3708
sVcurrently
p3709
g3403
(g3407
S'+\x00\x00\x00\x00\x00\x00\x00'
p3710
tp3711
Rp3712
sVplease
p3713
g3403
(g3407
S'\x92\x00\x00\x00\x00\x00\x00\x00'
p3714
tp3715
Rp3716
sVbrief
p3717
g3403
(g3407
S'\x15\x00\x00\x00\x00\x00\x00\x00'
p3718
tp3719
Rp3720
sVforecast
p3721
g3403
(g3407
S'J\x00\x00\x00\x00\x00\x00\x00'
p3722
tp3723
Rp3724
sVcell
p3725
g3403
(g3407
S'\x1e\x00\x00\x00\x00\x00\x00\x00'
p3726
tp3727
Rp3728
sVre
p3729
g3403
(g3407
S'\xa2\x00\x00\x00\x00\x00\x00\x00'
p3730
tp3731
Rp3732
sVexit
p3733
g3403
(g3407
S'A\x00\x00\x00\x00\x00\x00\x00'
p3734
tp3735
Rp3736
sVabove
p3737
g3403
(g3407
S'\x00\x00\x00\x00\x00\x00\x00\x00'
p3738
tp3739
Rp3740
sVnew
p3741
g3403
(g3407
S'\x80\x00\x00\x00\x00\x00\x00\x00'
p3742
tp3743
Rp3744
sVnet
p3745
g3403
(g3407
S'\x7f\x00\x00\x00\x00\x00\x00\x00'
p3746
tp3747
Rp3748
sVgov
p3749
g3403
(g3407
S'Y\x00\x00\x00\x00\x00\x00\x00'
p3750
tp3751
Rp3752
sVissue
p3753
g3403
(g3407
S'k\x00\x00\x00\x00\x00\x00\x00'
p3754
tp3755
Rp3756
sVbe
p3757
g3403
(g3407
S'\x10\x00\x00\x00\x00\x00\x00\x00'
p3758
tp3759
Rp3760
sVshut
p3761
g3403
(g3407
S'\xb2\x00\x00\x00\x00\x00\x00\x00'
p3762
tp3763
Rp3764
sVnoise
p3765
g3403
(g3407
S'\x85\x00\x00\x00\x00\x00\x00\x00'
p3766
tp3767
Rp3768
sVtomorrow
p3769
g3403
(g3407
S'\xce\x00\x00\x00\x00\x00\x00\x00'
p3770
tp3771
Rp3772
sVschedule
p3773
g3403
(g3407
S'\xab\x00\x00\x00\x00\x00\x00\x00'
p3774
tp3775
Rp3776
sVscreen
p3777
g3403
(g3407
S'\xac\x00\x00\x00\x00\x00\x00\x00'
p3778
tp3779
Rp3780
sVdictates
p3781
g3403
(g3407
S'2\x00\x00\x00\x00\x00\x00\x00'
p3782
tp3783
Rp3784
sVfree
p3785
g3403
(g3407
S'K\x00\x00\x00\x00\x00\x00\x00'
p3786
tp3787
Rp3788
sVwe
p3789
g3403
(g3407
S'\xdb\x00\x00\x00\x00\x00\x00\x00'
p3790
tp3791
Rp3792
sVillustration
p3793
g3403
(g3407
S'c\x00\x00\x00\x00\x00\x00\x00'
p3794
tp3795
Rp3796
sVactive
p3797
g3403
(g3407
S'\x01\x00\x00\x00\x00\x00\x00\x00'
p3798
tp3799
Rp3800
sVorg
p3801
g3403
(g3407
S'\x8c\x00\x00\x00\x00\x00\x00\x00'
p3802
tp3803
Rp3804
sVpost
p3805
g3403
(g3407
S'\x93\x00\x00\x00\x00\x00\x00\x00'
p3806
tp3807
Rp3808
sVdon
p3809
g3403
(g3407
S'7\x00\x00\x00\x00\x00\x00\x00'
p3810
tp3811
Rp3812
sVon
p3813
g3403
(g3407
S'\x8a\x00\x00\x00\x00\x00\x00\x00'
p3814
tp3815
Rp3816
sVsearch
p3817
g3403
(g3407
S'\xad\x00\x00\x00\x00\x00\x00\x00'
p3818
tp3819
Rp3820
sVlast
p3821
g3403
(g3407
S'n\x00\x00\x00\x00\x00\x00\x00'
p3822
tp3823
Rp3824
sVanything
p3825
g3403
(g3407
S'\x0b\x00\x00\x00\x00\x00\x00\x00'
p3826
tp3827
Rp3828
sVof
p3829
g3403
(g3407
S'\x87\x00\x00\x00\x00\x00\x00\x00'
p3830
tp3831
Rp3832
sVcould
p3833
g3403
(g3407
S'(\x00\x00\x00\x00\x00\x00\x00'
p3834
tp3835
Rp3836
sVcurrent
p3837
g3403
(g3407
S'*\x00\x00\x00\x00\x00\x00\x00'
p3838
tp3839
Rp3840
sVquiet
p3841
g3403
(g3407
S'\x9c\x00\x00\x00\x00\x00\x00\x00'
p3842
tp3843
Rp3844
sVturn
p3845
g3403
(g3407
S'\xd5\x00\x00\x00\x00\x00\x00\x00'
p3846
tp3847
Rp3848
sVbrowsing
p3849
g3403
(g3407
S'\x18\x00\x00\x00\x00\x00\x00\x00'
p3850
tp3851
Rp3852
sVcom
p3853
g3403
(g3407
S'%\x00\x00\x00\x00\x00\x00\x00'
p3854
tp3855
Rp3856
sVthink
p3857
g3403
(g3407
S'\xc7\x00\x00\x00\x00\x00\x00\x00'
p3858
tp3859
Rp3860
sVfeed
p3861
g3403
(g3407
S'F\x00\x00\x00\x00\x00\x00\x00'
p3862
tp3863
Rp3864
sVthis
p3865
g3403
(g3407
S'\xc8\x00\x00\x00\x00\x00\x00\x00'
p3866
tp3867
Rp3868
sVwhats
p3869
g3403
(g3407
S'\xe0\x00\x00\x00\x00\x00\x00\x00'
p3870
tp3871
Rp3872
sVfeatures
p3873
g3403
(g3407
S'E\x00\x00\x00\x00\x00\x00\x00'
p3874
tp3875
Rp3876
sVsimple
p3877
g3403
(g3407
S'\xb4\x00\x00\x00\x00\x00\x00\x00'
p3878
tp3879
Rp3880
sVsweet
p3881
g3403
(g3407
S'\xc1\x00\x00\x00\x00\x00\x00\x00'
p3882
tp3883
Rp3884
sVtuesday
p3885
g3403
(g3407
S'\xd1\x00\x00\x00\x00\x00\x00\x00'
p3886
tp3887
Rp3888
sVyourself
p3889
g3403
(g3407
S'\xe9\x00\x00\x00\x00\x00\x00\x00'
p3890
tp3891
Rp3892
sVdown
p3893
g3403
(g3407
S'9\x00\x00\x00\x00\x00\x00\x00'
p3894
tp3895
Rp3896
sVput
p3897
g3403
(g3407
S'\x9a\x00\x00\x00\x00\x00\x00\x00'
p3898
tp3899
Rp3900
sVweather
p3901
g3403
(g3407
S'\xdc\x00\x00\x00\x00\x00\x00\x00'
p3902
tp3903
Rp3904
sVdecrease
p3905
g3403
(g3407
S'/\x00\x00\x00\x00\x00\x00\x00'
p3906
tp3907
Rp3908
sVthursday
p3909
g3403
(g3407
S'\xc9\x00\x00\x00\x00\x00\x00\x00'
p3910
tp3911
Rp3912
sVshutdown
p3913
g3403
(g3407
S'\xb3\x00\x00\x00\x00\x00\x00\x00'
p3914
tp3915
Rp3916
sVnews
p3917
g3403
(g3407
S'\x81\x00\x00\x00\x00\x00\x00\x00'
p3918
tp3919
Rp3920
sVopen
p3921
g3403
(g3407
S'\x8b\x00\x00\x00\x00\x00\x00\x00'
p3922
tp3923
Rp3924
sVyour
p3925
g3403
(g3407
S'\xe8\x00\x00\x00\x00\x00\x00\x00'
p3926
tp3927
Rp3928
sVquit
p3929
g3403
(g3407
S'\x9e\x00\x00\x00\x00\x00\x00\x00'
p3930
tp3931
Rp3932
sVtemperature
p3933
g3403
(g3407
S'\xc4\x00\x00\x00\x00\x00\x00\x00'
p3934
tp3935
Rp3936
sVwould
p3937
g3403
(g3407
S'\xe5\x00\x00\x00\x00\x00\x00\x00'
p3938
tp3939
Rp3940
sVsake
p3941
g3403
(g3407
S'\xa8\x00\x00\x00\x00\x00\x00\x00'
p3942
tp3943
Rp3944
sVdecent
p3945
g3403
(g3407
S'.\x00\x00\x00\x00\x00\x00\x00'
p3946
tp3947
Rp3948
sVcreate
p3949
g3403
(g3407
S')\x00\x00\x00\x00\x00\x00\x00'
p3950
tp3951
Rp3952
sVthere
p3953
g3403
(g3407
S'\xc6\x00\x00\x00\x00\x00\x00\x00'
p3954
tp3955
Rp3956
sVquestion
p3957
g3403
(g3407
S'\x9b\x00\x00\x00\x00\x00\x00\x00'
p3958
tp3959
Rp3960
sVwindow
p3961
g3403
(g3407
S'\xe3\x00\x00\x00\x00\x00\x00\x00'
p3962
tp3963
Rp3964
sVnext
p3965
g3403
(g3407
S'\x83\x00\x00\x00\x00\x00\x00\x00'
p3966
tp3967
Rp3968
sVstart
p3969
g3403
(g3407
S'\xbd\x00\x00\x00\x00\x00\x00\x00'
p3970
tp3971
Rp3972
sVlive
p3973
g3403
(g3407
S'q\x00\x00\x00\x00\x00\x00\x00'
p3974
tp3975
Rp3976
sVprogram
p3977
g3403
(g3407
S'\x99\x00\x00\x00\x00\x00\x00\x00'
p3978
tp3979
Rp3980
sVmusic
p3981
g3403
(g3407
S'|\x00\x00\x00\x00\x00\x00\x00'
p3982
tp3983
Rp3984
sVtell
p3985
g3403
(g3407
S'\xc3\x00\x00\x00\x00\x00\x00\x00'
p3986
tp3987
Rp3988
sVtoday
p3989
g3403
(g3407
S'\xcc\x00\x00\x00\x00\x00\x00\x00'
p3990
tp3991
Rp3992
sVpretends
p3993
g3403
(g3407
S'\x95\x00\x00\x00\x00\x00\x00\x00'
p3994
tp3995
Rp3996
sVsound
p3997
g3403
(g3407
S'\xba\x00\x00\x00\x00\x00\x00\x00'
p3998
tp3999
Rp4000
sVreleasing
p4001
g3403
(g3407
S'\xa4\x00\x00\x00\x00\x00\x00\x00'
p4002
tp4003
Rp4004
sVcommands
p4005
g3403
(g3407
S'&\x00\x00\x00\x00\x00\x00\x00'
p4006
tp4007
Rp4008
sVit
p4009
g3403
(g3407
S'l\x00\x00\x00\x00\x00\x00\x00'
p4010
tp4011
Rp4012
sVvolume
p4013
g3403
(g3407
S'\xd9\x00\x00\x00\x00\x00\x00\x00'
p4014
tp4015
Rp4016
sVtrain
p4017
g3403
(g3407
S'\xcf\x00\x00\x00\x00\x00\x00\x00'
p4018
tp4019
Rp4020
sVstick
p4021
g3403
(g3407
S'\xbe\x00\x00\x00\x00\x00\x00\x00'
p4022
tp4023
Rp4024
sVbeat
p4025
g3403
(g3407
S'\x11\x00\x00\x00\x00\x00\x00\x00'
p4026
tp4027
Rp4028
sVfoggy
p4029
g3403
(g3407
S'H\x00\x00\x00\x00\x00\x00\x00'
p4030
tp4031
Rp4032
sVgoogle
p4033
g3403
(g3407
S'W\x00\x00\x00\x00\x00\x00\x00'
p4034
tp4035
Rp4036
sVdocument
p4037
g3403
(g3407
S'5\x00\x00\x00\x00\x00\x00\x00'
p4038
tp4039
Rp4040
sVme
p4041
g3403
(g3407
S'x\x00\x00\x00\x00\x00\x00\x00'
p4042
tp4043
Rp4044
sVahead
p4045
g3403
(g3407
S'\x03\x00\x00\x00\x00\x00\x00\x00'
p4046
tp4047
Rp4048
sVfriday
p4049
g3403
(g3407
S'M\x00\x00\x00\x00\x00\x00\x00'
p4050
tp4051
Rp4052
sVunmute
p4053
g3403
(g3407
S'\xd6\x00\x00\x00\x00\x00\x00\x00'
p4054
tp4055
Rp4056
sVsnow
p4057
g3403
(g3407
S'\xb6\x00\x00\x00\x00\x00\x00\x00'
p4058
tp4059
Rp4060
sVup
p4061
g3403
(g3407
S'\xd7\x00\x00\x00\x00\x00\x00\x00'
p4062
tp4063
Rp4064
sVdogs
p4065
g3403
(g3407
S'6\x00\x00\x00\x00\x00\x00\x00'
p4066
tp4067
Rp4068
sVwill
p4069
g3403
(g3407
S'\xe2\x00\x00\x00\x00\x00\x00\x00'
p4070
tp4071
Rp4072
sVlouder
p4073
g3403
(g3407
S's\x00\x00\x00\x00\x00\x00\x00'
p4074
tp4075
Rp4076
sVcan
p4077
g3403
(g3407
S'\x1c\x00\x00\x00\x00\x00\x00\x00'
p4078
tp4079
Rp4080
sVbriefing
p4081
g3403
(g3407
S'\x16\x00\x00\x00\x00\x00\x00\x00'
p4082
tp4083
Rp4084
sVproblem
p4085
g3403
(g3407
S'\x97\x00\x00\x00\x00\x00\x00\x00'
p4086
tp4087
Rp4088
sVoutcome
p4089
g3403
(g3407
S'\x8e\x00\x00\x00\x00\x00\x00\x00'
p4090
tp4091
Rp4092
sVmy
p4093
g3403
(g3407
S'~\x00\x00\x00\x00\x00\x00\x00'
p4094
tp4095
Rp4096
sVdee
p4097
g3403
(g3407
S'0\x00\x00\x00\x00\x00\x00\x00'
p4098
tp4099
Rp4100
sVbrowser
p4101
g3403
(g3407
S'\x17\x00\x00\x00\x00\x00\x00\x00'
p4102
tp4103
Rp4104
sVgive
p4105
g3403
(g3407
S'R\x00\x00\x00\x00\x00\x00\x00'
p4106
tp4107
Rp4108
sValmost
p4109
g3403
(g3407
S'\x06\x00\x00\x00\x00\x00\x00\x00'
p4110
tp4111
Rp4112
sVlock
p4113
g3403
(g3407
S'r\x00\x00\x00\x00\x00\x00\x00'
p4114
tp4115
Rp4116
sVis
p4117
g3403
(g3407
S'j\x00\x00\x00\x00\x00\x00\x00'
p4118
tp4119
Rp4120
sVin
p4121
g3403
(g3407
S'd\x00\x00\x00\x00\x00\x00\x00'
p4122
tp4123
Rp4124
sVam
p4125
g3403
(g3407
S'\x07\x00\x00\x00\x00\x00\x00\x00'
p4126
tp4127
Rp4128
sVfuck
p4129
g3403
(g3407
S'N\x00\x00\x00\x00\x00\x00\x00'
p4130
tp4131
Rp4132
sVbackbone
p4133
g3403
(g3407
S'\x0f\x00\x00\x00\x00\x00\x00\x00'
p4134
tp4135
Rp4136
sVan
p4137
g3403
(g3407
S'\x08\x00\x00\x00\x00\x00\x00\x00'
p4138
tp4139
Rp4140
sVheadlines
p4141
g3403
(g3407
S']\x00\x00\x00\x00\x00\x00\x00'
p4142
tp4143
Rp4144
sVbeats
p4145
g3403
(g3407
S'\x12\x00\x00\x00\x00\x00\x00\x00'
p4146
tp4147
Rp4148
sVright
p4149
g3403
(g3407
S'\xa7\x00\x00\x00\x00\x00\x00\x00'
p4150
tp4151
Rp4152
sVhave
p4153
g3403
(g3407
S'\\\x00\x00\x00\x00\x00\x00\x00'
p4154
tp4155
Rp4156
sVstalls
p4157
g3403
(g3407
S'\xbc\x00\x00\x00\x00\x00\x00\x00'
p4158
tp4159
Rp4160
sVcheck
p4161
g3403
(g3407
S'\x1f\x00\x00\x00\x00\x00\x00\x00'
p4162
tp4163
Rp4164
sVif
p4165
g3403
(g3407
S'b\x00\x00\x00\x00\x00\x00\x00'
p4166
tp4167
Rp4168
sVinformation
p4169
g3403
(g3407
S'g\x00\x00\x00\x00\x00\x00\x00'
p4170
tp4171
Rp4172
sVrainy
p4173
g3403
(g3407
S'\xa1\x00\x00\x00\x00\x00\x00\x00'
p4174
tp4175
Rp4176
sVmake
p4177
g3403
(g3407
S'v\x00\x00\x00\x00\x00\x00\x00'
p4178
tp4179
Rp4180
sVsong
p4181
g3403
(g3407
S'\xb9\x00\x00\x00\x00\x00\x00\x00'
p4182
tp4183
Rp4184
sVwhen
p4185
g3403
(g3407
S'\xe1\x00\x00\x00\x00\x00\x00\x00'
p4186
tp4187
Rp4188
sVfeature
p4189
g3403
(g3407
S'D\x00\x00\x00\x00\x00\x00\x00'
p4190
tp4191
Rp4192
sVsame
p4193
g3403
(g3407
S'\xa9\x00\x00\x00\x00\x00\x00\x00'
p4194
tp4195
Rp4196
sVevent
p4197
g3403
(g3407
S'?\x00\x00\x00\x00\x00\x00\x00'
p4198
tp4199
Rp4200
sVbeside
p4201
g3403
(g3407
S'\x14\x00\x00\x00\x00\x00\x00\x00'
p4202
tp4203
Rp4204
sVhow
p4205
g3403
(g3407
S'a\x00\x00\x00\x00\x00\x00\x00'
p4206
tp4207
Rp4208
sVsunday
p4209
g3403
(g3407
S'\xc0\x00\x00\x00\x00\x00\x00\x00'
p4210
tp4211
Rp4212
sVbefore
p4213
g3403
(g3407
S'\x13\x00\x00\x00\x00\x00\x00\x00'
p4214
tp4215
Rp4216
sVyou
p4217
g3403
(g3407
S'\xe7\x00\x00\x00\x00\x00\x00\x00'
p4218
tp4219
Rp4220
sVgmail
p4221
g3403
(g3407
S'S\x00\x00\x00\x00\x00\x00\x00'
p4222
tp4223
Rp4224
sVevents
p4225
g3403
(g3407
S'@\x00\x00\x00\x00\x00\x00\x00'
p4226
tp4227
Rp4228
sVhigher
p4229
g3403
(g3407
S'_\x00\x00\x00\x00\x00\x00\x00'
p4230
tp4231
Rp4232
sVweek
p4233
g3403
(g3407
S'\xde\x00\x00\x00\x00\x00\x00\x00'
p4234
tp4235
Rp4236
sVplay
p4237
g3403
(g3407
S'\x90\x00\x00\x00\x00\x00\x00\x00'
p4238
tp4239
Rp4240
sVokay
p4241
g3403
(g3407
S'\x89\x00\x00\x00\x00\x00\x00\x00'
p4242
tp4243
Rp4244
sVhey
p4245
g3403
(g3407
S'^\x00\x00\x00\x00\x00\x00\x00'
p4246
tp4247
Rp4248
sVsee
p4249
g3403
(g3407
S'\xae\x00\x00\x00\x00\x00\x00\x00'
p4250
tp4251
Rp4252
sVdefault
p4253
g3403
(g3407
S'1\x00\x00\x00\x00\x00\x00\x00'
p4254
tp4255
Rp4256
sVany
p4257
g3403
(g3407
S'\n\x00\x00\x00\x00\x00\x00\x00'
p4258
tp4259
Rp4260
sVstop
p4261
g3403
(g3407
S'\xbf\x00\x00\x00\x00\x00\x00\x00'
p4262
tp4263
Rp4264
sVearlier
p4265
g3403
(g3407
S';\x00\x00\x00\x00\x00\x00\x00'
p4266
tp4267
Rp4268
sVproblems
p4269
g3403
(g3407
S'\x98\x00\x00\x00\x00\x00\x00\x00'
p4270
tp4271
Rp4272
sVquieter
p4273
g3403
(g3407
S'\x9d\x00\x00\x00\x00\x00\x00\x00'
p4274
tp4275
Rp4276
sVrain
p4277
g3403
(g3407
S'\x9f\x00\x00\x00\x00\x00\x00\x00'
p4278
tp4279
Rp4280
sVfreezing
p4281
g3403
(g3407
S'L\x00\x00\x00\x00\x00\x00\x00'
p4282
tp4283
Rp4284
sVbyebye
p4285
g3403
(g3407
S'\x1a\x00\x00\x00\x00\x00\x00\x00'
p4286
tp4287
Rp4288
sVtune
p4289
g3403
(g3407
S'\xd2\x00\x00\x00\x00\x00\x00\x00'
p4290
tp4291
Rp4292
sVgrief
p4293
g3403
(g3407
S'Z\x00\x00\x00\x00\x00\x00\x00'
p4294
tp4295
Rp4296
sVlower
p4297
g3403
(g3407
S't\x00\x00\x00\x00\x00\x00\x00'
p4298
tp4299
Rp4300
sVoff
p4301
g3403
(g3407
S'\x88\x00\x00\x00\x00\x00\x00\x00'
p4302
tp4303
Rp4304
sVusing
p4305
g3403
(g3407
S'\xd8\x00\x00\x00\x00\x00\x00\x00'
p4306
tp4307
Rp4308
sVread
p4309
g3403
(g3407
S'\xa3\x00\x00\x00\x00\x00\x00\x00'
p4310
tp4311
Rp4312
sVgather
p4313
g3403
(g3407
S'O\x00\x00\x00\x00\x00\x00\x00'
p4314
tp4315
Rp4316
sVtale
p4317
g3403
(g3407
S'\xc2\x00\x00\x00\x00\x00\x00\x00'
p4318
tp4319
Rp4320
sVtime
p4321
g3403
(g3407
S'\xca\x00\x00\x00\x00\x00\x00\x00'
p4322
tp4323
Rp4324
sVnewsfeed
p4325
g3403
(g3407
S'\x82\x00\x00\x00\x00\x00\x00\x00'
p4326
tp4327
Rp4328
sVthe
p4329
g3403
(g3407
S'\xc5\x00\x00\x00\x00\x00\x00\x00'
p4330
tp4331
Rp4332
sVincrease
p4333
g3403
(g3407
S'f\x00\x00\x00\x00\x00\x00\x00'
p4334
tp4335
Rp4336
sVplaying
p4337
g3403
(g3407
S'\x91\x00\x00\x00\x00\x00\x00\x00'
p4338
tp4339
Rp4340
sVdot
p4341
g3403
(g3407
S'8\x00\x00\x00\x00\x00\x00\x00'
p4342
tp4343
Rp4344
sVlatest
p4345
g3403
(g3407
S'o\x00\x00\x00\x00\x00\x00\x00'
p4346
tp4347
Rp4348
ssS'binary'
p4349
I00
sS'ngram_range'
p4350
(I1
I1
tp4351
sg3377
g3378
sS'max_df'
p4352
F1.0
sS'min_df'
p4353
I1
sS'max_features'
p4354
NsS'fixed_vocabulary_'
p4355
I00
sS'strip_accents'
p4356
NsS'dtype'
p4357
cnumpy
int64
p4358
sS'stop_words_'
p4359
c__builtin__
set
p4360
((lp4361
tp4362
Rp4363
sS'preprocessor'
p4364
Nsbtp4365
a(S'tfidf'
p4366
g3371
(csklearn.feature_extraction.text
TfidfTransformer
p4367
g3373
Ntp4368
Rp4369
(dp4370
S'smooth_idf'
p4371
I01
sg3377
g3378
sS'_idf_diag'
p4372
g3371
(cscipy.sparse.csr
csr_matrix
p4373
g3373
Ntp4374
Rp4375
(dp4376
S'indices'
p4377
cnumpy.core.multiarray
_reconstruct
p4378
(cnumpy
ndarray
p4379
(I0
tp4380
S'b'
p4381
tp4382
Rp4383
(I1
(I235
tp4384
g3404
(S'i4'
p4385
I0
I1
tp4386
Rp4387
(I3
S'<'
p4388
NNNI-1
I-1
I0
tp4389
bI00
S'\x00\x00\x00\x00\x01\x00\x00\x00\x02\x00\x00\x00\x03\x00\x00\x00\x04\x00\x00\x00\x05\x00\x00\x00\x06\x00\x00\x00\x07\x00\x00\x00\x08\x00\x00\x00\t\x00\x00\x00\n\x00\x00\x00\x0b\x00\x00\x00\x0c\x00\x00\x00\r\x00\x00\x00\x0e\x00\x00\x00\x0f\x00\x00\x00\x10\x00\x00\x00\x11\x00\x00\x00\x12\x00\x00\x00\x13\x00\x00\x00\x14\x00\x00\x00\x15\x00\x00\x00\x16\x00\x00\x00\x17\x00\x00\x00\x18\x00\x00\x00\x19\x00\x00\x00\x1a\x00\x00\x00\x1b\x00\x00\x00\x1c\x00\x00\x00\x1d\x00\x00\x00\x1e\x00\x00\x00\x1f\x00\x00\x00 \x00\x00\x00!\x00\x00\x00"\x00\x00\x00#\x00\x00\x00$\x00\x00\x00%\x00\x00\x00&\x00\x00\x00\'\x00\x00\x00(\x00\x00\x00)\x00\x00\x00*\x00\x00\x00+\x00\x00\x00,\x00\x00\x00-\x00\x00\x00.\x00\x00\x00/\x00\x00\x000\x00\x00\x001\x00\x00\x002\x00\x00\x003\x00\x00\x004\x00\x00\x005\x00\x00\x006\x00\x00\x007\x00\x00\x008\x00\x00\x009\x00\x00\x00:\x00\x00\x00;\x00\x00\x00<\x00\x00\x00=\x00\x00\x00>\x00\x00\x00?\x00\x00\x00@\x00\x00\x00A\x00\x00\x00B\x00\x00\x00C\x00\x00\x00D\x00\x00\x00E\x00\x00\x00F\x00\x00\x00G\x00\x00\x00H\x00\x00\x00I\x00\x00\x00J\x00\x00\x00K\x00\x00\x00L\x00\x00\x00M\x00\x00\x00N\x00\x00\x00O\x00\x00\x00P\x00\x00\x00Q\x00\x00\x00R\x00\x00\x00S\x00\x00\x00T\x00\x00\x00U\x00\x00\x00V\x00\x00\x00W\x00\x00\x00X\x00\x00\x00Y\x00\x00\x00Z\x00\x00\x00[\x00\x00\x00\\\x00\x00\x00]\x00\x00\x00^\x00\x00\x00_\x00\x00\x00`\x00\x00\x00a\x00\x00\x00b\x00\x00\x00c\x00\x00\x00d\x00\x00\x00e\x00\x00\x00f\x00\x00\x00g\x00\x00\x00h\x00\x00\x00i\x00\x00\x00j\x00\x00\x00k\x00\x00\x00l\x00\x00\x00m\x00\x00\x00n\x00\x00\x00o\x00\x00\x00p\x00\x00\x00q\x00\x00\x00r\x00\x00\x00s\x00\x00\x00t\x00\x00\x00u\x00\x00\x00v\x00\x00\x00w\x00\x00\x00x\x00\x00\x00y\x00\x00\x00z\x00\x00\x00{\x00\x00\x00|\x00\x00\x00}\x00\x00\x00~\x00\x00\x00\x7f\x00\x00\x00\x80\x00\x00\x00\x81\x00\x00\x00\x82\x00\x00\x00\x83\x00\x00\x00\x84\x00\x00\x00\x85\x00\x00\x00\x86\x00\x00\x00\x87\x00\x00\x00\x88\x00\x00\x00\x89\x00\x00\x00\x8a\x00\x00\x00\x8b\x00\x00\x00\x8c\x00\x00\x00\x8d\x00\x00\x00\x8e\x00\x00\x00\x8f\x00\x00\x00\x90\x00\x00\x00\x91\x00\x00\x00\x92\x00\x00\x00\x93\x00\x00\x00\x94\x00\x00\x00\x95\x00\x00\x00\x96\x00\x00\x00\x97\x00\x00\x00\x98\x00\x00\x00\x99\x00\x00\x00\x9a\x00\x00\x00\x9b\x00\x00\x00\x9c\x00\x00\x00\x9d\x00\x00\x00\x9e\x00\x00\x00\x9f\x00\x00\x00\xa0\x00\x00\x00\xa1\x00\x00\x00\xa2\x00\x00\x00\xa3\x00\x00\x00\xa4\x00\x00\x00\xa5\x00\x00\x00\xa6\x00\x00\x00\xa7\x00\x00\x00\xa8\x00\x00\x00\xa9\x00\x00\x00\xaa\x00\x00\x00\xab\x00\x00\x00\xac\x00\x00\x00\xad\x00\x00\x00\xae\x00\x00\x00\xaf\x00\x00\x00\xb0\x00\x00\x00\xb1\x00\x00\x00\xb2\x00\x00\x00\xb3\x00\x00\x00\xb4\x00\x00\x00\xb5\x00\x00\x00\xb6\x00\x00\x00\xb7\x00\x00\x00\xb8\x00\x00\x00\xb9\x00\x00\x00\xba\x00\x00\x00\xbb\x00\x00\x00\xbc\x00\x00\x00\xbd\x00\x00\x00\xbe\x00\x00\x00\xbf\x00\x00\x00\xc0\x00\x00\x00\xc1\x00\x00\x00\xc2\x00\x00\x00\xc3\x00\x00\x00\xc4\x00\x00\x00\xc5\x00\x00\x00\xc6\x00\x00\x00\xc7\x00\x00\x00\xc8\x00\x00\x00\xc9\x00\x00\x00\xca\x00\x00\x00\xcb\x00\x00\x00\xcc\x00\x00\x00\xcd\x00\x00\x00\xce\x00\x00\x00\xcf\x00\x00\x00\xd0\x00\x00\x00\xd1\x00\x00\x00\xd2\x00\x00\x00\xd3\x00\x00\x00\xd4\x00\x00\x00\xd5\x00\x00\x00\xd6\x00\x00\x00\xd7\x00\x00\x00\xd8\x00\x00\x00\xd9\x00\x00\x00\xda\x00\x00\x00\xdb\x00\x00\x00\xdc\x00\x00\x00\xdd\x00\x00\x00\xde\x00\x00\x00\xdf\x00\x00\x00\xe0\x00\x00\x00\xe1\x00\x00\x00\xe2\x00\x00\x00\xe3\x00\x00\x00\xe4\x00\x00\x00\xe5\x00\x00\x00\xe6\x00\x00\x00\xe7\x00\x00\x00\xe8\x00\x00\x00\xe9\x00\x00\x00\xea\x00\x00\x00'
p4390
tp4391
bsS'indptr'
p4392
g4378
(g4379
(I0
tp4393
g4381
tp4394
Rp4395
(I1
(I236
tp4396
g4387
I00
S'\x00\x00\x00\x00\x01\x00\x00\x00\x02\x00\x00\x00\x03\x00\x00\x00\x04\x00\x00\x00\x05\x00\x00\x00\x06\x00\x00\x00\x07\x00\x00\x00\x08\x00\x00\x00\t\x00\x00\x00\n\x00\x00\x00\x0b\x00\x00\x00\x0c\x00\x00\x00\r\x00\x00\x00\x0e\x00\x00\x00\x0f\x00\x00\x00\x10\x00\x00\x00\x11\x00\x00\x00\x12\x00\x00\x00\x13\x00\x00\x00\x14\x00\x00\x00\x15\x00\x00\x00\x16\x00\x00\x00\x17\x00\x00\x00\x18\x00\x00\x00\x19\x00\x00\x00\x1a\x00\x00\x00\x1b\x00\x00\x00\x1c\x00\x00\x00\x1d\x00\x00\x00\x1e\x00\x00\x00\x1f\x00\x00\x00 \x00\x00\x00!\x00\x00\x00"\x00\x00\x00#\x00\x00\x00$\x00\x00\x00%\x00\x00\x00&\x00\x00\x00\'\x00\x00\x00(\x00\x00\x00)\x00\x00\x00*\x00\x00\x00+\x00\x00\x00,\x00\x00\x00-\x00\x00\x00.\x00\x00\x00/\x00\x00\x000\x00\x00\x001\x00\x00\x002\x00\x00\x003\x00\x00\x004\x00\x00\x005\x00\x00\x006\x00\x00\x007\x00\x00\x008\x00\x00\x009\x00\x00\x00:\x00\x00\x00;\x00\x00\x00<\x00\x00\x00=\x00\x00\x00>\x00\x00\x00?\x00\x00\x00@\x00\x00\x00A\x00\x00\x00B\x00\x00\x00C\x00\x00\x00D\x00\x00\x00E\x00\x00\x00F\x00\x00\x00G\x00\x00\x00H\x00\x00\x00I\x00\x00\x00J\x00\x00\x00K\x00\x00\x00L\x00\x00\x00M\x00\x00\x00N\x00\x00\x00O\x00\x00\x00P\x00\x00\x00Q\x00\x00\x00R\x00\x00\x00S\x00\x00\x00T\x00\x00\x00U\x00\x00\x00V\x00\x00\x00W\x00\x00\x00X\x00\x00\x00Y\x00\x00\x00Z\x00\x00\x00[\x00\x00\x00\\\x00\x00\x00]\x00\x00\x00^\x00\x00\x00_\x00\x00\x00`\x00\x00\x00a\x00\x00\x00b\x00\x00\x00c\x00\x00\x00d\x00\x00\x00e\x00\x00\x00f\x00\x00\x00g\x00\x00\x00h\x00\x00\x00i\x00\x00\x00j\x00\x00\x00k\x00\x00\x00l\x00\x00\x00m\x00\x00\x00n\x00\x00\x00o\x00\x00\x00p\x00\x00\x00q\x00\x00\x00r\x00\x00\x00s\x00\x00\x00t\x00\x00\x00u\x00\x00\x00v\x00\x00\x00w\x00\x00\x00x\x00\x00\x00y\x00\x00\x00z\x00\x00\x00{\x00\x00\x00|\x00\x00\x00}\x00\x00\x00~\x00\x00\x00\x7f\x00\x00\x00\x80\x00\x00\x00\x81\x00\x00\x00\x82\x00\x00\x00\x83\x00\x00\x00\x84\x00\x00\x00\x85\x00\x00\x00\x86\x00\x00\x00\x87\x00\x00\x00\x88\x00\x00\x00\x89\x00\x00\x00\x8a\x00\x00\x00\x8b\x00\x00\x00\x8c\x00\x00\x00\x8d\x00\x00\x00\x8e\x00\x00\x00\x8f\x00\x00\x00\x90\x00\x00\x00\x91\x00\x00\x00\x92\x00\x00\x00\x93\x00\x00\x00\x94\x00\x00\x00\x95\x00\x00\x00\x96\x00\x00\x00\x97\x00\x00\x00\x98\x00\x00\x00\x99\x00\x00\x00\x9a\x00\x00\x00\x9b\x00\x00\x00\x9c\x00\x00\x00\x9d\x00\x00\x00\x9e\x00\x00\x00\x9f\x00\x00\x00\xa0\x00\x00\x00\xa1\x00\x00\x00\xa2\x00\x00\x00\xa3\x00\x00\x00\xa4\x00\x00\x00\xa5\x00\x00\x00\xa6\x00\x00\x00\xa7\x00\x00\x00\xa8\x00\x00\x00\xa9\x00\x00\x00\xaa\x00\x00\x00\xab\x00\x00\x00\xac\x00\x00\x00\xad\x00\x00\x00\xae\x00\x00\x00\xaf\x00\x00\x00\xb0\x00\x00\x00\xb1\x00\x00\x00\xb2\x00\x00\x00\xb3\x00\x00\x00\xb4\x00\x00\x00\xb5\x00\x00\x00\xb6\x00\x00\x00\xb7\x00\x00\x00\xb8\x00\x00\x00\xb9\x00\x00\x00\xba\x00\x00\x00\xbb\x00\x00\x00\xbc\x00\x00\x00\xbd\x00\x00\x00\xbe\x00\x00\x00\xbf\x00\x00\x00\xc0\x00\x00\x00\xc1\x00\x00\x00\xc2\x00\x00\x00\xc3\x00\x00\x00\xc4\x00\x00\x00\xc5\x00\x00\x00\xc6\x00\x00\x00\xc7\x00\x00\x00\xc8\x00\x00\x00\xc9\x00\x00\x00\xca\x00\x00\x00\xcb\x00\x00\x00\xcc\x00\x00\x00\xcd\x00\x00\x00\xce\x00\x00\x00\xcf\x00\x00\x00\xd0\x00\x00\x00\xd1\x00\x00\x00\xd2\x00\x00\x00\xd3\x00\x00\x00\xd4\x00\x00\x00\xd5\x00\x00\x00\xd6\x00\x00\x00\xd7\x00\x00\x00\xd8\x00\x00\x00\xd9\x00\x00\x00\xda\x00\x00\x00\xdb\x00\x00\x00\xdc\x00\x00\x00\xdd\x00\x00\x00\xde\x00\x00\x00\xdf\x00\x00\x00\xe0\x00\x00\x00\xe1\x00\x00\x00\xe2\x00\x00\x00\xe3\x00\x00\x00\xe4\x00\x00\x00\xe5\x00\x00\x00\xe6\x00\x00\x00\xe7\x00\x00\x00\xe8\x00\x00\x00\xe9\x00\x00\x00\xea\x00\x00\x00\xeb\x00\x00\x00'
p4397
tp4398
bsS'maxprint'
p4399
I50
sS'_shape'
p4400
(I235
I235
tp4401
sg12
g4378
(g4379
(I0
tp4402
g4381
tp4403
Rp4404
(I1
(I235
tp4405
g3404
(S'f8'
p4406
I0
I1
tp4407
Rp4408
(I3
S'<'
p4409
NNNI-1
I-1
I0
tp4410
bI00
S'\x17;\xb8\xa4\xc8\xed\x1e@F\xde\xf0\xe7\x85\xde\x16@v\x1ez\x8d\xfcA\x13@\xbf\xeb\nY\xf4\xea\x19@\xd9\xf3\xd8D\x00(\x1c@\xaf\xe6\xd7(\x1f\x1c\x18@\x17;\xb8\xa4\xc8\xed\x1e@\xa8\xecN\xe0)\xf7\x13@\x81\xe1\xb5\xa1\xad&\x13@\x17;\xb8\xa4\xc8\xed\x1e@\x11\x02\x1f\x07_,\x10@\xdd\xd9)!\x07\x01\x0b@4X\x19i\x8e\x90\x12@^e\x1a\x85o\x9c\x16@\xbf\xeb\nY\xf4\xea\x19@\x17;\xb8\xa4\xc8\xed\x1e@\x93A\xece\x96N\x1d@\xcb\xd7\xbc&\xb8}\x18@\x17;\xb8\xa4\xc8\xed\x1e@\x93A\xece\x96N\x1d@\x93A\xece\x96N\x1d@\x17;\xb8\xa4\xc8\xed\x1e@\x17;\xb8\xa4\xc8\xed\x1e@F\x83\xb0\x9et;\x14@\xd9\xf3\xd8D\x00(\x1c@U\xfa\x0c\x06\xce\x88\x1a@\x17;\xb8\xa4\xc8\xed\x1e@\xf4u\xb0\xf3-\x05\x0e@\t\xec\xcb\xb2\x19]\n@\x17;\xb8\xa4\xc8\xed\x1e@\x17;\xb8\xa4\xc8\xed\x1e@\x98\x08\x05\xf6\xab\xfa\x06@\x17;\xb8\xa4\xc8\xed\x1e@\xd9kNF=\xfd\x14@q\x9f\xf8\xc8VV\x15@\xd0\x00A\xc7\x9b\xe9\x18@\xd0\x00A\xc7\x9b\xe9\x18@\x08\x1f\x9c\x86\x80C\x1b@\x17;\xb8\xa4\xc8\xed\x1e@\x06\x16m9\x9b\x99\x11@\x8b\xac\xcc\xd2\x85g\x0f@v\x1ez\x8d\xfcA\x13@oRu\xd1"\x8a\x10@\x17;\xb8\xa4\xc8\xed\x1e@Z\xfb\xba\xc3\x92\x98\x13@\x17;\xb8\xa4\xc8\xed\x1e@\x17;\xb8\xa4\xc8\xed\x1e@\x93A\xece\x96N\x1d@\x93A\xece\x96N\x1d@\xaf\xe6\xd7(\x1f\x1c\x18@\x17;\xb8\xa4\xc8\xed\x1e@\x17;\xb8\xa4\xc8\xed\x1e@\xe5M\xb5\x8f\xd2\x8d\t@\x17;\xb8\xa4\xc8\xed\x1e@\x17;\xb8\xa4\xc8\xed\x1e@C\x9a\xd6A\xe5`\x10@F\xde\xf0\xe7\x85\xde\x16@v\x1ez\x8d\xfcA\x13@\x93A\xece\x96N\x1d@\x17;\xb8\xa4\xc8\xed\x1e@\x93A\xece\x96N\x1d@\x93A\xece\x96N\x1d@\x17;\xb8\xa4\xc8\xed\x1e@\xf2?jA\xc8\x96\x0b@@\x85b\x18(\x8e\n@\x08\x1f\x9c\x86\x80C\x1b@\x17;\xb8\xa4\xc8\xed\x1e@\x17;\xb8\xa4\xc8\xed\x1e@\x17;\xb8\xa4\xc8\xed\x1e@\x17;\xb8\xa4\xc8\xed\x1e@\xfd\xaa_\xba\xf9\x85\x15@-\xbc\xfe\xee\x0eq\x17@\xd0\x00A\xc7\x9b\xe9\x18@#c\xae\xd1 \xf2\r@\xfd\xaa_\xba\xf9\x85\x15@\xa8\xecN\xe0)\xf7\x13@\xd0\x00A\xc7\x9b\xe9\x18@\x08\x97\x11\x88\xbd\x18\x14@\x17;\xb8\xa4\xc8\xed\x1e@\xd9\xf3\xd8D\x00(\x1c@C\x9a\xd6A\xe5`\x10@\x17;\xb8\xa4\xc8\xed\x1e@\xcb\xd7\xbc&\xb8}\x18@h\xbb\x9d\xdd\x03\xba\r@\xbc\xbb\xa0\x08p\xd3\x14@\x08\x1f\x9c\x86\x80C\x1b@\xd9\xf3\xd8D\x00(\x1c@\xb1-@/~\xe5\x11@\x17;\xb8\xa4\xc8\xed\x1e@\x93A\xece\x96N\x1d@\x17;\xb8\xa4\xc8\xed\x1e@\x93A\xece\x96N\x1d@\xcd\x019\xfb\xcc\xef\x08@\x92\xb9ag\xd3#\x16@\x93A\xece\x96N\x1d@\x9c\xac\xf9\xe47b\x19@\xd0\x00A\xc7\x9b\xe9\x18@-\xbc\xfe\xee\x0eq\x17@\xd6\x01\xef\x84`\xf9\x11@\x17;\xb8\xa4\xc8\xed\x1e@\xb7\x12\xa7\xc42\x0e\x0b@\x1e\x8a[3\xa1\xc4\x0f@\x17;\xb8\xa4\xc8\xed\x1e@\x08\x1f\x9c\x86\x80C\x1b@\xd9\xf3\xd8D\x00(\x1c@\x17;\xb8\xa4\xc8\xed\x1e@\x9d\xc8&a\x99\xc1\x0b@\x17;\xb8\xa4\xc8\xed\x1e@.K\xe4\x86\xe4P\x0f@\xeft\x1f\x8fF\xab\x14@-\xbc\xfe\xee\x0eq\x17@U\xfa\x0c\x06\xce\x88\x1a@\x17;\xb8\xa4\xc8\xed\x1e@\xa8\xecN\xe0)\xf7\x13@\xeft\x1f\x8fF\xab\x14@U\xfa\x0c\x06\xce\x88\x1a@\xbf\xeb\nY\xf4\xea\x19@\x90\x9d\x1b\xb3\xa5\xa7\r@\xfa\t\xcf\xec\x03M\x12@\x17;\xb8\xa4\xc8\xed\x1e@.,\xd0a\xde\xd8\x12@\x17;\xb8\xa4\xc8\xed\x1e@\x08\x97\x11\x88\xbd\x18\x14@\x08\x97\x11\x88\xbd\x18\x14@\x93A\xece\x96N\x1d@\x08\x1f\x9c\x86\x80C\x1b@j>\x03\xdf\xda\xb3\x08@\x93A\xece\x96N\x1d@\xa2\xfb\x9cs\x109\n@oRu\xd1"\x8a\x10@\x8d\x90\xdd\xc6\xef\xb7\x15@v\x1ez\x8d\xfcA\x13@\x93A\xece\x96N\x1d@\x17;\xb8\xa4\xc8\xed\x1e@\xd0\x00A\xc7\x9b\xe9\x18@\x93A\xece\x96N\x1d@\x81\xe1\xb5\xa1\xad&\x13@\x93A\xece\x96N\x1d@z\x91\xb8\xdbF\xe1\x05@T\xca\x02\xd7S\xa4\x0e@\x93A\xece\x96N\x1d@\x17;\xb8\xa4\xc8\xed\x1e@\x17;\xb8\xa4\xc8\xed\x1e@\x98B\x9a#[^\x16@\x82\xa4+\xf9+%\x17@\x93A\xece\x96N\x1d@\x0f\xc1\xb4\x86\x93\xbc\x00@\x93A\xece\x96N\x1d@\x93A\xece\x96N\x1d@\x17;\xb8\xa4\xc8\xed\x1e@\xbf\xeb\nY\xf4\xea\x19@\x17;\xb8\xa4\xc8\xed\x1e@\x17;\xb8\xa4\xc8\xed\x1e@\x08\x1f\x9c\x86\x80C\x1b@\x08\x1f\x9c\x86\x80C\x1b@\x17;\xb8\xa4\xc8\xed\x1e@\x93A\xece\x96N\x1d@\x17;\xb8\xa4\xc8\xed\x1e@\x93A\xece\x96N\x1d@\x93A\xece\x96N\x1d@\xd0\x00A\xc7\x9b\xe9\x18@\xd0\x00A\xc7\x9b\xe9\x18@\xaf\xe6\xd7(\x1f\x1c\x18@^e\x1a\x85o\x9c\x16@\x17;\xb8\xa4\xc8\xed\x1e@\x17;\xb8\xa4\xc8\xed\x1e@\xcb\xd7\xbc&\xb8}\x18@U\xfa\x0c\x06\xce\x88\x1a@\x17;\xb8\xa4\xc8\xed\x1e@\x17;\xb8\xa4\xc8\xed\x1e@\x08\x97\x11\x88\xbd\x18\x14@v\x1ez\x8d\xfcA\x13@F\xde\xf0\xe7\x85\xde\x16@q\x9f\xf8\xc8VV\x15@\xd9\xf3\xd8D\x00(\x1c@U\xfa\x0c\x06\xce\x88\x1a@\xd9\xf3\xd8D\x00(\x1c@\x17;\xb8\xa4\xc8\xed\x1e@v\x1ez\x8d\xfcA\x13@\x98B\x9a#[^\x16@\x17;\xb8\xa4\xc8\xed\x1e@U\xfa\x0c\x06\xce\x88\x1a@\x93A\xece\x96N\x1d@\xd0\x00A\xc7\x9b\xe9\x18@\x93A\xece\x96N\x1d@Tr\x82\x07\x0b^\x13@\xfd\xaa_\xba\xf9\x85\x15@\x06\x16m9\x9b\x99\x11@\x17;\xb8\xa4\xc8\xed\x1e@\xeft\x1f\x8fF\xab\x14@\x17;\xb8\xa4\xc8\xed\x1e@\x17\xb3-\xa6\x05\xc3\x17@\x08\x97\x11\x88\xbd\x18\x14@\x93A\xece\x96N\x1d@\x17;\xb8\xa4\xc8\xed\x1e@\x17\xb3-\xa6\x05\xc3\x17@\xfd\xaa_\xba\xf9\x85\x15@f\x01\x16\xa5\xd8\xc3\x06@\xe0X\x03q\xfe\x00\x11@\x17;\xb8\xa4\xc8\xed\x1e@\x90\x9d\x1b\xb3\xa5\xa7\r@\x08\x97\x11\x88\xbd\x18\x14@\xbfc\x80Z1\xc0\x12@\xce(\xa6\x1d\xbaz\x0b@\xf4u\xb0\xf3-\x05\x0e@\x08\x1f\x9c\x86\x80C\x1b@ \x1e;%\xa7\xd6\x13@\x17;\xb8\xa4\xc8\xed\x1e@\x17;\xb8\xa4\xc8\xed\x1e@\x08\x97\x11\x88\xbd\x18\x14@\xbf\xeb\nY\xf4\xea\x19@\x93A\xece\x96N\x1d@\xbf\xeb\nY\xf4\xea\x19@9\xd7\x9a-4|\x10@\x08\x1f\x9c\x86\x80C\x1b@\x81\xe1\xb5\xa1\xad&\x13@\x17;\xb8\xa4\xc8\xed\x1e@\xeft\x1f\x8fF\xab\x14@\xbf\xeb\nY\xf4\xea\x19@\x17;\xb8\xa4\xc8\xed\x1e@\xfd\xaa_\xba\xf9\x85\x15@\x08\x97\x11\x88\xbd\x18\x14@\xd4\x9d4w\xac\x06\x10@f\xa0\x1d\xd5\x96\xcb\x06@\x93A\xece\x96N\x1d@\x93A\xece\x96N\x1d@b\x83\xdc\xaa\x0e\xac\x11@\xbfc\x80Z1\xc0\x12@\x93A\xece\x96N\x1d@M\x0c\x8d\xf9\x18\xa8\x12@\x93A\xece\x96N\x1d@\xca\xf3\xf9%>\x84\x04@\xbf\xeb\nY\xf4\xea\x19@\x08\x1f\x9c\x86\x80C\x1b@\x08\x1f\x9c\x86\x80C\x1b@'
p4411
tp4412
bsbsS'use_idf'
p4413
I01
sS'sublinear_tf'
p4414
I00
sS'norm'
p4415
Vl2
p4416
sbtp4417
a(S'clsfr'
p4418
g3371
(csklearn.linear_model.stochastic_gradient
SGDClassifier
p4419
g3373
Ntp4420
Rp4421
(dp4422
S't_'
p4423
F8386.0
sS'n_jobs'
p4424
I1
sS'shuffle'
p4425
I01
sS'verbose'
p4426
I0
sS'classes_'
p4427
g4378
(g4379
(I0
tp4428
g4381
tp4429
Rp4430
(I1
(I2
tp4431
g3404
(S'S5'
p4432
I0
I1
tp4433
Rp4434
(I3
S'|'
p4435
NNNI5
I1
I0
tp4436
bI00
S'FalseTrue\x00'
p4437
tp4438
bsS'class_weight'
p4439
NsS'fit_intercept'
p4440
I01
sg8
g9
sS'random_state'
p4441
I451
sg3377
g3378
sS'loss_function'
p4442
csklearn.linear_model.sgd_fast
Hinge
p4443
(F1.0
tp4444
Rp4445
sS'C'
p4446
F1.0
sg7
I5
sS'epsilon'
p4447
F0.1
sS'learning_rate'
p4448
S'optimal'
p4449
sS'coef_'
p4450
g4378
(g4379
(I0
tp4451
g4381
tp4452
Rp4453
(I1
(I1
I235
tp4454
g4408
I00
S'\x00\x00\x00\x00\x00\x00\x00\x00Mr\xe8%RG\xfb\xbf{\xbd\x1f\xf16;\x0e@\x00\x00\x00\x00\x00\x00\x00\x00\xe1#}\x1c{\x0f\xf7\xbfx\xb2 \x98\xda\xff\xf5\xbf\x00\x00\x00\x00\x00\x00\x00\x00$\x1fW\xa8LR\xfa\xbf\xf40\xf5)GW\x01@xgc\xdc\xfb\xc6\xdb\xbf\x00\x00\x00\x00\x00\x00\x00\x00\xc8>\x83\x08u\x9c\xfe\xbf\x00\x00\x00\x00\x00\x00\x00\x00\x00\x00\x00\x00\x00\x00\x00\x00O\xfdK\xd4\xaft\x07\xc0\x00\x00\x00\x00\x00\x00\x00\x00\x00\x00\x00\x00\x00\x00\x00\x00\x00\x00\x00\x00\x00\x00\x00\x00\x00\x00\x00\x00\x00\x00\x00\x00\x00\x00\x00\x00\x00\x00\x00\x00\x00\x00\x00\x00\x00\x00\x00\x00\x00\x00\x00\x00\x00\x00\x00\x00\x00\x00\x00\x00\x00\x00\x00\x00{\xdfb\xb5M\xa8\x02\xc0l\xac6\xa3\x9c\xfa\xf5\xbf\xf6\x1d\xf3\xd246\x08\xc0\x86h\xfb\xf9#i\t\xc0\x85\xbfn\tl\x01\x05\xc0\xa0\x99\x12\x88)\x92\xe3\xbf\x00\x00\x00\x00\x00\x00\x00\x00\x00\x00\x00\x00\x00\x00\x00\x00\xee\xbd(\x01\xef2\x1b\xc0\x00\x00\x00\x00\x00\x00\x00\x00\xef}\xfa\xeav5\n\xc0J\xf8\xa7J\x85s\xf9\xbf\x00\x00\x00\x00\x00\x00\x00\x00\xed\xb4\x95Yw\x9c\x07\xc0\x00\x00\x00\x00\x00\x00\x00\x00\x00\x00\x00\x00\x00\x00\x00\x00\xd5a,\xdbR_\x06\xc0\x00\x00\x00\x00\x00\x00\x00\x00\xab\xc2\x1e\xad/A\x08@\x04\xf8\xd5\x80\x8cm\x03\xc0\x00\x00\x00\x00\x00\x00\x00\x00\x00\x00\x00\x00\x00\x00\x00\x00\x00\x00\x00\x00\x00\x00\x00\x00\x00\x00\x00\x00\x00\x00\x00\x00\x00\x00\x00\x00\x00\x00\x00\x00\x00\x00\x00\x00\x00\x00\x00\x00A\xef\xd1,\xb4;\x06\xc0\x00\x00\x00\x00\x00\x00\x00\x00xgc\xdc\xfb\xc6\xdb\xbfp\xf8\x17\xba\xaa\xf7\xfc\xbf\x00\x00\x00\x00\x00\x00\x00\x00\x00\x00\x00\x00\x00\x00\x00\x00\x00\x00\x00\x00\x00\x00\x00\x00\x00\x00\x00\x00\x00\x00\x00\x00B\x8a\x88\x01\xb5C\xfe\xbf\x00\x00\x00\x00\x00\x00\x00\x00xgc\xdc\xfb\xc6\xdb\xbf\x00\x00\x00\x00\x00\x00\x00\x00\x00\x00\x00\x00\x00\x00\x00\x00\x00\x00\x00\x00\x00\x00\x00\x00\xec\x00\xbb$\xe6^ @j\xca,\x9eM2\x03\xc0\x00\x00\x00\x00\x00\x00\x00\x00\x00\x00\x00\x00\x00\x00\x00\x00\x00\x00\x00\x00\x00\x00\x00\x00\x00\x00\x00\x00\x00\x00\x00\x00\x00\x00\x00\x00\x00\x00\x00\x00nU2\xfb\xddF\x05\xc0\x00\x00\x00\x00\x00\x00\x00\x00\x00\x00\x00\x00\x00\x00\x00\x00]\xdb\xa2\xc4\xbf\xa5\x05\xc0\xb16\x8a\x9c0H\t\xc0$\x1fW\xa8LR\xfa\xbf\x00\x00\x00\x00\x00\x00\x00\x00\x97\x8dr\xa5\xaf\x1f\x0c\xc0\x00\x00\x00\x00\x00\x00\x00\x00\x00\x00\x00\x00\x00\x00\x00\x00\xed\x81\xe1B\x1b=\x03\xc0\x00\x00\x00\x00\x00\x00\x00\x00\x00\x00\x00\x00\x00\x00\x00\x00\xdb\xf1\xd3\x94\xf0\x14\x0c\xc0\x9f\'\xcd`\xfe\xd8\x02\xc0\x00\x00\x00\x00\x00\x00\x00\x00\x00\x00\x00\x00\x00\x00\x00\x00\x00\x00\x00\x00\x00\x00\x00\x00\x00\x00\x00\x00\x00\x00\x00\x00\x00\x00\x00\x00\x00\x00\x00\x00\x00\x00\x00\x00\x00\x00\x00\x00\x00\x00\x00\x00\x00\x00\x00\x005N\xf7n\x89D\xfc\xbfY\xe7\x19\x1f\xf3F\xfc\xbf\x00\x00\x00\x00\x00\x00\x00\x00\x96^,\xea\xbe\x0e\x08\xc0\x00\x00\x00\x00\x00\x00\x00\x00\x00\x00\x00\x00\x00\x00\x00\x00\x0b4\xfc\xb4\x04\t\x01\xc0\x00\x00\x00\x00\x00\x00\x00\x00\xc9\xc7\x00\x03\xd3C\x03\xc0\x00\x00\x00\x00\x00\x00\x00\x00\x00\x00\x00\x00\x00\x00\x00\x00\x00\x00\x00\x00\x00\x00\x00\x00\x00\x00\x00\x00\x00\x00\x00\x00s)\xb2S\xec\xdf\xf8\xbfI\xe3zs\xc0v\xff\xbf\x00\x00\x00\x00\x00\x00\x00\x00D\xf5\xa7\xce\x1e\xae\xfd\xbf\x00\x00\x00\x00\x00\x00\x00\x00\x00\x00\x00\x00\x00\x00\x00\x00\x00\x00\x00\x00\x00\x00\x00\x00\x00\x00\x00\x00\x00\x00\x00\x00\x00\x00\x00\x00\x00\x00\x00\x00\xd3\xd5\xef\xf0\x07F\n\xc0\x00\x00\x00\x00\x00\x00\x00\x00\x00\x00\x00\x00\x00\x00\x00\x00V\x14}\xd9\xa8\x1d\x05\xc0\x01\xe7\xc3Snx\x00@\x00\x00\x00\x00\x00\x00\x00\x00\xda\xb34n\x9b\xa1\x02\xc0\x00\x00\x00\x00\x00\x00\x00\x00\x00\x00\x00\x00\x00\x00\x00\x00\x00\x00\x00\x00\x00\x00\x00\x00\x00\x00\x00\x00\x00\x00\x00\x00\xab\x95\xf7}\x068\xfb\xbf\xf0;C\xa9\x17~\x10\xc0\x00\x00\x00\x00\x00\x00\x00\x00Q\xc2\xd2\x1bc\x1f\xf6\xbf\x96\xe3\xc0\xf2\xa3Y\x00\xc0\x13\xc3Ataw\xf7\xbf\x00\x00\x00\x00\x00\x00\x00\x00\x00\x00\x00\x00\x00\x00\x00\x00\x00\x00\x00\x00\x00\x00\x00\x00\x00\x00\x00\x00\x00\x00\x00\x00\x00\x00\x00\x00\x00\x00\x00\x00\x0cR\xf4\x15\x97\xd5\x0b\xc0\x00\x00\x00\x00\x00\x00\x00\x00\xde\x0b\x9fG\x93\x9e\xfe\xbf\x0e\xd6_"\xc0A\xfc\xbf\x00\x00\x00\x00\x00\x00\x00\x00\x00\x00\x00\x00\x00\x00\x00\x00\x00\x00\x00\x00\x00\x00\x00\x00\x0c\x8a\xc5\xb9\x1e\xda\r\xc0\x00\x00\x00\x00\x00\x00\x00\x00\x85?\xd0\x80:m\x05\xc0,D\xc6jb\x01\xf3\xbf\x00\x00\x00\x00\x00\x00\x00\x00\x00\x00\x00\x00\x00\x00\x00\x00\x00\x00\x00\x00\x00\x00\x00\x00\x00\x00\x00\x00\x00\x00\x00\x00\x00\x00\x00\x00\x00\x00\x00\x00\x00\x00\x00\x00\x00\x00\x00\x00\x00\x00\x00\x00\x00\x00\x00\x00\x00\x00\x00\x00\x00\x00\x00\x00xgc\xdc\xfb\xc6\xdb\xbf\x00\x00\x00\x00\x00\x00\x00\x00\x00\x00\x00\x00\x00\x00\x00\x00\xeb\x17v\t\x93\xe4\x07\xc0\x00\x00\x00\x00\x00\x00\x00\x00\x00\x00\x00\x00\x00\x00\x00\x00\x00\x00\x00\x00\x00\x00\x00\x00\x00\x00\x00\x00\x00\x00\x00\x00C_k\x94\xe9;\x0c\xc0\x00\x00\x00\x00\x00\x00\x00\x00s)\xb2S\xec\xdf\xf8\xbf\x00\x00\x00\x00\x00\x00\x00\x00\x00\x00\x00\x00\x00\x00\x00\x00\x00\x00\x00\x00\x00\x00\x00\x00\x00\x00\x00\x00\x00\x00\x00\x00\x00\x00\x00\x00\x00\x00\x00\x00\xb4S\xc3\x9du\x99\x03@\x00\x00\x00\x00\x00\x00\x00\x00\x00\x00\x00\x00\x00\x00\x00\x00\x83\x9aF\x93\xa2\xbd\xf1\xbf\x00\x00\x00\x00\x00\x00\x00\x00\x00\x00\x00\x00\x00\x00\x00\x00\x00\x00\x00\x00\x00\x00\x00\x00B\x8a\x88\x01\xb5C\xfe\xbf\xb9\x8c\xc2#l\xa0\xf5\xbf\x00\x00\x00\x00\x00\x00\x00\x00\x00\x00\x00\x00\x00\x00\x00\x00\x00\x00\x00\x00\x00\x00\x00\x00\x00\x00\x00\x00\x00\x00\x00\x00\x00\x00\x00\x00\x00\x00\x00\x00zv\xcd5\xc4\xd8\t\xc0\x00\x00\x00\x00\x00\x00\x00\x00\xe7\xa4}\xad3\xbc\xf9\xbf\x00\x00\x00\x00\x00\x00\x00\x00\x16;\xc1Xg"\xf0\xbf\x00\x00\x00\x00\x00\x00\x00\x00\xb1vk)^_\x01\xc0\x00\x00\x00\x00\x00\x00\x00\x00\x00\x00\x00\x00\x00\x00\x00\x00\x00\x00\x00\x00\x00\x00\x00\x00\x9a\xa9\x8e\xadY}\x07\xc0\x00\x00\x00\x00\x00\x00\x00\x00\x8d4D\nXg\r\xc0d\xdfbluF\x03\xc0xgc\xdc\xfb\xc6\xdb\xbf\xd8\xd1\x9d\x90\x16\x1b\xfc\xbf\xdeP)\\#\x0e\r\xc03\xc9T\xa6\xe5\xb4\x12\xc0\xe9\x86\xec\xa4i&\xff\xbf9\xbeI-\xe0\x03\x01\xc0\x00\x00\x00\x00\x00\x00\x00\x00\x00\x00\x00\x00\x00\x00\x00\x00\x00\x00\x00\x00\x00\x00\x00\x00\x00\x00\x00\x00\x00\x00\x00\x00\x00\x00\x00\x00\x00\x00\x00\x00\x00\x00\x00\x00\x00\x00\x00\x00\x00\x00\x00\x00\x00\x00\x00\x00\x00\x00\x00\x00\x00\x00\x00\x00v\xdbG6\xad\xf5\x07\xc0+\xd1\xc8\xf3\x11\xf6\xf2\xbf\x00\x00\x00\x00\x00\x00\x00\x00\x00\x00\x00\x00\x00\x00\x00\x00$H\xf6\xd2\xda\x96\x03\xc0\x00\x00\x00\x00\x00\x00\x00\x00\x00\x00\x00\x00\x00\x00\x00\x00\xd9\xc8\x84*u\x84\x0f\xc0\x00\x00\x00\x00\x00\x00\x00\x00\x98\x8f\xf2\x1a\xbb`\xfe\xbf\x9d\xc5=\x8c@;\x00\xc0\x00\x00\x00\x00\x00\x00\x00\x00\x00\x00\x00\x00\x00\x00\x00\x00\x00\x00\x00\x00\x00\x00\x00\x00\x14\x16\xce\x1d\xb5]\xf6\xbf\x00\x00\x00\x00\x00\x00\x00\x00\x00\x00\x00\x00\x00\x00\x00\x00\xae\xd7\x13\xb2?w\xf2\xbf\xa0\x856P\xf4u\xde\xbf\x00\x00\x00\x00\x00\x00\x00\x00\x00\x00\x00\x00\x00\x00\x00\x00\x00\x00\x00\x00\x00\x00\x00\x00'
p4455
tp4456
bsg11
F0.001
sS'intercept_'
p4457
g4378
(g4379
(I0
tp4458
g4381
tp4459
Rp4460
(I1
(I1
tp4461
g4408
I00
S'c,\xfe\xac_N\xf0\xbf'
p4462
tp4463
bsS'_expanded_class_weight'
p4464
g4378
(g4379
(I0
tp4465
g4381
tp4466
Rp4467
(I1
(I2
tp4468
g4408
I00
S'\x00\x00\x00\x00\x00\x00\xf0?\x00\x00\x00\x00\x00\x00\xf0?'
p4469
tp4470
bsS'warm_start'
p4471
I00
sg2
g3
sS'eta0'
p4472
F0.0
sS'l1_ratio'
p4473
F0.15
sS'average'
p4474
I00
sS'power_t'
p4475
F0.5
sbtp4476
asbsb.