(ialicized_models
CommandMatchingModel
p0
(dp1
S'loss'
p2
S'hinge'
p3
sS'grammar'
p4
NsS'name'
p5
S'GOOGLE_MAIL_LIST_MAIL.model'
p6
sS'n_iter'
p7
I5
sS'penalty'
p8
S'none'
p9
sS'trained'
p10
I01
sS'alpha'
p11
F0.001
sS'data'
p12
(lp13
(S'any events on sunday'
p14
S'False'
p15
tp16
a(S"don't i have to do anything on friday"
p17
g15
tp18
a(S"what's in mail"
p19
S'True'
p20
tp21
a(S'what is on my calendar for this day'
p22
g15
tp23
a(S'give me the news please'
p24
g15
tp25
a(S'can you schedule new event please'
p26
g15
tp27
a(S'please could you check my inbox'
p28
g20
tp29
a(S'could you make new event'
p30
g15
tp31
a(S'could you schedule an event'
p32
g15
tp33
a(S'turn up the sound'
p34
g15
tp35
a(S'is it cloudy today'
p36
g15
tp37
a(S'time please'
p38
g15
tp39
a(S'pause the song please'
p40
g15
tp41
a(S'check calendar for wednesday'
p42
g15
tp43
a(S'schedule a new event please'
p44
g15
tp45
a(S'turn the tune down'
p46
g15
tp47
a(S'could you add a new event please'
p48
g15
tp49
a(S"please what's in new gmail"
p50
g20
tp51
a(S'is it raining this week'
p52
g15
tp53
a(S'check calendar for this day'
p54
g15
tp55
a(S"how's the temperature"
p56
g15
tp57
a(S'can you schedule new event'
p58
g15
tp59
a(S'schedule an event'
p60
g15
tp61
a(S'please open a browser'
p62
g15
tp63
a(S'am i free on tuesday'
p64
g15
tp65
a(S'spotify go back to the last song '
p66
g15
tp67
a(S'can you kill this window'
p68
g15
tp69
a(S'spotify play'
p70
g15
tp71
a(S'could you create event please'
p72
g15
tp73
a(S'check events for today'
p74
g15
tp75
a(S'what is in my inbox'
p76
g20
tp77
a(S'can you please kill active window'
p78
g15
tp79
a(S'please lock the screen'
p80
g15
tp81
a(S'is there anything i have to do on monday'
p82
g15
tp83
a(S'what do i have in a month'
p84
g15
tp85
a(S'check the current time'
p86
g15
tp87
a(S'get news feed'
p88
g15
tp89
a(S'please retrieve the time'
p90
g15
tp91
a(S'turn up the sound please'
p92
g15
tp93
a(S'could you open mail'
p94
g20
tp95
a(S"today's live news feed"
p96
g15
tp97
a(S'what are the newsfeed'
p98
g15
tp99
a(S'check google calendar for thursday'
p100
g15
tp101
a(S'any events on tuesday'
p102
g15
tp103
a(S"get if it's hot today"
p104
g15
tp105
a(S'what events are on wednesday'
p106
g15
tp107
a(S'tell me newsfeed'
p108
g15
tp109
a(S"what's in my gmail please"
p110
g20
tp111
a(S'can you please turn up the tunez'
p112
g15
tp113
a(S'would you check my gmail'
p114
g20
tp115
a(S'anything new in my gmail'
p116
g20
tp117
a(S'please can you check gmail'
p118
g20
tp119
a(S'can you please kill this window'
p120
g15
tp121
a(S'check calendar for today'
p122
g15
tp123
a(S'open browser'
p124
g15
tp125
a(S'what is in my inbox please'
p126
g20
tp127
a(S'check my gmail'
p128
g20
tp129
a(S'can you turn yourself off'
p130
g15
tp131
a(S'will it snow this week'
p132
g15
tp133
a(S'please pause'
p134
g15
tp135
a(S"what's this week's weather"
p136
g15
tp137
a(S'is there anything i have to do in a month'
p138
g15
tp139
a(S'check calendar on'
p140
g15
tp141
a(S'get clock please'
p142
g15
tp143
a(S'could you please schedule a new event'
p144
g15
tp145
a(S"if it's hot today"
p146
g15
tp147
a(S'can you please close active window'
p148
g15
tp149
a(S'shutdown'
p150
g15
tp151
a(S'am i free today'
p152
g15
tp153
a(S'please give me the current events please'
p154
g15
tp155
a(S"don't i have anything to do on tuesday"
p156
g15
tp157
a(S'song stop'
p158
g15
tp159
a(S'is it foggy today'
p160
g15
tp161
a(S'what are the the news'
p162
g15
tp163
a(S'what do i have on tomorrow'
p164
g15
tp165
a(S'please will you open my inbox'
p166
g20
tp167
a(S"what's in inbox"
p168
g20
tp169
a(S'go spotify please'
p170
g15
tp171
a(S'check events for tomorrow'
p172
g15
tp173
a(S'can you please shutdown the computer'
p174
g15
tp175
a(S'please stop song'
p176
g15
tp177
a(S'alice'
p178
g15
tp179
a(S'please spotify last'
p180
g15
tp181
a(S'can you turn the tune down'
p182
g15
tp183
a(S"don't i have any events on saturday"
p184
g15
tp185
a(S'am i free for sunday'
p186
g15
tp187
a(S'please would you check inbox'
p188
g20
tp189
a(S'please could you open inbox'
p190
g20
tp191
a(S'can you please kill the current window'
p192
g15
tp193
a(S'get current time'
p194
g15
tp195
a(S'play '
p196
g15
tp197
a(S'spotify play the last song'
p198
g15
tp199
a(S"how's the weather this week"
p200
g15
tp201
a(S"don't i have to do anything on"
p202
g15
tp203
a(S'what are the live news feed'
p204
g15
tp205
a(S"aren't there any events on saturday"
p206
g15
tp207
a(S'could you check new mail please'
p208
g20
tp209
a(S'hey alex'
p210
g15
tp211
a(S'open a browser'
p212
g15
tp213
a(S'can you create new event'
p214
g15
tp215
a(S'please what is in my gmail'
p216
g20
tp217
a(S'what is on my calendar for sunday'
p218
g15
tp219
a(S'do i have anything to do next'
p220
g15
tp221
a(S'do i have anything to do on sunday'
p222
g15
tp223
a(S'read time please'
p224
g15
tp225
a(S'can you check new gmail please'
p226
g20
tp227
a(S'go to dot net'
p228
g15
tp229
a(S'what events are on friday'
p230
g15
tp231
a(S"don't i have anything to do tomorrow"
p232
g15
tp233
a(S'please what is new in my gmail'
p234
g20
tp235
a(S'schedule a new event'
p236
g15
tp237
a(S'is there anything to do on friday'
p238
g15
tp239
a(S'any events on'
p240
g15
tp241
a(S'what do i have on friday'
p242
g15
tp243
a(S'do i have anything in a week'
p244
g15
tp245
a(S"aren't there any events on tuesday"
p246
g15
tp247
a(S"today's news"
p248
g15
tp249
a(S'can you turn up the volume please'
p250
g15
tp251
a(S'can you please turn up the volume'
p252
g15
tp253
a(S'check my calendar for today'
p254
g15
tp255
a(S'could you make event please'
p256
g15
tp257
a(S'can you put me on the lock screen please'
p258
g15
tp259
a(S'please can you turn up the volume'
p260
g15
tp261
a(S'check google calendar on tuesday'
p262
g15
tp263
a(S'what do i have on today'
p264
g15
tp265
a(S'can you mute'
p266
g15
tp267
a(S'check events on sunday'
p268
g15
tp269
a(S"don't i have anything on monday"
p270
g15
tp271
a(S'retrieve the time please'
p272
g15
tp273
a(S'can you turn the beat down'
p274
g15
tp275
a(S'is there anything to do on monday'
p276
g15
tp277
a(S'get me the news todays'
p278
g15
tp279
a(S'anything new in my mail'
p280
g20
tp281
a(S"get if it's rainy today"
p282
g15
tp283
a(S'could you create an event please'
p284
g15
tp285
a(S'please shut off'
p286
g15
tp287
a(S'what do i have on next'
p288
g15
tp289
a(S"please what's in my gmail"
p290
g20
tp291
a(S'kill the active window'
p292
g15
tp293
a(S'please open my mail'
p294
g20
tp295
a(S'is there anything i have to do on'
p296
g15
tp297
a(S'go to dot gov'
p298
g15
tp299
a(S"today's live news"
p300
g15
tp301
a(S'mute'
p302
g15
tp303
a(S'check google calendar for this month'
p304
g15
tp305
a(S'what is new in inbox'
p306
g20
tp307
a(S'anything new in my inbox'
p308
g20
tp309
a(S"don't i have to do anything in a month"
p310
g15
tp311
a(S'please shut down my computer'
p312
g15
tp313
a(S'check gmail'
p314
g20
tp315
a(S'would you check my mail'
p316
g20
tp317
a(S'please start browsing'
p318
g15
tp319
a(S'please check my gmail'
p320
g20
tp321
a(S'can you please turn up the tune'
p322
g15
tp323
a(S'what do i have on this day'
p324
g15
tp325
a(S'what is new in new mail please'
p326
g20
tp327
a(S'check my calendar on monday'
p328
g15
tp329
a(S'see ya alice'
p330
g15
tp331
a(S'headlines'
p332
g15
tp333
a(S"don't i have anything on next"
p334
g15
tp335
a(S'could you open my gmail'
p336
g20
tp337
a(S'is there anything i have to do on saturday'
p338
g15
tp339
a(S'will you check inbox'
p340
g20
tp341
a(S'check my calendar on saturday'
p342
g15
tp343
a(S'please google for'
p344
g15
tp345
a(S'please spotify play previous song'
p346
g15
tp347
a(S'live news feed today'
p348
g15
tp349
a(S'can you please shut off'
p350
g15
tp351
a(S'check calendar on month'
p352
g15
tp353
a(S'any events in a week'
p354
g15
tp355
a(S'please start default browser'
p356
g15
tp357
a(S'can you please turn up the beat'
p358
g15
tp359
a(S'can you add a new event please'
p360
g15
tp361
a(S'can you create an event please'
p362
g15
tp363
a(S'check google calendar on thursday'
p364
g15
tp365
a(S'do i have to do anything in a month'
p366
g15
tp367
a(S'can you please shut down'
p368
g15
tp369
a(S'what events do i have on sunday'
p370
g15
tp371
a(S'check my mail please'
p372
g20
tp373
a(S'what is newsfeed'
p374
g15
tp375
a(S"what's in my inbox please"
p376
g20
tp377
a(S'can you close this window'
p378
g15
tp379
a(S'check my calendar for sunday'
p380
g15
tp381
a(S'am i free in a week'
p382
g15
tp383
a(S'do i have anything'
p384
g15
tp385
a(S'please could you check inbox'
p386
g20
tp387
a(S'can you check gmail please'
p388
g20
tp389
a(S'make a new event'
p390
g15
tp391
a(S'make an event please'
p392
g15
tp393
a(S'can you please shut my computer down'
p394
g15
tp395
a(S'what events are on monday'
p396
g15
tp397
a(S'what is new in my inbox please'
p398
g20
tp399
a(S'spotify pause'
p400
g15
tp401
a(S'what is on my calendar for wednesday'
p402
g15
tp403
a(S'good night alice'
p404
g15
tp405
a(S'can you turn off my computer'
p406
g15
tp407
a(S'check google calendar for saturday'
p408
g15
tp409
a(S'current temperature'
p410
g15
tp411
a(S'find current news'
p412
g15
tp413
a(S'check my calendar for this week'
p414
g15
tp415
a(S'can you create new event please'
p416
g15
tp417
a(S'please check my inbox'
p418
g20
tp419
a(S'make the volume 0'
p420
g15
tp421
a(S'will you check my mail please'
p422
g20
tp423
a(S'anything in inbox'
p424
g20
tp425
a(S'can you please schedule new event'
p426
g15
tp427
a(S'alice go ahead please'
p428
g15
tp429
a(S"what's if it's cloudy this week"
p430
g15
tp431
a(S'please open a browser'
p432
g15
tp433
a(S"what's new in mail"
p434
g20
tp435
a(S'check events on thursday'
p436
g15
tp437
a(S'can you open browser please'
p438
g15
tp439
a(S'please check the clock right now'
p440
g15
tp441
a(S'could you open inbox please'
p442
g20
tp443
a(S'be quiet'
p444
g15
tp445
a(S'check google calendar for tuesday'
p446
g15
tp447
a(S'can you make event please'
p448
g15
tp449
a(S'please schedule event'
p450
g15
tp451
a(S'please will you check my inbox'
p452
g20
tp453
a(S'check events for this week'
p454
g15
tp455
a(S'could you please make new event'
p456
g15
tp457
a(S'what do i have to do on tomorrow'
p458
g15
tp459
a(S"what's the live news feed"
p460
g15
tp461
a(S'please check new gmail'
p462
g20
tp463
a(S'retrieve the current time please'
p464
g15
tp465
a(S'send me to the lock screen'
p466
g15
tp467
a(S'check google calendar on tomorrow'
p468
g15
tp469
a(S'tell me current events'
p470
g15
tp471
a(S'could you schedule an event please'
p472
g15
tp473
a(S'am i free for a month'
p474
g15
tp475
a(S'okay alice'
p476
g15
tp477
a(S'can you create a new event'
p478
g15
tp479
a(S'turn off the sound please'
p480
g15
tp481
a(S"get if it's freezing today"
p482
g15
tp483
a(S'check google calendar on monday'
p484
g15
tp485
a(S'tell me the news'
p486
g15
tp487
a(S'mute please'
p488
g15
tp489
a(S'check events on saturday'
p490
g15
tp491
a(S'would you check new mail'
p492
g20
tp493
a(S"what's if it's freezing today"
p494
g15
tp495
a(S'spotify play the song before'
p496
g15
tp497
a(S'please what is new in mail'
p498
g20
tp499
a(S'is there anything i have to do on friday'
p500
g15
tp501
a(S'put me on the lock screen please'
p502
g15
tp503
a(S'would you check my mail please'
p504
g20
tp505
a(S'next'
p506
g15
tp507
a(S'open my mail please'
p508
g20
tp509
a(S'is it snowing today'
p510
g15
tp511
a(S'please could you check mail'
p512
g20
tp513
a(S'could you schedule a new event'
p514
g15
tp515
a(S'is there anything to do on today'
p516
g15
tp517
a(S'please open browser'
p518
g15
tp519
a(S'please shut off my computer'
p520
g15
tp521
a(S'shutdown the computer'
p522
g15
tp523
a(S'can you please schedule a new event'
p524
g15
tp525
a(S'check my calendar on next'
p526
g15
tp527
a(S'temperature'
p528
g15
tp529
a(S'search google for'
p530
g15
tp531
a(S'please can you check my gmail'
p532
g20
tp533
a(S'what events are in a month'
p534
g15
tp535
a(S'open gmail please'
p536
g20
tp537
a(S'spotify pause please'
p538
g15
tp539
a(S'get me the clock'
p540
g15
tp541
a(S"don't i have anything to do on thursday"
p542
g15
tp543
a(S'could you create new event'
p544
g15
tp545
a(S'can you please close this window'
p546
g15
tp547
a(S'what do i have to do on saturday'
p548
g15
tp549
a(S'is there anything i have to do on sunday'
p550
g15
tp551
a(S'please play spotify '
p552
g15
tp553
a(S'what is on my calendar for thursday'
p554
g15
tp555
a(S'what events do i have in a month'
p556
g15
tp557
a(S'could you make a new event'
p558
g15
tp559
a(S'add new event please'
p560
g15
tp561
a(S'please pause song'
p562
g15
tp563
a(S'check calendar on thursday'
p564
g15
tp565
a(S'get live news feed'
p566
g15
tp567
a(S'turn the beat down please'
p568
g15
tp569
a(S'kill window'
p570
g15
tp571
a(S'please spotify previous song'
p572
g15
tp573
a(S'search for'
p574
g15
tp575
a(S'check calendar for this week'
p576
g15
tp577
a(S'would you check mail'
p578
g20
tp579
a(S'please kill this window'
p580
g15
tp581
a(S'check my calendar for tuesday'
p582
g15
tp583
a(S'intelligence report'
p584
g15
tp585
a(S"don't i have any events on wednesday"
p586
g15
tp587
a(S'kill this window'
p588
g15
tp589
a(S"don't i have to do anything on"
p590
g15
tp591
a(S'read the time please'
p592
g15
tp593
a(S'could you please add a new event'
p594
g15
tp595
a(S'create event please'
p596
g15
tp597
a(S'do i have to do anything on this day'
p598
g15
tp599
a(S'will you get the current events'
p600
g15
tp601
a(S'can you kill the current window'
p602
g15
tp603
a(S'when is it please'
p604
g15
tp605
a(S'get the clock please'
p606
g15
tp607
a(S'tell me news feed'
p608
g15
tp609
a(S'will you check my inbox please'
p610
g20
tp611
a(S'what are the latest events '
p612
g15
tp613
a(S'do i have anything on thursday'
p614
g15
tp615
a(S'train a classifier to try to predict the category of a post'
p616
g15
tp617
a(S'check my calendar for friday'
p618
g15
tp619
a(S'please what is new in inbox'
p620
g20
tp621
a(S"please what's new in my gmail"
p622
g20
tp623
a(S'make the sound quieter'
p624
g15
tp625
a(S'give me the current events'
p626
g15
tp627
a(S'get the time'
p628
g15
tp629
a(S'can you lock my computer please'
p630
g15
tp631
a(S'am i free for friday'
p632
g15
tp633
a(S'what are the current events'
p634
g15
tp635
a(S'can you open a browser please'
p636
g15
tp637
a(S'okay alex'
p638
g15
tp639
a(S'do i have anything to do on monday'
p640
g15
tp641
a(S'stop the tunez'
p642
g15
tp643
a(S"what's in new gmail please"
p644
g20
tp645
a(S'would you open my mail please'
p646
g20
tp647
a(S'could you please make a new event'
p648
g15
tp649
a(S"don't i have anything to do in a month"
p650
g15
tp651
a(S'do i have anything to do on thursday'
p652
g15
tp653
a(S"get this week's temperature"
p654
g15
tp655
a(S'can you please make event'
p656
g15
tp657
a(S'could you check inbox please'
p658
g20
tp659
a(S'is there anything i have to do in a week'
p660
g15
tp661
a(S'could you check mail'
p662
g20
tp663
a(S'please could you check my mail'
p664
g20
tp665
a(S'do i have anything on friday'
p666
g15
tp667
a(S'any events on wednesday'
p668
g15
tp669
a(S'do i have to do anything in a week'
p670
g15
tp671
a(S'please lock my computer'
p672
g15
tp673
a(S'will you check mail'
p674
g20
tp675
a(S'please google search for'
p676
g15
tp677
a(S'skip spotify please'
p678
g15
tp679
a(S'are there any events on tomorrow'
p680
g15
tp681
a(S'what is on my calendar for this month'
p682
g15
tp683
a(S'please open dot com'
p684
g15
tp685
a(S'what is on my calendar'
p686
g15
tp687
a(S"don't i have to do anything on tuesday"
p688
g15
tp689
a(S'check events on tuesday'
p690
g15
tp691
a(S'shut up'
p692
g15
tp693
a(S'do i have anything to do on saturday'
p694
g15
tp695
a(S'time'
p696
g15
tp697
a(S'can you schedule a new event please'
p698
g15
tp699
a(S'louder please'
p700
g15
tp701
a(S'would you open inbox please'
p702
g20
tp703
a(S'make the sound higher'
p704
g15
tp705
a(S'search'
p706
g15
tp707
a(S'kill current window'
p708
g15
tp709
a(S'will you check my inbox'
p710
g20
tp711
a(S'can you please create a new event'
p712
g15
tp713
a(S'check calendar for tuesday'
p714
g15
tp715
a(S'check calendar on sunday'
p716
g15
tp717
a(S'please could you open gmail'
p718
g20
tp719
a(S'turn off the beats'
p720
g15
tp721
a(S'could you check my mail'
p722
g20
tp723
a(S'pause song please'
p724
g15
tp725
a(S'is there anything i have to do today'
p726
g15
tp727
a(S'can you turn my computer off'
p728
g15
tp729
a(S"if it's cloudy today"
p730
g15
tp731
a(S'will you open my gmail'
p732
g20
tp733
a(S'will it hail this week'
p734
g15
tp735
a(S'can you create an event'
p736
g15
tp737
a(S'can you shut up'
p738
g15
tp739
a(S'lower the tunez please'
p740
g15
tp741
a(S'would you open my gmail'
p742
g20
tp743
a(S'check my calendar on tomorrow'
p744
g15
tp745
a(S'can you get the latest headlines'
p746
g15
tp747
a(S'check calendar for thursday'
p748
g15
tp749
a(S"this week's weather"
p750
g15
tp751
a(S'kill the music'
p752
g15
tp753
a(S'the tale pretends'
p754
g15
tp755
a(S'alice next please'
p756
g15
tp757
a(S'volume up'
p758
g15
tp759
a(S'check my mail'
p760
g20
tp761
a(S'spotify skip ahead please'
p762
g15
tp763
a(S'what do i have to do in a week'
p764
g15
tp765
a(S"what's if it's foggy this week"
p766
g15
tp767
a(S"what's the forecast this week"
p768
g15
tp769
a(S'start a default browser'
p770
g15
tp771
a(S'live newsfeed today'
p772
g15
tp773
a(S'spotify skip ahead'
p774
g15
tp775
a(S'could you schedule new event'
p776
g15
tp777
a(S'anything new in inbox'
p778
g20
tp779
a(S'will you open my inbox please'
p780
g20
tp781
a(S'what is new in my gmail'
p782
g20
tp783
a(S'please open my inbox'
p784
g20
tp785
a(S'what time is it right now'
p786
g15
tp787
a(S'check my calendar on wednesday'
p788
g15
tp789
a(S"what's in my mail"
p790
g20
tp791
a(S'do i have anything on next'
p792
g15
tp793
a(S'check calendar on tuesday'
p794
g15
tp795
a(S'please what is new in new gmail'
p796
g20
tp797
a(S'please get the time'
p798
g15
tp799
a(S'what is in mail please'
p800
g20
tp801
a(S'close the active window'
p802
g15
tp803
a(S'get temperature'
p804
g15
tp805
a(S'can you turn up the tunez'
p806
g15
tp807
a(S'please be quiet'
p808
g15
tp809
a(S'please what is in new gmail'
p810
g20
tp811
a(S'please check your watch'
p812
g15
tp813
a(S'please spotify start'
p814
g15
tp815
a(S'shut off'
p816
g15
tp817
a(S"what's new in new mail please"
p818
g20
tp819
a(S'turn it up please'
p820
g15
tp821
a(S"get today's forecast"
p822
g15
tp823
a(S'could you open my mail please'
p824
g20
tp825
a(S'please spotify last song'
p826
g15
tp827
a(S'would you check mail please'
p828
g20
tp829
a(S"if it's cold today"
p830
g15
tp831
a(S'do i have anything to do'
p832
g15
tp833
a(S"how's the weather today"
p834
g15
tp835
a(S"what're the newsfeed"
p836
g15
tp837
a(S'get the current time please'
p838
g15
tp839
a(S"how's the forecast this week"
p840
g15
tp841
a(S'please what is in new mail'
p842
g20
tp843
a(S'can you lock my computer please'
p844
g15
tp845
a(S"don't i have anything on sunday"
p846
g15
tp847
a(S'check gmail please'
p848
g20
tp849
a(S'check events for next'
p850
g15
tp851
a(S'are there any events on tuesday'
p852
g15
tp853
a(S'check my calendar on'
p854
g15
tp855
a(S'could you open my gmail please'
p856
g20
tp857
a(S"if it's freezing today"
p858
g15
tp859
a(S'could you create event'
p860
g15
tp861
a(S'what do i have to do on tuesday'
p862
g15
tp863
a(S'get me the clock please'
p864
g15
tp865
a(S'turn it down'
p866
g15
tp867
a(S'what is news'
p868
g15
tp869
a(S'would you open gmail please'
p870
g20
tp871
a(S'gather information on'
p872
g15
tp873
a(S'please open gmail'
p874
g20
tp875
a(S"don't i have anything on saturday"
p876
g15
tp877
a(S'byebye'
p878
g15
tp879
a(S'do i have to do anything on wednesday'
p880
g15
tp881
a(S'will you open my mail please'
p882
g20
tp883
a(S'what do i have on tuesday'
p884
g15
tp885
a(S'what is in new mail please'
p886
g20
tp887
a(S'please close the window'
p888
g15
tp889
a(S'current time'
p890
g15
tp891
a(S"get today's temperature"
p892
g15
tp893
a(S'can you please add event'
p894
g15
tp895
a(S"what's in new mail please"
p896
g20
tp897
a(S"today's temperature"
p898
g15
tp899
a(S'kill the noise'
p900
g15
tp901
a(S'please could you open my inbox'
p902
g20
tp903
a(S'is there anything to do in a week'
p904
g15
tp905
a(S'go back'
p906
g15
tp907
a(S"aren't there any events on sunday"
p908
g15
tp909
a(S'can you please turn my computer off'
p910
g15
tp911
a(S'please check what time it is'
p912
g15
tp913
a(S'please get current time'
p914
g15
tp915
a(S"don't i have any events on tomorrow"
p916
g15
tp917
a(S'will you check gmail'
p918
g20
tp919
a(S'is there anything to do on tomorrow'
p920
g15
tp921
a(S'please read time'
p922
g15
tp923
a(S'could you schedule a new event please'
p924
g15
tp925
a(S'find live newsfeed'
p926
g15
tp927
a(S'give me intel on current events'
p928
g15
tp929
a(S'check events on friday'
p930
g15
tp931
a(S"don't i have anything to do on next"
p932
g15
tp933
a(S'todays headlines'
p934
g15
tp935
a(S'please what is new in my mail'
p936
g20
tp937
a(S'are there any events on'
p938
g15
tp939
a(S'will it hail today'
p940
g15
tp941
a(S'please start'
p942
g15
tp943
a(S'could you open my mail'
p944
g20
tp945
a(S"don't i have any events in a month"
p946
g15
tp947
a(S'please turn it up'
p948
g15
tp949
a(S'please turn off'
p950
g15
tp951
a(S'will you get the current events for me'
p952
g15
tp953
a(S'please get the current time'
p954
g15
tp955
a(S'unmute please'
p956
g15
tp957
a(S'what are the live news'
p958
g15
tp959
a(S'please make new event'
p960
g15
tp961
a(S'open inbox please'
p962
g20
tp963
a(S'do i have any events on this day'
p964
g15
tp965
a(S'do i have any events in a week'
p966
g15
tp967
a(S'please can you check my mail'
p968
g20
tp969
a(S'please schedule new event'
p970
g15
tp971
a(S'find headlines'
p972
g15
tp973
a(S'bye bye'
p974
g15
tp975
a(S'skip'
p976
g15
tp977
a(S'open dot edu'
p978
g15
tp979
a(S'do i have anything to do on friday'
p980
g15
tp981
a(S'lock computer please'
p982
g15
tp983
a(S'open mail'
p984
g20
tp985
a(S"what's if it's cloudy today"
p986
g15
tp987
a(S"don't i have to do anything today"
p988
g15
tp989
a(S'get the time please'
p990
g15
tp991
a(S'check my calendar on this month'
p992
g15
tp993
a(S"aren't there any events"
p994
g15
tp995
a(S'add a new event please'
p996
g15
tp997
a(S"don't i have anything"
p998
g15
tp999
a(S'could you create new event please'
p1000
g15
tp1001
a(S'check calendar on monday'
p1002
g15
tp1003
a(S'turn up the volume please'
p1004
g15
tp1005
a(S"don't i have anything on thursday"
p1006
g15
tp1007
a(S'open my inbox'
p1008
g20
tp1009
a(S'tell me live news feed'
p1010
g15
tp1011
a(S"aren't there any events in a week"
p1012
g15
tp1013
a(S'please open'
p1014
g15
tp1015
a(S'open gmail'
p1016
g20
tp1017
a(S'do i have to do anything next'
p1018
g15
tp1019
a(S'can you exit'
p1020
g15
tp1021
a(S'can you unmute please'
p1022
g15
tp1023
a(S'check my calendar on friday'
p1024
g15
tp1025
a(S'what events do i have on tuesday'
p1026
g15
tp1027
a(S'check my gmail please'
p1028
g20
tp1029
a(S'check mail'
p1030
g20
tp1031
a(S"this week's temperature"
p1032
g15
tp1033
a(S'could you check gmail please'
p1034
g20
tp1035
a(S'music down'
p1036
g15
tp1037
a(S'can you schedule event please'
p1038
g15
tp1039
a(S'could you check my inbox please'
p1040
g20
tp1041
a(S'please close current window'
p1042
g15
tp1043
a(S'turn off the computer'
p1044
g15
tp1045
a(S'do i have anything on'
p1046
g15
tp1047
a(S'are there any events'
p1048
g15
tp1049
a(S'please when is it'
p1050
g15
tp1051
a(S'schedule event'
p1052
g15
tp1053
a(S'can you add an event'
p1054
g15
tp1055
a(S'is there anything to do on wednesday'
p1056
g15
tp1057
a(S'any events on tomorrow'
p1058
g15
tp1059
a(S'can you add event'
p1060
g15
tp1061
a(S"what's in gmail please"
p1062
g20
tp1063
a(S'anything in my inbox'
p1064
g20
tp1065
a(S'do i have to do anything on monday'
p1066
g15
tp1067
a(S"i think i didn't answer an earlier question"
p1068
g15
tp1069
a(S'start a default browser please'
p1070
g15
tp1071
a(S'can you shutdown my computer'
p1072
g15
tp1073
a(S"don't i have any events on today"
p1074
g15
tp1075
a(S'check google calendar for tomorrow'
p1076
g15
tp1077
a(S'anything in my mail'
p1078
g20
tp1079
a(S'am i free for next'
p1080
g15
tp1081
a(S"aren't there any events on"
p1082
g15
tp1083
a(S'can you please shut down the computer'
p1084
g15
tp1085
a(S'current events'
p1086
g15
tp1087
a(S'what events do i have on tomorrow'
p1088
g15
tp1089
a(S"don't i have any events on friday"
p1090
g15
tp1091
a(S'check events on this day'
p1092
g15
tp1093
a(S'please start a browser'
p1094
g15
tp1095
a(S'check events for thursday'
p1096
g15
tp1097
a(S'make new event please'
p1098
g15
tp1099
a(S'please could you open my gmail'
p1100
g20
tp1101
a(S'close window'
p1102
g15
tp1103
a(S'check new mail'
p1104
g20
tp1105
a(S'google for'
p1106
g15
tp1107
a(S'shut down please'
p1108
g15
tp1109
a(S'do i have anything to do on tuesday'
p1110
g15
tp1111
a(S'start spotify please'
p1112
g15
tp1113
a(S'can you get the current events'
p1114
g15
tp1115
a(S'shut off my computer please'
p1116
g15
tp1117
a(S'live newsfeed'
p1118
g15
tp1119
a(S"don't i have to do anything on saturday"
p1120
g15
tp1121
a(S'please louder'
p1122
g15
tp1123
a(S"please what's new in new mail"
p1124
g20
tp1125
a(S'please will you open my gmail'
p1126
g20
tp1127
a(S'please retrieve the current time'
p1128
g15
tp1129
a(S"don't i have to do anything on thursday"
p1130
g15
tp1131
a(S'create an event'
p1132
g15
tp1133
a(S'would you open inbox'
p1134
g20
tp1135
a(S"how's the weather"
p1136
g15
tp1137
a(S'add an event please'
p1138
g15
tp1139
a(S'will you open inbox please'
p1140
g20
tp1141
a(S'am i free on tomorrow'
p1142
g15
tp1143
a(S'is there anything to do today'
p1144
g15
tp1145
a(S'news feed today'
p1146
g15
tp1147
a(S'can you add new event please'
p1148
g15
tp1149
a(S'what events are on thursday'
p1150
g15
tp1151
a(S'check google calendar on sunday'
p1152
g15
tp1153
a(S'can you send me to the lock screen'
p1154
g15
tp1155
a(S'please would you open gmail'
p1156
g20
tp1157
a(S'please what is in my inbox'
p1158
g20
tp1159
a(S'can you make it louder please'
p1160
g15
tp1161
a(S'turn the beat down'
p1162
g15
tp1163
a(S'can you please turn off my computer'
p1164
g15
tp1165
a(S'will it snow today'
p1166
g15
tp1167
a(S"what's if it's cold this week"
p1168
g15
tp1169
a(S'is there anything to do tomorrow'
p1170
g15
tp1171
a(S'open dot net'
p1172
g15
tp1173
a(S"what's in my gmail"
p1174
g20
tp1175
a(S'go back please'
p1176
g15
tp1177
a(S'please would you open my gmail'
p1178
g20
tp1179
a(S'is there anything i have to do on thursday'
p1180
g15
tp1181
a(S'do i have anything on saturday'
p1182
g15
tp1183
a(S'am i free for wednesday'
p1184
g15
tp1185
a(S'check google calendar for this day'
p1186
g15
tp1187
a(S'please schedule an event'
p1188
g15
tp1189
a(S'please could you check my gmail'
p1190
g20
tp1191
a(S'get newsfeed'
p1192
g15
tp1193
a(S'could you please create an event'
p1194
g15
tp1195
a(S'please kill the current window'
p1196
g15
tp1197
a(S"don't i have anything on"
p1198
g15
tp1199
a(S'would you open my gmail please'
p1200
g20
tp1201
a(S'could you please make an event'
p1202
g15
tp1203
a(S'shut my computer down'
p1204
g15
tp1205
a(S'please close the current window'
p1206
g15
tp1207
a(S'spotify go ahead'
p1208
g15
tp1209
a(S'lower the volume'
p1210
g15
tp1211
a(S'any events in a month'
p1212
g15
tp1213
a(S"what're the live newsfeed"
p1214
g15
tp1215
a(S"if it's raining today"
p1216
g15
tp1217
a(S'please read your watch'
p1218
g15
tp1219
a(S'retrieve the time'
p1220
g15
tp1221
a(S'what is new in gmail please'
p1222
g20
tp1223
a(S'can you check my gmail please'
p1224
g20
tp1225
a(S'can you schedule event'
p1226
g15
tp1227
a(S'can you check inbox'
p1228
g20
tp1229
a(S"what's new in my mail please"
p1230
g20
tp1231
a(S'live news'
p1232
g15
tp1233
a(S'is there anything to do on next'
p1234
g15
tp1235
a(S'can you put me on the lock screen'
p1236
g15
tp1237
a(S'can you shutdown the computer'
p1238
g15
tp1239
a(S'check events on'
p1240
g15
tp1241
a(S'what is in my mail please'
p1242
g20
tp1243
a(S'google please for'
p1244
g15
tp1245
a(S"aren't there any events on friday"
p1246
g15
tp1247
a(S'what time is it now'
p1248
g15
tp1249
a(S'check my inbox'
p1250
g20
tp1251
a(S"don't i have anything on tuesday"
p1252
g15
tp1253
a(S'make new event'
p1254
g15
tp1255
a(S"don't i have any events on next"
p1256
g15
tp1257
a(S'any events on monday'
p1258
g15
tp1259
a(S'what is live news feed'
p1260
g15
tp1261
a(S'will you check mail please'
p1262
g20
tp1263
a(S'are there any events on this day'
p1264
g15
tp1265
a(S'check calendar on today'
p1266
g15
tp1267
a(S"what's if it's foggy today"
p1268
g15
tp1269
a(S'create new event please'
p1270
g15
tp1271
a(S'am i free on sunday'
p1272
g15
tp1273
a(S'get forecast'
p1274
g15
tp1275
a(S'do i have any events on tomorrow'
p1276
g15
tp1277
a(S'check google calendar for this week'
p1278
g15
tp1279
a(S'please turn it down'
p1280
g15
tp1281
a(S"if it's raining this week"
p1282
g15
tp1283
a(S'can you please turn up the sound'
p1284
g15
tp1285
a(S'please make an event'
p1286
g15
tp1287
a(S'what events do i have on friday'
p1288
g15
tp1289
a(S'lock my computer'
p1290
g15
tp1291
a(S'check the clock right now'
p1292
g15
tp1293
a(S'turn up the tunes'
p1294
g15
tp1295
a(S'please read the clock'
p1296
g15
tp1297
a(S'could you check new gmail please'
p1298
g20
tp1299
a(S'will it rain today'
p1300
g15
tp1301
a(S'is there anything to do on'
p1302
g15
tp1303
a(S'open dot ee dee you'
p1304
g15
tp1305
a(S'forecast'
p1306
g15
tp1307
a(S"what's new in gmail"
p1308
g20
tp1309
a(S'can you add a new event'
p1310
g15
tp1311
a(S'am i free for thursday'
p1312
g15
tp1313
a(S'turn yourself off please'
p1314
g15
tp1315
a(S'please add a new event'
p1316
g15
tp1317
a(S'could you please create a new event'
p1318
g15
tp1319
a(S'check my calendar on this day'
p1320
g15
tp1321
a(S'please shut down the computer'
p1322
g15
tp1323
a(S'check google calendar for this day'
p1324
g15
tp1325
a(S'please check new mail'
p1326
g20
tp1327
a(S'give me the news'
p1328
g15
tp1329
a(S'what is live newsfeed'
p1330
g15
tp1331
a(S"what're the current news"
p1332
g15
tp1333
a(S'current news today'
p1334
g15
tp1335
a(S'can you add new event'
p1336
g15
tp1337
a(S'is it snowing this week'
p1338
g15
tp1339
a(S'what do i have to do on'
p1340
g15
tp1341
a(S'please create new event'
p1342
g15
tp1343
a(S'can you turn yourself off please'
p1344
g15
tp1345
a(S'shutdown please'
p1346
g15
tp1347
a(S'what events do i have on monday'
p1348
g15
tp1349
a(S"what're the news"
p1350
g15
tp1351
a(S'would you check new mail please'
p1352
g20
tp1353
a(S'please find out the latest headlines'
p1354
g15
tp1355
a(S'kill the active program'
p1356
g15
tp1357
a(S'could you make event'
p1358
g15
tp1359
a(S'can you shut off my computer'
p1360
g15
tp1361
a(S'google search please for'
p1362
g15
tp1363
a(S'could you make an event'
p1364
g15
tp1365
a(S'any events on next'
p1366
g15
tp1367
a(S'open a default browser please'
p1368
g15
tp1369
a(S'add new event'
p1370
g15
tp1371
a(S'unmute'
p1372
g15
tp1373
a(S'can you please schedule an event'
p1374
g15
tp1375
a(S'sound higher please'
p1376
g15
tp1377
a(S'are there any events on friday'
p1378
g15
tp1379
a(S'clock'
p1380
g15
tp1381
a(S'live news today'
p1382
g15
tp1383
a(S'read time'
p1384
g15
tp1385
a(S'what events do i have on thursday'
p1386
g15
tp1387
a(S'exit'
p1388
g15
tp1389
a(S'what is new in my mail'
p1390
g20
tp1391
a(S'please create event'
p1392
g15
tp1393
a(S'what time is it'
p1394
g15
tp1395
a(S'check calendar on friday'
p1396
g15
tp1397
a(S"this week's temperature"
p1398
g15
tp1399
a(S'what events are on next'
p1400
g15
tp1401
a(S"don't i have to do anything in a month"
p1402
g15
tp1403
a(S'next song'
p1404
g15
tp1405
a(S'check events on'
p1406
g15
tp1407
a(S"aren't there any events on wednesday"
p1408
g15
tp1409
a(S'open my gmail please'
p1410
g20
tp1411
a(S"today's current events"
p1412
g15
tp1413
a(S'get time please'
p1414
g15
tp1415
a(S"what're the current events"
p1416
g15
tp1417
a(S"aren't there any events on next"
p1418
g15
tp1419
a(S'am i free on monday'
p1420
g15
tp1421
a(S"please what's new in gmail"
p1422
g20
tp1423
a(S'do i have anything on monday'
p1424
g15
tp1425
a(S'exit please'
p1426
g15
tp1427
a(S"what's new in mail please"
p1428
g20
tp1429
a(S'check events for friday'
p1430
g15
tp1431
a(S'please open mail'
p1432
g20
tp1433
a(S'open my mail'
p1434
g20
tp1435
a(S'turn up the sound'
p1436
g15
tp1437
a(S'what is in inbox'
p1438
g20
tp1439
a(S'could you check mail please'
p1440
g20
tp1441
a(S"what's if it's raining today"
p1442
g15
tp1443
a(S'would you check gmail please'
p1444
g20
tp1445
a(S'can you make event'
p1446
g15
tp1447
a(S'could you schedule event please'
p1448
g15
tp1449
a(S"please what's new in my inbox"
p1450
g20
tp1451
a(S"don't i have anything to do on"
p1452
g15
tp1453
a(S'would you check gmail'
p1454
g20
tp1455
a(S'gather the latest headlines please'
p1456
g15
tp1457
a(S'what is in my mail'
p1458
g20
tp1459
a(S'get live newsfeed'
p1460
g15
tp1461
a(S'send me to the lock screen please'
p1462
g15
tp1463
a(S'can you please close current window'
p1464
g15
tp1465
a(S'can you check my mail please'
p1466
g20
tp1467
a(S"this week's weather"
p1468
g15
tp1469
a(S'please check the current time'
p1470
g15
tp1471
a(S'check calendar for this month'
p1472
g15
tp1473
a(S'would you check inbox please'
p1474
g20
tp1475
a(S"what's the weather today"
p1476
g15
tp1477
a(S'is there anything to do on saturday'
p1478
g15
tp1479
a(S'news today'
p1480
g15
tp1481
a(S"don't i have anything to do on friday"
p1482
g15
tp1483
a(S'please go back'
p1484
g15
tp1485
a(S'what is on my calendar for this week'
p1486
g15
tp1487
a(S'check calendar on wednesday'
p1488
g15
tp1489
a(S"today's forecast"
p1490
g15
tp1491
a(S'what do i have to do in a month'
p1492
g15
tp1493
a(S"what's if it's snowing this week"
p1494
g15
tp1495
a(S'check calendar for friday'
p1496
g15
tp1497
a(S"get if it's raining today"
p1498
g15
tp1499
a(S"don't i have to do anything on wednesday"
p1500
g15
tp1501
a(S'is it raining today'
p1502
g15
tp1503
a(S'do i have any events on friday'
p1504
g15
tp1505
a(S'start browsing please'
p1506
g15
tp1507
a(S'am i free for today'
p1508
g15
tp1509
a(S"don't i have to do anything on sunday"
p1510
g15
tp1511
a(S'do i have any events on tuesday'
p1512
g15
tp1513
a(S'can you please shut down my computer'
p1514
g15
tp1515
a(S'turn off my computer please'
p1516
g15
tp1517
a(S'spotify pause please'
p1518
g15
tp1519
a(S'what do i have to do on monday'
p1520
g15
tp1521
a(S'shut off please'
p1522
g15
tp1523
a(S'headlines today'
p1524
g15
tp1525
a(S'please would you open my inbox'
p1526
g20
tp1527
a(S'please search'
p1528
g15
tp1529
a(S"don't i have to do anything on next"
p1530
g15
tp1531
a(S"if it's rainy this week"
p1532
g15
tp1533
a(S'turn up the volume'
p1534
g15
tp1535
a(S"what's if it's rainy today"
p1536
g15
tp1537
a(S'check google calendar for wednesday'
p1538
g15
tp1539
a(S'is there anything i have to do on next'
p1540
g15
tp1541
a(S'can you please kill the active window'
p1542
g15
tp1543
a(S'turn off please'
p1544
g15
tp1545
a(S'volume higher please'
p1546
g15
tp1547
a(S'what do i have on'
p1548
g15
tp1549
a(S'could you please schedule event'
p1550
g15
tp1551
a(S"if it's cloudy this week"
p1552
g15
tp1553
a(S"how's the forecast today"
p1554
g15
tp1555
a(S'can you shut down my computer'
p1556
g15
tp1557
a(S'can you close the current window'
p1558
g15
tp1559
a(S'please tell me whats going on in the news please'
p1560
g15
tp1561
a(S'any new gmail'
p1562
g20
tp1563
a(S'please open inbox'
p1564
g20
tp1565
a(S'please read me the clock'
p1566
g15
tp1567
a(S'could you create a new event'
p1568
g15
tp1569
a(S"what's the temperature"
p1570
g15
tp1571
a(S"what's the current events"
p1572
g15
tp1573
a(S'can you please make new event'
p1574
g15
tp1575
a(S"don't i have to do anything tomorrow"
p1576
g15
tp1577
a(S'spotify pause the song please'
p1578
g15
tp1579
a(S'play the song before'
p1580
g15
tp1581
a(S'what is in gmail'
p1582
g20
tp1583
a(S'can you kill the window'
p1584
g15
tp1585
a(S'find newsfeed'
p1586
g15
tp1587
a(S'increase the volume'
p1588
g15
tp1589
a(S"don't i have any events in a week"
p1590
g15
tp1591
a(S'put me on the lock screen'
p1592
g15
tp1593
a(S'can you close the active window'
p1594
g15
tp1595
a(S"what's new in new mail"
p1596
g20
tp1597
a(S'spotify stop playing'
p1598
g15
tp1599
a(S'check google calendar on month'
p1600
g15
tp1601
a(S'please will you open gmail'
p1602
g20
tp1603
a(S'bye bye alice'
p1604
g15
tp1605
a(S'could you check my gmail'
p1606
g20
tp1607
a(S'any mail'
p1608
g20
tp1609
a(S'current events please'
p1610
g15
tp1611
a(S'give me intel'
p1612
g15
tp1613
a(S'can you check mail please'
p1614
g20
tp1615
a(S'make the volume softer'
p1616
g15
tp1617
a(S'check events on month'
p1618
g15
tp1619
a(S'please can you check inbox'
p1620
g20
tp1621
a(S"don't i have anything on wednesday"
p1622
g15
tp1623
a(S'could you add new event please'
p1624
g15
tp1625
a(S'what events do i have on this day'
p1626
g15
tp1627
a(S"get if it's cold this week"
p1628
g15
tp1629
a(S'spotify start please'
p1630
g15
tp1631
a(S'can you please mute'
p1632
g15
tp1633
a(S'open a default browser'
p1634
g15
tp1635
a(S'check events for tuesday'
p1636
g15
tp1637
a(S"this week's forecast"
p1638
g15
tp1639
a(S'check the clock please'
p1640
g15
tp1641
a(S'can you lock the screen'
p1642
g15
tp1643
a(S'live news feed'
p1644
g15
tp1645
a(S'we stick to simple problems in this post for the sake of illustration'
p1646
g15
tp1647
a(S'get current forecast'
p1648
g15
tp1649
a(S'can you turn the sound down'
p1650
g15
tp1651
a(S'check google calendar for next'
p1652
g15
tp1653
a(S'check my inbox please'
p1654
g20
tp1655
a(S'can you create a new event please'
p1656
g15
tp1657
a(S'turn my computer off please'
p1658
g15
tp1659
a(S'please open my gmail'
p1660
g20
tp1661
a(S'set volume 0'
p1662
g15
tp1663
a(S"don't i have to do anything in a week"
p1664
g15
tp1665
a(S'what do i have on saturday'
p1666
g15
tp1667
a(S'do i have anything tomorrow'
p1668
g15
tp1669
a(S'do i have any events on thursday'
p1670
g15
tp1671
a(S"don't i have any events"
p1672
g15
tp1673
a(S'get the current events'
p1674
g15
tp1675
a(S"get if it's cloudy this week"
p1676
g15
tp1677
a(S'go back to the last song '
p1678
g15
tp1679
a(S'current events'
p1680
g15
tp1681
a(S'can you please close the active window'
p1682
g15
tp1683
a(S"what's weather"
p1684
g15
tp1685
a(S'please kill the active window'
p1686
g15
tp1687
a(S'please can you check my inbox'
p1688
g20
tp1689
a(S'do i have anything to do today'
p1690
g15
tp1691
a(S'could you add new event'
p1692
g15
tp1693
a(S'read the clock'
p1694
g15
tp1695
a(S'make a new event please'
p1696
g15
tp1697
a(S"if it's snowing today"
p1698
g15
tp1699
a(S'check my calendar on this week'
p1700
g15
tp1701
a(S"please what's in gmail"
p1702
g20
tp1703
a(S'what events do i have on'
p1704
g15
tp1705
a(S'read the time'
p1706
g15
tp1707
a(S'could you please add new event'
p1708
g15
tp1709
a(S'open dot org'
p1710
g15
tp1711
a(S'what is new in gmail'
p1712
g20
tp1713
a(S'what events do i have on today'
p1714
g15
tp1715
a(S'please make event'
p1716
g15
tp1717
a(S'is there anything i have to do on this day'
p1718
g15
tp1719
a(S"please what's in inbox"
p1720
g20
tp1721
a(S'check google calendar on this week'
p1722
g15
tp1723
a(S'can you please add a new event'
p1724
g15
tp1725
a(S'is it rainy today'
p1726
g15
tp1727
a(S'extract the features using almost the same feature'
p1728
g15
tp1729
a(S'what events are going on right now'
p1730
g15
tp1731
a(S'please make a new event'
p1732
g15
tp1733
a(S'can you check new mail please'
p1734
g20
tp1735
a(S'please close this window'
p1736
g15
tp1737
a(S"what're the live news feed"
p1738
g15
tp1739
a(S'fake news'
p1740
g15
tp1741
a(S'is there anything i have to do'
p1742
g15
tp1743
a(S'please get me the clock'
p1744
g15
tp1745
a(S"don't i have anything to do in a week"
p1746
g15
tp1747
a(S'are there any events on next'
p1748
g15
tp1749
a(S"what're the headlines"
p1750
g15
tp1751
a(S'what is new in my mail please'
p1752
g20
tp1753
a(S'spotify last song please'
p1754
g15
tp1755
a(S'check events for'
p1756
g15
tp1757
a(S'open browser please'
p1758
g15
tp1759
a(S'am i free for saturday'
p1760
g15
tp1761
a(S'could you open gmail please'
p1762
g20
tp1763
a(S'read your watch'
p1764
g15
tp1765
a(S'check google calendar for friday'
p1766
g15
tp1767
a(S'will you open my inbox'
p1768
g20
tp1769
a(S'briefing'
p1770
g15
tp1771
a(S'can you add an event please'
p1772
g15
tp1773
a(S"what's today's forecast"
p1774
g15
tp1775
a(S"don't i have anything to do on this day"
p1776
g15
tp1777
a(S'see ya'
p1778
g15
tp1779
a(S'check google calendar on saturday'
p1780
g15
tp1781
a(S'what events are on tomorrow'
p1782
g15
tp1783
a(S"what's if it's cold today"
p1784
g15
tp1785
a(S'please check inbox'
p1786
g20
tp1787
a(S"don't i have anything to do on monday"
p1788
g15
tp1789
a(S'see you'
p1790
g15
tp1791
a(S'get news now'
p1792
g15
tp1793
a(S'spotify next song '
p1794
g15
tp1795
a(S'turn down the sound'
p1796
g15
tp1797
a(S'kill active window'
p1798
g15
tp1799
a(S'check my calendar for monday'
p1800
g15
tp1801
a(S'could you make a new event please'
p1802
g15
tp1803
a(S'find news feed'
p1804
g15
tp1805
a(S"if it's foggy this week"
p1806
g15
tp1807
a(S'would you check new gmail'
p1808
g20
tp1809
a(S'what is new in inbox please'
p1810
g20
tp1811
a(S"don't i have anything to do"
p1812
g15
tp1813
a(S'check my calendar for next'
p1814
g15
tp1815
a(S'search please for'
p1816
g15
tp1817
a(S'please search google'
p1818
g15
tp1819
a(S'tell me live news'
p1820
g15
tp1821
a(S'what events do i have on saturday'
p1822
g15
tp1823
a(S'google search for'
p1824
g15
tp1825
a(S'debrief me'
p1826
g15
tp1827
a(S'what is new in my inbox'
p1828
g20
tp1829
a(S'do i have to do anything on tuesday'
p1830
g15
tp1831
a(S"what's in my mail please"
p1832
g20
tp1833
a(S'search google for please'
p1834
g15
tp1835
a(S'will you check my mail'
p1836
g20
tp1837
a(S"please what's new in my mail"
p1838
g20
tp1839
a(S'turn off the computer please'
p1840
g15
tp1841
a(S'please will you check my gmail'
p1842
g20
tp1843
a(S'please what is new in my inbox'
p1844
g20
tp1845
a(S'is there anything i have to do on tomorrow'
p1846
g15
tp1847
a(S'turn the sound down please'
p1848
g15
tp1849
a(S'please what is in my mail'
p1850
g20
tp1851
a(S'please shutdown'
p1852
g15
tp1853
a(S'check google calendar'
p1854
g15
tp1855
a(S"aren't there any events on thursday"
p1856
g15
tp1857
a(S"what's if it's freezing this week"
p1858
g15
tp1859
a(S'can you check mail'
p1860
g20
tp1861
a(S'what are the current events today'
p1862
g15
tp1863
a(S'can you decrease the sound'
p1864
g15
tp1865
a(S'check mail please'
p1866
g20
tp1867
a(S'spotify go to the last song'
p1868
g15
tp1869
a(S'check inbox'
p1870
g20
tp1871
a(S'could you check my gmail please'
p1872
g20
tp1873
a(S'stop'
p1874
g15
tp1875
a(S'is it freezing today'
p1876
g15
tp1877
a(S'google for please'
p1878
g15
tp1879
a(S'can you lock computer please'
p1880
g15
tp1881
a(S'would you check new gmail please'
p1882
g20
tp1883
a(S"don't i have to do anything"
p1884
g15
tp1885
a(S'please sound higher'
p1886
g15
tp1887
a(S"what's the news feed"
p1888
g15
tp1889
a(S"today's newsfeed"
p1890
g15
tp1891
a(S'would you check my gmail please'
p1892
g20
tp1893
a(S'is there anything i have to do on tuesday'
p1894
g15
tp1895
a(S'make the volume zero'
p1896
g15
tp1897
a(S"what's the temperature this week"
p1898
g15
tp1899
a(S'will you get the headlines'
p1900
g15
tp1901
a(S'can you turn up the sound'
p1902
g15
tp1903
a(S"if it's foggy today"
p1904
g15
tp1905
a(S'can you create event please'
p1906
g15
tp1907
a(S'anything in mail'
p1908
g20
tp1909
a(S'do i have anything to do on next'
p1910
g15
tp1911
a(S'will you check my gmail'
p1912
g20
tp1913
a(S"don't i have anything to do on saturday"
p1914
g15
tp1915
a(S'is it rainy this week'
p1916
g15
tp1917
a(S'check your watch please'
p1918
g15
tp1919
a(S'what are the live newsfeed'
p1920
g15
tp1921
a(S'news now please'
p1922
g15
tp1923
a(S'check calendar for sunday'
p1924
g15
tp1925
a(S"what's if it's hot this week"
p1926
g15
tp1927
a(S'please go to'
p1928
g15
tp1929
a(S'please add new event'
p1930
g15
tp1931
a(S'please get clock'
p1932
g15
tp1933
a(S'go to'
p1934
g15
tp1935
a(S'shut down the computer'
p1936
g15
tp1937
a(S'what events are on today'
p1938
g15
tp1939
a(S'could you please make event'
p1940
g15
tp1941
a(S'what is on my calendar for tuesday'
p1942
g15
tp1943
a(S'please can you check new mail'
p1944
g20
tp1945
a(S'the news today'
p1946
g15
tp1947
a(S'please get time'
p1948
g15
tp1949
a(S"what's the live news"
p1950
g15
tp1951
a(S'please schedule a new event'
p1952
g15
tp1953
a(S'could you open my inbox'
p1954
g20
tp1955
a(S'spotify start the song please'
p1956
g15
tp1957
a(S'will you check new gmail please'
p1958
g20
tp1959
a(S'please will you open inbox'
p1960
g20
tp1961
a(S'please shutdown the computer'
p1962
g15
tp1963
a(S'what is in new gmail'
p1964
g20
tp1965
a(S'what is on my calendar for today'
p1966
g15
tp1967
a(S'what is in new gmail please'
p1968
g20
tp1969
a(S'please could you open mail'
p1970
g20
tp1971
a(S'tell me live newsfeed'
p1972
g15
tp1973
a(S'what is new in my gmail please'
p1974
g20
tp1975
a(S"what's new in new gmail"
p1976
g20
tp1977
a(S'open mail please'
p1978
g20
tp1979
a(S'what is new in mail please'
p1980
g20
tp1981
a(S'can you add event please'
p1982
g15
tp1983
a(S'can you make an event'
p1984
g15
tp1985
a(S'anything in gmail'
p1986
g20
tp1987
a(S'set the volume zero'
p1988
g15
tp1989
a(S'is there anything to do'
p1990
g15
tp1991
a(S'any gmail'
p1992
g20
tp1993
a(S'could you please add event'
p1994
g15
tp1995
a(S'please pause spotify'
p1996
g15
tp1997
a(S"today's current news "
p1998
g15
tp1999
a(S'shut down my computer please'
p2000
g15
tp2001
a(S'are there any events on wednesday'
p2002
g15
tp2003
a(S"get if it's raining this week"
p2004
g15
tp2005
a(S'get the current events'
p2006
g15
tp2007
a(S'what events are on this day'
p2008
g15
tp2009
a(S'create event'
p2010
g15
tp2011
a(S"what's in my inbox"
p2012
g20
tp2013
a(S'turn up the tunez'
p2014
g15
tp2015
a(S'can you turn the volume higher please'
p2016
g15
tp2017
a(S'get the clock'
p2018
g15
tp2019
a(S"don't i have anything to do on wednesday"
p2020
g15
tp2021
a(S'current weather'
p2022
g15
tp2023
a(S'turn up the volume'
p2024
g15
tp2025
a(S'please can you check mail'
p2026
g20
tp2027
a(S'am i free for this day'
p2028
g15
tp2029
a(S'is there anything to do on sunday'
p2030
g15
tp2031
a(S"don't i have to do anything on wednesday"
p2032
g15
tp2033
a(S'read me the clock'
p2034
g15
tp2035
a(S'check google calendar for'
p2036
g15
tp2037
a(S'is it cold today'
p2038
g15
tp2039
a(S'spotify play the song'
p2040
g15
tp2041
a(S'please close active window'
p2042
g15
tp2043
a(S'check events on today'
p2044
g15
tp2045
a(S'off'
p2046
g15
tp2047
a(S'what is in my gmail'
p2048
g20
tp2049
a(S'am i free for a week'
p2050
g15
tp2051
a(S'please could you check new gmail'
p2052
g20
tp2053
a(S'good night'
p2054
g15
tp2055
a(S'turn yourself off'
p2056
g15
tp2057
a(S"what's in gmail"
p2058
g20
tp2059
a(S'could you check new gmail'
p2060
g20
tp2061
a(S'are there any events in a week'
p2062
g15
tp2063
a(S'stop song please'
p2064
g15
tp2065
a(S'retrieve what time it is'
p2066
g15
tp2067
a(S"if it's rainy today"
p2068
g15
tp2069
a(S'check events on wednesday'
p2070
g15
tp2071
a(S'could you open mail please'
p2072
g20
tp2073
a(S'check my calendar on tuesday'
p2074
g15
tp2075
a(S'can you please exit'
p2076
g15
tp2077
a(S'alex'
p2078
g15
tp2079
a(S"don't i have to do anything on next"
p2080
g15
tp2081
a(S'predict the outcome on a new document'
p2082
g15
tp2083
a(S'search please'
p2084
g15
tp2085
a(S'please could you open my mail'
p2086
g20
tp2087
a(S'intel'
p2088
g15
tp2089
a(S'emergency shutdown'
p2090
g15
tp2091
a(S'will you check inbox please'
p2092
g20
tp2093
a(S'please can you turn the volume higher'
p2094
g15
tp2095
a(S"what's the temperature today"
p2096
g15
tp2097
a(S'can you please open a browser'
p2098
g15
tp2099
a(S'check what time it is please'
p2100
g15
tp2101
a(S'could you please add an event'
p2102
g15
tp2103
a(S'spotify play previous song please'
p2104
g15
tp2105
a(S"aren't there any events on today"
p2106
g15
tp2107
a(S'get headlines'
p2108
g15
tp2109
a(S'google'
p2110
g15
tp2111
a(S'please read the time'
p2112
g15
tp2113
a(S'can you please shut off my computer'
p2114
g15
tp2115
a(S'what do i have to do on sunday'
p2116
g15
tp2117
a(S'could you please schedule an event'
p2118
g15
tp2119
a(S'do i have to do anything on friday'
p2120
g15
tp2121
a(S'can you please kill the window'
p2122
g15
tp2123
a(S'can you schedule an event'
p2124
g15
tp2125
a(S'what is new in new gmail please'
p2126
g20
tp2127
a(S'please turn off the computer'
p2128
g15
tp2129
a(S"how's the temperature today"
p2130
g15
tp2131
a(S'find the current events'
p2132
g15
tp2133
a(S'get current weather'
p2134
g15
tp2135
a(S'can you shut down'
p2136
g15
tp2137
a(S'get time'
p2138
g15
tp2139
a(S'spotify go back'
p2140
g15
tp2141
a(S'can you please turn off'
p2142
g15
tp2143
a(S'am i free for'
p2144
g15
tp2145
a(S"don't i have any events on this day"
p2146
g15
tp2147
a(S'pause spotify'
p2148
g15
tp2149
a(S'please spotify pause'
p2150
g15
tp2151
a(S'please check the clock'
p2152
g15
tp2153
a(S'turn up the tune'
p2154
g15
tp2155
a(S'can you check new gmail'
p2156
g20
tp2157
a(S'lower the sound'
p2158
g15
tp2159
a(S'will you get the news for me'
p2160
g15
tp2161
a(S"what's the current news"
p2162
g15
tp2163
a(S'do i have anything to do in a week'
p2164
g15
tp2165
a(S'check inbox please'
p2166
g20
tp2167
a(S'can you please turn the sound down'
p2168
g15
tp2169
a(S'could you schedule event'
p2170
g15
tp2171
a(S'would you open my mail'
p2172
g20
tp2173
a(S'create a new event'
p2174
g15
tp2175
a(S'please would you check my inbox'
p2176
g20
tp2177
a(S'get the information'
p2178
g15
tp2179
a(S'please create a new event'
p2180
g15
tp2181
a(S'what do i have to do on thursday'
p2182
g15
tp2183
a(S"what's temperature"
p2184
g15
tp2185
a(S'stop playing'
p2186
g15
tp2187
a(S"what's the forecast today"
p2188
g15
tp2189
a(S"what's the the news"
p2190
g15
tp2191
a(S'spotify previous please'
p2192
g15
tp2193
a(S'can you please make a new event'
p2194
g15
tp2195
a(S'check calendar for tomorrow'
p2196
g15
tp2197
a(S'do i have any events on wednesday'
p2198
g15
tp2199
a(S'make the sound softer'
p2200
g15
tp2201
a(S"aren't there any events on monday"
p2202
g15
tp2203
a(S"today's forecast"
p2204
g15
tp2205
a(S"what's new in new gmail please"
p2206
g20
tp2207
a(S'can you schedule an event please'
p2208
g15
tp2209
a(S'i like dogs'
p2210
g15
tp2211
a(S"don't i have to do anything on saturday"
p2212
g15
tp2213
a(S'do i have anything on sunday'
p2214
g15
tp2215
a(S'please could you check new mail'
p2216
g20
tp2217
a(S'what events are on sunday'
p2218
g15
tp2219
a(S'check calendar for monday'
p2220
g15
tp2221
a(S'how is the forecast'
p2222
g15
tp2223
a(S'current events today'
p2224
g15
tp2225
a(S'check google calendar on next'
p2226
g15
tp2227
a(S'get the news'
p2228
g15
tp2229
a(S'shutdown my computer'
p2230
g15
tp2231
a(S"don't i have to do anything on thursday"
p2232
g15
tp2233
a(S'am i free on next'
p2234
g15
tp2235
a(S"what's new in my mail"
p2236
g20
tp2237
a(S'please shut down'
p2238
g15
tp2239
a(S'last song please'
p2240
g15
tp2241
a(S"please what's in my mail"
p2242
g20
tp2243
a(S"get today's weather"
p2244
g15
tp2245
a(S"please what's in new mail"
p2246
g20
tp2247
a(S'turn up the beat'
p2248
g15
tp2249
a(S'can you shutdown'
p2250
g15
tp2251
a(S'do i have any events on next'
p2252
g15
tp2253
a(S'turn down the volume'
p2254
g15
tp2255
a(S'turn it off'
p2256
g15
tp2257
a(S'will you open inbox'
p2258
g20
tp2259
a(S'check google calendar on'
p2260
g15
tp2261
a(S"aren't there any events on this day"
p2262
g15
tp2263
a(S"what's today's weather"
p2264
g15
tp2265
a(S'please retrieve what time it is'
p2266
g15
tp2267
a(S'could you please create new event'
p2268
g15
tp2269
a(S'please give me the news'
p2270
g15
tp2271
a(S'is it cloudy this week'
p2272
g15
tp2273
a(S"aren't there any events in a month"
p2274
g15
tp2275
a(S'close the current window'
p2276
g15
tp2277
a(S'do i have any events on sunday'
p2278
g15
tp2279
a(S'find live news feed'
p2280
g15
tp2281
a(S"get if it's snowing today"
p2282
g15
tp2283
a(S'check calendar'
p2284
g15
tp2285
a(S'check my calendar on sunday'
p2286
g15
tp2287
a(S'please turn my computer off'
p2288
g15
tp2289
a(S'am i free for monday'
p2290
g15
tp2291
a(S'go to dot ee dee you'
p2292
g15
tp2293
a(S'retrieve what time it is please'
p2294
g15
tp2295
a(S'what do i have on thursday'
p2296
g15
tp2297
a(S'do i have to do anything'
p2298
g15
tp2299
a(S'shut my computer down please'
p2300
g15
tp2301
a(S'decrease the volume'
p2302
g15
tp2303
a(S'can you make a new event please'
p2304
g15
tp2305
a(S'go ahead'
p2306
g15
tp2307
a(S"what's if it's rainy this week"
p2308
g15
tp2309
a(S'please go spotify '
p2310
g15
tp2311
a(S'can you check my inbox please'
p2312
g20
tp2313
a(S'will you open a browser'
p2314
g15
tp2315
a(S"please what's in my inbox"
p2316
g20
tp2317
a(S"please what's in mail"
p2318
g20
tp2319
a(S'could you open inbox'
p2320
g20
tp2321
a(S'can you check inbox please'
p2322
g20
tp2323
a(S'get the current time'
p2324
g15
tp2325
a(S"get this week's forecast"
p2326
g15
tp2327
a(S"don't i have to do anything on monday"
p2328
g15
tp2329
a(S'could you please create event'
p2330
g15
tp2331
a(S"don't i have to do anything today"
p2332
g15
tp2333
a(S'check new mail please'
p2334
g20
tp2335
a(S'please would you open mail'
p2336
g20
tp2337
a(S'do i have to do anything on sunday'
p2338
g15
tp2339
a(S'what is news feed'
p2340
g15
tp2341
a(S"what're the news feed"
p2342
g15
tp2343
a(S'what is on my calendar for next'
p2344
g15
tp2345
a(S'will it rain this week'
p2346
g15
tp2347
a(S'make the volume lower'
p2348
g15
tp2349
a(S'please turn off my computer'
p2350
g15
tp2351
a(S'can you check new mail'
p2352
g20
tp2353
a(S"today's live newsfeed"
p2354
g15
tp2355
a(S'what is in inbox please'
p2356
g20
tp2357
a(S'get live news'
p2358
g15
tp2359
a(S'can you shut off'
p2360
g15
tp2361
a(S'go to dot edu'
p2362
g15
tp2363
a(S'can you send me to the lock screen please'
p2364
g15
tp2365
a(S'turn up the beat please'
p2366
g15
tp2367
a(S"if it's hot this week"
p2368
g15
tp2369
a(S'do i have any events on'
p2370
g15
tp2371
a(S'get current time please'
p2372
g15
tp2373
a(S'can you get information on the current events'
p2374
g15
tp2375
a(S'what do i have in a week'
p2376
g15
tp2377
a(S'open my inbox please'
p2378
g20
tp2379
a(S'please google search'
p2380
g15
tp2381
a(S'can you please shutdown my computer'
p2382
g15
tp2383
a(S'turn the volume to zero'
p2384
g15
tp2385
a(S'gather information on todays current events please'
p2386
g15
tp2387
a(S'what is the news today'
p2388
g15
tp2389
a(S'spotify stop the song '
p2390
g15
tp2391
a(S'search for please'
p2392
g15
tp2393
a(S'lock computer'
p2394
g15
tp2395
a(S'are there any events on thursday'
p2396
g15
tp2397
a(S'spotify go please'
p2398
g15
tp2399
a(S'please lock computer'
p2400
g15
tp2401
a(S'what do i have on wednesday'
p2402
g15
tp2403
a(S'search google'
p2404
g15
tp2405
a(S'what is on my calendar for friday'
p2406
g15
tp2407
a(S'sound up please'
p2408
g15
tp2409
a(S"what's today's temperature"
p2410
g15
tp2411
a(S"what's the weather this week"
p2412
g15
tp2413
a(S'read me the clock please'
p2414
g15
tp2415
a(S'please kill the window'
p2416
g15
tp2417
a(S'please will you check inbox'
p2418
g20
tp2419
a(S'any events on thursday'
p2420
g15
tp2421
a(S'do i have to do anything tomorrow'
p2422
g15
tp2423
a(S'please get the clock'
p2424
g15
tp2425
a(S'what do i have to do'
p2426
g15
tp2427
a(S"what's in new mail"
p2428
g20
tp2429
a(S'open default browser'
p2430
g15
tp2431
a(S'check new gmail please'
p2432
g20
tp2433
a(S'could you add an event please'
p2434
g15
tp2435
a(S'please will you open my mail'
p2436
g20
tp2437
a(S'what events do i have on next'
p2438
g15
tp2439
a(S'please what is in gmail'
p2440
g20
tp2441
a(S'am i free on wednesday'
p2442
g15
tp2443
a(S"today's headlines"
p2444
g15
tp2445
a(S'shut down'
p2446
g15
tp2447
a(S'start a browser please'
p2448
g15
tp2449
a(S"don't i have anything today"
p2450
g15
tp2451
a(S'can you turn off the computer'
p2452
g15
tp2453
a(S'open dot gov'
p2454
g15
tp2455
a(S'can you make new event please'
p2456
g15
tp2457
a(S'gimme the news'
p2458
g15
tp2459
a(S'start browser'
p2460
g15
tp2461
a(S"get if it's cloudy today"
p2462
g15
tp2463
a(S'please go to dot com'
p2464
g15
tp2465
a(S'spotify last please'
p2466
g15
tp2467
a(S"please what's new in mail"
p2468
g20
tp2469
a(S'could you create an event'
p2470
g15
tp2471
a(S'schedule new event please'
p2472
g15
tp2473
a(S'brief me'
p2474
g15
tp2475
a(S'add a new event'
p2476
g15
tp2477
a(S'check google calendar on today'
p2478
g15
tp2479
a(S'can you please shutdown'
p2480
g15
tp2481
a(S'check calendar'
p2482
g15
tp2483
a(S'check events for this day'
p2484
g15
tp2485
a(S'any events'
p2486
g15
tp2487
a(S'what is in my gmail please'
p2488
g20
tp2489
a(S'start default browser'
p2490
g15
tp2491
a(S'what do i have to do on this day'
p2492
g15
tp2493
a(S"get if it's hot this week"
p2494
g15
tp2495
a(S'create an event please'
p2496
g15
tp2497
a(S'can you turn up the tune'
p2498
g15
tp2499
a(S'add event please'
p2500
g15
tp2501
a(S'turn it down'
p2502
g15
tp2503
a(S'retrieve the current time'
p2504
g15
tp2505
a(S'can you shut down the computer'
p2506
g15
tp2507
a(S'shut down my computer'
p2508
g15
tp2509
a(S'schedule new event'
p2510
g15
tp2511
a(S'can you check my mail'
p2512
g20
tp2513
a(S'check my calendar for'
p2514
g15
tp2515
a(S'check my calendar for this month'
p2516
g15
tp2517
a(S'close active window'
p2518
g15
tp2519
a(S'check my calendar for this day'
p2520
g15
tp2521
a(S'would you check inbox'
p2522
g20
tp2523
a(S'can you please schedule event'
p2524
g15
tp2525
a(S'check your watch'
p2526
g15
tp2527
a(S'please google'
p2528
g15
tp2529
a(S'could you add event please'
p2530
g15
tp2531
a(S'bye'
p2532
g15
tp2533
a(S"what's new in my gmail please"
p2534
g20
tp2535
a(S'please can you check new gmail'
p2536
g20
tp2537
a(S'check calendar for this day'
p2538
g15
tp2539
a(S'can you make new event'
p2540
g15
tp2541
a(S'go ahead spotify please'
p2542
g15
tp2543
a(S'do i have any events on saturday'
p2544
g15
tp2545
a(S"what's the newsfeed"
p2546
g15
tp2547
a(S"don't i have anything on this day"
p2548
g15
tp2549
a(S'turn my computer off'
p2550
g15
tp2551
a(S'what is in new mail'
p2552
g20
tp2553
a(S'give me the current events please'
p2554
g15
tp2555
a(S"please what's new in inbox"
p2556
g20
tp2557
a(S'please would you check gmail'
p2558
g20
tp2559
a(S'check my calendar'
p2560
g15
tp2561
a(S'what is on my calendar for saturday'
p2562
g15
tp2563
a(S'tell me current news'
p2564
g15
tp2565
a(S'any events on friday'
p2566
g15
tp2567
a(S"what's new in inbox please"
p2568
g20
tp2569
a(S'check my calendar for wednesday'
p2570
g15
tp2571
a(S'check the clock right now please'
p2572
g15
tp2573
a(S'please add an event'
p2574
g15
tp2575
a(S'can you please make an event'
p2576
g15
tp2577
a(S"how's the temperature this week"
p2578
g15
tp2579
a(S'please check mail'
p2580
g20
tp2581
a(S'make event'
p2582
g15
tp2583
a(S'read your watch please'
p2584
g15
tp2585
a(S'shut off my computer'
p2586
g15
tp2587
a(S'shutdown the computer please'
p2588
g15
tp2589
a(S"don't i have anything to do on sunday"
p2590
g15
tp2591
a(S'could you check new mail'
p2592
g20
tp2593
a(S"if it's freezing this week"
p2594
g15
tp2595
a(S'please spotify go '
p2596
g15
tp2597
a(S'sweet dreams alice'
p2598
g15
tp2599
a(S'what is the news'
p2600
g15
tp2601
a(S'will you open my gmail please'
p2602
g20
tp2603
a(S'do i have any events on monday'
p2604
g15
tp2605
a(S'what events do i have on wednesday'
p2606
g15
tp2607
a(S'sweet dreams'
p2608
g15
tp2609
a(S'check new gmail'
p2610
g20
tp2611
a(S"what's in mail please"
p2612
g20
tp2613
a(S'please send me to the lock screen'
p2614
g15
tp2615
a(S"if it's snowing this week"
p2616
g15
tp2617
a(S'could you check my inbox'
p2618
g20
tp2619
a(S'get weather'
p2620
g15
tp2621
a(S'is it freezing this week'
p2622
g15
tp2623
a(S'close current window'
p2624
g15
tp2625
a(S'next spotify please'
p2626
g15
tp2627
a(S'would you open my inbox'
p2628
g20
tp2629
a(S'please would you open my mail'
p2630
g20
tp2631
a(S"what's if it's hot today"
p2632
g15
tp2633
a(S'do i have anything on wednesday'
p2634
g15
tp2635
a(S'do i have anything on tuesday'
p2636
g15
tp2637
a(S'please will you check my mail'
p2638
g20
tp2639
a(S'please create an event'
p2640
g15
tp2641
a(S'can you please add new event'
p2642
g15
tp2643
a(S'search google please'
p2644
g15
tp2645
a(S'please would you open inbox'
p2646
g20
tp2647
a(S'are there any events on today'
p2648
g15
tp2649
a(S"aren't there any events on tomorrow"
p2650
g15
tp2651
a(S'check events on monday'
p2652
g15
tp2653
a(S'check calendar for'
p2654
g15
tp2655
a(S'issue commands'
p2656
g15
tp2657
a(S'lock'
p2658
g15
tp2659
a(S"what's this week's forecast"
p2660
g15
tp2661
a(S'could you schedule new event please'
p2662
g15
tp2663
a(S'could you make an event please'
p2664
g15
tp2665
a(S'please get the news'
p2666
g15
tp2667
a(S"what're the the news"
p2668
g15
tp2669
a(S'lower the tunes please'
p2670
g15
tp2671
a(S'what is on my calendar for monday'
p2672
g15
tp2673
a(S'pause spotify please'
p2674
g15
tp2675
a(S"today's weather"
p2676
g15
tp2677
a(S'any events on this day'
p2678
g15
tp2679
a(S'what events are in a week'
p2680
g15
tp2681
a(S'check events on this week'
p2682
g15
tp2683
a(S"don't i have to do anything on this day"
p2684
g15
tp2685
a(S'what events are on'
p2686
g15
tp2687
a(S'please sound up'
p2688
g15
tp2689
a(S"what's new in my inbox"
p2690
g20
tp2691
a(S'could you please schedule new event'
p2692
g15
tp2693
a(S'find live news'
p2694
g15
tp2695
a(S'please shut my computer down'
p2696
g15
tp2697
a(S'is it hot this week'
p2698
g15
tp2699
a(S"what's forecast"
p2700
g15
tp2701
a(S'any events on saturday'
p2702
g15
tp2703
a(S"what's the weather"
p2704
g15
tp2705
a(S'is it hot today'
p2706
g15
tp2707
a(S"what's new in gmail please"
p2708
g20
tp2709
a(S'anything new in gmail'
p2710
g20
tp2711
a(S'lower the volume'
p2712
g15
tp2713
a(S'check my calendar on thursday'
p2714
g15
tp2715
a(S"don't i have anything to do today"
p2716
g15
tp2717
a(S'can you open a browser'
p2718
g15
tp2719
a(S'hey alice'
p2720
g15
tp2721
a(S'google please'
p2722
g15
tp2723
a(S'check my calendar for saturday'
p2724
g15
tp2725
a(S'any new mail'
p2726
g20
tp2727
a(S'am i free'
p2728
g15
tp2729
a(S'read the clock please'
p2730
g15
tp2731
a(S"what's new in inbox"
p2732
g20
tp2733
a(S'check events for monday'
p2734
g15
tp2735
a(S'google search'
p2736
g15
tp2737
a(S'what is going on in the world today'
p2738
g15
tp2739
a(S'please will you check new gmail'
p2740
g20
tp2741
a(S"what's the clock"
p2742
g15
tp2743
a(S'anything new in mail'
p2744
g20
tp2745
a(S'what is in the news today'
p2746
g15
tp2747
a(S'please what is new in gmail'
p2748
g20
tp2749
a(S'shut up please'
p2750
g15
tp2751
a(S'open'
p2752
g15
tp2753
a(S'check events for this month'
p2754
g15
tp2755
a(S'do i have anything on this day'
p2756
g15
tp2757
a(S"get if it's freezing this week"
p2758
g15
tp2759
a(S'check calendar on this week'
p2760
g15
tp2761
a(S'can you please close the current window'
p2762
g15
tp2763
a(S'can you please turn the tune down'
p2764
g15
tp2765
a(S'please could you check gmail'
p2766
g20
tp2767
a(S'newsfeed'
p2768
g15
tp2769
a(S'kill the current window'
p2770
g15
tp2771
a(S'will you check new mail please'
p2772
g20
tp2773
a(S"get if it's foggy this week"
p2774
g15
tp2775
a(S'do i have to do anything on thursday'
p2776
g15
tp2777
a(S"don't i have to do anything on this day"
p2778
g15
tp2779
a(S'google search please'
p2780
g15
tp2781
a(S'are there any events on sunday'
p2782
g15
tp2783
a(S'please what is in inbox'
p2784
g20
tp2785
a(S'please give me current events'
p2786
g15
tp2787
a(S'please would you check my gmail'
p2788
g20
tp2789
a(S"what's the live newsfeed"
p2790
g15
tp2791
a(S'spotify previous song please'
p2792
g15
tp2793
a(S'am i free'
p2794
g15
tp2795
a(S'what are the news feed'
p2796
g15
tp2797
a(S'create a new event please'
p2798
g15
tp2799
a(S'get current events'
p2800
g15
tp2801
a(S'please add event'
p2802
g15
tp2803
a(S'will you check gmail please'
p2804
g20
tp2805
a(S'get current temperature'
p2806
g15
tp2807
a(S'please will you check gmail'
p2808
g20
tp2809
a(S'am i free for tomorrow'
p2810
g15
tp2811
a(S'go to dot org'
p2812
g15
tp2813
a(S'could you add an event'
p2814
g15
tp2815
a(S'what is on my calendar for'
p2816
g15
tp2817
a(S"get this week's weather"
p2818
g15
tp2819
a(S"don't i have anything in a week"
p2820
g15
tp2821
a(S"don't i have to do anything"
p2822
g15
tp2823
a(S'please spotify play last song'
p2824
g15
tp2825
a(S'can you please add an event'
p2826
g15
tp2827
a(S'start default browser please'
p2828
g15
tp2829
a(S'is it cold this week'
p2830
g15
tp2831
a(S'lock my computer please'
p2832
g15
tp2833
a(S'make the sound louder'
p2834
g15
tp2835
a(S'will you check my gmail please'
p2836
g20
tp2837
a(S"please what's new in new gmail"
p2838
g20
tp2839
a(S'check google calendar for today'
p2840
g15
tp2841
a(S"how's the forecast"
p2842
g15
tp2843
a(S'what is headlines'
p2844
g15
tp2845
a(S"don't i have to do anything tomorrow"
p2846
g15
tp2847
a(S"what's the time"
p2848
g15
tp2849
a(S'what time is it currently'
p2850
g15
tp2851
a(S'is there anything i have to do on today'
p2852
g15
tp2853
a(S"don't i have any events on sunday"
p2854
g15
tp2855
a(S'please will you check mail'
p2856
g20
tp2857
a(S'please would you check new gmail'
p2858
g20
tp2859
a(S'will you get the current headlines'
p2860
g15
tp2861
a(S'check my calendar on today'
p2862
g15
tp2863
a(S'please pause the song'
p2864
g15
tp2865
a(S'what do i have on monday'
p2866
g15
tp2867
a(S'please check gmail'
p2868
g20
tp2869
a(S'can you lock the screen please'
p2870
g15
tp2871
a(S'tell me news'
p2872
g15
tp2873
a(S'start'
p2874
g15
tp2875
a(S"don't i have anything tomorrow"
p2876
g15
tp2877
a(S'get the the latest headlines'
p2878
g15
tp2879
a(S'is there anything i have to do on wednesday'
p2880
g15
tp2881
a(S'is there anything to do on thursday'
p2882
g15
tp2883
a(S"don't i have to do anything on sunday"
p2884
g15
tp2885
a(S'schedule event please'
p2886
g15
tp2887
a(S'please get the current events'
p2888
g15
tp2889
a(S'do i have to do anything on saturday'
p2890
g15
tp2891
a(S'can you check my gmail'
p2892
g20
tp2893
a(S'can you turn off'
p2894
g15
tp2895
a(S'am i free on this day'
p2896
g15
tp2897
a(S'will you check new gmail'
p2898
g20
tp2899
a(S'start the song'
p2900
g15
tp2901
a(S'would you open mail please'
p2902
g20
tp2903
a(S'can you make a new event'
p2904
g15
tp2905
a(S'please start a default browser'
p2906
g15
tp2907
a(S"get if it's rainy this week"
p2908
g15
tp2909
a(S'check my calendar for thursday'
p2910
g15
tp2911
a(S'check calendar for next'
p2912
g15
tp2913
a(S'start browsing'
p2914
g15
tp2915
a(S'can you turn up the beat'
p2916
g15
tp2917
a(S'please would you check my mail'
p2918
g20
tp2919
a(S'will you open my mail'
p2920
g20
tp2921
a(S'please would you check mail'
p2922
g20
tp2923
a(S'would you open my inbox please'
p2924
g20
tp2925
a(S'can you open this program'
p2926
g15
tp2927
a(S'am i free in a month'
p2928
g15
tp2929
a(S'check what time it is'
p2930
g15
tp2931
a(S'create new event'
p2932
g15
tp2933
a(S'do i have any events'
p2934
g15
tp2935
a(S'please close the active window'
p2936
g15
tp2937
a(S"what's the news"
p2938
g15
tp2939
a(S'what is on my calendar for tomorrow'
p2940
g15
tp2941
a(S'please last song'
p2942
g15
tp2943
a(S'check calendar on this day'
p2944
g15
tp2945
a(S'can you please create an event'
p2946
g15
tp2947
a(S'check events for wednesday'
p2948
g15
tp2949
a(S'could you add event'
p2950
g15
tp2951
a(S'check the current time please'
p2952
g15
tp2953
a(S'shut the fuck up'
p2954
g15
tp2955
a(S'turn up the the beat'
p2956
g15
tp2957
a(S'can you please shut up'
p2958
g15
tp2959
a(S'close this window'
p2960
g15
tp2961
a(S'spotify skip'
p2962
g15
tp2963
a(S'can you check gmail'
p2964
g20
tp2965
a(S'google search for please'
p2966
g15
tp2967
a(S'are there any events in a month'
p2968
g15
tp2969
a(S'play spotify please'
p2970
g15
tp2971
a(S"don't i have to do anything in a week"
p2972
g15
tp2973
a(S'please what is new in new mail'
p2974
g20
tp2975
a(S'do i have anything in a month'
p2976
g15
tp2977
a(S'shut down the computer please'
p2978
g15
tp2979
a(S'find news'
p2980
g15
tp2981
a(S'open a browser please'
p2982
g15
tp2983
a(S'find the news'
p2984
g15
tp2985
a(S'could you create a new event please'
p2986
g15
tp2987
a(S"what's this week's temperature"
p2988
g15
tp2989
a(S'please start spotify'
p2990
g15
tp2991
a(S'please what is in mail'
p2992
g20
tp2993
a(S'search google please for'
p2994
g15
tp2995
a(S'will you open gmail'
p2996
g20
tp2997
a(S'find current events'
p2998
g15
tp2999
a(S'could you check inbox'
p3000
g20
tp3001
a(S'can you shut my computer down'
p3002
g15
tp3003
a(S"don't i have anything on friday"
p3004
g15
tp3005
a(S'what do i have to do on wednesday'
p3006
g15
tp3007
a(S'check calendar on tomorrow'
p3008
g15
tp3009
a(S'please search for'
p3010
g15
tp3011
a(S'what do i have'
p3012
g15
tp3013
a(S"what're the live news"
p3014
g15
tp3015
a(S"get if it's foggy today"
p3016
g15
tp3017
a(S'do i have to do anything on next'
p3018
g15
tp3019
a(S'please spotify previous'
p3020
g15
tp3021
a(S'open my gmail'
p3022
g20
tp3023
a(S'whats going on in the world todays please'
p3024
g15
tp3025
a(S'can you schedule a new event'
p3026
g15
tp3027
a(S'do i have anything today'
p3028
g15
tp3029
a(S'check my calendar for this day'
p3030
g15
tp3031
a(S'am i free on thursday'
p3032
g15
tp3033
a(S'what do i have to do on friday'
p3034
g15
tp3035
a(S'please spotify pause'
p3036
g15
tp3037
a(S'get news'
p3038
g15
tp3039
a(S"this week's forecast"
p3040
g15
tp3041
a(S'is there anything i have to do tomorrow'
p3042
g15
tp3043
a(S'could you make new event please'
p3044
g15
tp3045
a(S'open inbox'
p3046
g20
tp3047
a(S'start song'
p3048
g15
tp3049
a(S'is there anything to do on tuesday'
p3050
g15
tp3051
a(S"what's if it's raining this week"
p3052
g15
tp3053
a(S'please will you open mail'
p3054
g20
tp3055
a(S'please spotify start the song'
p3056
g15
tp3057
a(S'any events on today'
p3058
g15
tp3059
a(S'check google calendar on friday'
p3060
g15
tp3061
a(S'can you please kill current window'
p3062
g15
tp3063
a(S'please kill active window'
p3064
g15
tp3065
a(S'spotify next'
p3066
g15
tp3067
a(S'spotify stop'
p3068
g15
tp3069
a(S"don't i have to do anything on tuesday"
p3070
g15
tp3071
a(S"don't i have any events on tuesday"
p3072
g15
tp3073
a(S'what are the headlines'
p3074
g15
tp3075
a(S'open dot com'
p3076
g15
tp3077
a(S'turn up the tunez please'
p3078
g15
tp3079
a(S"get if it's snowing this week"
p3080
g15
tp3081
a(S'check events'
p3082
g15
tp3083
a(S'play song'
p3084
g15
tp3085
a(S'current news'
p3086
g15
tp3087
a(S'bye alice'
p3088
g15
tp3089
a(S'could you open gmail'
p3090
g20
tp3091
a(S'get current news'
p3092
g15
tp3093
a(S"don't i have any events on monday"
p3094
g15
tp3095
a(S'make event please'
p3096
g15
tp3097
a(S'will you open gmail please'
p3098
g20
tp3099
a(S'what are the news'
p3100
g15
tp3101
a(S'start browser please'
p3102
g15
tp3103
a(S'check calendar on saturday'
p3104
g15
tp3105
a(S'please check my mail'
p3106
g20
tp3107
a(S"don't i have any events on"
p3108
g15
tp3109
a(S'what is new in mail'
p3110
g20
tp3111
a(S'check google calendar for sunday'
p3112
g15
tp3113
a(S'check calendar on next'
p3114
g15
tp3115
a(S'anything in my gmail'
p3116
g20
tp3117
a(S'would you check my inbox please'
p3118
g20
tp3119
a(S'news feed'
p3120
g15
tp3121
a(S'turn off'
p3122
g15
tp3123
a(S'am i free for tuesday'
p3124
g15
tp3125
a(S'check events for this day'
p3126
g15
tp3127
a(S'would you open mail'
p3128
g20
tp3129
a(S'can you turn up the volume'
p3130
g15
tp3131
a(S'how is the temperature'
p3132
g15
tp3133
a(S'check events for sunday'
p3134
g15
tp3135
a(S'am i free on saturday'
p3136
g15
tp3137
a(S'check events on tomorrow'
p3138
g15
tp3139
a(S'can you unmute'
p3140
g15
tp3141
a(S'check google calendar on this day'
p3142
g15
tp3143
a(S'is there anything to do on this day'
p3144
g15
tp3145
a(S'kill the program'
p3146
g15
tp3147
a(S'stop spotify'
p3148
g15
tp3149
a(S'tell me headlines'
p3150
g15
tp3151
a(S'a backbone dictates above my grief'
p3152
g15
tp3153
a(S'please would you check new mail'
p3154
g20
tp3155
a(S'what is new in new mail'
p3156
g20
tp3157
a(S'stop the song'
p3158
g15
tp3159
a(S'can you make an event please'
p3160
g15
tp3161
a(S'will you check new mail'
p3162
g20
tp3163
a(S'what do i have to do on next'
p3164
g15
tp3165
a(S'pause please'
p3166
g15
tp3167
a(S'what events are on tuesday'
p3168
g15
tp3169
a(S'open default browser please'
p3170
g15
tp3171
a(S'news'
p3172
g15
tp3173
a(S'can you check my inbox'
p3174
g20
tp3175
a(S'what is current news'
p3176
g15
tp3177
a(S'how is the weather'
p3178
g15
tp3179
a(S"what's the forecast"
p3180
g15
tp3181
a(S'a decent problem gossips beside the shoulder'
p3182
g15
tp3183
a(S'please start browser'
p3184
g15
tp3185
a(S'can you please create event'
p3186
g15
tp3187
a(S'do i have any events in a month'
p3188
g15
tp3189
a(S'what are the current news'
p3190
g15
tp3191
a(S'am i free on'
p3192
g15
tp3193
a(S"what's in new gmail"
p3194
g20
tp3195
a(S'what is in mail'
p3196
g20
tp3197
a(S'can you please create new event'
p3198
g15
tp3199
a(S'please shutdown my computer'
p3200
g15
tp3201
a(S'could you check my mail please'
p3202
g20
tp3203
a(S'please can you make it louder'
p3204
g15
tp3205
a(S'is there anything to do in a month'
p3206
g15
tp3207
a(S'do i have anything to do tomorrow'
p3208
g15
tp3209
a(S'a releasing moderate stalls beside the material cell'
p3210
g15
tp3211
a(S"what's in inbox please"
p3212
g20
tp3213
a(S'what is new in new gmail'
p3214
g20
tp3215
a(S'what events are on saturday'
p3216
g15
tp3217
a(S'what is live news'
p3218
g15
tp3219
a(S'check my calendar for tomorrow'
p3220
g15
tp3221
a(S'check calendar for saturday'
p3222
g15
tp3223
a(S'please spotify pause the song'
p3224
g15
tp3225
a(S'start a browser'
p3226
g15
tp3227
a(S'please kill current window'
p3228
g15
tp3229
a(S"today's weather"
p3230
g15
tp3231
a(S"what's new in my gmail"
p3232
g20
tp3233
a(S'what events do i have'
p3234
g15
tp3235
a(S'what events are'
p3236
g15
tp3237
a(S'what do i have to do on today'
p3238
g15
tp3239
a(S'lock the screen please'
p3240
g15
tp3241
a(S"today's temperature"
p3242
g15
tp3243
a(S'would you check my inbox'
p3244
g20
tp3245
a(S'can you please turn the beat down'
p3246
g15
tp3247
a(S'set the volume to zero'
p3248
g15
tp3249
a(S'add event'
p3250
g15
tp3251
a(S'shutdown my computer please'
p3252
g15
tp3253
a(S'can you lock computer'
p3254
g15
tp3255
a(S'the news'
p3256
g15
tp3257
a(S'could you open my inbox please'
p3258
g20
tp3259
a(S"don't i have to do anything on friday"
p3260
g15
tp3261
a(S"if it's cold this week"
p3262
g15
tp3263
a(S"don't i have any events on thursday"
p3264
g15
tp3265
a(S'please volume higher'
p3266
g15
tp3267
a(S'are there any events on saturday'
p3268
g15
tp3269
a(S'are there any events on monday'
p3270
g15
tp3271
a(S'check the clock'
p3272
g15
tp3273
a(S'do i have anything to do on this day'
p3274
g15
tp3275
a(S'make an event'
p3276
g15
tp3277
a(S'what is current events'
p3278
g15
tp3279
a(S"don't i have to do anything on monday"
p3280
g15
tp3281
a(S'do i have anything to do on wednesday'
p3282
g15
tp3283
a(S'get clock'
p3284
g15
tp3285
a(S'can you create event'
p3286
g15
tp3287
a(S'good bye'
p3288
g15
tp3289
a(S'weather'
p3290
g15
tp3291
a(S'please search google for'
p3292
g15
tp3293
a(S'is it foggy this week'
p3294
g15
tp3295
a(S'do i have to do anything to do'
p3296
g15
tp3297
a(S'could you add a new event'
p3298
g15
tp3299
a(S"don't i have anything in a month"
p3300
g15
tp3301
a(S'would you open gmail'
p3302
g20
tp3303
a(S'please will you check new mail'
p3304
g20
tp3305
a(S'check google calendar for monday'
p3306
g15
tp3307
a(S'close current program'
p3308
g15
tp3309
a(S"today's news feed"
p3310
g15
tp3311
a(S"get if it's cold today"
p3312
g15
tp3313
a(S'go to dot com'
p3314
g15
tp3315
a(S'turn up'
p3316
g15
tp3317
a(S'spotify shut up'
p3318
g15
tp3319
a(S'can you please turn off the computer'
p3320
g15
tp3321
a(S"what's the headlines"
p3322
g15
tp3323
a(S"what's new in my inbox please"
p3324
g20
tp3325
a(S'turn off my computer'
p3326
g15
tp3327
a(S'check events for saturday'
p3328
g15
tp3329
a(S'do i have to do anything today'
p3330
g15
tp3331
a(S'do i have anything to do in a month'
p3332
g15
tp3333
a(S"what's if it's snowing today"
p3334
g15
tp3335
a(S'will you open mail'
p3336
g20
tp3337
a(S'current forecast'
p3338
g15
tp3339
a(S'am i free on friday'
p3340
g15
tp3341
a(S'will you open mail please'
p3342
g20
tp3343
a(S'what do i have on sunday'
p3344
g15
tp3345
a(S'lock the screen'
p3346
g15
tp3347
a(S'what is in gmail please'
p3348
g20
tp3349
a(S'what events do i have in a week'
p3350
g15
tp3351
a(S'spotify play last song please'
p3352
g15
tp3353
a(S'do i have any events on today'
p3354
g15
tp3355
a(S'schedule an event please'
p3356
g15
tp3357
a(S'add an event'
p3358
g15
tp3359
a(S'check google calendar on wednesday'
p3360
g15
tp3361
asS'classifier'
p3362
ccopy_reg
_reconstructor
p3363
(csklearn.pipeline
Pipeline
p3364
c__builtin__
object
p3365
Ntp3366
Rp3367
(dp3368
S'_sklearn_version'
p3369
S'0.18.1'
p3370
sS'steps'
p3371
(lp3372
(S'vect'
p3373
g3363
(csklearn.feature_extraction.text
CountVectorizer
p3374
g3365
Ntp3375
Rp3376
(dp3377
S'decode_error'
p3378
Vstrict
p3379
sS'lowercase'
p3380
I01
sS'stop_words'
p3381
NsS'vocabulary'
p3382
NsS'tokenizer'
p3383
NsS'encoding'
p3384
Vutf-8
p3385
sS'token_pattern'
p3386
V(?u)\u005cb\u005cw\u005cw+\u005cb
p3387
sS'input'
p3388
Vcontent
p3389
sS'analyzer'
p3390
Vword
p3391
sS'vocabulary_'
p3392
(dp3393
Vraining
p3394
cnumpy.core.multiarray
scalar
p3395
(cnumpy
dtype
p3396
(S'i8'
p3397
I0
I1
tp3398
Rp3399
(I3
S'<'
p3400
NNNI-1
I-1
I0
tp3401
bS'\x9f\x00\x00\x00\x00\x00\x00\x00'
p3402
tp3403
Rp3404
sVtodays
p3405
g3395
(g3399
S'\xcc\x00\x00\x00\x00\x00\x00\x00'
p3406
tp3407
Rp3408
sVmute
p3409
g3395
(g3399
S'}\x00\x00\x00\x00\x00\x00\x00'
p3410
tp3411
Rp3412
sVskip
p3413
g3395
(g3399
S'\xb4\x00\x00\x00\x00\x00\x00\x00'
p3414
tp3415
Rp3416
sVmonth
p3417
g3395
(g3399
S'{\x00\x00\x00\x00\x00\x00\x00'
p3418
tp3419
Rp3420
sVsofter
p3421
g3395
(g3399
S'\xb7\x00\x00\x00\x00\x00\x00\x00'
p3422
tp3423
Rp3424
sVkill
p3425
g3395
(g3399
S'm\x00\x00\x00\x00\x00\x00\x00'
p3426
tp3427
Rp3428
sVusing
p3429
g3395
(g3399
S'\xd7\x00\x00\x00\x00\x00\x00\x00'
p3430
tp3431
Rp3432
sVgo
p3433
g3395
(g3399
S'T\x00\x00\x00\x00\x00\x00\x00'
p3434
tp3435
Rp3436
sVheadlines
p3437
g3395
(g3399
S']\x00\x00\x00\x00\x00\x00\x00'
p3438
tp3439
Rp3440
sVfind
p3441
g3395
(g3399
S'G\x00\x00\x00\x00\x00\x00\x00'
p3442
tp3443
Rp3444
sVprevious
p3445
g3395
(g3399
S'\x96\x00\x00\x00\x00\x00\x00\x00'
p3446
tp3447
Rp3448
sVspotify
p3449
g3395
(g3399
S'\xba\x00\x00\x00\x00\x00\x00\x00'
p3450
tp3451
Rp3452
sVpause
p3453
g3395
(g3399
S'\x8f\x00\x00\x00\x00\x00\x00\x00'
p3454
tp3455
Rp3456
sVhow
p3457
g3395
(g3399
S'a\x00\x00\x00\x00\x00\x00\x00'
p3458
tp3459
Rp3460
sVsnowing
p3461
g3395
(g3399
S'\xb6\x00\x00\x00\x00\x00\x00\x00'
p3462
tp3463
Rp3464
sVsunday
p3465
g3395
(g3399
S'\xbf\x00\x00\x00\x00\x00\x00\x00'
p3466
tp3467
Rp3468
sVsend
p3469
g3395
(g3399
S'\xae\x00\x00\x00\x00\x00\x00\x00'
p3470
tp3471
Rp3472
sVaren
p3473
g3395
(g3399
S'\r\x00\x00\x00\x00\x00\x00\x00'
p3474
tp3475
Rp3476
sVto
p3477
g3395
(g3399
S'\xca\x00\x00\x00\x00\x00\x00\x00'
p3478
tp3479
Rp3480
sVadd
p3481
g3395
(g3399
S'\x02\x00\x00\x00\x00\x00\x00\x00'
p3482
tp3483
Rp3484
sVprogram
p3485
g3395
(g3399
S'\x99\x00\x00\x00\x00\x00\x00\x00'
p3486
tp3487
Rp3488
sVmail
p3489
g3395
(g3399
S'u\x00\x00\x00\x00\x00\x00\x00'
p3490
tp3491
Rp3492
sVbye
p3493
g3395
(g3399
S'\x19\x00\x00\x00\x00\x00\x00\x00'
p3494
tp3495
Rp3496
sVdo
p3497
g3395
(g3399
S'4\x00\x00\x00\x00\x00\x00\x00'
p3498
tp3499
Rp3500
sVpredict
p3501
g3395
(g3399
S'\x94\x00\x00\x00\x00\x00\x00\x00'
p3502
tp3503
Rp3504
sVgood
p3505
g3395
(g3399
S'V\x00\x00\x00\x00\x00\x00\x00'
p3506
tp3507
Rp3508
sVemergency
p3509
g3395
(g3399
S'>\x00\x00\x00\x00\x00\x00\x00'
p3510
tp3511
Rp3512
sVsong
p3513
g3395
(g3399
S'\xb8\x00\x00\x00\x00\x00\x00\x00'
p3514
tp3515
Rp3516
sVya
p3517
g3395
(g3399
S'\xe5\x00\x00\x00\x00\x00\x00\x00'
p3518
tp3519
Rp3520
sVmaterial
p3521
g3395
(g3399
S'w\x00\x00\x00\x00\x00\x00\x00'
p3522
tp3523
Rp3524
sVwatch
p3525
g3395
(g3399
S'\xd9\x00\x00\x00\x00\x00\x00\x00'
p3526
tp3527
Rp3528
sVreport
p3529
g3395
(g3399
S'\xa4\x00\x00\x00\x00\x00\x00\x00'
p3530
tp3531
Rp3532
sVworld
p3533
g3395
(g3399
S'\xe3\x00\x00\x00\x00\x00\x00\x00'
p3534
tp3535
Rp3536
sVnow
p3537
g3395
(g3399
S'\x86\x00\x00\x00\x00\x00\x00\x00'
p3538
tp3539
Rp3540
sVday
p3541
g3395
(g3399
S',\x00\x00\x00\x00\x00\x00\x00'
p3542
tp3543
Rp3544
sVdreams
p3545
g3395
(g3399
S':\x00\x00\x00\x00\x00\x00\x00'
p3546
tp3547
Rp3548
sVintel
p3549
g3395
(g3399
S'h\x00\x00\x00\x00\x00\x00\x00'
p3550
tp3551
Rp3552
sVshoulder
p3553
g3395
(g3399
S'\xb0\x00\x00\x00\x00\x00\x00\x00'
p3554
tp3555
Rp3556
sVgov
p3557
g3395
(g3399
S'Y\x00\x00\x00\x00\x00\x00\x00'
p3558
tp3559
Rp3560
sValex
p3561
g3395
(g3399
S'\x04\x00\x00\x00\x00\x00\x00\x00'
p3562
tp3563
Rp3564
sVlike
p3565
g3395
(g3399
S'p\x00\x00\x00\x00\x00\x00\x00'
p3566
tp3567
Rp3568
sVgossips
p3569
g3395
(g3399
S'X\x00\x00\x00\x00\x00\x00\x00'
p3570
tp3571
Rp3572
sVdidn
p3573
g3395
(g3399
S'3\x00\x00\x00\x00\x00\x00\x00'
p3574
tp3575
Rp3576
sVwednesday
p3577
g3395
(g3399
S'\xdc\x00\x00\x00\x00\x00\x00\x00'
p3578
tp3579
Rp3580
sVcloudy
p3581
g3395
(g3399
S'#\x00\x00\x00\x00\x00\x00\x00'
p3582
tp3583
Rp3584
sVtry
p3585
g3395
(g3399
S'\xcf\x00\x00\x00\x00\x00\x00\x00'
p3586
tp3587
Rp3588
sVtunez
p3589
g3395
(g3399
S'\xd3\x00\x00\x00\x00\x00\x00\x00'
p3590
tp3591
Rp3592
sVgimme
p3593
g3395
(g3399
S'Q\x00\x00\x00\x00\x00\x00\x00'
p3594
tp3595
Rp3596
sVweather
p3597
g3395
(g3399
S'\xdb\x00\x00\x00\x00\x00\x00\x00'
p3598
tp3599
Rp3600
sVnight
p3601
g3395
(g3399
S'\x84\x00\x00\x00\x00\x00\x00\x00'
p3602
tp3603
Rp3604
sVtunes
p3605
g3395
(g3399
S'\xd2\x00\x00\x00\x00\x00\x00\x00'
p3606
tp3607
Rp3608
sVout
p3609
g3395
(g3399
S'\x8d\x00\x00\x00\x00\x00\x00\x00'
p3610
tp3611
Rp3612
sVclassifier
p3613
g3395
(g3399
S' \x00\x00\x00\x00\x00\x00\x00'
p3614
tp3615
Rp3616
sVinbox
p3617
g3395
(g3399
S'e\x00\x00\x00\x00\x00\x00\x00'
p3618
tp3619
Rp3620
sVset
p3621
g3395
(g3399
S'\xaf\x00\x00\x00\x00\x00\x00\x00'
p3622
tp3623
Rp3624
sVretrieve
p3625
g3395
(g3399
S'\xa5\x00\x00\x00\x00\x00\x00\x00'
p3626
tp3627
Rp3628
sVee
p3629
g3395
(g3399
S'=\x00\x00\x00\x00\x00\x00\x00'
p3630
tp3631
Rp3632
sVintelligence
p3633
g3395
(g3399
S'i\x00\x00\x00\x00\x00\x00\x00'
p3634
tp3635
Rp3636
sVedu
p3637
g3395
(g3399
S'<\x00\x00\x00\x00\x00\x00\x00'
p3638
tp3639
Rp3640
sVback
p3641
g3395
(g3399
S'\x0e\x00\x00\x00\x00\x00\x00\x00'
p3642
tp3643
Rp3644
sVhail
p3645
g3395
(g3399
S'[\x00\x00\x00\x00\x00\x00\x00'
p3646
tp3647
Rp3648
sValice
p3649
g3395
(g3399
S'\x05\x00\x00\x00\x00\x00\x00\x00'
p3650
tp3651
Rp3652
sVsee
p3653
g3395
(g3399
S'\xad\x00\x00\x00\x00\x00\x00\x00'
p3654
tp3655
Rp3656
sVcomputer
p3657
g3395
(g3399
S"'\x00\x00\x00\x00\x00\x00\x00"
p3658
tp3659
Rp3660
sVare
p3661
g3395
(g3399
S'\x0c\x00\x00\x00\x00\x00\x00\x00'
p3662
tp3663
Rp3664
sVclose
p3665
g3395
(g3399
S'"\x00\x00\x00\x00\x00\x00\x00'
p3666
tp3667
Rp3668
sVcalendar
p3669
g3395
(g3399
S'\x1b\x00\x00\x00\x00\x00\x00\x00'
p3670
tp3671
Rp3672
sVextract
p3673
g3395
(g3399
S'B\x00\x00\x00\x00\x00\x00\x00'
p3674
tp3675
Rp3676
sVcold
p3677
g3395
(g3399
S'$\x00\x00\x00\x00\x00\x00\x00'
p3678
tp3679
Rp3680
sVgmail
p3681
g3395
(g3399
S'S\x00\x00\x00\x00\x00\x00\x00'
p3682
tp3683
Rp3684
sVcategory
p3685
g3395
(g3399
S'\x1d\x00\x00\x00\x00\x00\x00\x00'
p3686
tp3687
Rp3688
sVwhat
p3689
g3395
(g3399
S'\xde\x00\x00\x00\x00\x00\x00\x00'
p3690
tp3691
Rp3692
sVfor
p3693
g3395
(g3399
S'I\x00\x00\x00\x00\x00\x00\x00'
p3694
tp3695
Rp3696
sVclock
p3697
g3395
(g3399
S'!\x00\x00\x00\x00\x00\x00\x00'
p3698
tp3699
Rp3700
sVdebrief
p3701
g3395
(g3399
S'-\x00\x00\x00\x00\x00\x00\x00'
p3702
tp3703
Rp3704
sVcurrently
p3705
g3395
(g3399
S'+\x00\x00\x00\x00\x00\x00\x00'
p3706
tp3707
Rp3708
sVplease
p3709
g3395
(g3399
S'\x92\x00\x00\x00\x00\x00\x00\x00'
p3710
tp3711
Rp3712
sVbrief
p3713
g3395
(g3399
S'\x15\x00\x00\x00\x00\x00\x00\x00'
p3714
tp3715
Rp3716
sVforecast
p3717
g3395
(g3399
S'J\x00\x00\x00\x00\x00\x00\x00'
p3718
tp3719
Rp3720
sVcurrent
p3721
g3395
(g3399
S'*\x00\x00\x00\x00\x00\x00\x00'
p3722
tp3723
Rp3724
sVre
p3725
g3395
(g3399
S'\xa1\x00\x00\x00\x00\x00\x00\x00'
p3726
tp3727
Rp3728
sVexit
p3729
g3395
(g3399
S'A\x00\x00\x00\x00\x00\x00\x00'
p3730
tp3731
Rp3732
sVabove
p3733
g3395
(g3399
S'\x00\x00\x00\x00\x00\x00\x00\x00'
p3734
tp3735
Rp3736
sVnew
p3737
g3395
(g3399
S'\x80\x00\x00\x00\x00\x00\x00\x00'
p3738
tp3739
Rp3740
sVnet
p3741
g3395
(g3399
S'\x7f\x00\x00\x00\x00\x00\x00\x00'
p3742
tp3743
Rp3744
sVmoderate
p3745
g3395
(g3399
S'y\x00\x00\x00\x00\x00\x00\x00'
p3746
tp3747
Rp3748
sVissue
p3749
g3395
(g3399
S'k\x00\x00\x00\x00\x00\x00\x00'
p3750
tp3751
Rp3752
sVbe
p3753
g3395
(g3399
S'\x10\x00\x00\x00\x00\x00\x00\x00'
p3754
tp3755
Rp3756
sVshut
p3757
g3395
(g3399
S'\xb1\x00\x00\x00\x00\x00\x00\x00'
p3758
tp3759
Rp3760
sVnoise
p3761
g3395
(g3399
S'\x85\x00\x00\x00\x00\x00\x00\x00'
p3762
tp3763
Rp3764
sVschedule
p3765
g3395
(g3399
S'\xaa\x00\x00\x00\x00\x00\x00\x00'
p3766
tp3767
Rp3768
sVscreen
p3769
g3395
(g3399
S'\xab\x00\x00\x00\x00\x00\x00\x00'
p3770
tp3771
Rp3772
sVdictates
p3773
g3395
(g3399
S'2\x00\x00\x00\x00\x00\x00\x00'
p3774
tp3775
Rp3776
sVfree
p3777
g3395
(g3399
S'K\x00\x00\x00\x00\x00\x00\x00'
p3778
tp3779
Rp3780
sVillustration
p3781
g3395
(g3399
S'c\x00\x00\x00\x00\x00\x00\x00'
p3782
tp3783
Rp3784
sVactive
p3785
g3395
(g3399
S'\x01\x00\x00\x00\x00\x00\x00\x00'
p3786
tp3787
Rp3788
sVnews
p3789
g3395
(g3399
S'\x81\x00\x00\x00\x00\x00\x00\x00'
p3790
tp3791
Rp3792
sVpost
p3793
g3395
(g3399
S'\x93\x00\x00\x00\x00\x00\x00\x00'
p3794
tp3795
Rp3796
sVdon
p3797
g3395
(g3399
S'7\x00\x00\x00\x00\x00\x00\x00'
p3798
tp3799
Rp3800
sVearlier
p3801
g3395
(g3399
S';\x00\x00\x00\x00\x00\x00\x00'
p3802
tp3803
Rp3804
sVon
p3805
g3395
(g3399
S'\x8a\x00\x00\x00\x00\x00\x00\x00'
p3806
tp3807
Rp3808
sVsearch
p3809
g3395
(g3399
S'\xac\x00\x00\x00\x00\x00\x00\x00'
p3810
tp3811
Rp3812
sVlast
p3813
g3395
(g3399
S'n\x00\x00\x00\x00\x00\x00\x00'
p3814
tp3815
Rp3816
sVanything
p3817
g3395
(g3399
S'\x0b\x00\x00\x00\x00\x00\x00\x00'
p3818
tp3819
Rp3820
sVof
p3821
g3395
(g3399
S'\x87\x00\x00\x00\x00\x00\x00\x00'
p3822
tp3823
Rp3824
sVcould
p3825
g3395
(g3399
S'(\x00\x00\x00\x00\x00\x00\x00'
p3826
tp3827
Rp3828
sVquiet
p3829
g3395
(g3399
S'\x9c\x00\x00\x00\x00\x00\x00\x00'
p3830
tp3831
Rp3832
sVturn
p3833
g3395
(g3399
S'\xd4\x00\x00\x00\x00\x00\x00\x00'
p3834
tp3835
Rp3836
sVbrowsing
p3837
g3395
(g3399
S'\x18\x00\x00\x00\x00\x00\x00\x00'
p3838
tp3839
Rp3840
sVcom
p3841
g3395
(g3399
S'%\x00\x00\x00\x00\x00\x00\x00'
p3842
tp3843
Rp3844
sVthink
p3845
g3395
(g3399
S'\xc6\x00\x00\x00\x00\x00\x00\x00'
p3846
tp3847
Rp3848
sVfeed
p3849
g3395
(g3399
S'F\x00\x00\x00\x00\x00\x00\x00'
p3850
tp3851
Rp3852
sVthis
p3853
g3395
(g3399
S'\xc7\x00\x00\x00\x00\x00\x00\x00'
p3854
tp3855
Rp3856
sVwhats
p3857
g3395
(g3399
S'\xdf\x00\x00\x00\x00\x00\x00\x00'
p3858
tp3859
Rp3860
sVfeatures
p3861
g3395
(g3399
S'E\x00\x00\x00\x00\x00\x00\x00'
p3862
tp3863
Rp3864
sVsimple
p3865
g3395
(g3399
S'\xb3\x00\x00\x00\x00\x00\x00\x00'
p3866
tp3867
Rp3868
sVsweet
p3869
g3395
(g3399
S'\xc0\x00\x00\x00\x00\x00\x00\x00'
p3870
tp3871
Rp3872
sVtuesday
p3873
g3395
(g3399
S'\xd0\x00\x00\x00\x00\x00\x00\x00'
p3874
tp3875
Rp3876
sVyourself
p3877
g3395
(g3399
S'\xe8\x00\x00\x00\x00\x00\x00\x00'
p3878
tp3879
Rp3880
sVdown
p3881
g3395
(g3399
S'9\x00\x00\x00\x00\x00\x00\x00'
p3882
tp3883
Rp3884
sVput
p3885
g3395
(g3399
S'\x9a\x00\x00\x00\x00\x00\x00\x00'
p3886
tp3887
Rp3888
sVgoogle
p3889
g3395
(g3399
S'W\x00\x00\x00\x00\x00\x00\x00'
p3890
tp3891
Rp3892
sVdecrease
p3893
g3395
(g3399
S'/\x00\x00\x00\x00\x00\x00\x00'
p3894
tp3895
Rp3896
sVthursday
p3897
g3395
(g3399
S'\xc8\x00\x00\x00\x00\x00\x00\x00'
p3898
tp3899
Rp3900
sVshutdown
p3901
g3395
(g3399
S'\xb2\x00\x00\x00\x00\x00\x00\x00'
p3902
tp3903
Rp3904
sVorg
p3905
g3395
(g3399
S'\x8c\x00\x00\x00\x00\x00\x00\x00'
p3906
tp3907
Rp3908
sVopen
p3909
g3395
(g3399
S'\x8b\x00\x00\x00\x00\x00\x00\x00'
p3910
tp3911
Rp3912
sVtomorrow
p3913
g3395
(g3399
S'\xcd\x00\x00\x00\x00\x00\x00\x00'
p3914
tp3915
Rp3916
sVtemperature
p3917
g3395
(g3399
S'\xc3\x00\x00\x00\x00\x00\x00\x00'
p3918
tp3919
Rp3920
sVwould
p3921
g3395
(g3399
S'\xe4\x00\x00\x00\x00\x00\x00\x00'
p3922
tp3923
Rp3924
sVsake
p3925
g3395
(g3399
S'\xa7\x00\x00\x00\x00\x00\x00\x00'
p3926
tp3927
Rp3928
sVdecent
p3929
g3395
(g3399
S'.\x00\x00\x00\x00\x00\x00\x00'
p3930
tp3931
Rp3932
sVcreate
p3933
g3395
(g3399
S')\x00\x00\x00\x00\x00\x00\x00'
p3934
tp3935
Rp3936
sVthere
p3937
g3395
(g3399
S'\xc5\x00\x00\x00\x00\x00\x00\x00'
p3938
tp3939
Rp3940
sVquestion
p3941
g3395
(g3399
S'\x9b\x00\x00\x00\x00\x00\x00\x00'
p3942
tp3943
Rp3944
sVwindow
p3945
g3395
(g3399
S'\xe2\x00\x00\x00\x00\x00\x00\x00'
p3946
tp3947
Rp3948
sVnext
p3949
g3395
(g3399
S'\x83\x00\x00\x00\x00\x00\x00\x00'
p3950
tp3951
Rp3952
sVstart
p3953
g3395
(g3399
S'\xbc\x00\x00\x00\x00\x00\x00\x00'
p3954
tp3955
Rp3956
sVlive
p3957
g3395
(g3399
S'q\x00\x00\x00\x00\x00\x00\x00'
p3958
tp3959
Rp3960
sVgoing
p3961
g3395
(g3399
S'U\x00\x00\x00\x00\x00\x00\x00'
p3962
tp3963
Rp3964
sVmusic
p3965
g3395
(g3399
S'|\x00\x00\x00\x00\x00\x00\x00'
p3966
tp3967
Rp3968
sVtell
p3969
g3395
(g3399
S'\xc2\x00\x00\x00\x00\x00\x00\x00'
p3970
tp3971
Rp3972
sVtoday
p3973
g3395
(g3399
S'\xcb\x00\x00\x00\x00\x00\x00\x00'
p3974
tp3975
Rp3976
sVpretends
p3977
g3395
(g3399
S'\x95\x00\x00\x00\x00\x00\x00\x00'
p3978
tp3979
Rp3980
sVfake
p3981
g3395
(g3399
S'C\x00\x00\x00\x00\x00\x00\x00'
p3982
tp3983
Rp3984
sVsound
p3985
g3395
(g3399
S'\xb9\x00\x00\x00\x00\x00\x00\x00'
p3986
tp3987
Rp3988
sVreleasing
p3989
g3395
(g3399
S'\xa3\x00\x00\x00\x00\x00\x00\x00'
p3990
tp3991
Rp3992
sVcommands
p3993
g3395
(g3399
S'&\x00\x00\x00\x00\x00\x00\x00'
p3994
tp3995
Rp3996
sVit
p3997
g3395
(g3399
S'l\x00\x00\x00\x00\x00\x00\x00'
p3998
tp3999
Rp4000
sVvolume
p4001
g3395
(g3399
S'\xd8\x00\x00\x00\x00\x00\x00\x00'
p4002
tp4003
Rp4004
sVtrain
p4005
g3395
(g3399
S'\xce\x00\x00\x00\x00\x00\x00\x00'
p4006
tp4007
Rp4008
sVstick
p4009
g3395
(g3399
S'\xbd\x00\x00\x00\x00\x00\x00\x00'
p4010
tp4011
Rp4012
sVbeat
p4013
g3395
(g3399
S'\x11\x00\x00\x00\x00\x00\x00\x00'
p4014
tp4015
Rp4016
sVfoggy
p4017
g3395
(g3399
S'H\x00\x00\x00\x00\x00\x00\x00'
p4018
tp4019
Rp4020
sVme
p4021
g3395
(g3399
S'x\x00\x00\x00\x00\x00\x00\x00'
p4022
tp4023
Rp4024
sVahead
p4025
g3395
(g3399
S'\x03\x00\x00\x00\x00\x00\x00\x00'
p4026
tp4027
Rp4028
sVfriday
p4029
g3395
(g3399
S'M\x00\x00\x00\x00\x00\x00\x00'
p4030
tp4031
Rp4032
sVunmute
p4033
g3395
(g3399
S'\xd5\x00\x00\x00\x00\x00\x00\x00'
p4034
tp4035
Rp4036
sVsnow
p4037
g3395
(g3399
S'\xb5\x00\x00\x00\x00\x00\x00\x00'
p4038
tp4039
Rp4040
sVup
p4041
g3395
(g3399
S'\xd6\x00\x00\x00\x00\x00\x00\x00'
p4042
tp4043
Rp4044
sVdogs
p4045
g3395
(g3399
S'6\x00\x00\x00\x00\x00\x00\x00'
p4046
tp4047
Rp4048
sVwill
p4049
g3395
(g3399
S'\xe1\x00\x00\x00\x00\x00\x00\x00'
p4050
tp4051
Rp4052
sVlouder
p4053
g3395
(g3399
S's\x00\x00\x00\x00\x00\x00\x00'
p4054
tp4055
Rp4056
sVcan
p4057
g3395
(g3399
S'\x1c\x00\x00\x00\x00\x00\x00\x00'
p4058
tp4059
Rp4060
sVbriefing
p4061
g3395
(g3399
S'\x16\x00\x00\x00\x00\x00\x00\x00'
p4062
tp4063
Rp4064
sVproblem
p4065
g3395
(g3399
S'\x97\x00\x00\x00\x00\x00\x00\x00'
p4066
tp4067
Rp4068
sVoutcome
p4069
g3395
(g3399
S'\x8e\x00\x00\x00\x00\x00\x00\x00'
p4070
tp4071
Rp4072
sVmy
p4073
g3395
(g3399
S'~\x00\x00\x00\x00\x00\x00\x00'
p4074
tp4075
Rp4076
sVdee
p4077
g3395
(g3399
S'0\x00\x00\x00\x00\x00\x00\x00'
p4078
tp4079
Rp4080
sVbrowser
p4081
g3395
(g3399
S'\x17\x00\x00\x00\x00\x00\x00\x00'
p4082
tp4083
Rp4084
sVsaturday
p4085
g3395
(g3399
S'\xa9\x00\x00\x00\x00\x00\x00\x00'
p4086
tp4087
Rp4088
sVbefore
p4089
g3395
(g3399
S'\x13\x00\x00\x00\x00\x00\x00\x00'
p4090
tp4091
Rp4092
sVcell
p4093
g3395
(g3399
S'\x1e\x00\x00\x00\x00\x00\x00\x00'
p4094
tp4095
Rp4096
sVgive
p4097
g3395
(g3399
S'R\x00\x00\x00\x00\x00\x00\x00'
p4098
tp4099
Rp4100
sValmost
p4101
g3395
(g3399
S'\x06\x00\x00\x00\x00\x00\x00\x00'
p4102
tp4103
Rp4104
sVlock
p4105
g3395
(g3399
S'r\x00\x00\x00\x00\x00\x00\x00'
p4106
tp4107
Rp4108
sVis
p4109
g3395
(g3399
S'j\x00\x00\x00\x00\x00\x00\x00'
p4110
tp4111
Rp4112
sVin
p4113
g3395
(g3399
S'd\x00\x00\x00\x00\x00\x00\x00'
p4114
tp4115
Rp4116
sVam
p4117
g3395
(g3399
S'\x07\x00\x00\x00\x00\x00\x00\x00'
p4118
tp4119
Rp4120
sVfuck
p4121
g3395
(g3399
S'N\x00\x00\x00\x00\x00\x00\x00'
p4122
tp4123
Rp4124
sVan
p4125
g3395
(g3399
S'\x08\x00\x00\x00\x00\x00\x00\x00'
p4126
tp4127
Rp4128
sVbeats
p4129
g3395
(g3399
S'\x12\x00\x00\x00\x00\x00\x00\x00'
p4130
tp4131
Rp4132
sVright
p4133
g3395
(g3399
S'\xa6\x00\x00\x00\x00\x00\x00\x00'
p4134
tp4135
Rp4136
sVhave
p4137
g3395
(g3399
S'\\\x00\x00\x00\x00\x00\x00\x00'
p4138
tp4139
Rp4140
sVstalls
p4141
g3395
(g3399
S'\xbb\x00\x00\x00\x00\x00\x00\x00'
p4142
tp4143
Rp4144
sVany
p4145
g3395
(g3399
S'\n\x00\x00\x00\x00\x00\x00\x00'
p4146
tp4147
Rp4148
sVif
p4149
g3395
(g3399
S'b\x00\x00\x00\x00\x00\x00\x00'
p4150
tp4151
Rp4152
sVinformation
p4153
g3395
(g3399
S'g\x00\x00\x00\x00\x00\x00\x00'
p4154
tp4155
Rp4156
sVrainy
p4157
g3395
(g3399
S'\xa0\x00\x00\x00\x00\x00\x00\x00'
p4158
tp4159
Rp4160
sVzero
p4161
g3395
(g3399
S'\xe9\x00\x00\x00\x00\x00\x00\x00'
p4162
tp4163
Rp4164
sVcheck
p4165
g3395
(g3399
S'\x1f\x00\x00\x00\x00\x00\x00\x00'
p4166
tp4167
Rp4168
sVmake
p4169
g3395
(g3399
S'v\x00\x00\x00\x00\x00\x00\x00'
p4170
tp4171
Rp4172
sVget
p4173
g3395
(g3399
S'P\x00\x00\x00\x00\x00\x00\x00'
p4174
tp4175
Rp4176
sVwhen
p4177
g3395
(g3399
S'\xe0\x00\x00\x00\x00\x00\x00\x00'
p4178
tp4179
Rp4180
sVfeature
p4181
g3395
(g3399
S'D\x00\x00\x00\x00\x00\x00\x00'
p4182
tp4183
Rp4184
sVsame
p4185
g3395
(g3399
S'\xa8\x00\x00\x00\x00\x00\x00\x00'
p4186
tp4187
Rp4188
sVevent
p4189
g3395
(g3399
S'?\x00\x00\x00\x00\x00\x00\x00'
p4190
tp4191
Rp4192
sVbeside
p4193
g3395
(g3399
S'\x14\x00\x00\x00\x00\x00\x00\x00'
p4194
tp4195
Rp4196
sVread
p4197
g3395
(g3399
S'\xa2\x00\x00\x00\x00\x00\x00\x00'
p4198
tp4199
Rp4200
sVhot
p4201
g3395
(g3399
S'`\x00\x00\x00\x00\x00\x00\x00'
p4202
tp4203
Rp4204
sVanswer
p4205
g3395
(g3399
S'\t\x00\x00\x00\x00\x00\x00\x00'
p4206
tp4207
Rp4208
sVyou
p4209
g3395
(g3399
S'\xe6\x00\x00\x00\x00\x00\x00\x00'
p4210
tp4211
Rp4212
sVdocument
p4213
g3395
(g3399
S'5\x00\x00\x00\x00\x00\x00\x00'
p4214
tp4215
Rp4216
sVevents
p4217
g3395
(g3399
S'@\x00\x00\x00\x00\x00\x00\x00'
p4218
tp4219
Rp4220
sVhigher
p4221
g3395
(g3399
S'_\x00\x00\x00\x00\x00\x00\x00'
p4222
tp4223
Rp4224
sVweek
p4225
g3395
(g3399
S'\xdd\x00\x00\x00\x00\x00\x00\x00'
p4226
tp4227
Rp4228
sVplay
p4229
g3395
(g3399
S'\x90\x00\x00\x00\x00\x00\x00\x00'
p4230
tp4231
Rp4232
sVokay
p4233
g3395
(g3399
S'\x89\x00\x00\x00\x00\x00\x00\x00'
p4234
tp4235
Rp4236
sVhey
p4237
g3395
(g3399
S'^\x00\x00\x00\x00\x00\x00\x00'
p4238
tp4239
Rp4240
sVmonday
p4241
g3395
(g3399
S'z\x00\x00\x00\x00\x00\x00\x00'
p4242
tp4243
Rp4244
sVdefault
p4245
g3395
(g3399
S'1\x00\x00\x00\x00\x00\x00\x00'
p4246
tp4247
Rp4248
sVstop
p4249
g3395
(g3399
S'\xbe\x00\x00\x00\x00\x00\x00\x00'
p4250
tp4251
Rp4252
sVbackbone
p4253
g3395
(g3399
S'\x0f\x00\x00\x00\x00\x00\x00\x00'
p4254
tp4255
Rp4256
sVproblems
p4257
g3395
(g3399
S'\x98\x00\x00\x00\x00\x00\x00\x00'
p4258
tp4259
Rp4260
sVquieter
p4261
g3395
(g3399
S'\x9d\x00\x00\x00\x00\x00\x00\x00'
p4262
tp4263
Rp4264
sVrain
p4265
g3395
(g3399
S'\x9e\x00\x00\x00\x00\x00\x00\x00'
p4266
tp4267
Rp4268
sVfreezing
p4269
g3395
(g3399
S'L\x00\x00\x00\x00\x00\x00\x00'
p4270
tp4271
Rp4272
sVbyebye
p4273
g3395
(g3399
S'\x1a\x00\x00\x00\x00\x00\x00\x00'
p4274
tp4275
Rp4276
sVtune
p4277
g3395
(g3399
S'\xd1\x00\x00\x00\x00\x00\x00\x00'
p4278
tp4279
Rp4280
sVyour
p4281
g3395
(g3399
S'\xe7\x00\x00\x00\x00\x00\x00\x00'
p4282
tp4283
Rp4284
sVgrief
p4285
g3395
(g3399
S'Z\x00\x00\x00\x00\x00\x00\x00'
p4286
tp4287
Rp4288
sVlower
p4289
g3395
(g3399
S't\x00\x00\x00\x00\x00\x00\x00'
p4290
tp4291
Rp4292
sVoff
p4293
g3395
(g3399
S'\x88\x00\x00\x00\x00\x00\x00\x00'
p4294
tp4295
Rp4296
sVwe
p4297
g3395
(g3399
S'\xda\x00\x00\x00\x00\x00\x00\x00'
p4298
tp4299
Rp4300
sVgather
p4301
g3395
(g3399
S'O\x00\x00\x00\x00\x00\x00\x00'
p4302
tp4303
Rp4304
sVtale
p4305
g3395
(g3399
S'\xc1\x00\x00\x00\x00\x00\x00\x00'
p4306
tp4307
Rp4308
sVtime
p4309
g3395
(g3399
S'\xc9\x00\x00\x00\x00\x00\x00\x00'
p4310
tp4311
Rp4312
sVnewsfeed
p4313
g3395
(g3399
S'\x82\x00\x00\x00\x00\x00\x00\x00'
p4314
tp4315
Rp4316
sVthe
p4317
g3395
(g3399
S'\xc4\x00\x00\x00\x00\x00\x00\x00'
p4318
tp4319
Rp4320
sVincrease
p4321
g3395
(g3399
S'f\x00\x00\x00\x00\x00\x00\x00'
p4322
tp4323
Rp4324
sVplaying
p4325
g3395
(g3399
S'\x91\x00\x00\x00\x00\x00\x00\x00'
p4326
tp4327
Rp4328
sVdot
p4329
g3395
(g3399
S'8\x00\x00\x00\x00\x00\x00\x00'
p4330
tp4331
Rp4332
sVlatest
p4333
g3395
(g3399
S'o\x00\x00\x00\x00\x00\x00\x00'
p4334
tp4335
Rp4336
ssS'binary'
p4337
I00
sS'ngram_range'
p4338
(I1
I1
tp4339
sg3369
g3370
sS'max_df'
p4340
F1.0
sS'min_df'
p4341
I1
sS'max_features'
p4342
NsS'fixed_vocabulary_'
p4343
I00
sS'strip_accents'
p4344
NsS'dtype'
p4345
cnumpy
int64
p4346
sS'stop_words_'
p4347
c__builtin__
set
p4348
((lp4349
tp4350
Rp4351
sS'preprocessor'
p4352
Nsbtp4353
a(S'tfidf'
p4354
g3363
(csklearn.feature_extraction.text
TfidfTransformer
p4355
g3365
Ntp4356
Rp4357
(dp4358
S'smooth_idf'
p4359
I01
sg3369
g3370
sS'_idf_diag'
p4360
g3363
(cscipy.sparse.csr
csr_matrix
p4361
g3365
Ntp4362
Rp4363
(dp4364
S'indices'
p4365
cnumpy.core.multiarray
_reconstruct
p4366
(cnumpy
ndarray
p4367
(I0
tp4368
S'b'
p4369
tp4370
Rp4371
(I1
(I234
tp4372
g3396
(S'i4'
p4373
I0
I1
tp4374
Rp4375
(I3
S'<'
p4376
NNNI-1
I-1
I0
tp4377
bI00
S'\x00\x00\x00\x00\x01\x00\x00\x00\x02\x00\x00\x00\x03\x00\x00\x00\x04\x00\x00\x00\x05\x00\x00\x00\x06\x00\x00\x00\x07\x00\x00\x00\x08\x00\x00\x00\t\x00\x00\x00\n\x00\x00\x00\x0b\x00\x00\x00\x0c\x00\x00\x00\r\x00\x00\x00\x0e\x00\x00\x00\x0f\x00\x00\x00\x10\x00\x00\x00\x11\x00\x00\x00\x12\x00\x00\x00\x13\x00\x00\x00\x14\x00\x00\x00\x15\x00\x00\x00\x16\x00\x00\x00\x17\x00\x00\x00\x18\x00\x00\x00\x19\x00\x00\x00\x1a\x00\x00\x00\x1b\x00\x00\x00\x1c\x00\x00\x00\x1d\x00\x00\x00\x1e\x00\x00\x00\x1f\x00\x00\x00 \x00\x00\x00!\x00\x00\x00"\x00\x00\x00#\x00\x00\x00$\x00\x00\x00%\x00\x00\x00&\x00\x00\x00\'\x00\x00\x00(\x00\x00\x00)\x00\x00\x00*\x00\x00\x00+\x00\x00\x00,\x00\x00\x00-\x00\x00\x00.\x00\x00\x00/\x00\x00\x000\x00\x00\x001\x00\x00\x002\x00\x00\x003\x00\x00\x004\x00\x00\x005\x00\x00\x006\x00\x00\x007\x00\x00\x008\x00\x00\x009\x00\x00\x00:\x00\x00\x00;\x00\x00\x00<\x00\x00\x00=\x00\x00\x00>\x00\x00\x00?\x00\x00\x00@\x00\x00\x00A\x00\x00\x00B\x00\x00\x00C\x00\x00\x00D\x00\x00\x00E\x00\x00\x00F\x00\x00\x00G\x00\x00\x00H\x00\x00\x00I\x00\x00\x00J\x00\x00\x00K\x00\x00\x00L\x00\x00\x00M\x00\x00\x00N\x00\x00\x00O\x00\x00\x00P\x00\x00\x00Q\x00\x00\x00R\x00\x00\x00S\x00\x00\x00T\x00\x00\x00U\x00\x00\x00V\x00\x00\x00W\x00\x00\x00X\x00\x00\x00Y\x00\x00\x00Z\x00\x00\x00[\x00\x00\x00\\\x00\x00\x00]\x00\x00\x00^\x00\x00\x00_\x00\x00\x00`\x00\x00\x00a\x00\x00\x00b\x00\x00\x00c\x00\x00\x00d\x00\x00\x00e\x00\x00\x00f\x00\x00\x00g\x00\x00\x00h\x00\x00\x00i\x00\x00\x00j\x00\x00\x00k\x00\x00\x00l\x00\x00\x00m\x00\x00\x00n\x00\x00\x00o\x00\x00\x00p\x00\x00\x00q\x00\x00\x00r\x00\x00\x00s\x00\x00\x00t\x00\x00\x00u\x00\x00\x00v\x00\x00\x00w\x00\x00\x00x\x00\x00\x00y\x00\x00\x00z\x00\x00\x00{\x00\x00\x00|\x00\x00\x00}\x00\x00\x00~\x00\x00\x00\x7f\x00\x00\x00\x80\x00\x00\x00\x81\x00\x00\x00\x82\x00\x00\x00\x83\x00\x00\x00\x84\x00\x00\x00\x85\x00\x00\x00\x86\x00\x00\x00\x87\x00\x00\x00\x88\x00\x00\x00\x89\x00\x00\x00\x8a\x00\x00\x00\x8b\x00\x00\x00\x8c\x00\x00\x00\x8d\x00\x00\x00\x8e\x00\x00\x00\x8f\x00\x00\x00\x90\x00\x00\x00\x91\x00\x00\x00\x92\x00\x00\x00\x93\x00\x00\x00\x94\x00\x00\x00\x95\x00\x00\x00\x96\x00\x00\x00\x97\x00\x00\x00\x98\x00\x00\x00\x99\x00\x00\x00\x9a\x00\x00\x00\x9b\x00\x00\x00\x9c\x00\x00\x00\x9d\x00\x00\x00\x9e\x00\x00\x00\x9f\x00\x00\x00\xa0\x00\x00\x00\xa1\x00\x00\x00\xa2\x00\x00\x00\xa3\x00\x00\x00\xa4\x00\x00\x00\xa5\x00\x00\x00\xa6\x00\x00\x00\xa7\x00\x00\x00\xa8\x00\x00\x00\xa9\x00\x00\x00\xaa\x00\x00\x00\xab\x00\x00\x00\xac\x00\x00\x00\xad\x00\x00\x00\xae\x00\x00\x00\xaf\x00\x00\x00\xb0\x00\x00\x00\xb1\x00\x00\x00\xb2\x00\x00\x00\xb3\x00\x00\x00\xb4\x00\x00\x00\xb5\x00\x00\x00\xb6\x00\x00\x00\xb7\x00\x00\x00\xb8\x00\x00\x00\xb9\x00\x00\x00\xba\x00\x00\x00\xbb\x00\x00\x00\xbc\x00\x00\x00\xbd\x00\x00\x00\xbe\x00\x00\x00\xbf\x00\x00\x00\xc0\x00\x00\x00\xc1\x00\x00\x00\xc2\x00\x00\x00\xc3\x00\x00\x00\xc4\x00\x00\x00\xc5\x00\x00\x00\xc6\x00\x00\x00\xc7\x00\x00\x00\xc8\x00\x00\x00\xc9\x00\x00\x00\xca\x00\x00\x00\xcb\x00\x00\x00\xcc\x00\x00\x00\xcd\x00\x00\x00\xce\x00\x00\x00\xcf\x00\x00\x00\xd0\x00\x00\x00\xd1\x00\x00\x00\xd2\x00\x00\x00\xd3\x00\x00\x00\xd4\x00\x00\x00\xd5\x00\x00\x00\xd6\x00\x00\x00\xd7\x00\x00\x00\xd8\x00\x00\x00\xd9\x00\x00\x00\xda\x00\x00\x00\xdb\x00\x00\x00\xdc\x00\x00\x00\xdd\x00\x00\x00\xde\x00\x00\x00\xdf\x00\x00\x00\xe0\x00\x00\x00\xe1\x00\x00\x00\xe2\x00\x00\x00\xe3\x00\x00\x00\xe4\x00\x00\x00\xe5\x00\x00\x00\xe6\x00\x00\x00\xe7\x00\x00\x00\xe8\x00\x00\x00\xe9\x00\x00\x00'
p4378
tp4379
bsS'indptr'
p4380
g4366
(g4367
(I0
tp4381
g4369
tp4382
Rp4383
(I1
(I235
tp4384
g4375
I00
S'\x00\x00\x00\x00\x01\x00\x00\x00\x02\x00\x00\x00\x03\x00\x00\x00\x04\x00\x00\x00\x05\x00\x00\x00\x06\x00\x00\x00\x07\x00\x00\x00\x08\x00\x00\x00\t\x00\x00\x00\n\x00\x00\x00\x0b\x00\x00\x00\x0c\x00\x00\x00\r\x00\x00\x00\x0e\x00\x00\x00\x0f\x00\x00\x00\x10\x00\x00\x00\x11\x00\x00\x00\x12\x00\x00\x00\x13\x00\x00\x00\x14\x00\x00\x00\x15\x00\x00\x00\x16\x00\x00\x00\x17\x00\x00\x00\x18\x00\x00\x00\x19\x00\x00\x00\x1a\x00\x00\x00\x1b\x00\x00\x00\x1c\x00\x00\x00\x1d\x00\x00\x00\x1e\x00\x00\x00\x1f\x00\x00\x00 \x00\x00\x00!\x00\x00\x00"\x00\x00\x00#\x00\x00\x00$\x00\x00\x00%\x00\x00\x00&\x00\x00\x00\'\x00\x00\x00(\x00\x00\x00)\x00\x00\x00*\x00\x00\x00+\x00\x00\x00,\x00\x00\x00-\x00\x00\x00.\x00\x00\x00/\x00\x00\x000\x00\x00\x001\x00\x00\x002\x00\x00\x003\x00\x00\x004\x00\x00\x005\x00\x00\x006\x00\x00\x007\x00\x00\x008\x00\x00\x009\x00\x00\x00:\x00\x00\x00;\x00\x00\x00<\x00\x00\x00=\x00\x00\x00>\x00\x00\x00?\x00\x00\x00@\x00\x00\x00A\x00\x00\x00B\x00\x00\x00C\x00\x00\x00D\x00\x00\x00E\x00\x00\x00F\x00\x00\x00G\x00\x00\x00H\x00\x00\x00I\x00\x00\x00J\x00\x00\x00K\x00\x00\x00L\x00\x00\x00M\x00\x00\x00N\x00\x00\x00O\x00\x00\x00P\x00\x00\x00Q\x00\x00\x00R\x00\x00\x00S\x00\x00\x00T\x00\x00\x00U\x00\x00\x00V\x00\x00\x00W\x00\x00\x00X\x00\x00\x00Y\x00\x00\x00Z\x00\x00\x00[\x00\x00\x00\\\x00\x00\x00]\x00\x00\x00^\x00\x00\x00_\x00\x00\x00`\x00\x00\x00a\x00\x00\x00b\x00\x00\x00c\x00\x00\x00d\x00\x00\x00e\x00\x00\x00f\x00\x00\x00g\x00\x00\x00h\x00\x00\x00i\x00\x00\x00j\x00\x00\x00k\x00\x00\x00l\x00\x00\x00m\x00\x00\x00n\x00\x00\x00o\x00\x00\x00p\x00\x00\x00q\x00\x00\x00r\x00\x00\x00s\x00\x00\x00t\x00\x00\x00u\x00\x00\x00v\x00\x00\x00w\x00\x00\x00x\x00\x00\x00y\x00\x00\x00z\x00\x00\x00{\x00\x00\x00|\x00\x00\x00}\x00\x00\x00~\x00\x00\x00\x7f\x00\x00\x00\x80\x00\x00\x00\x81\x00\x00\x00\x82\x00\x00\x00\x83\x00\x00\x00\x84\x00\x00\x00\x85\x00\x00\x00\x86\x00\x00\x00\x87\x00\x00\x00\x88\x00\x00\x00\x89\x00\x00\x00\x8a\x00\x00\x00\x8b\x00\x00\x00\x8c\x00\x00\x00\x8d\x00\x00\x00\x8e\x00\x00\x00\x8f\x00\x00\x00\x90\x00\x00\x00\x91\x00\x00\x00\x92\x00\x00\x00\x93\x00\x00\x00\x94\x00\x00\x00\x95\x00\x00\x00\x96\x00\x00\x00\x97\x00\x00\x00\x98\x00\x00\x00\x99\x00\x00\x00\x9a\x00\x00\x00\x9b\x00\x00\x00\x9c\x00\x00\x00\x9d\x00\x00\x00\x9e\x00\x00\x00\x9f\x00\x00\x00\xa0\x00\x00\x00\xa1\x00\x00\x00\xa2\x00\x00\x00\xa3\x00\x00\x00\xa4\x00\x00\x00\xa5\x00\x00\x00\xa6\x00\x00\x00\xa7\x00\x00\x00\xa8\x00\x00\x00\xa9\x00\x00\x00\xaa\x00\x00\x00\xab\x00\x00\x00\xac\x00\x00\x00\xad\x00\x00\x00\xae\x00\x00\x00\xaf\x00\x00\x00\xb0\x00\x00\x00\xb1\x00\x00\x00\xb2\x00\x00\x00\xb3\x00\x00\x00\xb4\x00\x00\x00\xb5\x00\x00\x00\xb6\x00\x00\x00\xb7\x00\x00\x00\xb8\x00\x00\x00\xb9\x00\x00\x00\xba\x00\x00\x00\xbb\x00\x00\x00\xbc\x00\x00\x00\xbd\x00\x00\x00\xbe\x00\x00\x00\xbf\x00\x00\x00\xc0\x00\x00\x00\xc1\x00\x00\x00\xc2\x00\x00\x00\xc3\x00\x00\x00\xc4\x00\x00\x00\xc5\x00\x00\x00\xc6\x00\x00\x00\xc7\x00\x00\x00\xc8\x00\x00\x00\xc9\x00\x00\x00\xca\x00\x00\x00\xcb\x00\x00\x00\xcc\x00\x00\x00\xcd\x00\x00\x00\xce\x00\x00\x00\xcf\x00\x00\x00\xd0\x00\x00\x00\xd1\x00\x00\x00\xd2\x00\x00\x00\xd3\x00\x00\x00\xd4\x00\x00\x00\xd5\x00\x00\x00\xd6\x00\x00\x00\xd7\x00\x00\x00\xd8\x00\x00\x00\xd9\x00\x00\x00\xda\x00\x00\x00\xdb\x00\x00\x00\xdc\x00\x00\x00\xdd\x00\x00\x00\xde\x00\x00\x00\xdf\x00\x00\x00\xe0\x00\x00\x00\xe1\x00\x00\x00\xe2\x00\x00\x00\xe3\x00\x00\x00\xe4\x00\x00\x00\xe5\x00\x00\x00\xe6\x00\x00\x00\xe7\x00\x00\x00\xe8\x00\x00\x00\xe9\x00\x00\x00\xea\x00\x00\x00'
p4385
tp4386
bsS'maxprint'
p4387
I50
sS'_shape'
p4388
(I234
I234
tp4389
sg12
g4366
(g4367
(I0
tp4390
g4369
tp4391
Rp4392
(I1
(I234
tp4393
g3396
(S'f8'
p4394
I0
I1
tp4395
Rp4396
(I3
S'<'
p4397
NNNI-1
I-1
I0
tp4398
bI00
S'\xf5WJ\x00W\xeb\x1e@#\xfb\x82C\x14\xdc\x16@T;\x0c\xe9\x8a?\x13@\x9d\x08\x9d\xb4\x82\xe8\x19@\xb7\x10k\xa0\x8e%\x1c@\x8d\x03j\x84\xad\x19\x18@\xf5WJ\x00W\xeb\x1e@\x86\t\xe1;\xb8\xf4\x13@^\xfeG\xfd;$\x13@\xf5WJ\x00W\xeb\x1e@\xee\x1e\xb1b\xed)\x10@\xe1\xbb\xab\x83\xe8#\x0b@\x11u\xab\xc4\x1c\x8e\x12@;\x82\xac\xe0\xfd\x99\x16@\x9d\x08\x9d\xb4\x82\xe8\x19@\xf5WJ\x00W\xeb\x1e@p^~\xc1$L\x1d@\xa8\xf4N\x82F{\x18@\xf5WJ\x00W\xeb\x1e@p^~\xc1$L\x1d@p^~\xc1$L\x1d@\xf5WJ\x00W\xeb\x1e@\xf5WJ\x00W\xeb\x1e@#\xa0B\xfa\x029\x14@\xb7\x10k\xa0\x8e%\x1c@2\x17\x9fa\\\x86\x1a@\xf5WJ\x00W\xeb\x1e@\xaf\xaf\xd4\xaaJ\x00\x0e@\xa8\x8f\xe7\x02\x98p\n@\xf5WJ\x00W\xeb\x1e@\xf5WJ\x00W\xeb\x1e@\x87\xca^\xc2\xb8\x05\x07@\xf5WJ\x00W\xeb\x1e@\xb6\x88\xe0\xa1\xcb\xfa\x14@O\xbc\x8a$\xe5S\x15@\xae\x1d\xd3"*\xe7\x18@\xae\x1d\xd3"*\xe7\x18@\xe6;.\xe2\x0eA\x1b@\xf5WJ\x00W\xeb\x1e@\xe42\xff\x94)\x97\x11@F\xe6\xf0\x89\xa2b\x0f@T;\x0c\xe9\x8a?\x13@Lo\x07-\xb1\x87\x10@\xf5WJ\x00W\xeb\x1e@8\x18M\x1f!\x96\x13@\xf5WJ\x00W\xeb\x1e@\xf5WJ\x00W\xeb\x1e@p^~\xc1$L\x1d@p^~\xc1$L\x1d@\x8d\x03j\x84\xad\x19\x18@\xf5WJ\x00W\xeb\x1e@\xf5WJ\x00W\xeb\x1e@\x0b\x03\xadz\xea\x93\t@\xf5WJ\x00W\xeb\x1e@\xf5WJ\x00W\xeb\x1e@!\xb7h\x9ds^\x10@#\xfb\x82C\x14\xdc\x16@T;\x0c\xe9\x8a?\x13@p^~\xc1$L\x1d@\xf5WJ\x00W\xeb\x1e@p^~\xc1$L\x1d@p^~\xc1$L\x1d@\xf5WJ\x00W\xeb\x1e@\xady\x8e\xf8\xe4\x91\x0b@\xfb\xbe\x86\xcfD\x89\n@\xe6;.\xe2\x0eA\x1b@\xf5WJ\x00W\xeb\x1e@\xf5WJ\x00W\xeb\x1e@\xf5WJ\x00W\xeb\x1e@\xf5WJ\x00W\xeb\x1e@\xda\xc7\xf1\x15\x88\x83\x15@\n\xd9\x90J\x9dn\x17@\xae\x1d\xd3"*\xe7\x18@\xde\x9c\xd2\x88=\xed\r@\xda\xc7\xf1\x15\x88\x83\x15@\x86\t\xe1;\xb8\xf4\x13@\xae\x1d\xd3"*\xe7\x18@\xe5\xb3\xa3\xe3K\x16\x14@\xf5WJ\x00W\xeb\x1e@\xb7\x10k\xa0\x8e%\x1c@!\xb7h\x9ds^\x10@\xf5WJ\x00W\xeb\x1e@\xa8\xf4N\x82F{\x18@#\xf5\xc1\x94 \xb5\r@\x99\xd82d\xfe\xd0\x14@\xe6;.\xe2\x0eA\x1b@\xb7\x10k\xa0\x8e%\x1c@\x8eJ\xd2\x8a\x0c\xe3\x11@\xf5WJ\x00W\xeb\x1e@p^~\xc1$L\x1d@\xf5WJ\x00W\xeb\x1e@p^~\xc1$L\x1d@Y\xa3#\x8d\x8e\t\t@p\xd6\xf3\xc2a!\x16@p^~\xc1$L\x1d@y\xc9\x8b@\xc6_\x19@\xae\x1d\xd3"*\xe7\x18@\n\xd9\x90J\x9dn\x17@\x07r\x10\t\xe6\x1f\x12@\xf5WJ\x00W\xeb\x1e@\xc6\xdf\x12{V1\x0b@\xb1\xba\xc6\xd2:\x04\x10@\xf5WJ\x00W\xeb\x1e@\xe6;.\xe2\x0eA\x1b@\xb7\x10k\xa0\x8e%\x1c@\xf5WJ\x00W\xeb\x1e@X\x02K\x18\xb6\xbc\x0b@\xf5WJ\x00W\xeb\x1e@\xe9\x84\x08>\x01L\x0f@\xcc\x91\xb1\xea\xd4\xa8\x14@\n\xd9\x90J\x9dn\x17@2\x17\x9fa\\\x86\x1a@\xf5WJ\x00W\xeb\x1e@\x86\t\xe1;\xb8\xf4\x13@\xcc\x91\xb1\xea\xd4\xa8\x14@2\x17\x9fa\\\x86\x1a@\x9d\x08\x9d\xb4\x82\xe8\x19@K\xd7?j\xc2\xa2\r@\xd8&aH\x92J\x12@\xf5WJ\x00W\xeb\x1e@\x0cIb\xbdl\xd6\x12@\xf5WJ\x00W\xeb\x1e@\xe5\xb3\xa3\xe3K\x16\x14@\xe5\xb3\xa3\xe3K\x16\x14@p^~\xc1$L\x1d@\xe6;.\xe2\x0eA\x1b@~\xcb\xcd~\xb8\xcc\x08@p^~\xc1$L\x1d@]5\xc1*-4\n@Lo\x07-\xb1\x87\x10@j\xado"~\xb5\x15@T;\x0c\xe9\x8a?\x13@p^~\xc1$L\x1d@\xf5WJ\x00W\xeb\x1e@\xae\x1d\xd3"*\xe7\x18@p^~\xc1$L\x1d@H\x98\xe5\xab\xa2\t\x13@p^~\xc1$L\x1d@5\xcb\xdc\x92c\xdc\x05@\x0f\x04\'\x8ep\x9f\x0e@p^~\xc1$L\x1d@\xf5WJ\x00W\xeb\x1e@\xf5WJ\x00W\xeb\x1e@v_,\x7f\xe9[\x16@_\xc1\xbdT\xba"\x17@p^~\xc1$L\x1d@\xca\xfa\xd8=\xb0\xb7\x00@p^~\xc1$L\x1d@p^~\xc1$L\x1d@\xf5WJ\x00W\xeb\x1e@\x9d\x08\x9d\xb4\x82\xe8\x19@\xf5WJ\x00W\xeb\x1e@\xf5WJ\x00W\xeb\x1e@\xe6;.\xe2\x0eA\x1b@\xe6;.\xe2\x0eA\x1b@\xf5WJ\x00W\xeb\x1e@p^~\xc1$L\x1d@\xf5WJ\x00W\xeb\x1e@p^~\xc1$L\x1d@\xae\x1d\xd3"*\xe7\x18@\xae\x1d\xd3"*\xe7\x18@\x8d\x03j\x84\xad\x19\x18@;\x82\xac\xe0\xfd\x99\x16@\xf5WJ\x00W\xeb\x1e@\xf5WJ\x00W\xeb\x1e@\xa8\xf4N\x82F{\x18@2\x17\x9fa\\\x86\x1a@\xf5WJ\x00W\xeb\x1e@\xf5WJ\x00W\xeb\x1e@\xe5\xb3\xa3\xe3K\x16\x14@T;\x0c\xe9\x8a?\x13@#\xfb\x82C\x14\xdc\x16@O\xbc\x8a$\xe5S\x15@\xb7\x10k\xa0\x8e%\x1c@2\x17\x9fa\\\x86\x1a@\xb7\x10k\xa0\x8e%\x1c@\xf5WJ\x00W\xeb\x1e@T;\x0c\xe9\x8a?\x13@v_,\x7f\xe9[\x16@\xf5WJ\x00W\xeb\x1e@2\x17\x9fa\\\x86\x1a@p^~\xc1$L\x1d@\xae\x1d\xd3"*\xe7\x18@p^~\xc1$L\x1d@2\x8f\x14c\x99[\x13@\xda\xc7\xf1\x15\x88\x83\x15@\xe42\xff\x94)\x97\x11@\xf5WJ\x00W\xeb\x1e@\xcc\x91\xb1\xea\xd4\xa8\x14@\xf5WJ\x00W\xeb\x1e@\xf4\xcf\xbf\x01\x94\xc0\x17@\xe5\xb3\xa3\xe3K\x16\x14@p^~\xc1$L\x1d@\xf5WJ\x00W\xeb\x1e@\xf4\xcf\xbf\x01\x94\xc0\x17@\xda\xc7\xf1\x15\x88\x83\x15@!;:\\\xf5\xbe\x06@\xbeu\x95\xcc\x8c\xfe\x10@\xf5WJ\x00W\xeb\x1e@K\xd7?j\xc2\xa2\r@\xe5\xb3\xa3\xe3K\x16\x14@\x9c\x80\x12\xb6\xbf\xbd\x12@\x89b\xca\xd4\xd6u\x0b@\xaf\xaf\xd4\xaaJ\x00\x0e@\xe6;.\xe2\x0eA\x1b@\xfe:\xcd\x805\xd4\x13@\xf5WJ\x00W\xeb\x1e@\xf5WJ\x00W\xeb\x1e@\xe5\xb3\xa3\xe3K\x16\x14@\x9d\x08\x9d\xb4\x82\xe8\x19@p^~\xc1$L\x1d@\x9d\x08\x9d\xb4\x82\xe8\x19@\x16\xf4,\x89\xc2y\x10@\xe6;.\xe2\x0eA\x1b@^\xfeG\xfd;$\x13@\xf5WJ\x00W\xeb\x1e@\xcc\x91\xb1\xea\xd4\xa8\x14@\x9d\x08\x9d\xb4\x82\xe8\x19@\xf5WJ\x00W\xeb\x1e@\xda\xc7\xf1\x15\x88\x83\x15@\xe5\xb3\xa3\xe3K\x16\x14@\xb1\xba\xc6\xd2:\x04\x10@!\xdaA\x8c\xb3\xc6\x06@p^~\xc1$L\x1d@p^~\xc1$L\x1d@@\xa0n\x06\x9d\xa9\x11@\x9c\x80\x12\xb6\xbf\xbd\x12@p^~\xc1$L\x1d@*)\x1fU\xa7\xa5\x12@p^~\xc1$L\x1d@\xa5\x8b\xa6\xcd\x0e\x8b\x04@\x9d\x08\x9d\xb4\x82\xe8\x19@\xe6;.\xe2\x0eA\x1b@\xe6;.\xe2\x0eA\x1b@'
p4399
tp4400
bsbsS'use_idf'
p4401
I01
sS'sublinear_tf'
p4402
I00
sS'norm'
p4403
Vl2
p4404
sbtp4405
a(S'clsfr'
p4406
g3363
(csklearn.linear_model.stochastic_gradient
SGDClassifier
p4407
g3365
Ntp4408
Rp4409
(dp4410
S't_'
p4411
F8366.0
sS'n_jobs'
p4412
I1
sS'shuffle'
p4413
I01
sS'verbose'
p4414
I0
sS'classes_'
p4415
g4366
(g4367
(I0
tp4416
g4369
tp4417
Rp4418
(I1
(I2
tp4419
g3396
(S'S5'
p4420
I0
I1
tp4421
Rp4422
(I3
S'|'
p4423
NNNI5
I1
I0
tp4424
bI00
S'FalseTrue\x00'
p4425
tp4426
bsS'class_weight'
p4427
NsS'fit_intercept'
p4428
I01
sg8
g9
sS'random_state'
p4429
I42
sg3369
g3370
sS'loss_function'
p4430
csklearn.linear_model.sgd_fast
Hinge
p4431
(F1.0
tp4432
Rp4433
sS'C'
p4434
F1.0
sg7
I5
sS'epsilon'
p4435
F0.1
sS'learning_rate'
p4436
S'optimal'
p4437
sS'coef_'
p4438
g4366
(g4367
(I0
tp4439
g4369
tp4440
Rp4441
(I1
(I1
I234
tp4442
g4396
I00
S'ln\xd4\x85\xf6\x04\xe3\xbfc\xc4\xba{U\xfe\x01\xc0\xdb\xd0\x8d\xfe\xf2\xbd\t\xc0\x00\x00\x00\x00\x00\x00\x00\x00\x96U\x99\xb7\xa3\x08\x11\xc0\xb1\x98\x95\x82_-\xff\xbf\x00\x00\x00\x00\x00\x00\x00\x00;Z\xdd&\xefb\x05\xc0\x00\x00\x00\x00\x00\x00\x00\x00\x00\x00\x00\x00\x00\x00\x00\x00\x00\x00\x00\x00\x00\x00\x00\x00\x06\x90\x05)\xa1\xc3\x00\xc0\x00\x00\x00\x00\x00\x00\x00\x00\x00\x00\x00\x00\x00\x00\x00\x00\xc7n\xb4\x84k\xbd\x05\xc0ln\xd4\x85\xf6\x04\xe3\xbf\x00\x00\x00\x00\x00\x00\x00\x00\x00\x00\x00\x00\x00\x00\x00\x00\x00\x00\x00\x00\x00\x00\x00\x00\x00\x00\x00\x00\x00\x00\x00\x00\x00\x00\x00\x00\x00\x00\x00\x00\x00\x00\x00\x00\x00\x00\x00\x00\xd3?\xd2\xbc\xb8|\x0c\xc0\xeaRVj)2\t\xc0\x00\x00\x00\x00\x00\x00\x00\x00(\xa2\t\xc6\xca\xd6\x00\xc0\x00\x00\x00\x00\x00\x00\x00\x00L\x8a\x04q\xae^\x0e\xc0\x08\x01`zV\x8b\xf4\xbf\x00\x00\x00\x00\x00\x00\x00\x00\x00\x00\x00\x00\x00\x00\x00\x00N\x90\x96wnU\x02@\x00\x00\x00\x00\x00\x00\x00\x003\xc9T\xa6\xe5\xb4\x12\xc0 \xba{\x8c\xa2\xc9\x00\xc0\x00\x00\x00\x00\x00\x00\x00\x00\x00\x00\x00\x00\x00\x00\x00\x00\x00\x00\x00\x00\x00\x00\x00\x00\xb7Q=P\x1e\xba\xf7\xbf!\x9d\x0cY\xebd\x05\xc0!\xf0\xce\x8d,\xd0\xea\xbf\x00\x00\x00\x00\x00\x00\x00\x00g\xb6\xdb\xdeu\xc4\x0b\xc0\x00\x00\x00\x00\x00\x00\x00\x00\x00\x00\x00\x00\x00\x00\x00\x00\x8f>\xb3PG\x86\xf3\xbf\x00\x00\x00\x00\x00\x00\x00\x00\x00\x00\x00\x00\x00\x00\x00\x00\x00\x00\x00\x00\x00\x00\x00\x00\x00\x00\x00\x00\x00\x00\x00\x00ln\xd4\x85\xf6\x04\xe3\xbf\x00\x00\x00\x00\x00\x00\x00\x00\x00\x00\x00\x00\x00\x00\x00\x00\x00\x00\x00\x00\x00\x00\x00\x00\x00\x00\x00\x00\x00\x00\x00\x00\x91\x0b\xe5q\xc58\x04\xc0\x08\x8e\xcd\xaaO\x19\x10\xc0\x00\x00\x00\x00\x00\x00\x00\x00\x00\x00\x00\x00\x00\x00\x00\x00\x00\x00\x00\x00\x00\x00\x00\x00\x00\x00\x00\x00\x00\x00\x00\x00\x00\x00\x00\x00\x00\x00\x00\x00\x00\x00\x00\x00\x00\x00\x00\x00T\x922s\xc2_\x11\xc0w\xeem\xc6\xb7I\x06\xc0\x1d;=\r\xfd\xa4\xff\xbf\x00\x00\x00\x00\x00\x00\x00\x00\x00\x00\x00\x00\x00\x00\x00\x00\x00\x00\x00\x00\x00\x00\x00\x00\x00\x00\x00\x00\x00\x00\x00\x00\x00\x00\x00\x00\x00\x00\x00\x00\x00\x00\x00\x00\x00\x00\x00\x00_\xd7\xfb\x06\x1ej\r\xc0"\xb2\xe7\x98\xed\xfb\x0f\xc0\x00\x00\x00\x00\x00\x00\x00\x00;Z\xdd&\xefb\x05\xc0\x00\x00\x00\x00\x00\x00\x00\x00\xce5\x00TGB\x03\xc0\x00\x00\x00\x00\x00\x00\x00\x00\x00\x00\x00\x00\x00\x00\x00\x00,P\xa7\x1e/\x7f\x0b\xc0\x00\x00\x00\x00\x00\x00\x00\x00\x00\x00\x00\x00\x00\x00\x00\x00\x8e\xca=\x10\xa1\x10\x14@w\x9dv\x8a\x9fw\x01\xc0\x00\x00\x00\x00\x00\x00\x00\x00\x88\xa1;\x10`\xde\x01\xc05)A\x04A&\x01\xc0\x00\x00\x00\x00\x00\x00\x00\x00B\xbe\x1b\xa3\x06\xbc\x01\xc0ln\xd4\x85\xf6\x04\xe3\xbf\x00\x00\x00\x00\x00\x00\x00\x00\xd5E\xdc\xb61\xee\xfe\xbfG\\\x1e\xb1>\xdc\xfd\xbf\x00\x00\x00\x00\x00\x00\x00\x00\x00\x00\x00\x00\x00\x00\x00\x00\x00\x00\x00\x00\x00\x00\x00\x00\x00\x00\x00\x00\x00\x00\x00\x00a\x9e\xfe\x9e{h\x05\xc0\x00\x00\x00\x00\x00\x00\x00\x00\'(w\x83-\xfd\x0e@\xd2\xdbc\x98\xdf5 @\x00\x00\x00\x00\x00\x00\x00\x00\x00\x00\x00\x00\x00\x00\x00\x00\x00\x00\x00\x00\x00\x00\x00\x00\x00\x00\x00\x00\x00\x00\x00\x00\xc8\xea\xafa\xf5\x8f\xdb?\xb7Q=P\x1e\xba\xf7\xbf;G\xe04\n\x8e\x10\xc0\x00\x00\x00\x00\x00\x00\x00\x00\x01\x11\xd3\x92\x82\xa9\x03\xc0\x00\x00\x00\x00\x00\x00\x00\x00\x00\x00\x00\x00\x00\x00\x00\x00\x00\x00\x00\x00\x00\x00\x00\x00\x1c\xe6j^\x06\xe6\xfa\xbf\x00\x00\x00\x00\x00\x00\x00\x00\x00\x00\x00\x00\x00\x00\x00\x00\xbcqAB\x05h\x12@\xc8(\x158)\xa5\x05\xc0\x00\x00\x00\x00\x00\x00\x00\x00\xf41\x81Nh\xca\xe7\xbf\x00\x00\x00\x00\x00\x00\x00\x00\x9d\xf1\xd8\xfa\xea\x86\x05\xc0\xad\xa2\x04\xe4\xb5h\x05\xc0\x00\x00\x00\x00\x00\x00\x00\x00\xc8b\x84Y\xf3l\x03\xc0]\x1b\x8a\x0e\xb4\xcd\xfc?\x00\x00\x00\x00\x00\x00\x00\x00\x19\xda\xb9C\x8a\x15\x00@\xc3\xe7}jq\x03\t\xc0\xc6\xe1\xda\x85+p\x0e\xc0E\x01Yl\x07\xd1\t\xc0\x00\x00\x00\x00\x00\x00\x00\x00\x00\x00\x00\x00\x00\x00\x00\x00\x00\x00\x00\x00\x00\x00\x00\x00\x00\x00\x00\x00\x00\x00\x00\x00"\xf6j\xba\x80\'\x07\xc0\x00\x00\x00\x00\x00\x00\x00\x00\x84\x84O\xf6*!\x06\xc0X\xcf\x85\xd8n\xff\x85?\x82V\xd7\xee\xe2\x87\x07\xc0\x00\x00\x00\x00\x00\x00\x00\x00\x00\x00\x00\x00\x00\x00\x00\x00\x00\x00\x00\x00\x00\x00\x00\x00\x00\x00\x00\x00\x00\x00\x00\x00\xa2\x02E#\xbfr\x06\xc0\xc4\xda\xeb.0l\xe9\xbf\x00\x00\x00\x00\x00\x00\x00\x00\x00\x00\x00\x00\x00\x00\x00\x00\x00\x00\x00\x00\x00\x00\x00\x00\x00\x00\x00\x00\x00\x00\x00\x00\x00\x00\x00\x00\x00\x00\x00\x00\x00\x00\x00\x00\x00\x00\x00\x00\x00\x00\x00\x00\x00\x00\x00\x00\x00\x00\x00\x00\x00\x00\x00\x00\x00\x00\x00\x00\x00\x00\x00\x00\x00\x00\x00\x00\x00\x00\x00\x00\x00\x00\x00\x00\x00\x00\x00\x00\x00\x00\x00\x00\x00\x00\x00\x00\x00\x00\x00\x00\x00\x00\x00\x00\x00\x00\x00\x00\x00\x00\x00\x00\x00\x00\x00\x00\x00\x00\x00\x00\x00\x00\x00\x00\x00\x00\x00\x00\x00\x00\x00\x00\x00\x00\x00\x00\x00\x00\x00\x00\x00\x00\x00\x00\xf5\x80\rs\xe6\xe1\x06\xc0\x00\x00\x00\x00\x00\x00\x00\x00\x00\x00\x00\x00\x00\x00\x00\x00\x00\x00\x00\x00\x00\x00\x00\x00\x00\x00\x00\x00\x00\x00\x00\x00\x00\x00\x00\x00\x00\x00\x00\x00\x00\x00\x00\x00\x00\x00\x00\x00\x00\x00\x00\x00\x00\x00\x00\x00V\xf3\xact\xb74\x02\xc0\x00\x00\x00\x00\x00\x00\x00\x00\x00\x00\x00\x00\x00\x00\x00\x00\x00\x00\x00\x00\x00\x00\x00\x00\x00\x00\x00\x00\x00\x00\x00\x00\xc0u{E02\x12\xc0\x00\x00\x00\x00\x00\x00\x00\x00\x00\x00\x00\x00\x00\x00\x00\x00\x00\x00\x00\x00\x00\x00\x00\x00\x00\x00\x00\x00\x00\x00\x00\x00\x00\x00\x00\x00\x00\x00\x00\x00\xb1p\x1f\xa6M>\x00\xc0\x00\x00\x00\x00\x00\x00\x00\x00TB\xbd\x11\xd5\x97\x07\xc0\x00\x00\x00\x00\x00\x00\x00\x00#uv\xbf-\x86\x06\xc0\x00\x00\x00\x00\x00\x00\x00\x00\x8e\n\x03\xbc\x0c3\x02\xc0\x00\x00\x00\x00\x00\x00\x00\x00\x00\x00\x00\x00\x00\x00\x00\x00\x00\x00\x00\x00\x00\x00\x00\x00\x00\x00\x00\x00\x00\x00\x00\x00\xb9/@\x90\xb2\xf1\xfa\xbf\x1d\'\x16I\x1c`\x07\xc0\x00\x00\x00\x00\x00\x00\x00\x00\x00\x00\x00\x00\x00\x00\x00\x00\xc1\xf9\xc5\x1b\x0b\x96\xff\xbf\x00\x00\x00\x00\x00\x00\x00\x00\xcd\xdd\xdf\xc3\\\x84\x01\xc0\xe9\xc8\x88\xc0\xd2\n\xf7\xbf\\nI\xec\xd7\xb7\x01\xc0\x00\x00\x00\x00\x00\x00\x00\x00\x00\x00\x00\x00\x00\x00\x00\x00\x00\x00\x00\x00\x00\x00\x00\x00\x00\x00\x00\x00\x00\x00\x00\x00\x00\x00\x00\x00\x00\x00\x00\x00\x00\x00\x00\x00\x00\x00\x00\x00\x00\x00\x00\x00\x00\x00\x00\x00\x00\x00\x00\x00\x00\x00\x00\x00\xe2A\xe2B\xcd\t\x04\xc0X\xef/\xe3KL\xe6\xbf)\xe8j\x9af5\xea\xbf\x00\x00\x00\x00\x00\x00\x00\x00\xb0\x00J\xe3wI\xec\xbf\n\xa5u\x0b\xf6\xe9\xfb\xbf\x00\x00\x00\x00\x00\x00\x00\x00|\xd4hG.\xd2\t\xc0\x00\x00\x00\x00\x00\x00\x00\x00j\x00$JP\xc9\x03\xc0\x90p?\xdc-t\xdc\xbf\x00\x00\x00\x00\x00\x00\x00\x00\x00\x00\x00\x00\x00\x00\x00\x00\x06~W~-P\x05@\xc8\xcb\x01\xf1\xe1\x80\xfd\xbf\x00\x00\x00\x00\x00\x00\x00\x00K\xab\xadG\xd2b\x03@\x16\x7fJ\x03C\xf3\x02\xc0\x81\xc5\x8c\xd0\xa3h\xf5?\n\xa5u\x0b\xf6\xe9\xfb\xbf\x00\x00\x00\x00\x00\x00\x00\x00\x00\x00\x00\x00\x00\x00\x00\x00'
p4443
tp4444
bsg11
F0.001
sS'intercept_'
p4445
g4366
(g4367
(I0
tp4446
g4369
tp4447
Rp4448
(I1
(I1
tp4449
g4396
I00
S'\xe4\xca\x90\x05\x8b4\xf0\xbf'
p4450
tp4451
bsS'_expanded_class_weight'
p4452
g4366
(g4367
(I0
tp4453
g4369
tp4454
Rp4455
(I1
(I2
tp4456
g4396
I00
S'\x00\x00\x00\x00\x00\x00\xf0?\x00\x00\x00\x00\x00\x00\xf0?'
p4457
tp4458
bsS'warm_start'
p4459
I00
sg2
g3
sS'eta0'
p4460
F0.0
sS'l1_ratio'
p4461
F0.15
sS'average'
p4462
I00
sS'power_t'
p4463
F0.5
sbtp4464
asbsb.