(ialicized_models
CommandMatchingModel
p0
(dp1
S'loss'
p2
S'hinge'
p3
sS'grammar'
p4
NsS'name'
p5
S'GOOGLE_CALENDAR_ADD_EVENT.model'
p6
sS'n_iter'
p7
I5
sS'penalty'
p8
S'none'
p9
sS'trained'
p10
I01
sS'alpha'
p11
F0.001
sS'data'
p12
(lp13
(S'bye bye'
p14
S'False'
p15
tp16
a(S'please would you check inbox'
p17
g15
tp18
a(S'am i free for a week'
p19
g15
tp20
a(S'intel'
p21
g15
tp22
a(S'check calendar on tomorrow'
p23
g15
tp24
a(S'turn the sound down please'
p25
g15
tp26
a(S'schedule a new event'
p27
S'True'
p28
tp29
a(S'what do i have to do on today'
p30
g15
tp31
a(S'do i have to do anything on thursday'
p32
g15
tp33
a(S'any events on tomorrow'
p34
g15
tp35
a(S"today's current events"
p36
g15
tp37
a(S'retrieve the time'
p38
g15
tp39
a(S'make an event please'
p40
g28
tp41
a(S'do i have any events on next'
p42
g15
tp43
a(S'create new event'
p44
g28
tp45
a(S'bye'
p46
g15
tp47
a(S'check calendar for today'
p48
g15
tp49
a(S'please sound up'
p50
g15
tp51
a(S'do i have anything on friday'
p52
g15
tp53
a(S'will you open gmail please'
p54
g15
tp55
a(S'could you create event'
p56
g28
tp57
a(S'what is on my calendar for wednesday'
p58
g15
tp59
a(S'check calendar for this week'
p60
g15
tp61
a(S'am i free for saturday'
p62
g15
tp63
a(S'check google calendar for sunday'
p64
g15
tp65
a(S'would you check new mail'
p66
g15
tp67
a(S'start browsing'
p68
g15
tp69
a(S'get the time please'
p70
g15
tp71
a(S'start song'
p72
g15
tp73
a(S'could you make an event please'
p74
g28
tp75
a(S'please turn off my computer'
p76
g15
tp77
a(S'could you make a new event please'
p78
g28
tp79
a(S'can you please add new event'
p80
g28
tp81
a(S'is there anything i have to do in a week'
p82
g15
tp83
a(S'is there anything to do on sunday'
p84
g15
tp85
a(S'am i free for monday'
p86
g15
tp87
a(S'can you please schedule an event'
p88
g28
tp89
a(S"don't i have to do anything on next"
p90
g15
tp91
a(S'open dot org'
p92
g15
tp93
a(S'kill the program'
p94
g15
tp95
a(S'could you make event please'
p96
g28
tp97
a(S'could you create new event please'
p98
g28
tp99
a(S'find live news feed'
p100
g15
tp101
a(S"if it's snowing today"
p102
g15
tp103
a(S'schedule event please'
p104
g28
tp105
a(S'can you turn the volume higher please'
p106
g15
tp107
a(S'get news'
p108
g15
tp109
a(S'am i free for thursday'
p110
g15
tp111
a(S"get today's forecast"
p112
g15
tp113
a(S'could you please make an event'
p114
g28
tp115
a(S'check new mail please'
p116
g15
tp117
a(S'decrease the volume'
p118
g15
tp119
a(S'can you please close this window'
p120
g15
tp121
a(S'next song'
p122
g15
tp123
a(S'byebye'
p124
g15
tp125
a(S'please go to dot com'
p126
g15
tp127
a(S'what is newsfeed'
p128
g15
tp129
a(S'next'
p130
g15
tp131
a(S'add a new event'
p132
g28
tp133
a(S'are there any events on saturday'
p134
g15
tp135
a(S'read me the clock please'
p136
g15
tp137
a(S'google please for'
p138
g15
tp139
a(S"don't i have anything on monday"
p140
g15
tp141
a(S'intelligence report'
p142
g15
tp143
a(S"don't i have anything today"
p144
g15
tp145
a(S'any events on today'
p146
g15
tp147
a(S'am i free in a month'
p148
g15
tp149
a(S'please could you open inbox'
p150
g15
tp151
a(S'go spotify please'
p152
g15
tp153
a(S'get current weather'
p154
g15
tp155
a(S"what's the live newsfeed"
p156
g15
tp157
a(S'check what time it is please'
p158
g15
tp159
a(S"what're the current news"
p160
g15
tp161
a(S'spotify last song please'
p162
g15
tp163
a(S'can you make new event'
p164
g28
tp165
a(S'can you check new mail please'
p166
g15
tp167
a(S"don't i have to do anything on friday"
p168
g15
tp169
a(S'please could you check inbox'
p170
g15
tp171
a(S"don't i have anything on sunday"
p172
g15
tp173
a(S"get if it's raining this week"
p174
g15
tp175
a(S'current weather'
p176
g15
tp177
a(S'get newsfeed'
p178
g15
tp179
a(S'am i free on monday'
p180
g15
tp181
a(S'turn off the computer please'
p182
g15
tp183
a(S'what is new in inbox please'
p184
g15
tp185
a(S'shut off my computer please'
p186
g15
tp187
a(S'can you shut off'
p188
g15
tp189
a(S'shut down please'
p190
g15
tp191
a(S'please give me current events'
p192
g15
tp193
a(S'check my calendar on today'
p194
g15
tp195
a(S'what is in my gmail please'
p196
g15
tp197
a(S"what's today's weather"
p198
g15
tp199
a(S'can you please turn up the tune'
p200
g15
tp201
a(S'would you check gmail please'
p202
g15
tp203
a(S'turn it off'
p204
g15
tp205
a(S'check events for thursday'
p206
g15
tp207
a(S"what's this week's forecast"
p208
g15
tp209
a(S'shut down my computer'
p210
g15
tp211
a(S'could you open inbox please'
p212
g15
tp213
a(S'do i have any events on tomorrow'
p214
g15
tp215
a(S"don't i have to do anything in a week"
p216
g15
tp217
a(S'start'
p218
g15
tp219
a(S'is there anything to do on tuesday'
p220
g15
tp221
a(S'go ahead'
p222
g15
tp223
a(S'search please for'
p224
g15
tp225
a(S"get if it's rainy this week"
p226
g15
tp227
a(S'am i free on next'
p228
g15
tp229
a(S'live newsfeed today'
p230
g15
tp231
a(S'can you make event please'
p232
g28
tp233
a(S'can you please turn up the volume'
p234
g15
tp235
a(S'do i have anything on thursday'
p236
g15
tp237
a(S'check events on tuesday'
p238
g15
tp239
a(S'what is in gmail'
p240
g15
tp241
a(S"if it's foggy this week"
p242
g15
tp243
a(S'give me the current events please'
p244
g15
tp245
a(S'please make event'
p246
g28
tp247
a(S'make event'
p248
g28
tp249
a(S'open my mail'
p250
g15
tp251
a(S'see ya alice'
p252
g15
tp253
a(S"what's the live news feed"
p254
g15
tp255
a(S"how's the weather today"
p256
g15
tp257
a(S'check my calendar on friday'
p258
g15
tp259
a(S'is there anything to do on next'
p260
g15
tp261
a(S'turn the tune down'
p262
g15
tp263
a(S'check my mail please'
p264
g15
tp265
a(S'anything in my gmail'
p266
g15
tp267
a(S'please start a browser'
p268
g15
tp269
a(S'read the time'
p270
g15
tp271
a(S'make an event'
p272
g28
tp273
a(S'what do i have to do on wednesday'
p274
g15
tp275
a(S'what is on my calendar for this week'
p276
g15
tp277
a(S'please get the clock'
p278
g15
tp279
a(S'could you schedule an event please'
p280
g28
tp281
a(S'do i have anything to do on friday'
p282
g15
tp283
a(S'open dot edu'
p284
g15
tp285
a(S'anything new in gmail'
p286
g15
tp287
a(S'check mail'
p288
g15
tp289
a(S'can you add an event please'
p290
g28
tp291
a(S'check google calendar for tuesday'
p292
g15
tp293
a(S'what do i have to do on tuesday'
p294
g15
tp295
a(S'give me intel'
p296
g15
tp297
a(S"don't i have to do anything on this day"
p298
g15
tp299
a(S'get live news feed'
p300
g15
tp301
a(S'do i have any events on monday'
p302
g15
tp303
a(S'would you open my mail'
p304
g15
tp305
a(S"don't i have to do anything on monday"
p306
g15
tp307
a(S'turn the beat down please'
p308
g15
tp309
a(S'can you make a new event'
p310
g28
tp311
a(S"get if it's raining today"
p312
g15
tp313
a(S'can you turn up the tune'
p314
g15
tp315
a(S'kill the active program'
p316
g15
tp317
a(S'can you shut off my computer'
p318
g15
tp319
a(S"what's the temperature"
p320
g15
tp321
a(S'live news feed'
p322
g15
tp323
a(S'check calendar for this day'
p324
g15
tp325
a(S'please spotify previous'
p326
g15
tp327
a(S'find newsfeed'
p328
g15
tp329
a(S'please start'
p330
g15
tp331
a(S'will you get the headlines'
p332
g15
tp333
a(S'what events are on next'
p334
g15
tp335
a(S'what do i have on tomorrow'
p336
g15
tp337
a(S'please add new event'
p338
g28
tp339
a(S'briefing'
p340
g15
tp341
a(S'the news today'
p342
g15
tp343
a(S'get current news'
p344
g15
tp345
a(S'will you get the current events for me'
p346
g15
tp347
a(S'lower the volume'
p348
g15
tp349
a(S"what's today's temperature"
p350
g15
tp351
a(S'check google calendar on next'
p352
g15
tp353
a(S'turn my computer off please'
p354
g15
tp355
a(S"what's in new mail please"
p356
g15
tp357
a(S'check your watch'
p358
g15
tp359
a(S'do i have any events on wednesday'
p360
g15
tp361
a(S'live news today'
p362
g15
tp363
a(S'can you please schedule a new event'
p364
g28
tp365
a(S'please open dot com'
p366
g15
tp367
a(S"aren't there any events on thursday"
p368
g15
tp369
a(S'find headlines'
p370
g15
tp371
a(S"what's in gmail please"
p372
g15
tp373
a(S'anything new in my inbox'
p374
g15
tp375
a(S"what's in mail please"
p376
g15
tp377
a(S'shut off please'
p378
g15
tp379
a(S'could you open my inbox'
p380
g15
tp381
a(S"don't i have anything to do"
p382
g15
tp383
a(S'will you open gmail'
p384
g15
tp385
a(S'can you please kill the active window'
p386
g15
tp387
a(S"how's the temperature"
p388
g15
tp389
a(S"don't i have to do anything on"
p390
g15
tp391
a(S'spotify start please'
p392
g15
tp393
a(S'could you open my mail'
p394
g15
tp395
a(S'can you schedule a new event'
p396
g28
tp397
a(S'will you check new gmail please'
p398
g15
tp399
a(S'is it cold today'
p400
g15
tp401
a(S'google search please'
p402
g15
tp403
a(S'can you please make an event'
p404
g28
tp405
a(S'do i have any events on thursday'
p406
g15
tp407
a(S'the tale pretends'
p408
g15
tp409
a(S'check events for today'
p410
g15
tp411
a(S'spotify go please'
p412
g15
tp413
a(S'could you make event'
p414
g28
tp415
a(S'can you check my mail'
p416
g15
tp417
a(S'what events do i have on tuesday'
p418
g15
tp419
a(S'check events for monday'
p420
g15
tp421
a(S'can you schedule a new event please'
p422
g28
tp423
a(S'train a classifier to try to predict the category of a post'
p424
g15
tp425
a(S'can you check my inbox please'
p426
g15
tp427
a(S'open my inbox please'
p428
g15
tp429
a(S'open inbox'
p430
g15
tp431
a(S'what events do i have on saturday'
p432
g15
tp433
a(S'what events are on this day'
p434
g15
tp435
a(S'create new event please'
p436
g28
tp437
a(S'can you please create event'
p438
g28
tp439
a(S'will you check gmail please'
p440
g15
tp441
a(S"aren't there any events on tomorrow"
p442
g15
tp443
a(S"what's the current events"
p444
g15
tp445
a(S'get time please'
p446
g15
tp447
a(S'can you check new gmail'
p448
g15
tp449
a(S'please spotify pause'
p450
g15
tp451
a(S'lock computer please'
p452
g15
tp453
a(S'check events on monday'
p454
g15
tp455
a(S'pause please'
p456
g15
tp457
a(S'current forecast'
p458
g15
tp459
a(S'do i have anything on tuesday'
p460
g15
tp461
a(S'is it raining this week'
p462
g15
tp463
a(S'any mail'
p464
g15
tp465
a(S'please can you make it louder'
p466
g15
tp467
a(S"what's new in new gmail"
p468
g15
tp469
a(S'please can you check mail'
p470
g15
tp471
a(S'am i free on saturday'
p472
g15
tp473
a(S'what events are in a month'
p474
g15
tp475
a(S'check inbox please'
p476
g15
tp477
a(S'can you schedule event'
p478
g28
tp479
a(S'please could you check mail'
p480
g15
tp481
a(S'retrieve what time it is please'
p482
g15
tp483
a(S'what events are on tuesday'
p484
g15
tp485
a(S'do i have to do anything to do'
p486
g15
tp487
a(S'please get the current events'
p488
g15
tp489
a(S'could you add an event'
p490
g28
tp491
a(S'can you unmute please'
p492
g15
tp493
a(S'would you open gmail'
p494
g15
tp495
a(S'turn up the sound please'
p496
g15
tp497
a(S'is it snowing today'
p498
g15
tp499
a(S'please last song'
p500
g15
tp501
a(S'please turn off the computer'
p502
g15
tp503
a(S'could you check mail'
p504
g15
tp505
a(S'will you open mail'
p506
g15
tp507
a(S'what are the current events'
p508
g15
tp509
a(S'can you add a new event please'
p510
g28
tp511
a(S'please pause the song'
p512
g15
tp513
a(S'todays headlines'
p514
g15
tp515
a(S'check calendar on today'
p516
g15
tp517
a(S'what events are on thursday'
p518
g15
tp519
a(S'could you open gmail please'
p520
g15
tp521
a(S"what's if it's foggy this week"
p522
g15
tp523
a(S"aren't there any events on this day"
p524
g15
tp525
a(S'news'
p526
g15
tp527
a(S'are there any events on tomorrow'
p528
g15
tp529
a(S'spotify pause the song please'
p530
g15
tp531
a(S'open default browser please'
p532
g15
tp533
a(S'would you check mail please'
p534
g15
tp535
a(S'please close active window'
p536
g15
tp537
a(S'make the sound quieter'
p538
g15
tp539
a(S'turn it down'
p540
g15
tp541
a(S'what events do i have on tomorrow'
p542
g15
tp543
a(S'can you turn yourself off please'
p544
g15
tp545
a(S'check my calendar for'
p546
g15
tp547
a(S"today's live news feed"
p548
g15
tp549
a(S'current time'
p550
g15
tp551
a(S'check calendar for tuesday'
p552
g15
tp553
a(S'send me to the lock screen please'
p554
g15
tp555
a(S'can you open a browser please'
p556
g15
tp557
a(S'will you check my mail please'
p558
g15
tp559
a(S'lock'
p560
g15
tp561
a(S'tell me live newsfeed'
p562
g15
tp563
a(S"don't i have anything on next"
p564
g15
tp565
a(S'will you open my gmail'
p566
g15
tp567
a(S'what events do i have on'
p568
g15
tp569
a(S'will you open my inbox please'
p570
g15
tp571
a(S'please get the time'
p572
g15
tp573
a(S'check events'
p574
g15
tp575
a(S'read me the clock'
p576
g15
tp577
a(S'check my calendar for tuesday'
p578
g15
tp579
a(S"aren't there any events on next"
p580
g15
tp581
a(S'is it cloudy today'
p582
g15
tp583
a(S'find current events'
p584
g15
tp585
a(S'can you please kill the window'
p586
g15
tp587
a(S'please search google'
p588
g15
tp589
a(S'what is on my calendar for next'
p590
g15
tp591
a(S'could you make new event please'
p592
g28
tp593
a(S'will it hail today'
p594
g15
tp595
a(S'please start browsing'
p596
g15
tp597
a(S'create an event please'
p598
g28
tp599
a(S'can you check inbox'
p600
g15
tp601
a(S'any events on friday'
p602
g15
tp603
a(S'could you add an event please'
p604
g28
tp605
a(S'please will you open my mail'
p606
g15
tp607
a(S'please pause spotify'
p608
g15
tp609
a(S'check new mail'
p610
g15
tp611
a(S'alice next please'
p612
g15
tp613
a(S'get the current events'
p614
g15
tp615
a(S'do i have any events on saturday'
p616
g15
tp617
a(S'please start default browser'
p618
g15
tp619
a(S'please search google for'
p620
g15
tp621
a(S'please would you open my inbox'
p622
g15
tp623
a(S'is there anything to do on wednesday'
p624
g15
tp625
a(S'gather information on'
p626
g15
tp627
a(S'what is in new mail please'
p628
g15
tp629
a(S'check events for this week'
p630
g15
tp631
a(S'what do i have in a month'
p632
g15
tp633
a(S'please open inbox'
p634
g15
tp635
a(S'please check new gmail'
p636
g15
tp637
a(S'check gmail'
p638
g15
tp639
a(S'spotify go back'
p640
g15
tp641
a(S'could you create an event'
p642
g28
tp643
a(S'check your watch please'
p644
g15
tp645
a(S"aren't there any events on today"
p646
g15
tp647
a(S'please make new event'
p648
g28
tp649
a(S'what do i have to do on saturday'
p650
g15
tp651
a(S'please could you check my mail'
p652
g15
tp653
a(S"get if it's freezing this week"
p654
g15
tp655
a(S'do i have anything to do on monday'
p656
g15
tp657
a(S'please will you check my mail'
p658
g15
tp659
a(S"what's in gmail"
p660
g15
tp661
a(S'google search for please'
p662
g15
tp663
a(S'create a new event'
p664
g28
tp665
a(S'please make a new event'
p666
g28
tp667
a(S"don't i have any events in a month"
p668
g15
tp669
a(S'please what is in gmail'
p670
g15
tp671
a(S'tell me current events'
p672
g15
tp673
a(S"today's live newsfeed"
p674
g15
tp675
a(S'what are the current events today'
p676
g15
tp677
a(S'go back to the last song '
p678
g15
tp679
a(S'search for'
p680
g15
tp681
a(S'please spotify last song'
p682
g15
tp683
a(S'check google calendar on monday'
p684
g15
tp685
a(S'what are the the news'
p686
g15
tp687
a(S'what is new in my inbox'
p688
g15
tp689
a(S'could you create event please'
p690
g28
tp691
a(S'tell me live news'
p692
g15
tp693
a(S'could you create a new event'
p694
g28
tp695
a(S'what is in inbox'
p696
g15
tp697
a(S'please what is new in new gmail'
p698
g15
tp699
a(S'read time'
p700
g15
tp701
a(S'google search please for'
p702
g15
tp703
a(S'what are the news feed'
p704
g15
tp705
a(S'stop the tunez'
p706
g15
tp707
a(S'turn the beat down'
p708
g15
tp709
a(S"if it's cold today"
p710
g15
tp711
a(S'could you check mail please'
p712
g15
tp713
a(S'do i have any events in a month'
p714
g15
tp715
a(S'please will you check mail'
p716
g15
tp717
a(S'check calendar on friday'
p718
g15
tp719
a(S'can you turn up the volume please'
p720
g15
tp721
a(S'anything new in inbox'
p722
g15
tp723
a(S'turn down the volume'
p724
g15
tp725
a(S'close current program'
p726
g15
tp727
a(S'check my calendar for thursday'
p728
g15
tp729
a(S'can you schedule an event'
p730
g28
tp731
a(S'can you add new event please'
p732
g28
tp733
a(S'what events do i have on wednesday'
p734
g15
tp735
a(S'check calendar for monday'
p736
g15
tp737
a(S'open dot gov'
p738
g15
tp739
a(S'can you check my gmail'
p740
g15
tp741
a(S'start the song'
p742
g15
tp743
a(S'is there anything to do on monday'
p744
g15
tp745
a(S'could you check new gmail please'
p746
g15
tp747
a(S'please what is in mail'
p748
g15
tp749
a(S'spotify stop the song '
p750
g15
tp751
a(S'google for please'
p752
g15
tp753
a(S"if it's rainy this week"
p754
g15
tp755
a(S'please open my gmail'
p756
g15
tp757
a(S'please spotify pause the song'
p758
g15
tp759
a(S'please what is new in new mail'
p760
g15
tp761
a(S'do i have anything on next'
p762
g15
tp763
a(S'retrieve the current time'
p764
g15
tp765
a(S'unmute'
p766
g15
tp767
a(S'time'
p768
g15
tp769
a(S'what is new in my mail please'
p770
g15
tp771
a(S'turn up the volume'
p772
g15
tp773
a(S'what is new in my inbox please'
p774
g15
tp775
a(S'retrieve the time please'
p776
g15
tp777
a(S'can you turn off the computer'
p778
g15
tp779
a(S'turn up the tune'
p780
g15
tp781
a(S"get this week's forecast"
p782
g15
tp783
a(S'please can you check my gmail'
p784
g15
tp785
a(S'please schedule an event'
p786
g28
tp787
a(S'is it snowing this week'
p788
g15
tp789
a(S'is there anything i have to do on next'
p790
g15
tp791
a(S'can you please shutdown the computer'
p792
g15
tp793
a(S"today's temperature"
p794
g15
tp795
a(S'could you check new mail'
p796
g15
tp797
a(S"don't i have to do anything on saturday"
p798
g15
tp799
a(S'could you schedule a new event'
p800
g28
tp801
a(S'could you open my gmail please'
p802
g15
tp803
a(S'check my calendar for monday'
p804
g15
tp805
a(S'could you please create a new event'
p806
g28
tp807
a(S'do i have anything to do on sunday'
p808
g15
tp809
a(S"how's the temperature this week"
p810
g15
tp811
a(S"today's temperature"
p812
g15
tp813
a(S'search please'
p814
g15
tp815
a(S'would you check my mail'
p816
g15
tp817
a(S'do i have anything on saturday'
p818
g15
tp819
a(S'anything in mail'
p820
g15
tp821
a(S'can you create new event please'
p822
g28
tp823
a(S"get if it's freezing today"
p824
g15
tp825
a(S'get me the news todays'
p826
g15
tp827
a(S'could you check my gmail please'
p828
g15
tp829
a(S"don't i have any events on today"
p830
g15
tp831
a(S'check my calendar for sunday'
p832
g15
tp833
a(S'are there any events in a month'
p834
g15
tp835
a(S'could you make a new event'
p836
g28
tp837
a(S'please shut down'
p838
g15
tp839
a(S'can you add a new event'
p840
g28
tp841
a(S'can you check if i have anything in my inbox'
p842
g15
tp843
a(S'spotify go ahead'
p844
g15
tp845
a(S"what's if it's freezing today"
p846
g15
tp847
a(S'google for'
p848
g15
tp849
a(S'please create an event'
p850
g28
tp851
a(S'please what is new in inbox'
p852
g15
tp853
a(S'what do i have on tuesday'
p854
g15
tp855
a(S'exit'
p856
g15
tp857
a(S'is there anything i have to do on today'
p858
g15
tp859
a(S'is there anything i have to do on this day'
p860
g15
tp861
a(S"what's in my inbox please"
p862
g15
tp863
a(S'check events on'
p864
g15
tp865
a(S'spotify play the last song'
p866
g15
tp867
a(S"if it's hot today"
p868
g15
tp869
a(S'set the volume zero'
p870
g15
tp871
a(S'check google calendar on month'
p872
g15
tp873
a(S'would you check my inbox please'
p874
g15
tp875
a(S'could you check new gmail'
p876
g15
tp877
a(S'check google calendar on this week'
p878
g15
tp879
a(S'could you create new event'
p880
g28
tp881
a(S'live news feed today'
p882
g15
tp883
a(S'please open gmail'
p884
g15
tp885
a(S"if it's rainy today"
p886
g15
tp887
a(S'make the volume 0'
p888
g15
tp889
a(S'turn off the beats'
p890
g15
tp891
a(S'please check the clock'
p892
g15
tp893
a(S'turn up the beat please'
p894
g15
tp895
a(S"what's if it's rainy this week"
p896
g15
tp897
a(S'what is live news'
p898
g15
tp899
a(S'what do i have to do on monday'
p900
g15
tp901
a(S"please what's new in my inbox"
p902
g15
tp903
a(S'will you open mail please'
p904
g15
tp905
a(S'get current time please'
p906
g15
tp907
a(S'please lock the screen'
p908
g15
tp909
a(S'check calendar for sunday'
p910
g15
tp911
a(S'what is new in gmail'
p912
g15
tp913
a(S'lock the screen'
p914
g15
tp915
a(S'can you please shut down the computer'
p916
g15
tp917
a(S"what's the the news"
p918
g15
tp919
a(S"what's if it's cold this week"
p920
g15
tp921
a(S"what's in new gmail"
p922
g15
tp923
a(S"what's new in mail please"
p924
g15
tp925
a(S"what's the weather today"
p926
g15
tp927
a(S'do i have anything to do today'
p928
g15
tp929
a(S'what events do i have on friday'
p930
g15
tp931
a(S'get the information'
p932
g15
tp933
a(S'would you open mail'
p934
g15
tp935
a(S'search google please for'
p936
g15
tp937
a(S'could you please add an event'
p938
g28
tp939
a(S'what are the live newsfeed'
p940
g15
tp941
a(S'can you make a new event please'
p942
g28
tp943
a(S'hey alex'
p944
g15
tp945
a(S"please what's new in new mail"
p946
g15
tp947
a(S'open browser please'
p948
g15
tp949
a(S"what's if it's hot today"
p950
g15
tp951
a(S'will you check my mail'
p952
g15
tp953
a(S'turn up the sound'
p954
g15
tp955
a(S'spotify go back to the last song '
p956
g15
tp957
a(S'lock computer'
p958
g15
tp959
a(S"how's the weather this week"
p960
g15
tp961
a(S'skip'
p962
g15
tp963
a(S"get if it's hot today"
p964
g15
tp965
a(S'do i have anything to do in a month'
p966
g15
tp967
a(S'what events are on today'
p968
g15
tp969
a(S'spotify play the song'
p970
g15
tp971
a(S'please start browser'
p972
g15
tp973
a(S'what is in new gmail please'
p974
g15
tp975
a(S'do i have any events on'
p976
g15
tp977
a(S'open dot net'
p978
g15
tp979
a(S'please retrieve the current time'
p980
g15
tp981
a(S'can you please close the current window'
p982
g15
tp983
a(S'open my mail please'
p984
g15
tp985
a(S"how's the forecast"
p986
g15
tp987
a(S'please google search for'
p988
g15
tp989
a(S'turn off my computer'
p990
g15
tp991
a(S'lower the sound'
p992
g15
tp993
a(S'live news'
p994
g15
tp995
a(S'can you lock my computer please'
p996
g15
tp997
a(S'is there anything i have to do'
p998
g15
tp999
a(S'gather information on todays current events please'
p1000
g15
tp1001
a(S"don't i have any events on wednesday"
p1002
g15
tp1003
a(S'please pause'
p1004
g15
tp1005
a(S"don't i have anything to do on monday"
p1006
g15
tp1007
a(S"what's new in my inbox please"
p1008
g15
tp1009
a(S'tell me news'
p1010
g15
tp1011
a(S'what is new in new gmail please'
p1012
g15
tp1013
a(S'good bye'
p1014
g15
tp1015
a(S'check calendar for'
p1016
g15
tp1017
a(S'please retrieve the time'
p1018
g15
tp1019
a(S'turn up the tunez'
p1020
g15
tp1021
a(S'can you open a browser'
p1022
g15
tp1023
a(S'would you check inbox please'
p1024
g15
tp1025
a(S"don't i have anything to do on saturday"
p1026
g15
tp1027
a(S'will you open inbox please'
p1028
g15
tp1029
a(S"what's if it's raining today"
p1030
g15
tp1031
a(S'please add a new event'
p1032
g28
tp1033
a(S'could you please schedule event'
p1034
g28
tp1035
a(S'could you check gmail please'
p1036
g15
tp1037
a(S'give me the news'
p1038
g15
tp1039
a(S"don't i have to do anything in a month"
p1040
g15
tp1041
a(S'turn off the sound please'
p1042
g15
tp1043
a(S'what events are'
p1044
g15
tp1045
a(S'please close the current window'
p1046
g15
tp1047
a(S'kill active window'
p1048
g15
tp1049
a(S'anything new in mail'
p1050
g15
tp1051
a(S"don't i have to do anything on sunday"
p1052
g15
tp1053
a(S'add event please'
p1054
g28
tp1055
a(S'what events do i have on thursday'
p1056
g15
tp1057
a(S"this week's forecast"
p1058
g15
tp1059
a(S'skip spotify please'
p1060
g15
tp1061
a(S'check calendar on saturday'
p1062
g15
tp1063
a(S"this week's temperature"
p1064
g15
tp1065
a(S'check events for wednesday'
p1066
g15
tp1067
a(S'retrieve the current time please'
p1068
g15
tp1069
a(S'open'
p1070
g15
tp1071
a(S'check google calendar on thursday'
p1072
g15
tp1073
a(S"don't i have anything on friday"
p1074
g15
tp1075
a(S"get if it's cloudy this week"
p1076
g15
tp1077
a(S'would you open my gmail'
p1078
g15
tp1079
a(S"don't i have any events on tuesday"
p1080
g15
tp1081
a(S'do i have to do anything in a week'
p1082
g15
tp1083
a(S'please add event'
p1084
g28
tp1085
a(S'schedule an event please'
p1086
g28
tp1087
a(S"don't i have to do anything"
p1088
g15
tp1089
a(S'what is on my calendar for sunday'
p1090
g15
tp1091
a(S'shut my computer down please'
p1092
g15
tp1093
a(S'can you close this window'
p1094
g15
tp1095
a(S'put me on the lock screen'
p1096
g15
tp1097
a(S'shut up please'
p1098
g15
tp1099
a(S'turn up the volume please'
p1100
g15
tp1101
a(S'what is in new gmail'
p1102
g15
tp1103
a(S'do i have anything to do'
p1104
g15
tp1105
a(S'turn off'
p1106
g15
tp1107
a(S'will it snow this week'
p1108
g15
tp1109
a(S'check events for tuesday'
p1110
g15
tp1111
a(S'make the volume lower'
p1112
g15
tp1113
a(S'please check gmail'
p1114
g15
tp1115
a(S'check the clock'
p1116
g15
tp1117
a(S'can you check inbox please'
p1118
g15
tp1119
a(S'go to dot com'
p1120
g15
tp1121
a(S'can you add an event'
p1122
g28
tp1123
a(S'can you add event'
p1124
g28
tp1125
a(S'can you check gmail'
p1126
g15
tp1127
a(S'shut the fuck up'
p1128
g15
tp1129
a(S'start a default browser'
p1130
g15
tp1131
a(S'could you open mail please'
p1132
g15
tp1133
a(S'increase the volume'
p1134
g15
tp1135
a(S'what is on my calendar for tuesday'
p1136
g15
tp1137
a(S'what is on my calendar for'
p1138
g15
tp1139
a(S"please what's in my inbox"
p1140
g15
tp1141
a(S'start a browser please'
p1142
g15
tp1143
a(S'get the current time please'
p1144
g15
tp1145
a(S"aren't there any events on tuesday"
p1146
g15
tp1147
a(S'will you open my mail please'
p1148
g15
tp1149
a(S'can you please turn the sound down'
p1150
g15
tp1151
a(S'what is new in my gmail please'
p1152
g15
tp1153
a(S'what is the news today'
p1154
g15
tp1155
a(S'check events on this day'
p1156
g15
tp1157
a(S"don't i have anything on this day"
p1158
g15
tp1159
a(S"today's newsfeed"
p1160
g15
tp1161
a(S'can you please shutdown my computer'
p1162
g15
tp1163
a(S'please schedule new event'
p1164
g28
tp1165
a(S'please open'
p1166
g15
tp1167
a(S'please kill current window'
p1168
g15
tp1169
a(S'please check the current time'
p1170
g15
tp1171
a(S'can you make event'
p1172
g28
tp1173
a(S'turn off my computer please'
p1174
g15
tp1175
a(S'mute please'
p1176
g15
tp1177
a(S'check calendar for this month'
p1178
g15
tp1179
a(S'shut down the computer'
p1180
g15
tp1181
a(S'the news'
p1182
g15
tp1183
a(S'check inbox'
p1184
g15
tp1185
a(S'please shut off'
p1186
g15
tp1187
a(S'please read time'
p1188
g15
tp1189
a(S"aren't there any events on saturday"
p1190
g15
tp1191
a(S'is there anything i have to do today'
p1192
g15
tp1193
a(S'spotify skip ahead'
p1194
g15
tp1195
a(S'get current time'
p1196
g15
tp1197
a(S'can you make an event please'
p1198
g28
tp1199
a(S'is there anything i have to do on saturday'
p1200
g15
tp1201
a(S'can you please shut my computer down'
p1202
g15
tp1203
a(S'please would you check my gmail'
p1204
g15
tp1205
a(S'gimme the news'
p1206
g15
tp1207
a(S'can you create new event'
p1208
g28
tp1209
a(S'turn up the volume'
p1210
g15
tp1211
a(S'do i have any events on tuesday'
p1212
g15
tp1213
a(S"get today's temperature"
p1214
g15
tp1215
a(S"don't i have anything to do on friday"
p1216
g15
tp1217
a(S'check calendar on'
p1218
g15
tp1219
a(S'what do i have to do'
p1220
g15
tp1221
a(S'clock'
p1222
g15
tp1223
a(S'kill the noise'
p1224
g15
tp1225
a(S'please open a browser'
p1226
g15
tp1227
a(S'what is on my calendar for this day'
p1228
g15
tp1229
a(S'what are the newsfeed'
p1230
g15
tp1231
a(S'check events for this day'
p1232
g15
tp1233
a(S'can you shut down my computer'
p1234
g15
tp1235
a(S'get temperature'
p1236
g15
tp1237
a(S'will you get the current headlines'
p1238
g15
tp1239
a(S'can you kill this window'
p1240
g15
tp1241
a(S"what's the forecast today"
p1242
g15
tp1243
a(S'get the current time'
p1244
g15
tp1245
a(S'what do i have to do on next'
p1246
g15
tp1247
a(S'do i have any events'
p1248
g15
tp1249
a(S'is there anything to do on'
p1250
g15
tp1251
a(S'please would you check gmail'
p1252
g15
tp1253
a(S"what's the newsfeed"
p1254
g15
tp1255
a(S'please kill the window'
p1256
g15
tp1257
a(S'get me the clock'
p1258
g15
tp1259
a(S"today's live news"
p1260
g15
tp1261
a(S"if it's cold this week"
p1262
g15
tp1263
a(S'can you shut my computer down'
p1264
g15
tp1265
a(S'please could you check new mail'
p1266
g15
tp1267
a(S'please close the window'
p1268
g15
tp1269
a(S'please can you check new gmail'
p1270
g15
tp1271
a(S"don't i have any events in a week"
p1272
g15
tp1273
a(S'will you check gmail'
p1274
g15
tp1275
a(S'check calendar on wednesday'
p1276
g15
tp1277
a(S'do i have to do anything in a month'
p1278
g15
tp1279
a(S'check google calendar on wednesday'
p1280
g15
tp1281
a(S'can you check my mail please'
p1282
g15
tp1283
a(S'check my calendar'
p1284
g15
tp1285
a(S'issue commands'
p1286
g15
tp1287
a(S'is there anything to do today'
p1288
g15
tp1289
a(S'can you kill the window'
p1290
g15
tp1291
a(S'is there anything i have to do on thursday'
p1292
g15
tp1293
a(S'what do i have on monday'
p1294
g15
tp1295
a(S'please will you open mail'
p1296
g15
tp1297
a(S"get if it's cold today"
p1298
g15
tp1299
a(S"don't i have to do anything on tuesday"
p1300
g15
tp1301
a(S"what's the news"
p1302
g15
tp1303
a(S"if it's cloudy this week"
p1304
g15
tp1305
a(S'please check your watch'
p1306
g15
tp1307
a(S'what is live newsfeed'
p1308
g15
tp1309
a(S'please what is in my mail'
p1310
g15
tp1311
a(S'news feed'
p1312
g15
tp1313
a(S'what events do i have on next'
p1314
g15
tp1315
a(S'can you put me on the lock screen please'
p1316
g15
tp1317
a(S'last song please'
p1318
g15
tp1319
a(S'would you check mail'
p1320
g15
tp1321
a(S'check events for this day'
p1322
g15
tp1323
a(S"what's if it's rainy today"
p1324
g15
tp1325
a(S'what do i have on friday'
p1326
g15
tp1327
a(S"what're the newsfeed"
p1328
g15
tp1329
a(S'start spotify please'
p1330
g15
tp1331
a(S'can you make it louder please'
p1332
g15
tp1333
a(S'please could you check new gmail'
p1334
g15
tp1335
a(S'go to dot edu'
p1336
g15
tp1337
a(S'search google'
p1338
g15
tp1339
a(S"how's the forecast today"
p1340
g15
tp1341
a(S'can you turn off'
p1342
g15
tp1343
a(S'a releasing moderate stalls beside the material cell'
p1344
g15
tp1345
a(S"don't i have any events on next"
p1346
g15
tp1347
a(S"what's if it's raining this week"
p1348
g15
tp1349
a(S'would you open my mail please'
p1350
g15
tp1351
a(S'google search'
p1352
g15
tp1353
a(S'do i have any events on this day'
p1354
g15
tp1355
a(S'please pause song'
p1356
g15
tp1357
a(S'what events do i have on sunday'
p1358
g15
tp1359
a(S'check calendar on tuesday'
p1360
g15
tp1361
a(S'can you please create new event'
p1362
g28
tp1363
a(S"get if it's cloudy today"
p1364
g15
tp1365
a(S'open default browser'
p1366
g15
tp1367
a(S'check google calendar for wednesday'
p1368
g15
tp1369
a(S'check my calendar for this month'
p1370
g15
tp1371
a(S'are there any events on tuesday'
p1372
g15
tp1373
a(S'check my calendar on tuesday'
p1374
g15
tp1375
a(S'is it hot today'
p1376
g15
tp1377
a(S'will you open inbox'
p1378
g15
tp1379
a(S'is it cold this week'
p1380
g15
tp1381
a(S'current news'
p1382
g15
tp1383
a(S'tell me news feed'
p1384
g15
tp1385
a(S'check my calendar on saturday'
p1386
g15
tp1387
a(S'could you add new event'
p1388
g28
tp1389
a(S'start browser please'
p1390
g15
tp1391
a(S"what's forecast"
p1392
g15
tp1393
a(S"don't i have to do anything on thursday"
p1394
g15
tp1395
a(S'will you check inbox please'
p1396
g15
tp1397
a(S'be quiet'
p1398
g15
tp1399
a(S'is it rainy today'
p1400
g15
tp1401
a(S'can you schedule new event'
p1402
g28
tp1403
a(S'send me to the lock screen'
p1404
g15
tp1405
a(S'read the clock please'
p1406
g15
tp1407
a(S'please turn off'
p1408
g15
tp1409
a(S'please louder'
p1410
g15
tp1411
a(S'please turn it up'
p1412
g15
tp1413
a(S"what's new in my gmail"
p1414
g15
tp1415
a(S"get if it's snowing this week"
p1416
g15
tp1417
a(S'fake news'
p1418
g15
tp1419
a(S"what's if it's snowing today"
p1420
g15
tp1421
a(S'please check my mail'
p1422
g15
tp1423
a(S'what is new in new mail please'
p1424
g15
tp1425
a(S'am i free for sunday'
p1426
g15
tp1427
a(S'please can you check my inbox'
p1428
g15
tp1429
a(S'could you create an event please'
p1430
g28
tp1431
a(S'please check what time it is'
p1432
g15
tp1433
a(S'can you turn my computer off'
p1434
g15
tp1435
a(S'is it freezing today'
p1436
g15
tp1437
a(S'lower the tunes please'
p1438
g15
tp1439
a(S'give me intel on current events'
p1440
g15
tp1441
a(S'can you make an event'
p1442
g28
tp1443
a(S'what is current news'
p1444
g15
tp1445
a(S'could you check my mail please'
p1446
g15
tp1447
a(S'is there anything to do tomorrow'
p1448
g15
tp1449
a(S'can you turn off my computer'
p1450
g15
tp1451
a(S"what're the news"
p1452
g15
tp1453
a(S'do i have any events on friday'
p1454
g15
tp1455
a(S'current news today'
p1456
g15
tp1457
a(S'play the song before'
p1458
g15
tp1459
a(S'can you create a new event please'
p1460
g28
tp1461
a(S'could you please make event'
p1462
g28
tp1463
a(S'do i have to do anything tomorrow'
p1464
g15
tp1465
a(S'could you open my mail please'
p1466
g15
tp1467
a(S'could you please make new event'
p1468
g28
tp1469
a(S'put me on the lock screen please'
p1470
g15
tp1471
a(S"please what's new in my mail"
p1472
g15
tp1473
a(S'check google calendar on tomorrow'
p1474
g15
tp1475
a(S'am i free on thursday'
p1476
g15
tp1477
a(S'news now please'
p1478
g15
tp1479
a(S'can you turn up the tunez'
p1480
g15
tp1481
a(S'please give me the current events please'
p1482
g15
tp1483
a(S'check calendar for saturday'
p1484
g15
tp1485
a(S"what's new in inbox"
p1486
g15
tp1487
a(S'check my calendar for wednesday'
p1488
g15
tp1489
a(S'please google search'
p1490
g15
tp1491
a(S'turn down the sound'
p1492
g15
tp1493
a(S'schedule a new event please'
p1494
g28
tp1495
a(S"what're the live newsfeed"
p1496
g15
tp1497
a(S'is there anything i have to do on tuesday'
p1498
g15
tp1499
a(S'please can you check my mail'
p1500
g15
tp1501
a(S'make the sound higher'
p1502
g15
tp1503
a(S'is there anything i have to do on monday'
p1504
g15
tp1505
a(S'spotify pause please'
p1506
g15
tp1507
a(S'do i have to do anything'
p1508
g15
tp1509
a(S'go back please'
p1510
g15
tp1511
a(S'search google for'
p1512
g15
tp1513
a(S'are there any events in a week'
p1514
g15
tp1515
a(S'are there any events on today'
p1516
g15
tp1517
a(S'volume higher please'
p1518
g15
tp1519
a(S'what are the latest events '
p1520
g15
tp1521
a(S'please shut down the computer'
p1522
g15
tp1523
a(S'turn up the beat'
p1524
g15
tp1525
a(S'please shut down my computer'
p1526
g15
tp1527
a(S"what's new in gmail"
p1528
g15
tp1529
a(S'please create new event'
p1530
g28
tp1531
a(S'please would you check my inbox'
p1532
g15
tp1533
a(S'will you check mail'
p1534
g15
tp1535
a(S'shut down my computer please'
p1536
g15
tp1537
a(S"what's the clock"
p1538
g15
tp1539
a(S'can you please close active window'
p1540
g15
tp1541
a(S'could you check my inbox'
p1542
g15
tp1543
a(S'can you shutdown my computer'
p1544
g15
tp1545
a(S'check my inbox'
p1546
g15
tp1547
a(S'please what is new in gmail'
p1548
g15
tp1549
a(S'quit'
p1550
g15
tp1551
a(S'do i have anything today'
p1552
g15
tp1553
a(S"how's the weather"
p1554
g15
tp1555
a(S'any events on wednesday'
p1556
g15
tp1557
a(S"what's the forecast"
p1558
g15
tp1559
a(S'play spotify please'
p1560
g15
tp1561
a(S'can you get the latest headlines'
p1562
g15
tp1563
a(S'start default browser'
p1564
g15
tp1565
a(S'schedule new event please'
p1566
g28
tp1567
a(S"don't i have to do anything on friday"
p1568
g15
tp1569
a(S"get today's weather"
p1570
g15
tp1571
a(S"what's in my gmail please"
p1572
g15
tp1573
a(S'check google calendar for this month'
p1574
g15
tp1575
a(S'spotify stop'
p1576
g15
tp1577
a(S'get the time'
p1578
g15
tp1579
a(S'please will you check my inbox'
p1580
g15
tp1581
a(S'lock the screen please'
p1582
g15
tp1583
a(S'check my calendar on monday'
p1584
g15
tp1585
a(S'please can you turn up the volume'
p1586
g15
tp1587
a(S'what is on my calendar for today'
p1588
g15
tp1589
a(S'please read me the clock'
p1590
g15
tp1591
a(S'please spotify last'
p1592
g15
tp1593
a(S'what is the news'
p1594
g15
tp1595
a(S'could you please create new event'
p1596
g28
tp1597
a(S'okay alex'
p1598
g15
tp1599
a(S'can you lock computer'
p1600
g15
tp1601
a(S'lock my computer please'
p1602
g15
tp1603
a(S'start a browser'
p1604
g15
tp1605
a(S'lower the volume'
p1606
g15
tp1607
a(S'get the clock'
p1608
g15
tp1609
a(S'can you check mail'
p1610
g15
tp1611
a(S'set volume 0'
p1612
g15
tp1613
a(S'is there anything to do on tomorrow'
p1614
g15
tp1615
a(S'current temperature'
p1616
g15
tp1617
a(S'what do i have on thursday'
p1618
g15
tp1619
a(S'google'
p1620
g15
tp1621
a(S"don't i have anything to do on tuesday"
p1622
g15
tp1623
a(S'please kill the active window'
p1624
g15
tp1625
a(S'please read your watch'
p1626
g15
tp1627
a(S'is it hot this week'
p1628
g15
tp1629
a(S'any events on this day'
p1630
g15
tp1631
a(S'check my calendar on thursday'
p1632
g15
tp1633
a(S'could you please add a new event'
p1634
g28
tp1635
a(S'turn the volume to zero'
p1636
g15
tp1637
a(S'is it freezing this week'
p1638
g15
tp1639
a(S'make the volume zero'
p1640
g15
tp1641
a(S'am i free today'
p1642
g15
tp1643
a(S'please schedule event'
p1644
g28
tp1645
a(S'can you unmute'
p1646
g15
tp1647
a(S'what is current events'
p1648
g15
tp1649
a(S'go ahead spotify please'
p1650
g15
tp1651
a(S'please turn my computer off'
p1652
g15
tp1653
a(S'can you please create an event'
p1654
g28
tp1655
a(S'sweet dreams'
p1656
g15
tp1657
a(S'play '
p1658
g15
tp1659
a(S'we stick to simple problems in this post for the sake of illustration'
p1660
g15
tp1661
a(S'could you create a new event please'
p1662
g28
tp1663
a(S'could you make new event'
p1664
g28
tp1665
a(S"what's today's forecast"
p1666
g15
tp1667
a(S'check calendar for tomorrow'
p1668
g15
tp1669
a(S'a backbone dictates above my grief'
p1670
g15
tp1671
a(S'what events do i have on today'
p1672
g15
tp1673
a(S"what's new in my gmail please"
p1674
g15
tp1675
a(S'check my calendar on sunday'
p1676
g15
tp1677
a(S'what is new in my gmail'
p1678
g15
tp1679
a(S'will you open my gmail please'
p1680
g15
tp1681
a(S'check events for this month'
p1682
g15
tp1683
a(S'search'
p1684
g15
tp1685
a(S"don't i have any events on this day"
p1686
g15
tp1687
a(S'kill current window'
p1688
g15
tp1689
a(S'check my inbox please'
p1690
g15
tp1691
a(S"don't i have to do anything on this day"
p1692
g15
tp1693
a(S'close the current window'
p1694
g15
tp1695
a(S'is there anything to do on saturday'
p1696
g15
tp1697
a(S'make the volume softer'
p1698
g15
tp1699
a(S'could you schedule event'
p1700
g28
tp1701
a(S'please what is new in mail'
p1702
g15
tp1703
a(S'get news now'
p1704
g15
tp1705
a(S"what's this week's weather"
p1706
g15
tp1707
a(S'can you please shut off'
p1708
g15
tp1709
a(S'check calendar on sunday'
p1710
g15
tp1711
a(S'stop playing'
p1712
g15
tp1713
a(S'would you check my gmail please'
p1714
g15
tp1715
a(S"don't i have anything tomorrow"
p1716
g15
tp1717
a(S'kill window'
p1718
g15
tp1719
a(S'are there any events on sunday'
p1720
g15
tp1721
a(S'please open browser'
p1722
g15
tp1723
a(S'get forecast'
p1724
g15
tp1725
a(S"what's in inbox please"
p1726
g15
tp1727
a(S'please add an event'
p1728
g28
tp1729
a(S"what's the live news"
p1730
g15
tp1731
a(S'is it cloudy this week'
p1732
g15
tp1733
a(S"don't i have any events on thursday"
p1734
g15
tp1735
a(S'what is on my calendar for friday'
p1736
g15
tp1737
a(S'can you please close current window'
p1738
g15
tp1739
a(S'please would you open my mail'
p1740
g15
tp1741
a(S'check events on sunday'
p1742
g15
tp1743
a(S'please go back'
p1744
g15
tp1745
a(S'what do i have on this day'
p1746
g15
tp1747
a(S'check the clock please'
p1748
g15
tp1749
a(S"what's new in my mail"
p1750
g15
tp1751
a(S'check my mail'
p1752
g15
tp1753
a(S'stop spotify'
p1754
g15
tp1755
a(S'read the clock'
p1756
g15
tp1757
a(S'can you add new event'
p1758
g28
tp1759
a(S'will you check my gmail'
p1760
g15
tp1761
a(S'find live newsfeed'
p1762
g15
tp1763
a(S'please would you check new gmail'
p1764
g15
tp1765
a(S'what is on my calendar for thursday'
p1766
g15
tp1767
a(S'spotify go to the last song'
p1768
g15
tp1769
a(S'unmute please'
p1770
g15
tp1771
a(S'what do i have on next'
p1772
g15
tp1773
a(S'what do i have in a week'
p1774
g15
tp1775
a(S'spotify skip'
p1776
g15
tp1777
a(S'what is new in inbox'
p1778
g15
tp1779
a(S'check events on month'
p1780
g15
tp1781
a(S'please check the clock right now'
p1782
g15
tp1783
a(S'shut my computer down'
p1784
g15
tp1785
a(S"aren't there any events in a month"
p1786
g15
tp1787
a(S'start a default browser please'
p1788
g15
tp1789
a(S'is there anything i have to do on'
p1790
g15
tp1791
a(S'what is new in my mail'
p1792
g15
tp1793
a(S'is there anything i have to do on wednesday'
p1794
g15
tp1795
a(S"what's the time"
p1796
g15
tp1797
a(S"what's if it's cloudy this week"
p1798
g15
tp1799
a(S'please could you open my mail'
p1800
g15
tp1801
a(S'i like dogs'
p1802
g15
tp1803
a(S'what are the headlines'
p1804
g15
tp1805
a(S'check my gmail'
p1806
g15
tp1807
a(S'could you open mail'
p1808
g15
tp1809
a(S'can you please schedule event'
p1810
g28
tp1811
a(S'could you schedule a new event please'
p1812
g28
tp1813
a(S'what is in my mail please'
p1814
g15
tp1815
a(S'open my gmail'
p1816
g15
tp1817
a(S'could you open inbox'
p1818
g15
tp1819
a(S'get current temperature'
p1820
g15
tp1821
a(S"today's weather"
p1822
g15
tp1823
a(S'tell me newsfeed'
p1824
g15
tp1825
a(S'would you check my mail please'
p1826
g15
tp1827
a(S"what's if it's cloudy today"
p1828
g15
tp1829
a(S'do i have any events on today'
p1830
g15
tp1831
a(S'could you please schedule a new event'
p1832
g28
tp1833
a(S'can you create a new event'
p1834
g28
tp1835
a(S'can you open browser please'
p1836
g15
tp1837
a(S'turn up the sound'
p1838
g15
tp1839
a(S'what do i have to do on this day'
p1840
g15
tp1841
a(S"don't i have to do anything on thursday"
p1842
g15
tp1843
a(S'get live newsfeed'
p1844
g15
tp1845
a(S'what is news feed'
p1846
g15
tp1847
a(S'will you check my inbox please'
p1848
g15
tp1849
a(S'check my calendar on next'
p1850
g15
tp1851
a(S'is there anything to do'
p1852
g15
tp1853
a(S'please could you check my inbox'
p1854
g15
tp1855
a(S'what events do i have on this day'
p1856
g15
tp1857
a(S'please create a new event'
p1858
g28
tp1859
a(S'what is in my inbox please'
p1860
g15
tp1861
a(S'could you add a new event please'
p1862
g28
tp1863
a(S'make a new event'
p1864
g28
tp1865
a(S'tell me headlines'
p1866
g15
tp1867
a(S'sound up please'
p1868
g15
tp1869
a(S'please spotify start'
p1870
g15
tp1871
a(S"what's this week's temperature"
p1872
g15
tp1873
a(S'can you please turn the tune down'
p1874
g15
tp1875
a(S'stop song please'
p1876
g15
tp1877
a(S'make the sound louder'
p1878
g15
tp1879
a(S"what's the temperature today"
p1880
g15
tp1881
a(S"what's in inbox"
p1882
g15
tp1883
a(S'could you check inbox'
p1884
g15
tp1885
a(S'please can you check new mail'
p1886
g15
tp1887
a(S'could you check new mail please'
p1888
g15
tp1889
a(S"aren't there any events"
p1890
g15
tp1891
a(S'can you open this program'
p1892
g15
tp1893
a(S"don't i have anything in a month"
p1894
g15
tp1895
a(S'get clock'
p1896
g15
tp1897
a(S'anything in gmail'
p1898
g15
tp1899
a(S'would you open my gmail please'
p1900
g15
tp1901
a(S"don't i have to do anything on saturday"
p1902
g15
tp1903
a(S'could you add new event please'
p1904
g28
tp1905
a(S'check my calendar on'
p1906
g15
tp1907
a(S'search google please'
p1908
g15
tp1909
a(S'please open a browser'
p1910
g15
tp1911
a(S'would you check my gmail'
p1912
g15
tp1913
a(S'please make an event'
p1914
g28
tp1915
a(S'please will you open my gmail'
p1916
g15
tp1917
a(S'good night'
p1918
g15
tp1919
a(S'am i free on this day'
p1920
g15
tp1921
a(S'am i free on'
p1922
g15
tp1923
a(S'check my calendar for friday'
p1924
g15
tp1925
a(S"don't i have any events on saturday"
p1926
g15
tp1927
a(S'please could you open gmail'
p1928
g15
tp1929
a(S'stop'
p1930
g15
tp1931
a(S'am i free for tuesday'
p1932
g15
tp1933
a(S"today's news feed"
p1934
g15
tp1935
a(S'add an event please'
p1936
g28
tp1937
a(S'what is on my calendar for this month'
p1938
g15
tp1939
a(S'check events for saturday'
p1940
g15
tp1941
a(S"what's weather"
p1942
g15
tp1943
a(S'please open my inbox'
p1944
g15
tp1945
a(S'can you please shut down'
p1946
g15
tp1947
a(S"don't i have to do anything in a month"
p1948
g15
tp1949
a(S'check google calendar for tomorrow'
p1950
g15
tp1951
a(S'what do i have to do on tomorrow'
p1952
g15
tp1953
a(S"if it's cloudy today"
p1954
g15
tp1955
a(S"what's new in gmail please"
p1956
g15
tp1957
a(S'what are the news'
p1958
g15
tp1959
a(S"get if it's foggy this week"
p1960
g15
tp1961
a(S'are there any events on monday'
p1962
g15
tp1963
a(S"don't i have to do anything tomorrow"
p1964
g15
tp1965
a(S'spotify pause please'
p1966
g15
tp1967
a(S'please get clock'
p1968
g15
tp1969
a(S'is there anything to do on this day'
p1970
g15
tp1971
a(S"what's in new mail"
p1972
g15
tp1973
a(S'please could you open mail'
p1974
g15
tp1975
a(S'do i have to do anything on saturday'
p1976
g15
tp1977
a(S'what is on my calendar'
p1978
g15
tp1979
a(S'can you lock computer please'
p1980
g15
tp1981
a(S'can you quit'
p1982
g15
tp1983
a(S"get if it's hot this week"
p1984
g15
tp1985
a(S'live newsfeed'
p1986
g15
tp1987
a(S'check google calendar on sunday'
p1988
g15
tp1989
a(S'check events for friday'
p1990
g15
tp1991
a(S"today's forecast"
p1992
g15
tp1993
a(S'can you please turn the beat down'
p1994
g15
tp1995
a(S'open dot ee dee you'
p1996
g15
tp1997
a(S'what events do i have on monday'
p1998
g15
tp1999
a(S'turn my computer off'
p2000
g15
tp2001
a(S'would you check gmail'
p2002
g15
tp2003
a(S'are there any events on this day'
p2004
g15
tp2005
a(S'check my calendar on this day'
p2006
g15
tp2007
a(S'is it foggy today'
p2008
g15
tp2009
a(S'check google calendar on tuesday'
p2010
g15
tp2011
a(S'do i have anything in a week'
p2012
g15
tp2013
a(S"don't i have to do anything tomorrow"
p2014
g15
tp2015
a(S'add a new event please'
p2016
g28
tp2017
a(S'what is in mail please'
p2018
g15
tp2019
a(S'any gmail'
p2020
g15
tp2021
a(S'please what is in inbox'
p2022
g15
tp2023
a(S'would you open my inbox'
p2024
g15
tp2025
a(S'mute'
p2026
g15
tp2027
a(S'shut off my computer'
p2028
g15
tp2029
a(S"don't i have anything on"
p2030
g15
tp2031
a(S'turn yourself off please'
p2032
g15
tp2033
a(S'do i have anything in my inbox'
p2034
g15
tp2035
a(S'find the news'
p2036
g15
tp2037
a(S'good night alice'
p2038
g15
tp2039
a(S'turn it up please'
p2040
g15
tp2041
a(S'please volume higher'
p2042
g15
tp2043
a(S'please will you check new mail'
p2044
g15
tp2045
a(S'please check new mail'
p2046
g15
tp2047
a(S"don't i have any events"
p2048
g15
tp2049
a(S'please check my inbox'
p2050
g15
tp2051
a(S'spotify play'
p2052
g15
tp2053
a(S'can you close the active window'
p2054
g15
tp2055
a(S'tell me live news feed'
p2056
g15
tp2057
a(S'what is in mail'
p2058
g15
tp2059
a(S'turn off please'
p2060
g15
tp2061
a(S'check events on this week'
p2062
g15
tp2063
a(S'can you send me to the lock screen'
p2064
g15
tp2065
a(S"what's in new gmail please"
p2066
g15
tp2067
a(S'close current window'
p2068
g15
tp2069
a(S'do i have anything to do on tuesday'
p2070
g15
tp2071
a(S'please go to'
p2072
g15
tp2073
a(S"how's the forecast this week"
p2074
g15
tp2075
a(S"don't i have anything on thursday"
p2076
g15
tp2077
a(S'can you please kill current window'
p2078
g15
tp2079
a(S'please give me the news'
p2080
g15
tp2081
a(S'will you check mail please'
p2082
g15
tp2083
a(S'do i have to do anything on tuesday'
p2084
g15
tp2085
a(S'check google calendar for this day'
p2086
g15
tp2087
a(S'anything in my inbox'
p2088
g15
tp2089
a(S"please what's in new gmail"
p2090
g15
tp2091
a(S'shutdown the computer please'
p2092
g15
tp2093
a(S'check events on thursday'
p2094
g15
tp2095
a(S'can you please add an event'
p2096
g28
tp2097
a(S'hey alice'
p2098
g15
tp2099
a(S'check google calendar for thursday'
p2100
g15
tp2101
a(S'please would you open inbox'
p2102
g15
tp2103
a(S"this week's weather"
p2104
g15
tp2105
a(S'make event please'
p2106
g28
tp2107
a(S"don't i have to do anything on"
p2108
g15
tp2109
a(S'could you please create event'
p2110
g28
tp2111
a(S'what is on my calendar for tomorrow'
p2112
g15
tp2113
a(S'news feed today'
p2114
g15
tp2115
a(S'am i free for today'
p2116
g15
tp2117
a(S'could you please add new event'
p2118
g28
tp2119
a(S'what is in inbox please'
p2120
g15
tp2121
a(S'alex'
p2122
g15
tp2123
a(S"what's in my mail"
p2124
g15
tp2125
a(S'newsfeed'
p2126
g15
tp2127
a(S"please what's new in new gmail"
p2128
g15
tp2129
a(S'get the news'
p2130
g15
tp2131
a(S'volume up'
p2132
g15
tp2133
a(S'what do i have on today'
p2134
g15
tp2135
a(S"if it's raining today"
p2136
g15
tp2137
a(S'check the clock right now please'
p2138
g15
tp2139
a(S'check my calendar for next'
p2140
g15
tp2141
a(S'do i have any events on sunday'
p2142
g15
tp2143
a(S'will you check new mail please'
p2144
g15
tp2145
a(S'please retrieve what time it is'
p2146
g15
tp2147
a(S'pause song please'
p2148
g15
tp2149
a(S'create a new event please'
p2150
g28
tp2151
a(S'start browsing please'
p2152
g15
tp2153
a(S'am i free on wednesday'
p2154
g15
tp2155
a(S'extract the features using almost the same feature'
p2156
g15
tp2157
a(S'what events do i have'
p2158
g15
tp2159
a(S'would you open inbox'
p2160
g15
tp2161
a(S'can you please shutdown'
p2162
g15
tp2163
a(S'can you turn up the sound'
p2164
g15
tp2165
a(S'will you open my mail'
p2166
g15
tp2167
a(S'could you add event'
p2168
g28
tp2169
a(S'please kill the current window'
p2170
g15
tp2171
a(S'is it foggy this week'
p2172
g15
tp2173
a(S'check calendar for friday'
p2174
g15
tp2175
a(S'please kill active window'
p2176
g15
tp2177
a(S'please can you check inbox'
p2178
g15
tp2179
a(S'do i have to do anything on wednesday'
p2180
g15
tp2181
a(S'what do i have to do on thursday'
p2182
g15
tp2183
a(S'what time is it now'
p2184
g15
tp2185
a(S'open a browser please'
p2186
g15
tp2187
a(S"don't i have any events on sunday"
p2188
g15
tp2189
a(S'open a default browser please'
p2190
g15
tp2191
a(S'weather'
p2192
g15
tp2193
a(S'please search for'
p2194
g15
tp2195
a(S"don't i have to do anything in a week"
p2196
g15
tp2197
a(S'any events on thursday'
p2198
g15
tp2199
a(S"don't i have anything to do tomorrow"
p2200
g15
tp2201
a(S"get if it's foggy today"
p2202
g15
tp2203
a(S"what's the headlines"
p2204
g15
tp2205
a(S'is there anything i have to do on friday'
p2206
g15
tp2207
a(S'can you turn up the volume'
p2208
g15
tp2209
a(S"if it's raining this week"
p2210
g15
tp2211
a(S"don't i have anything to do on next"
p2212
g15
tp2213
a(S'can you turn the tune down'
p2214
g15
tp2215
a(S'please kill this window'
p2216
g15
tp2217
a(S'spotify next'
p2218
g15
tp2219
a(S'brief me'
p2220
g15
tp2221
a(S'check calendar on month'
p2222
g15
tp2223
a(S'what is on my calendar for monday'
p2224
g15
tp2225
a(S"what's the forecast this week"
p2226
g15
tp2227
a(S'please get time'
p2228
g15
tp2229
a(S"if it's hot this week"
p2230
g15
tp2231
a(S'do i have anything on sunday'
p2232
g15
tp2233
a(S'am i free on sunday'
p2234
g15
tp2235
a(S'please shut my computer down'
p2236
g15
tp2237
a(S'shut down'
p2238
g15
tp2239
a(S'what is new in new mail'
p2240
g15
tp2241
a(S'please will you check gmail'
p2242
g15
tp2243
a(S'a decent problem gossips beside the shoulder'
p2244
g15
tp2245
a(S"what's new in my mail please"
p2246
g15
tp2247
a(S'gather the latest headlines please'
p2248
g15
tp2249
a(S'see you'
p2250
g15
tp2251
a(S'turn up the tunes'
p2252
g15
tp2253
a(S'sound higher please'
p2254
g15
tp2255
a(S'can you schedule event please'
p2256
g28
tp2257
a(S"today's weather"
p2258
g15
tp2259
a(S'what do i have to do on'
p2260
g15
tp2261
a(S"don't i have anything on wednesday"
p2262
g15
tp2263
a(S'do i have any events in a week'
p2264
g15
tp2265
a(S'what is going on in the world today'
p2266
g15
tp2267
a(S'any new gmail'
p2268
g15
tp2269
a(S'are there any events on thursday'
p2270
g15
tp2271
a(S'open my inbox'
p2272
g15
tp2273
a(S'how is the weather'
p2274
g15
tp2275
a(S'check events for next'
p2276
g15
tp2277
a(S'do i have anything on wednesday'
p2278
g15
tp2279
a(S'what are the live news'
p2280
g15
tp2281
a(S'okay alice'
p2282
g15
tp2283
a(S'spotify shut up'
p2284
g15
tp2285
a(S"what's if it's cold today"
p2286
g15
tp2287
a(S'please spotify play previous song'
p2288
g15
tp2289
a(S'will you check new mail'
p2290
g15
tp2291
a(S'would you open mail please'
p2292
g15
tp2293
a(S'could you open gmail'
p2294
g15
tp2295
a(S'check google calendar for next'
p2296
g15
tp2297
a(S'am i free'
p2298
g15
tp2299
a(S'shut off'
p2300
g15
tp2301
a(S'make a new event please'
p2302
g28
tp2303
a(S'do i have to do anything on next'
p2304
g15
tp2305
a(S'can you get information on the current events'
p2306
g15
tp2307
a(S'can you shut down the computer'
p2308
g15
tp2309
a(S'add new event please'
p2310
g28
tp2311
a(S'please google'
p2312
g15
tp2313
a(S'is there anything to do on thursday'
p2314
g15
tp2315
a(S"what's the current news"
p2316
g15
tp2317
a(S'could you open my inbox please'
p2318
g15
tp2319
a(S'please will you open inbox'
p2320
g15
tp2321
a(S'start browser'
p2322
g15
tp2323
a(S'anything new in my gmail'
p2324
g15
tp2325
a(S'check calendar on monday'
p2326
g15
tp2327
a(S'kill the music'
p2328
g15
tp2329
a(S"don't i have anything to do today"
p2330
g15
tp2331
a(S"what's if it's foggy today"
p2332
g15
tp2333
a(S'is there anything to do in a week'
p2334
g15
tp2335
a(S"don't i have anything to do on wednesday"
p2336
g15
tp2337
a(S"don't i have anything to do on"
p2338
g15
tp2339
a(S"please what's in inbox"
p2340
g15
tp2341
a(S'can you please turn my computer off'
p2342
g15
tp2343
a(S"if it's snowing this week"
p2344
g15
tp2345
a(S'check google calendar on friday'
p2346
g15
tp2347
a(S'open dot com'
p2348
g15
tp2349
a(S'could you schedule new event please'
p2350
g28
tp2351
a(S'shutdown'
p2352
g15
tp2353
a(S'check events on today'
p2354
g15
tp2355
a(S'add new event'
p2356
g28
tp2357
a(S'check the current time please'
p2358
g15
tp2359
a(S'create event'
p2360
g28
tp2361
a(S'any events on tuesday'
p2362
g15
tp2363
a(S'please could you check my gmail'
p2364
g15
tp2365
a(S'would you open my inbox please'
p2366
g15
tp2367
a(S'please open my mail'
p2368
g15
tp2369
a(S'search for please'
p2370
g15
tp2371
a(S"get if it's rainy today"
p2372
g15
tp2373
a(S'what time is it right now'
p2374
g15
tp2375
a(S'can you create an event please'
p2376
g28
tp2377
a(S'shutdown my computer please'
p2378
g15
tp2379
a(S'debrief me'
p2380
g15
tp2381
a(S'is there anything i have to do tomorrow'
p2382
g15
tp2383
a(S'whats going on in the world todays please'
p2384
g15
tp2385
a(S'turn up the tunez please'
p2386
g15
tp2387
a(S'please play spotify '
p2388
g15
tp2389
a(S'can you please shut up'
p2390
g15
tp2391
a(S'shutdown my computer'
p2392
g15
tp2393
a(S'do i have to do anything on this day'
p2394
g15
tp2395
a(S'get news feed'
p2396
g15
tp2397
a(S'create event please'
p2398
g28
tp2399
a(S'go to dot net'
p2400
g15
tp2401
a(S'please check inbox'
p2402
g15
tp2403
a(S'am i free on tomorrow'
p2404
g15
tp2405
a(S'could you schedule an event'
p2406
g28
tp2407
a(S'can you please turn off'
p2408
g15
tp2409
a(S'can you please make new event'
p2410
g28
tp2411
a(S'can you please turn off my computer'
p2412
g15
tp2413
a(S"aren't there any events on monday"
p2414
g15
tp2415
a(S'check calendar on thursday'
p2416
g15
tp2417
a(S'close this window'
p2418
g15
tp2419
a(S'check mail please'
p2420
g15
tp2421
a(S'any new mail'
p2422
g15
tp2423
a(S"what's in mail"
p2424
g15
tp2425
a(S'can you please add a new event'
p2426
g28
tp2427
a(S"don't i have anything to do on this day"
p2428
g15
tp2429
a(S'time please'
p2430
g15
tp2431
a(S'please what is in my gmail'
p2432
g15
tp2433
a(S'what do i have to do on sunday'
p2434
g15
tp2435
a(S'anything new in my mail'
p2436
g15
tp2437
a(S'will it hail this week'
p2438
g15
tp2439
a(S'would you check inbox'
p2440
g15
tp2441
a(S'are there any events on wednesday'
p2442
g15
tp2443
a(S'what is new in new gmail'
p2444
g15
tp2445
a(S'could you check my inbox please'
p2446
g15
tp2447
a(S'can you please kill the current window'
p2448
g15
tp2449
a(S'any events on next'
p2450
g15
tp2451
a(S'please send me to the lock screen'
p2452
g15
tp2453
a(S'can you please turn up the beat'
p2454
g15
tp2455
a(S'please check mail'
p2456
g15
tp2457
a(S'is there anything to do in a month'
p2458
g15
tp2459
a(S"today's news"
p2460
g15
tp2461
a(S"this week's forecast"
p2462
g15
tp2463
a(S'temperature'
p2464
g15
tp2465
a(S'check my calendar on wednesday'
p2466
g15
tp2467
a(S'current events'
p2468
g15
tp2469
a(S'check google calendar on saturday'
p2470
g15
tp2471
a(S'please shutdown the computer'
p2472
g15
tp2473
a(S'will it rain this week'
p2474
g15
tp2475
a(S"don't i have any events on monday"
p2476
g15
tp2477
a(S'what is in gmail please'
p2478
g15
tp2479
a(S'what is in my inbox'
p2480
g15
tp2481
a(S'pause spotify please'
p2482
g15
tp2483
a(S'check what time it is'
p2484
g15
tp2485
a(S'turn it down'
p2486
g15
tp2487
a(S'do i have anything to do on this day'
p2488
g15
tp2489
a(S'could you please create an event'
p2490
g28
tp2491
a(S'please tell me whats going on in the news please'
p2492
g15
tp2493
a(S'spotify stop playing'
p2494
g15
tp2495
a(S'please get current time'
p2496
g15
tp2497
a(S'open gmail'
p2498
g15
tp2499
a(S"today's forecast"
p2500
g15
tp2501
a(S'get current forecast'
p2502
g15
tp2503
a(S'please spotify start the song'
p2504
g15
tp2505
a(S'go to'
p2506
g15
tp2507
a(S'predict the outcome on a new document'
p2508
g15
tp2509
a(S"please what's in my gmail"
p2510
g15
tp2511
a(S'what is in my gmail'
p2512
g15
tp2513
a(S'can you schedule an event please'
p2514
g28
tp2515
a(S"don't i have anything to do on sunday"
p2516
g15
tp2517
a(S'could you make an event'
p2518
g28
tp2519
a(S'current events'
p2520
g15
tp2521
a(S'emergency shutdown'
p2522
g15
tp2523
a(S'can you please turn off the computer'
p2524
g15
tp2525
a(S'can you please kill this window'
p2526
g15
tp2527
a(S'can you please shut down my computer'
p2528
g15
tp2529
a(S'please find out the latest headlines'
p2530
g15
tp2531
a(S'check calendar on this day'
p2532
g15
tp2533
a(S'spotify start the song please'
p2534
g15
tp2535
a(S'what do i have to do in a week'
p2536
g15
tp2537
a(S'am i free'
p2538
g15
tp2539
a(S"get this week's temperature"
p2540
g15
tp2541
a(S'what events are on friday'
p2542
g15
tp2543
a(S'would you check my inbox'
p2544
g15
tp2545
a(S'go to dot ee dee you'
p2546
g15
tp2547
a(S'please sound higher'
p2548
g15
tp2549
a(S'please shutdown my computer'
p2550
g15
tp2551
a(S'please be quiet'
p2552
g15
tp2553
a(S'music down'
p2554
g15
tp2555
a(S'turn up'
p2556
g15
tp2557
a(S'song stop'
p2558
g15
tp2559
a(S'please would you check mail'
p2560
g15
tp2561
a(S"this week's temperature"
p2562
g15
tp2563
a(S'what events do i have in a week'
p2564
g15
tp2565
a(S'check events on tomorrow'
p2566
g15
tp2567
a(S'please would you open gmail'
p2568
g15
tp2569
a(S'can you make new event please'
p2570
g28
tp2571
a(S'go back'
p2572
g15
tp2573
a(S'do i have anything to do on wednesday'
p2574
g15
tp2575
a(S"how's the temperature today"
p2576
g15
tp2577
a(S'please go spotify '
p2578
g15
tp2579
a(S'can you shutdown'
p2580
g15
tp2581
a(S'please what is new in my mail'
p2582
g15
tp2583
a(S'kill this window'
p2584
g15
tp2585
a(S'please when is it'
p2586
g15
tp2587
a(S"i think i didn't answer an earlier question"
p2588
g15
tp2589
a(S'can you mute'
p2590
g15
tp2591
a(S"what's the weather"
p2592
g15
tp2593
a(S'can you check my inbox'
p2594
g15
tp2595
a(S'is there anything i have to do in a month'
p2596
g15
tp2597
a(S'please lock my computer'
p2598
g15
tp2599
a(S'can you check new mail'
p2600
g15
tp2601
a(S'any events on sunday'
p2602
g15
tp2603
a(S'is there anything i have to do on tomorrow'
p2604
g15
tp2605
a(S'am i free in a week'
p2606
g15
tp2607
a(S"if it's foggy today"
p2608
g15
tp2609
a(S'what is new in mail please'
p2610
g15
tp2611
a(S'can you create event please'
p2612
g28
tp2613
a(S"please what's new in my gmail"
p2614
g15
tp2615
a(S"aren't there any events on wednesday"
p2616
g15
tp2617
a(S'schedule new event'
p2618
g28
tp2619
a(S"get if it's snowing today"
p2620
g15
tp2621
a(S"if it's freezing today"
p2622
g15
tp2623
a(S'can you check gmail please'
p2624
g15
tp2625
a(S'spotify pause'
p2626
g15
tp2627
a(S"what's the weather this week"
p2628
g15
tp2629
a(S'make the sound softer'
p2630
g15
tp2631
a(S"get if it's cold this week"
p2632
g15
tp2633
a(S'check my calendar for today'
p2634
g15
tp2635
a(S'will you check my inbox'
p2636
g15
tp2637
a(S'please check my gmail'
p2638
g15
tp2639
a(S'go to dot gov'
p2640
g15
tp2641
a(S'please spotify pause'
p2642
g15
tp2643
a(S'spotify play previous song please'
p2644
g15
tp2645
a(S'check google calendar on'
p2646
g15
tp2647
a(S"please what's new in inbox"
p2648
g15
tp2649
a(S'any events on'
p2650
g15
tp2651
a(S'please get the news'
p2652
g15
tp2653
a(S'what do i have on sunday'
p2654
g15
tp2655
a(S'can you get the current events'
p2656
g15
tp2657
a(S'please what is in new mail'
p2658
g15
tp2659
a(S'is it rainy this week'
p2660
g15
tp2661
a(S"don't i have anything"
p2662
g15
tp2663
a(S'am i free for'
p2664
g15
tp2665
a(S'kill the current window'
p2666
g15
tp2667
a(S'close active window'
p2668
g15
tp2669
a(S'alice go ahead please'
p2670
g15
tp2671
a(S'check events on'
p2672
g15
tp2673
a(S'schedule event'
p2674
g28
tp2675
a(S'check google calendar for this day'
p2676
g15
tp2677
a(S'can you please exit'
p2678
g15
tp2679
a(S'get the current events'
p2680
g15
tp2681
a(S'please turn it down'
p2682
g15
tp2683
a(S'please get the current time'
p2684
g15
tp2685
a(S'check my calendar for this day'
p2686
g15
tp2687
a(S"today's headlines"
p2688
g15
tp2689
a(S'check google calendar for saturday'
p2690
g15
tp2691
a(S'current events today'
p2692
g15
tp2693
a(S'please would you open my gmail'
p2694
g15
tp2695
a(S"don't i have any events on friday"
p2696
g15
tp2697
a(S'how is the temperature'
p2698
g15
tp2699
a(S"don't i have to do anything on tuesday"
p2700
g15
tp2701
a(S"aren't there any events on friday"
p2702
g15
tp2703
a(S'news today'
p2704
g15
tp2705
a(S'please stop song'
p2706
g15
tp2707
a(S"what's in my mail please"
p2708
g15
tp2709
a(S'please what is in new gmail'
p2710
g15
tp2711
a(S"don't i have to do anything on monday"
p2712
g15
tp2713
a(S'please what is new in my gmail'
p2714
g15
tp2715
a(S'can you please mute'
p2716
g15
tp2717
a(S'check my calendar on this month'
p2718
g15
tp2719
a(S'open mail please'
p2720
g15
tp2721
a(S'please will you open my inbox'
p2722
g15
tp2723
a(S'what events are on'
p2724
g15
tp2725
a(S"what's new in my inbox"
p2726
g15
tp2727
a(S'could you check inbox please'
p2728
g15
tp2729
a(S'please could you open my gmail'
p2730
g15
tp2731
a(S'am i free on friday'
p2732
g15
tp2733
a(S'do i have anything on this day'
p2734
g15
tp2735
a(S"don't i have to do anything on sunday"
p2736
g15
tp2737
a(S'can you please make a new event'
p2738
g28
tp2739
a(S'what is live news feed'
p2740
g15
tp2741
a(S'please google for'
p2742
g15
tp2743
a(S'can you please turn up the sound'
p2744
g15
tp2745
a(S'read the time please'
p2746
g15
tp2747
a(S'get live news'
p2748
g15
tp2749
a(S'get weather'
p2750
g15
tp2751
a(S'close window'
p2752
g15
tp2753
a(S"what's in my gmail"
p2754
g15
tp2755
a(S'check events on saturday'
p2756
g15
tp2757
a(S'check if i have anything in my inbox'
p2758
g15
tp2759
a(S'what do i have on saturday'
p2760
g15
tp2761
a(S'stop the song'
p2762
g15
tp2763
a(S"what's new in new mail please"
p2764
g15
tp2765
a(S'any events in a month'
p2766
g15
tp2767
a(S'can you turn yourself off'
p2768
g15
tp2769
a(S'please shut off my computer'
p2770
g15
tp2771
a(S"what's temperature"
p2772
g15
tp2773
a(S'give me the news please'
p2774
g15
tp2775
a(S'can you please turn up the tunez'
p2776
g15
tp2777
a(S'check calendar'
p2778
g15
tp2779
a(S'are there any events on next'
p2780
g15
tp2781
a(S'when is it please'
p2782
g15
tp2783
a(S'read your watch'
p2784
g15
tp2785
a(S'please lock computer'
p2786
g15
tp2787
a(S"what's the temperature this week"
p2788
g15
tp2789
a(S'please open mail'
p2790
g15
tp2791
a(S'find news feed'
p2792
g15
tp2793
a(S'do i have anything'
p2794
g15
tp2795
a(S'do i have anything to do on thursday'
p2796
g15
tp2797
a(S'are there any events on'
p2798
g15
tp2799
a(S'am i free for wednesday'
p2800
g15
tp2801
a(S'would you open gmail please'
p2802
g15
tp2803
a(S'open mail'
p2804
g15
tp2805
a(S'spotify previous please'
p2806
g15
tp2807
a(S'do i have anything on'
p2808
g15
tp2809
a(S'check calendar on this week'
p2810
g15
tp2811
a(S"what's new in new gmail please"
p2812
g15
tp2813
a(S'check google calendar for monday'
p2814
g15
tp2815
a(S'please can you check gmail'
p2816
g15
tp2817
a(S'what do i have on'
p2818
g15
tp2819
a(S'open a browser'
p2820
g15
tp2821
a(S'can you check mail please'
p2822
g15
tp2823
a(S"don't i have to do anything"
p2824
g15
tp2825
a(S'alice'
p2826
g15
tp2827
a(S'give me the current events'
p2828
g15
tp2829
a(S'check calendar'
p2830
g15
tp2831
a(S'what events are on tomorrow'
p2832
g15
tp2833
a(S'will it snow today'
p2834
g15
tp2835
a(S'what do i have to do on friday'
p2836
g15
tp2837
a(S'can you please open a browser'
p2838
g15
tp2839
a(S'what events do i have in a month'
p2840
g15
tp2841
a(S'sweet dreams alice'
p2842
g15
tp2843
a(S'do i have anything tomorrow'
p2844
g15
tp2845
a(S'please would you check new mail'
p2846
g15
tp2847
a(S'get the the latest headlines'
p2848
g15
tp2849
a(S"please what's new in gmail"
p2850
g15
tp2851
a(S'check calendar on next'
p2852
g15
tp2853
a(S"please what's in my mail"
p2854
g15
tp2855
a(S'could you add a new event'
p2856
g28
tp2857
a(S'can you lock the screen'
p2858
g15
tp2859
a(S'can you kill the current window'
p2860
g15
tp2861
a(S"aren't there any events in a week"
p2862
g15
tp2863
a(S"what're the live news feed"
p2864
g15
tp2865
a(S"please what's in mail"
p2866
g15
tp2867
a(S'shut up'
p2868
g15
tp2869
a(S'any events in a week'
p2870
g15
tp2871
a(S'spotify previous song please'
p2872
g15
tp2873
a(S'check new gmail'
p2874
g15
tp2875
a(S'start default browser please'
p2876
g15
tp2877
a(S'what do i have to do in a month'
p2878
g15
tp2879
a(S'headlines today'
p2880
g15
tp2881
a(S"don't i have anything on tuesday"
p2882
g15
tp2883
a(S'check events for'
p2884
g15
tp2885
a(S"what're the news feed"
p2886
g15
tp2887
a(S'am i free on tuesday'
p2888
g15
tp2889
a(S'could you check my mail'
p2890
g15
tp2891
a(S'play song'
p2892
g15
tp2893
a(S'do i have anything to do next'
p2894
g15
tp2895
a(S'please what is new in my inbox'
p2896
g15
tp2897
a(S'can you decrease the sound'
p2898
g15
tp2899
a(S'go to dot org'
p2900
g15
tp2901
a(S'can you check new gmail please'
p2902
g15
tp2903
a(S'next spotify please'
p2904
g15
tp2905
a(S'tell me current news'
p2906
g15
tp2907
a(S'any events'
p2908
g15
tp2909
a(S'get headlines'
p2910
g15
tp2911
a(S'please create event'
p2912
g28
tp2913
a(S'add event'
p2914
g28
tp2915
a(S'please close this window'
p2916
g15
tp2917
a(S'can you turn the sound down'
p2918
g15
tp2919
a(S'check calendar for thursday'
p2920
g15
tp2921
a(S'schedule an event'
p2922
g28
tp2923
a(S'can you create an event'
p2924
g28
tp2925
a(S'please will you check my gmail'
p2926
g15
tp2927
a(S'can you create event'
p2928
g28
tp2929
a(S'check my calendar for this week'
p2930
g15
tp2931
a(S"what's if it's snowing this week"
p2932
g15
tp2933
a(S'any events on saturday'
p2934
g15
tp2935
a(S'please shutdown'
p2936
g15
tp2937
a(S'can you put me on the lock screen'
p2938
g15
tp2939
a(S'check calendar for next'
p2940
g15
tp2941
a(S'can you add event please'
p2942
g28
tp2943
a(S'can you lock my computer please'
p2944
g15
tp2945
a(S"if it's freezing this week"
p2946
g15
tp2947
a(S'add an event'
p2948
g28
tp2949
a(S'do i have to do anything next'
p2950
g15
tp2951
a(S'do i have to do anything on friday'
p2952
g15
tp2953
a(S"don't i have anything in a week"
p2954
g15
tp2955
a(S'check the current time'
p2956
g15
tp2957
a(S"please what's in gmail"
p2958
g15
tp2959
a(S'check gmail please'
p2960
g15
tp2961
a(S'please start spotify'
p2962
g15
tp2963
a(S'shutdown the computer'
p2964
g15
tp2965
a(S'what is on my calendar for saturday'
p2966
g15
tp2967
a(S'do i have anything to do on saturday'
p2968
g15
tp2969
a(S'will you open a browser'
p2970
g15
tp2971
a(S'check my calendar for saturday'
p2972
g15
tp2973
a(S"aren't there any events on"
p2974
g15
tp2975
a(S'check events for tomorrow'
p2976
g15
tp2977
a(S'google please'
p2978
g15
tp2979
a(S'lower the tunez please'
p2980
g15
tp2981
a(S'am i free for tomorrow'
p2982
g15
tp2983
a(S'will you get the current events'
p2984
g15
tp2985
a(S'will you open my inbox'
p2986
g15
tp2987
a(S'can you send me to the lock screen please'
p2988
g15
tp2989
a(S'can you shut down'
p2990
g15
tp2991
a(S"don't i have any events on"
p2992
g15
tp2993
a(S'check google calendar for this week'
p2994
g15
tp2995
a(S'find current news'
p2996
g15
tp2997
a(S'could you schedule event please'
p2998
g28
tp2999
a(S"don't i have to do anything on wednesday"
p3000
g15
tp3001
a(S'pause spotify'
p3002
g15
tp3003
a(S'can you lock the screen please'
p3004
g15
tp3005
a(S'please will you open gmail'
p3006
g15
tp3007
a(S'what time is it currently'
p3008
g15
tp3009
a(S'shutdown please'
p3010
g15
tp3011
a(S'anything in inbox'
p3012
g15
tp3013
a(S'check google calendar on this day'
p3014
g15
tp3015
a(S"what're the headlines"
p3016
g15
tp3017
a(S'what events are on monday'
p3018
g15
tp3019
a(S'do i have to do anything on monday'
p3020
g15
tp3021
a(S'am i free for next'
p3022
g15
tp3023
a(S'open gmail please'
p3024
g15
tp3025
a(S"don't i have anything to do in a week"
p3026
g15
tp3027
a(S'please close current window'
p3028
g15
tp3029
a(S'what events are going on right now'
p3030
g15
tp3031
a(S'spotify last please'
p3032
g15
tp3033
a(S'check google calendar for friday'
p3034
g15
tp3035
a(S'what events are on wednesday'
p3036
g15
tp3037
a(S'make new event'
p3038
g28
tp3039
a(S'what is in my mail'
p3040
g15
tp3041
a(S'please could you check gmail'
p3042
g15
tp3043
a(S"what's if it's hot this week"
p3044
g15
tp3045
a(S'read time please'
p3046
g15
tp3047
a(S'get clock please'
p3048
g15
tp3049
a(S"aren't there any events on sunday"
p3050
g15
tp3051
a(S'find news'
p3052
g15
tp3053
a(S"don't i have to do anything on wednesday"
p3054
g15
tp3055
a(S'can you please schedule new event'
p3056
g28
tp3057
a(S'can you schedule new event please'
p3058
g28
tp3059
a(S'please will you check new gmail'
p3060
g15
tp3061
a(S"what're the the news"
p3062
g15
tp3063
a(S'check my calendar on this week'
p3064
g15
tp3065
a(S'do i have anything to do tomorrow'
p3066
g15
tp3067
a(S"today's current news "
p3068
g15
tp3069
a(S'do i have to do anything on sunday'
p3070
g15
tp3071
a(S'spotify play last song please'
p3072
g15
tp3073
a(S'could you please schedule new event'
p3074
g28
tp3075
a(S'would you check new mail please'
p3076
g15
tp3077
a(S'do i have anything to do on next'
p3078
g15
tp3079
a(S'turn off the computer'
p3080
g15
tp3081
a(S"please what's new in mail"
p3082
g15
tp3083
a(S'turn up the the beat'
p3084
g15
tp3085
a(S"what's new in inbox please"
p3086
g15
tp3087
a(S'do i have anything on monday'
p3088
g15
tp3089
a(S'can you turn the beat down'
p3090
g15
tp3091
a(S"don't i have to do anything today"
p3092
g15
tp3093
a(S'can you please make event'
p3094
g28
tp3095
a(S'is there anything to do on today'
p3096
g15
tp3097
a(S'are there any events on friday'
p3098
g15
tp3099
a(S'make new event please'
p3100
g28
tp3101
a(S'check google calendar'
p3102
g15
tp3103
a(S'check events on friday'
p3104
g15
tp3105
a(S"don't i have to do anything today"
p3106
g15
tp3107
a(S'check my calendar for tomorrow'
p3108
g15
tp3109
a(S'what is new in gmail please'
p3110
g15
tp3111
a(S'please start a default browser'
p3112
g15
tp3113
a(S'please could you open my inbox'
p3114
g15
tp3115
a(S'pause the song please'
p3116
g15
tp3117
a(S'open browser'
p3118
g15
tp3119
a(S'what is new in mail'
p3120
g15
tp3121
a(S'check calendar for wednesday'
p3122
g15
tp3123
a(S'turn yourself off'
p3124
g15
tp3125
a(S'spotify skip ahead please'
p3126
g15
tp3127
a(S'anything in my mail'
p3128
g15
tp3129
a(S'what is headlines'
p3130
g15
tp3131
a(S"this week's weather"
p3132
g15
tp3133
a(S'check my gmail please'
p3134
g15
tp3135
a(S'would you check new gmail'
p3136
g15
tp3137
a(S'will it rain today'
p3138
g15
tp3139
a(S'please close the active window'
p3140
g15
tp3141
a(S'open my gmail please'
p3142
g15
tp3143
a(S'see ya'
p3144
g15
tp3145
a(S'get me the clock please'
p3146
g15
tp3147
a(S'would you check new gmail please'
p3148
g15
tp3149
a(S"get this week's weather"
p3150
g15
tp3151
a(S'get time'
p3152
g15
tp3153
a(S'spotify play the song before'
p3154
g15
tp3155
a(S"don't i have anything to do in a month"
p3156
g15
tp3157
a(S'current events please'
p3158
g15
tp3159
a(S'what events are on sunday'
p3160
g15
tp3161
a(S'please schedule a new event'
p3162
g28
tp3163
a(S'google search for'
p3164
g15
tp3165
a(S'check my calendar on tomorrow'
p3166
g15
tp3167
a(S'find the current events'
p3168
g15
tp3169
a(S'forecast'
p3170
g15
tp3171
a(S'please search'
p3172
g15
tp3173
a(S'can you exit'
p3174
g15
tp3175
a(S'what time is it'
p3176
g15
tp3177
a(S'can you close the current window'
p3178
g15
tp3179
a(S'close the active window'
p3180
g15
tp3181
a(S'exit please'
p3182
g15
tp3183
a(S"don't i have any events on tomorrow"
p3184
g15
tp3185
a(S"don't i have anything to do on thursday"
p3186
g15
tp3187
a(S'create an event'
p3188
g28
tp3189
a(S'what are the current news'
p3190
g15
tp3191
a(S'any events on monday'
p3192
g15
tp3193
a(S'please read the time'
p3194
g15
tp3195
a(S'will you get the news for me'
p3196
g15
tp3197
a(S'find live news'
p3198
g15
tp3199
a(S'could you open my gmail'
p3200
g15
tp3201
a(S'what is in the news today'
p3202
g15
tp3203
a(S'do i have to do anything today'
p3204
g15
tp3205
a(S'am i free for a month'
p3206
g15
tp3207
a(S'please would you open mail'
p3208
g15
tp3209
a(S'please read the clock'
p3210
g15
tp3211
a(S'can you please kill active window'
p3212
g15
tp3213
a(S'could you please add event'
p3214
g28
tp3215
a(S'could you please make a new event'
p3216
g28
tp3217
a(S'please spotify go '
p3218
g15
tp3219
a(S'do i have anything in a month'
p3220
g15
tp3221
a(S'am i free for friday'
p3222
g15
tp3223
a(S'what is in new mail'
p3224
g15
tp3225
a(S'what do i have on wednesday'
p3226
g15
tp3227
a(S'shut down the computer please'
p3228
g15
tp3229
a(S'bye alice'
p3230
g15
tp3231
a(S'read your watch please'
p3232
g15
tp3233
a(S'check the clock right now'
p3234
g15
tp3235
a(S'could you schedule new event'
p3236
g28
tp3237
a(S'spotify next song '
p3238
g15
tp3239
a(S"what's new in mail"
p3240
g15
tp3241
a(S'what are the live news feed'
p3242
g15
tp3243
a(S'louder please'
p3244
g15
tp3245
a(S'can you shutdown the computer'
p3246
g15
tp3247
a(S'is there anything to do on friday'
p3248
g15
tp3249
a(S'check new gmail please'
p3250
g15
tp3251
a(S'search google for please'
p3252
g15
tp3253
a(S'tell me the news'
p3254
g15
tp3255
a(S'could you add event please'
p3256
g28
tp3257
a(S'will you check new gmail'
p3258
g15
tp3259
a(S'are there any events'
p3260
g15
tp3261
a(S"what's in my inbox"
p3262
g15
tp3263
a(S'can you please create a new event'
p3264
g28
tp3265
a(S'what do i have'
p3266
g15
tp3267
a(S"please what's in new mail"
p3268
g15
tp3269
a(S'can you please shut off my computer'
p3270
g15
tp3271
a(S'can you please add event'
p3272
g28
tp3273
a(S'would you open inbox please'
p3274
g15
tp3275
a(S"what's the news feed"
p3276
g15
tp3277
a(S"what's new in new mail"
p3278
g15
tp3279
a(S'will you check inbox'
p3280
g15
tp3281
a(S'do i have anything to do in a week'
p3282
g15
tp3283
a(S'check google calendar on today'
p3284
g15
tp3285
a(S'what events are in a week'
p3286
g15
tp3287
a(S'headlines'
p3288
g15
tp3289
a(S'set the volume to zero'
p3290
g15
tp3291
a(S"don't i have to do anything on next"
p3292
g15
tp3293
a(S'check calendar for this day'
p3294
g15
tp3295
a(S'get current events'
p3296
g15
tp3297
a(S'check my calendar for this day'
p3298
g15
tp3299
a(S"what're the live news"
p3300
g15
tp3301
a(S'please would you check my mail'
p3302
g15
tp3303
a(S'will you check my gmail please'
p3304
g15
tp3305
a(S'retrieve what time it is'
p3306
g15
tp3307
a(S'check events for sunday'
p3308
g15
tp3309
a(S'how is the forecast'
p3310
g15
tp3311
a(S'can you shut up'
p3312
g15
tp3313
a(S'open a default browser'
p3314
g15
tp3315
a(S'can you please close the active window'
p3316
g15
tp3317
a(S'am i free for this day'
p3318
g15
tp3319
a(S'please will you check inbox'
p3320
g15
tp3321
a(S'what is news'
p3322
g15
tp3323
a(S"don't i have anything on saturday"
p3324
g15
tp3325
a(S'please spotify play last song'
p3326
g15
tp3327
a(S'please what is in my inbox'
p3328
g15
tp3329
a(S'please get me the clock'
p3330
g15
tp3331
a(S'please spotify previous song'
p3332
g15
tp3333
a(S'can you check my gmail please'
p3334
g15
tp3335
a(S'check events on wednesday'
p3336
g15
tp3337
a(S'could you check my gmail'
p3338
g15
tp3339
a(S'check google calendar for'
p3340
g15
tp3341
a(S'lock my computer'
p3342
g15
tp3343
a(S'kill the active window'
p3344
g15
tp3345
a(S"what's if it's freezing this week"
p3346
g15
tp3347
a(S'could you please schedule an event'
p3348
g28
tp3349
a(S'what events are on saturday'
p3350
g15
tp3351
a(S'bye bye alice'
p3352
g15
tp3353
a(S'open inbox please'
p3354
g15
tp3355
a(S"what're the current events"
p3356
g15
tp3357
a(S'please can you turn the volume higher'
p3358
g15
tp3359
a(S'is it raining today'
p3360
g15
tp3361
a(S'get the clock please'
p3362
g15
tp3363
a(S'is there anything i have to do on sunday'
p3364
g15
tp3365
a(S'check google calendar for today'
p3366
g15
tp3367
a(S'can you turn up the beat'
p3368
g15
tp3369
asS'classifier'
p3370
ccopy_reg
_reconstructor
p3371
(csklearn.pipeline
Pipeline
p3372
c__builtin__
object
p3373
Ntp3374
Rp3375
(dp3376
S'_sklearn_version'
p3377
S'0.18.1'
p3378
sS'steps'
p3379
(lp3380
(S'vect'
p3381
g3371
(csklearn.feature_extraction.text
CountVectorizer
p3382
g3373
Ntp3383
Rp3384
(dp3385
S'decode_error'
p3386
Vstrict
p3387
sS'lowercase'
p3388
I01
sS'stop_words'
p3389
NsS'vocabulary'
p3390
NsS'tokenizer'
p3391
NsS'encoding'
p3392
Vutf-8
p3393
sS'token_pattern'
p3394
V(?u)\u005cb\u005cw\u005cw+\u005cb
p3395
sS'input'
p3396
Vcontent
p3397
sS'analyzer'
p3398
Vword
p3399
sS'vocabulary_'
p3400
(dp3401
Vevent
p3402
cnumpy.core.multiarray
scalar
p3403
(cnumpy
dtype
p3404
(S'i8'
p3405
I0
I1
tp3406
Rp3407
(I3
S'<'
p3408
NNNI-1
I-1
I0
tp3409
bS'?\x00\x00\x00\x00\x00\x00\x00'
p3410
tp3411
Rp3412
sVraining
p3413
g3403
(g3407
S'\xa0\x00\x00\x00\x00\x00\x00\x00'
p3414
tp3415
Rp3416
sVtodays
p3417
g3403
(g3407
S'\xcd\x00\x00\x00\x00\x00\x00\x00'
p3418
tp3419
Rp3420
sVmute
p3421
g3403
(g3407
S'}\x00\x00\x00\x00\x00\x00\x00'
p3422
tp3423
Rp3424
sVya
p3425
g3403
(g3407
S'\xe6\x00\x00\x00\x00\x00\x00\x00'
p3426
tp3427
Rp3428
sVskip
p3429
g3403
(g3407
S'\xb5\x00\x00\x00\x00\x00\x00\x00'
p3430
tp3431
Rp3432
sVmonth
p3433
g3403
(g3407
S'{\x00\x00\x00\x00\x00\x00\x00'
p3434
tp3435
Rp3436
sVsofter
p3437
g3403
(g3407
S'\xb8\x00\x00\x00\x00\x00\x00\x00'
p3438
tp3439
Rp3440
sVkill
p3441
g3403
(g3407
S'm\x00\x00\x00\x00\x00\x00\x00'
p3442
tp3443
Rp3444
sVusing
p3445
g3403
(g3407
S'\xd8\x00\x00\x00\x00\x00\x00\x00'
p3446
tp3447
Rp3448
sVgo
p3449
g3403
(g3407
S'T\x00\x00\x00\x00\x00\x00\x00'
p3450
tp3451
Rp3452
sVheadlines
p3453
g3403
(g3407
S']\x00\x00\x00\x00\x00\x00\x00'
p3454
tp3455
Rp3456
sVfind
p3457
g3403
(g3407
S'G\x00\x00\x00\x00\x00\x00\x00'
p3458
tp3459
Rp3460
sVprevious
p3461
g3403
(g3407
S'\x96\x00\x00\x00\x00\x00\x00\x00'
p3462
tp3463
Rp3464
sVspotify
p3465
g3403
(g3407
S'\xbb\x00\x00\x00\x00\x00\x00\x00'
p3466
tp3467
Rp3468
sVpause
p3469
g3403
(g3407
S'\x8f\x00\x00\x00\x00\x00\x00\x00'
p3470
tp3471
Rp3472
sVsnowing
p3473
g3403
(g3407
S'\xb7\x00\x00\x00\x00\x00\x00\x00'
p3474
tp3475
Rp3476
sVsunday
p3477
g3403
(g3407
S'\xc0\x00\x00\x00\x00\x00\x00\x00'
p3478
tp3479
Rp3480
sVsend
p3481
g3403
(g3407
S'\xaf\x00\x00\x00\x00\x00\x00\x00'
p3482
tp3483
Rp3484
sVaren
p3485
g3403
(g3407
S'\r\x00\x00\x00\x00\x00\x00\x00'
p3486
tp3487
Rp3488
sVto
p3489
g3403
(g3407
S'\xcb\x00\x00\x00\x00\x00\x00\x00'
p3490
tp3491
Rp3492
sVadd
p3493
g3403
(g3407
S'\x02\x00\x00\x00\x00\x00\x00\x00'
p3494
tp3495
Rp3496
sVprogram
p3497
g3403
(g3407
S'\x99\x00\x00\x00\x00\x00\x00\x00'
p3498
tp3499
Rp3500
sVmail
p3501
g3403
(g3407
S'u\x00\x00\x00\x00\x00\x00\x00'
p3502
tp3503
Rp3504
sVbye
p3505
g3403
(g3407
S'\x19\x00\x00\x00\x00\x00\x00\x00'
p3506
tp3507
Rp3508
sVdo
p3509
g3403
(g3407
S'4\x00\x00\x00\x00\x00\x00\x00'
p3510
tp3511
Rp3512
sVpredict
p3513
g3403
(g3407
S'\x94\x00\x00\x00\x00\x00\x00\x00'
p3514
tp3515
Rp3516
sVgood
p3517
g3403
(g3407
S'V\x00\x00\x00\x00\x00\x00\x00'
p3518
tp3519
Rp3520
sVemergency
p3521
g3403
(g3407
S'>\x00\x00\x00\x00\x00\x00\x00'
p3522
tp3523
Rp3524
sVget
p3525
g3403
(g3407
S'P\x00\x00\x00\x00\x00\x00\x00'
p3526
tp3527
Rp3528
sVread
p3529
g3403
(g3407
S'\xa3\x00\x00\x00\x00\x00\x00\x00'
p3530
tp3531
Rp3532
sVmaterial
p3533
g3403
(g3407
S'w\x00\x00\x00\x00\x00\x00\x00'
p3534
tp3535
Rp3536
sVwatch
p3537
g3403
(g3407
S'\xda\x00\x00\x00\x00\x00\x00\x00'
p3538
tp3539
Rp3540
sVreport
p3541
g3403
(g3407
S'\xa5\x00\x00\x00\x00\x00\x00\x00'
p3542
tp3543
Rp3544
sVworld
p3545
g3403
(g3407
S'\xe4\x00\x00\x00\x00\x00\x00\x00'
p3546
tp3547
Rp3548
sVnow
p3549
g3403
(g3407
S'\x86\x00\x00\x00\x00\x00\x00\x00'
p3550
tp3551
Rp3552
sVday
p3553
g3403
(g3407
S',\x00\x00\x00\x00\x00\x00\x00'
p3554
tp3555
Rp3556
sVdreams
p3557
g3403
(g3407
S':\x00\x00\x00\x00\x00\x00\x00'
p3558
tp3559
Rp3560
sVintel
p3561
g3403
(g3407
S'h\x00\x00\x00\x00\x00\x00\x00'
p3562
tp3563
Rp3564
sVshoulder
p3565
g3403
(g3407
S'\xb1\x00\x00\x00\x00\x00\x00\x00'
p3566
tp3567
Rp3568
sVgov
p3569
g3403
(g3407
S'Y\x00\x00\x00\x00\x00\x00\x00'
p3570
tp3571
Rp3572
sValex
p3573
g3403
(g3407
S'\x04\x00\x00\x00\x00\x00\x00\x00'
p3574
tp3575
Rp3576
sVlike
p3577
g3403
(g3407
S'p\x00\x00\x00\x00\x00\x00\x00'
p3578
tp3579
Rp3580
sVgossips
p3581
g3403
(g3407
S'X\x00\x00\x00\x00\x00\x00\x00'
p3582
tp3583
Rp3584
sVdidn
p3585
g3403
(g3407
S'3\x00\x00\x00\x00\x00\x00\x00'
p3586
tp3587
Rp3588
sVwednesday
p3589
g3403
(g3407
S'\xdd\x00\x00\x00\x00\x00\x00\x00'
p3590
tp3591
Rp3592
sVcloudy
p3593
g3403
(g3407
S'#\x00\x00\x00\x00\x00\x00\x00'
p3594
tp3595
Rp3596
sVtry
p3597
g3403
(g3407
S'\xd0\x00\x00\x00\x00\x00\x00\x00'
p3598
tp3599
Rp3600
sVtunez
p3601
g3403
(g3407
S'\xd4\x00\x00\x00\x00\x00\x00\x00'
p3602
tp3603
Rp3604
sVgimme
p3605
g3403
(g3407
S'Q\x00\x00\x00\x00\x00\x00\x00'
p3606
tp3607
Rp3608
sVweather
p3609
g3403
(g3407
S'\xdc\x00\x00\x00\x00\x00\x00\x00'
p3610
tp3611
Rp3612
sVnight
p3613
g3403
(g3407
S'\x84\x00\x00\x00\x00\x00\x00\x00'
p3614
tp3615
Rp3616
sVtunes
p3617
g3403
(g3407
S'\xd3\x00\x00\x00\x00\x00\x00\x00'
p3618
tp3619
Rp3620
sVclassifier
p3621
g3403
(g3407
S' \x00\x00\x00\x00\x00\x00\x00'
p3622
tp3623
Rp3624
sVinbox
p3625
g3403
(g3407
S'e\x00\x00\x00\x00\x00\x00\x00'
p3626
tp3627
Rp3628
sVset
p3629
g3403
(g3407
S'\xb0\x00\x00\x00\x00\x00\x00\x00'
p3630
tp3631
Rp3632
sVretrieve
p3633
g3403
(g3407
S'\xa6\x00\x00\x00\x00\x00\x00\x00'
p3634
tp3635
Rp3636
sVee
p3637
g3403
(g3407
S'=\x00\x00\x00\x00\x00\x00\x00'
p3638
tp3639
Rp3640
sVintelligence
p3641
g3403
(g3407
S'i\x00\x00\x00\x00\x00\x00\x00'
p3642
tp3643
Rp3644
sVedu
p3645
g3403
(g3407
S'<\x00\x00\x00\x00\x00\x00\x00'
p3646
tp3647
Rp3648
sVback
p3649
g3403
(g3407
S'\x0e\x00\x00\x00\x00\x00\x00\x00'
p3650
tp3651
Rp3652
sVhail
p3653
g3403
(g3407
S'[\x00\x00\x00\x00\x00\x00\x00'
p3654
tp3655
Rp3656
sValice
p3657
g3403
(g3407
S'\x05\x00\x00\x00\x00\x00\x00\x00'
p3658
tp3659
Rp3660
sVsee
p3661
g3403
(g3407
S'\xae\x00\x00\x00\x00\x00\x00\x00'
p3662
tp3663
Rp3664
sVcomputer
p3665
g3403
(g3407
S"'\x00\x00\x00\x00\x00\x00\x00"
p3666
tp3667
Rp3668
sVare
p3669
g3403
(g3407
S'\x0c\x00\x00\x00\x00\x00\x00\x00'
p3670
tp3671
Rp3672
sVclose
p3673
g3403
(g3407
S'"\x00\x00\x00\x00\x00\x00\x00'
p3674
tp3675
Rp3676
sVcalendar
p3677
g3403
(g3407
S'\x1b\x00\x00\x00\x00\x00\x00\x00'
p3678
tp3679
Rp3680
sVextract
p3681
g3403
(g3407
S'B\x00\x00\x00\x00\x00\x00\x00'
p3682
tp3683
Rp3684
sVcold
p3685
g3403
(g3407
S'$\x00\x00\x00\x00\x00\x00\x00'
p3686
tp3687
Rp3688
sVout
p3689
g3403
(g3407
S'\x8d\x00\x00\x00\x00\x00\x00\x00'
p3690
tp3691
Rp3692
sVcategory
p3693
g3403
(g3407
S'\x1d\x00\x00\x00\x00\x00\x00\x00'
p3694
tp3695
Rp3696
sVwhat
p3697
g3403
(g3407
S'\xdf\x00\x00\x00\x00\x00\x00\x00'
p3698
tp3699
Rp3700
sVfor
p3701
g3403
(g3407
S'I\x00\x00\x00\x00\x00\x00\x00'
p3702
tp3703
Rp3704
sVclock
p3705
g3403
(g3407
S'!\x00\x00\x00\x00\x00\x00\x00'
p3706
tp3707
Rp3708
sVdebrief
p3709
g3403
(g3407
S'-\x00\x00\x00\x00\x00\x00\x00'
p3710
tp3711
Rp3712
sVcurrently
p3713
g3403
(g3407
S'+\x00\x00\x00\x00\x00\x00\x00'
p3714
tp3715
Rp3716
sVplease
p3717
g3403
(g3407
S'\x92\x00\x00\x00\x00\x00\x00\x00'
p3718
tp3719
Rp3720
sVbrief
p3721
g3403
(g3407
S'\x15\x00\x00\x00\x00\x00\x00\x00'
p3722
tp3723
Rp3724
sVforecast
p3725
g3403
(g3407
S'J\x00\x00\x00\x00\x00\x00\x00'
p3726
tp3727
Rp3728
sVcell
p3729
g3403
(g3407
S'\x1e\x00\x00\x00\x00\x00\x00\x00'
p3730
tp3731
Rp3732
sVre
p3733
g3403
(g3407
S'\xa2\x00\x00\x00\x00\x00\x00\x00'
p3734
tp3735
Rp3736
sVexit
p3737
g3403
(g3407
S'A\x00\x00\x00\x00\x00\x00\x00'
p3738
tp3739
Rp3740
sVabove
p3741
g3403
(g3407
S'\x00\x00\x00\x00\x00\x00\x00\x00'
p3742
tp3743
Rp3744
sVnew
p3745
g3403
(g3407
S'\x80\x00\x00\x00\x00\x00\x00\x00'
p3746
tp3747
Rp3748
sVnet
p3749
g3403
(g3407
S'\x7f\x00\x00\x00\x00\x00\x00\x00'
p3750
tp3751
Rp3752
sVmoderate
p3753
g3403
(g3407
S'y\x00\x00\x00\x00\x00\x00\x00'
p3754
tp3755
Rp3756
sVissue
p3757
g3403
(g3407
S'k\x00\x00\x00\x00\x00\x00\x00'
p3758
tp3759
Rp3760
sVbe
p3761
g3403
(g3407
S'\x10\x00\x00\x00\x00\x00\x00\x00'
p3762
tp3763
Rp3764
sVshut
p3765
g3403
(g3407
S'\xb2\x00\x00\x00\x00\x00\x00\x00'
p3766
tp3767
Rp3768
sVnoise
p3769
g3403
(g3407
S'\x85\x00\x00\x00\x00\x00\x00\x00'
p3770
tp3771
Rp3772
sVschedule
p3773
g3403
(g3407
S'\xab\x00\x00\x00\x00\x00\x00\x00'
p3774
tp3775
Rp3776
sVscreen
p3777
g3403
(g3407
S'\xac\x00\x00\x00\x00\x00\x00\x00'
p3778
tp3779
Rp3780
sVdictates
p3781
g3403
(g3407
S'2\x00\x00\x00\x00\x00\x00\x00'
p3782
tp3783
Rp3784
sVfree
p3785
g3403
(g3407
S'K\x00\x00\x00\x00\x00\x00\x00'
p3786
tp3787
Rp3788
sVillustration
p3789
g3403
(g3407
S'c\x00\x00\x00\x00\x00\x00\x00'
p3790
tp3791
Rp3792
sVactive
p3793
g3403
(g3407
S'\x01\x00\x00\x00\x00\x00\x00\x00'
p3794
tp3795
Rp3796
sVnews
p3797
g3403
(g3407
S'\x81\x00\x00\x00\x00\x00\x00\x00'
p3798
tp3799
Rp3800
sVpost
p3801
g3403
(g3407
S'\x93\x00\x00\x00\x00\x00\x00\x00'
p3802
tp3803
Rp3804
sVdon
p3805
g3403
(g3407
S'7\x00\x00\x00\x00\x00\x00\x00'
p3806
tp3807
Rp3808
sVon
p3809
g3403
(g3407
S'\x8a\x00\x00\x00\x00\x00\x00\x00'
p3810
tp3811
Rp3812
sVsearch
p3813
g3403
(g3407
S'\xad\x00\x00\x00\x00\x00\x00\x00'
p3814
tp3815
Rp3816
sVlast
p3817
g3403
(g3407
S'n\x00\x00\x00\x00\x00\x00\x00'
p3818
tp3819
Rp3820
sVanything
p3821
g3403
(g3407
S'\x0b\x00\x00\x00\x00\x00\x00\x00'
p3822
tp3823
Rp3824
sVof
p3825
g3403
(g3407
S'\x87\x00\x00\x00\x00\x00\x00\x00'
p3826
tp3827
Rp3828
sVcould
p3829
g3403
(g3407
S'(\x00\x00\x00\x00\x00\x00\x00'
p3830
tp3831
Rp3832
sVcurrent
p3833
g3403
(g3407
S'*\x00\x00\x00\x00\x00\x00\x00'
p3834
tp3835
Rp3836
sVquiet
p3837
g3403
(g3407
S'\x9c\x00\x00\x00\x00\x00\x00\x00'
p3838
tp3839
Rp3840
sVturn
p3841
g3403
(g3407
S'\xd5\x00\x00\x00\x00\x00\x00\x00'
p3842
tp3843
Rp3844
sVbrowsing
p3845
g3403
(g3407
S'\x18\x00\x00\x00\x00\x00\x00\x00'
p3846
tp3847
Rp3848
sVcom
p3849
g3403
(g3407
S'%\x00\x00\x00\x00\x00\x00\x00'
p3850
tp3851
Rp3852
sVthink
p3853
g3403
(g3407
S'\xc7\x00\x00\x00\x00\x00\x00\x00'
p3854
tp3855
Rp3856
sVfeed
p3857
g3403
(g3407
S'F\x00\x00\x00\x00\x00\x00\x00'
p3858
tp3859
Rp3860
sVthis
p3861
g3403
(g3407
S'\xc8\x00\x00\x00\x00\x00\x00\x00'
p3862
tp3863
Rp3864
sVwhats
p3865
g3403
(g3407
S'\xe0\x00\x00\x00\x00\x00\x00\x00'
p3866
tp3867
Rp3868
sVfeatures
p3869
g3403
(g3407
S'E\x00\x00\x00\x00\x00\x00\x00'
p3870
tp3871
Rp3872
sVsimple
p3873
g3403
(g3407
S'\xb4\x00\x00\x00\x00\x00\x00\x00'
p3874
tp3875
Rp3876
sVsweet
p3877
g3403
(g3407
S'\xc1\x00\x00\x00\x00\x00\x00\x00'
p3878
tp3879
Rp3880
sVtuesday
p3881
g3403
(g3407
S'\xd1\x00\x00\x00\x00\x00\x00\x00'
p3882
tp3883
Rp3884
sVyourself
p3885
g3403
(g3407
S'\xe9\x00\x00\x00\x00\x00\x00\x00'
p3886
tp3887
Rp3888
sVdown
p3889
g3403
(g3407
S'9\x00\x00\x00\x00\x00\x00\x00'
p3890
tp3891
Rp3892
sVput
p3893
g3403
(g3407
S'\x9a\x00\x00\x00\x00\x00\x00\x00'
p3894
tp3895
Rp3896
sVgoogle
p3897
g3403
(g3407
S'W\x00\x00\x00\x00\x00\x00\x00'
p3898
tp3899
Rp3900
sVdecrease
p3901
g3403
(g3407
S'/\x00\x00\x00\x00\x00\x00\x00'
p3902
tp3903
Rp3904
sVthursday
p3905
g3403
(g3407
S'\xc9\x00\x00\x00\x00\x00\x00\x00'
p3906
tp3907
Rp3908
sVshutdown
p3909
g3403
(g3407
S'\xb3\x00\x00\x00\x00\x00\x00\x00'
p3910
tp3911
Rp3912
sVorg
p3913
g3403
(g3407
S'\x8c\x00\x00\x00\x00\x00\x00\x00'
p3914
tp3915
Rp3916
sVopen
p3917
g3403
(g3407
S'\x8b\x00\x00\x00\x00\x00\x00\x00'
p3918
tp3919
Rp3920
sVtomorrow
p3921
g3403
(g3407
S'\xce\x00\x00\x00\x00\x00\x00\x00'
p3922
tp3923
Rp3924
sVquit
p3925
g3403
(g3407
S'\x9e\x00\x00\x00\x00\x00\x00\x00'
p3926
tp3927
Rp3928
sVtemperature
p3929
g3403
(g3407
S'\xc4\x00\x00\x00\x00\x00\x00\x00'
p3930
tp3931
Rp3932
sVwould
p3933
g3403
(g3407
S'\xe5\x00\x00\x00\x00\x00\x00\x00'
p3934
tp3935
Rp3936
sVsake
p3937
g3403
(g3407
S'\xa8\x00\x00\x00\x00\x00\x00\x00'
p3938
tp3939
Rp3940
sVdecent
p3941
g3403
(g3407
S'.\x00\x00\x00\x00\x00\x00\x00'
p3942
tp3943
Rp3944
sVcreate
p3945
g3403
(g3407
S')\x00\x00\x00\x00\x00\x00\x00'
p3946
tp3947
Rp3948
sVthere
p3949
g3403
(g3407
S'\xc6\x00\x00\x00\x00\x00\x00\x00'
p3950
tp3951
Rp3952
sVquestion
p3953
g3403
(g3407
S'\x9b\x00\x00\x00\x00\x00\x00\x00'
p3954
tp3955
Rp3956
sVwindow
p3957
g3403
(g3407
S'\xe3\x00\x00\x00\x00\x00\x00\x00'
p3958
tp3959
Rp3960
sVnext
p3961
g3403
(g3407
S'\x83\x00\x00\x00\x00\x00\x00\x00'
p3962
tp3963
Rp3964
sVstart
p3965
g3403
(g3407
S'\xbd\x00\x00\x00\x00\x00\x00\x00'
p3966
tp3967
Rp3968
sVlive
p3969
g3403
(g3407
S'q\x00\x00\x00\x00\x00\x00\x00'
p3970
tp3971
Rp3972
sVgoing
p3973
g3403
(g3407
S'U\x00\x00\x00\x00\x00\x00\x00'
p3974
tp3975
Rp3976
sVmusic
p3977
g3403
(g3407
S'|\x00\x00\x00\x00\x00\x00\x00'
p3978
tp3979
Rp3980
sVtell
p3981
g3403
(g3407
S'\xc3\x00\x00\x00\x00\x00\x00\x00'
p3982
tp3983
Rp3984
sVtoday
p3985
g3403
(g3407
S'\xcc\x00\x00\x00\x00\x00\x00\x00'
p3986
tp3987
Rp3988
sVpretends
p3989
g3403
(g3407
S'\x95\x00\x00\x00\x00\x00\x00\x00'
p3990
tp3991
Rp3992
sVfake
p3993
g3403
(g3407
S'C\x00\x00\x00\x00\x00\x00\x00'
p3994
tp3995
Rp3996
sVsound
p3997
g3403
(g3407
S'\xba\x00\x00\x00\x00\x00\x00\x00'
p3998
tp3999
Rp4000
sVreleasing
p4001
g3403
(g3407
S'\xa4\x00\x00\x00\x00\x00\x00\x00'
p4002
tp4003
Rp4004
sVcommands
p4005
g3403
(g3407
S'&\x00\x00\x00\x00\x00\x00\x00'
p4006
tp4007
Rp4008
sVit
p4009
g3403
(g3407
S'l\x00\x00\x00\x00\x00\x00\x00'
p4010
tp4011
Rp4012
sVvolume
p4013
g3403
(g3407
S'\xd9\x00\x00\x00\x00\x00\x00\x00'
p4014
tp4015
Rp4016
sVtrain
p4017
g3403
(g3407
S'\xcf\x00\x00\x00\x00\x00\x00\x00'
p4018
tp4019
Rp4020
sVstick
p4021
g3403
(g3407
S'\xbe\x00\x00\x00\x00\x00\x00\x00'
p4022
tp4023
Rp4024
sVbeat
p4025
g3403
(g3407
S'\x11\x00\x00\x00\x00\x00\x00\x00'
p4026
tp4027
Rp4028
sVfoggy
p4029
g3403
(g3407
S'H\x00\x00\x00\x00\x00\x00\x00'
p4030
tp4031
Rp4032
sVdocument
p4033
g3403
(g3407
S'5\x00\x00\x00\x00\x00\x00\x00'
p4034
tp4035
Rp4036
sVme
p4037
g3403
(g3407
S'x\x00\x00\x00\x00\x00\x00\x00'
p4038
tp4039
Rp4040
sVahead
p4041
g3403
(g3407
S'\x03\x00\x00\x00\x00\x00\x00\x00'
p4042
tp4043
Rp4044
sVfriday
p4045
g3403
(g3407
S'M\x00\x00\x00\x00\x00\x00\x00'
p4046
tp4047
Rp4048
sVunmute
p4049
g3403
(g3407
S'\xd6\x00\x00\x00\x00\x00\x00\x00'
p4050
tp4051
Rp4052
sVsnow
p4053
g3403
(g3407
S'\xb6\x00\x00\x00\x00\x00\x00\x00'
p4054
tp4055
Rp4056
sVup
p4057
g3403
(g3407
S'\xd7\x00\x00\x00\x00\x00\x00\x00'
p4058
tp4059
Rp4060
sVdogs
p4061
g3403
(g3407
S'6\x00\x00\x00\x00\x00\x00\x00'
p4062
tp4063
Rp4064
sVwill
p4065
g3403
(g3407
S'\xe2\x00\x00\x00\x00\x00\x00\x00'
p4066
tp4067
Rp4068
sVlouder
p4069
g3403
(g3407
S's\x00\x00\x00\x00\x00\x00\x00'
p4070
tp4071
Rp4072
sVcan
p4073
g3403
(g3407
S'\x1c\x00\x00\x00\x00\x00\x00\x00'
p4074
tp4075
Rp4076
sVbriefing
p4077
g3403
(g3407
S'\x16\x00\x00\x00\x00\x00\x00\x00'
p4078
tp4079
Rp4080
sVproblem
p4081
g3403
(g3407
S'\x97\x00\x00\x00\x00\x00\x00\x00'
p4082
tp4083
Rp4084
sVoutcome
p4085
g3403
(g3407
S'\x8e\x00\x00\x00\x00\x00\x00\x00'
p4086
tp4087
Rp4088
sVmy
p4089
g3403
(g3407
S'~\x00\x00\x00\x00\x00\x00\x00'
p4090
tp4091
Rp4092
sVdee
p4093
g3403
(g3407
S'0\x00\x00\x00\x00\x00\x00\x00'
p4094
tp4095
Rp4096
sVbrowser
p4097
g3403
(g3407
S'\x17\x00\x00\x00\x00\x00\x00\x00'
p4098
tp4099
Rp4100
sVbefore
p4101
g3403
(g3407
S'\x13\x00\x00\x00\x00\x00\x00\x00'
p4102
tp4103
Rp4104
sVgive
p4105
g3403
(g3407
S'R\x00\x00\x00\x00\x00\x00\x00'
p4106
tp4107
Rp4108
sValmost
p4109
g3403
(g3407
S'\x06\x00\x00\x00\x00\x00\x00\x00'
p4110
tp4111
Rp4112
sVlock
p4113
g3403
(g3407
S'r\x00\x00\x00\x00\x00\x00\x00'
p4114
tp4115
Rp4116
sVis
p4117
g3403
(g3407
S'j\x00\x00\x00\x00\x00\x00\x00'
p4118
tp4119
Rp4120
sVin
p4121
g3403
(g3407
S'd\x00\x00\x00\x00\x00\x00\x00'
p4122
tp4123
Rp4124
sVam
p4125
g3403
(g3407
S'\x07\x00\x00\x00\x00\x00\x00\x00'
p4126
tp4127
Rp4128
sVfuck
p4129
g3403
(g3407
S'N\x00\x00\x00\x00\x00\x00\x00'
p4130
tp4131
Rp4132
sVbackbone
p4133
g3403
(g3407
S'\x0f\x00\x00\x00\x00\x00\x00\x00'
p4134
tp4135
Rp4136
sVan
p4137
g3403
(g3407
S'\x08\x00\x00\x00\x00\x00\x00\x00'
p4138
tp4139
Rp4140
sVbeats
p4141
g3403
(g3407
S'\x12\x00\x00\x00\x00\x00\x00\x00'
p4142
tp4143
Rp4144
sVright
p4145
g3403
(g3407
S'\xa7\x00\x00\x00\x00\x00\x00\x00'
p4146
tp4147
Rp4148
sVhave
p4149
g3403
(g3407
S'\\\x00\x00\x00\x00\x00\x00\x00'
p4150
tp4151
Rp4152
sVstalls
p4153
g3403
(g3407
S'\xbc\x00\x00\x00\x00\x00\x00\x00'
p4154
tp4155
Rp4156
sVcheck
p4157
g3403
(g3407
S'\x1f\x00\x00\x00\x00\x00\x00\x00'
p4158
tp4159
Rp4160
sVif
p4161
g3403
(g3407
S'b\x00\x00\x00\x00\x00\x00\x00'
p4162
tp4163
Rp4164
sVinformation
p4165
g3403
(g3407
S'g\x00\x00\x00\x00\x00\x00\x00'
p4166
tp4167
Rp4168
sVrainy
p4169
g3403
(g3407
S'\xa1\x00\x00\x00\x00\x00\x00\x00'
p4170
tp4171
Rp4172
sVzero
p4173
g3403
(g3407
S'\xea\x00\x00\x00\x00\x00\x00\x00'
p4174
tp4175
Rp4176
sVmake
p4177
g3403
(g3407
S'v\x00\x00\x00\x00\x00\x00\x00'
p4178
tp4179
Rp4180
sVsong
p4181
g3403
(g3407
S'\xb9\x00\x00\x00\x00\x00\x00\x00'
p4182
tp4183
Rp4184
sVwhen
p4185
g3403
(g3407
S'\xe1\x00\x00\x00\x00\x00\x00\x00'
p4186
tp4187
Rp4188
sVfeature
p4189
g3403
(g3407
S'D\x00\x00\x00\x00\x00\x00\x00'
p4190
tp4191
Rp4192
sVsame
p4193
g3403
(g3407
S'\xa9\x00\x00\x00\x00\x00\x00\x00'
p4194
tp4195
Rp4196
sVsaturday
p4197
g3403
(g3407
S'\xaa\x00\x00\x00\x00\x00\x00\x00'
p4198
tp4199
Rp4200
sVbeside
p4201
g3403
(g3407
S'\x14\x00\x00\x00\x00\x00\x00\x00'
p4202
tp4203
Rp4204
sVhow
p4205
g3403
(g3407
S'a\x00\x00\x00\x00\x00\x00\x00'
p4206
tp4207
Rp4208
sVhot
p4209
g3403
(g3407
S'`\x00\x00\x00\x00\x00\x00\x00'
p4210
tp4211
Rp4212
sVanswer
p4213
g3403
(g3407
S'\t\x00\x00\x00\x00\x00\x00\x00'
p4214
tp4215
Rp4216
sVyou
p4217
g3403
(g3407
S'\xe7\x00\x00\x00\x00\x00\x00\x00'
p4218
tp4219
Rp4220
sVgmail
p4221
g3403
(g3407
S'S\x00\x00\x00\x00\x00\x00\x00'
p4222
tp4223
Rp4224
sVevents
p4225
g3403
(g3407
S'@\x00\x00\x00\x00\x00\x00\x00'
p4226
tp4227
Rp4228
sVhigher
p4229
g3403
(g3407
S'_\x00\x00\x00\x00\x00\x00\x00'
p4230
tp4231
Rp4232
sVweek
p4233
g3403
(g3407
S'\xde\x00\x00\x00\x00\x00\x00\x00'
p4234
tp4235
Rp4236
sVplay
p4237
g3403
(g3407
S'\x90\x00\x00\x00\x00\x00\x00\x00'
p4238
tp4239
Rp4240
sVokay
p4241
g3403
(g3407
S'\x89\x00\x00\x00\x00\x00\x00\x00'
p4242
tp4243
Rp4244
sVhey
p4245
g3403
(g3407
S'^\x00\x00\x00\x00\x00\x00\x00'
p4246
tp4247
Rp4248
sVmonday
p4249
g3403
(g3407
S'z\x00\x00\x00\x00\x00\x00\x00'
p4250
tp4251
Rp4252
sVdefault
p4253
g3403
(g3407
S'1\x00\x00\x00\x00\x00\x00\x00'
p4254
tp4255
Rp4256
sVany
p4257
g3403
(g3407
S'\n\x00\x00\x00\x00\x00\x00\x00'
p4258
tp4259
Rp4260
sVstop
p4261
g3403
(g3407
S'\xbf\x00\x00\x00\x00\x00\x00\x00'
p4262
tp4263
Rp4264
sVearlier
p4265
g3403
(g3407
S';\x00\x00\x00\x00\x00\x00\x00'
p4266
tp4267
Rp4268
sVproblems
p4269
g3403
(g3407
S'\x98\x00\x00\x00\x00\x00\x00\x00'
p4270
tp4271
Rp4272
sVquieter
p4273
g3403
(g3407
S'\x9d\x00\x00\x00\x00\x00\x00\x00'
p4274
tp4275
Rp4276
sVrain
p4277
g3403
(g3407
S'\x9f\x00\x00\x00\x00\x00\x00\x00'
p4278
tp4279
Rp4280
sVfreezing
p4281
g3403
(g3407
S'L\x00\x00\x00\x00\x00\x00\x00'
p4282
tp4283
Rp4284
sVbyebye
p4285
g3403
(g3407
S'\x1a\x00\x00\x00\x00\x00\x00\x00'
p4286
tp4287
Rp4288
sVtune
p4289
g3403
(g3407
S'\xd2\x00\x00\x00\x00\x00\x00\x00'
p4290
tp4291
Rp4292
sVyour
p4293
g3403
(g3407
S'\xe8\x00\x00\x00\x00\x00\x00\x00'
p4294
tp4295
Rp4296
sVgrief
p4297
g3403
(g3407
S'Z\x00\x00\x00\x00\x00\x00\x00'
p4298
tp4299
Rp4300
sVlower
p4301
g3403
(g3407
S't\x00\x00\x00\x00\x00\x00\x00'
p4302
tp4303
Rp4304
sVoff
p4305
g3403
(g3407
S'\x88\x00\x00\x00\x00\x00\x00\x00'
p4306
tp4307
Rp4308
sVwe
p4309
g3403
(g3407
S'\xdb\x00\x00\x00\x00\x00\x00\x00'
p4310
tp4311
Rp4312
sVgather
p4313
g3403
(g3407
S'O\x00\x00\x00\x00\x00\x00\x00'
p4314
tp4315
Rp4316
sVtale
p4317
g3403
(g3407
S'\xc2\x00\x00\x00\x00\x00\x00\x00'
p4318
tp4319
Rp4320
sVtime
p4321
g3403
(g3407
S'\xca\x00\x00\x00\x00\x00\x00\x00'
p4322
tp4323
Rp4324
sVnewsfeed
p4325
g3403
(g3407
S'\x82\x00\x00\x00\x00\x00\x00\x00'
p4326
tp4327
Rp4328
sVthe
p4329
g3403
(g3407
S'\xc5\x00\x00\x00\x00\x00\x00\x00'
p4330
tp4331
Rp4332
sVincrease
p4333
g3403
(g3407
S'f\x00\x00\x00\x00\x00\x00\x00'
p4334
tp4335
Rp4336
sVplaying
p4337
g3403
(g3407
S'\x91\x00\x00\x00\x00\x00\x00\x00'
p4338
tp4339
Rp4340
sVdot
p4341
g3403
(g3407
S'8\x00\x00\x00\x00\x00\x00\x00'
p4342
tp4343
Rp4344
sVlatest
p4345
g3403
(g3407
S'o\x00\x00\x00\x00\x00\x00\x00'
p4346
tp4347
Rp4348
ssS'binary'
p4349
I00
sS'ngram_range'
p4350
(I1
I1
tp4351
sg3377
g3378
sS'max_df'
p4352
F1.0
sS'min_df'
p4353
I1
sS'max_features'
p4354
NsS'fixed_vocabulary_'
p4355
I00
sS'strip_accents'
p4356
NsS'dtype'
p4357
cnumpy
int64
p4358
sS'stop_words_'
p4359
c__builtin__
set
p4360
((lp4361
tp4362
Rp4363
sS'preprocessor'
p4364
Nsbtp4365
a(S'tfidf'
p4366
g3371
(csklearn.feature_extraction.text
TfidfTransformer
p4367
g3373
Ntp4368
Rp4369
(dp4370
S'smooth_idf'
p4371
I01
sg3377
g3378
sS'_idf_diag'
p4372
g3371
(cscipy.sparse.csr
csr_matrix
p4373
g3373
Ntp4374
Rp4375
(dp4376
S'indices'
p4377
cnumpy.core.multiarray
_reconstruct
p4378
(cnumpy
ndarray
p4379
(I0
tp4380
S'b'
p4381
tp4382
Rp4383
(I1
(I235
tp4384
g3404
(S'i4'
p4385
I0
I1
tp4386
Rp4387
(I3
S'<'
p4388
NNNI-1
I-1
I0
tp4389
bI00
S'\x00\x00\x00\x00\x01\x00\x00\x00\x02\x00\x00\x00\x03\x00\x00\x00\x04\x00\x00\x00\x05\x00\x00\x00\x06\x00\x00\x00\x07\x00\x00\x00\x08\x00\x00\x00\t\x00\x00\x00\n\x00\x00\x00\x0b\x00\x00\x00\x0c\x00\x00\x00\r\x00\x00\x00\x0e\x00\x00\x00\x0f\x00\x00\x00\x10\x00\x00\x00\x11\x00\x00\x00\x12\x00\x00\x00\x13\x00\x00\x00\x14\x00\x00\x00\x15\x00\x00\x00\x16\x00\x00\x00\x17\x00\x00\x00\x18\x00\x00\x00\x19\x00\x00\x00\x1a\x00\x00\x00\x1b\x00\x00\x00\x1c\x00\x00\x00\x1d\x00\x00\x00\x1e\x00\x00\x00\x1f\x00\x00\x00 \x00\x00\x00!\x00\x00\x00"\x00\x00\x00#\x00\x00\x00$\x00\x00\x00%\x00\x00\x00&\x00\x00\x00\'\x00\x00\x00(\x00\x00\x00)\x00\x00\x00*\x00\x00\x00+\x00\x00\x00,\x00\x00\x00-\x00\x00\x00.\x00\x00\x00/\x00\x00\x000\x00\x00\x001\x00\x00\x002\x00\x00\x003\x00\x00\x004\x00\x00\x005\x00\x00\x006\x00\x00\x007\x00\x00\x008\x00\x00\x009\x00\x00\x00:\x00\x00\x00;\x00\x00\x00<\x00\x00\x00=\x00\x00\x00>\x00\x00\x00?\x00\x00\x00@\x00\x00\x00A\x00\x00\x00B\x00\x00\x00C\x00\x00\x00D\x00\x00\x00E\x00\x00\x00F\x00\x00\x00G\x00\x00\x00H\x00\x00\x00I\x00\x00\x00J\x00\x00\x00K\x00\x00\x00L\x00\x00\x00M\x00\x00\x00N\x00\x00\x00O\x00\x00\x00P\x00\x00\x00Q\x00\x00\x00R\x00\x00\x00S\x00\x00\x00T\x00\x00\x00U\x00\x00\x00V\x00\x00\x00W\x00\x00\x00X\x00\x00\x00Y\x00\x00\x00Z\x00\x00\x00[\x00\x00\x00\\\x00\x00\x00]\x00\x00\x00^\x00\x00\x00_\x00\x00\x00`\x00\x00\x00a\x00\x00\x00b\x00\x00\x00c\x00\x00\x00d\x00\x00\x00e\x00\x00\x00f\x00\x00\x00g\x00\x00\x00h\x00\x00\x00i\x00\x00\x00j\x00\x00\x00k\x00\x00\x00l\x00\x00\x00m\x00\x00\x00n\x00\x00\x00o\x00\x00\x00p\x00\x00\x00q\x00\x00\x00r\x00\x00\x00s\x00\x00\x00t\x00\x00\x00u\x00\x00\x00v\x00\x00\x00w\x00\x00\x00x\x00\x00\x00y\x00\x00\x00z\x00\x00\x00{\x00\x00\x00|\x00\x00\x00}\x00\x00\x00~\x00\x00\x00\x7f\x00\x00\x00\x80\x00\x00\x00\x81\x00\x00\x00\x82\x00\x00\x00\x83\x00\x00\x00\x84\x00\x00\x00\x85\x00\x00\x00\x86\x00\x00\x00\x87\x00\x00\x00\x88\x00\x00\x00\x89\x00\x00\x00\x8a\x00\x00\x00\x8b\x00\x00\x00\x8c\x00\x00\x00\x8d\x00\x00\x00\x8e\x00\x00\x00\x8f\x00\x00\x00\x90\x00\x00\x00\x91\x00\x00\x00\x92\x00\x00\x00\x93\x00\x00\x00\x94\x00\x00\x00\x95\x00\x00\x00\x96\x00\x00\x00\x97\x00\x00\x00\x98\x00\x00\x00\x99\x00\x00\x00\x9a\x00\x00\x00\x9b\x00\x00\x00\x9c\x00\x00\x00\x9d\x00\x00\x00\x9e\x00\x00\x00\x9f\x00\x00\x00\xa0\x00\x00\x00\xa1\x00\x00\x00\xa2\x00\x00\x00\xa3\x00\x00\x00\xa4\x00\x00\x00\xa5\x00\x00\x00\xa6\x00\x00\x00\xa7\x00\x00\x00\xa8\x00\x00\x00\xa9\x00\x00\x00\xaa\x00\x00\x00\xab\x00\x00\x00\xac\x00\x00\x00\xad\x00\x00\x00\xae\x00\x00\x00\xaf\x00\x00\x00\xb0\x00\x00\x00\xb1\x00\x00\x00\xb2\x00\x00\x00\xb3\x00\x00\x00\xb4\x00\x00\x00\xb5\x00\x00\x00\xb6\x00\x00\x00\xb7\x00\x00\x00\xb8\x00\x00\x00\xb9\x00\x00\x00\xba\x00\x00\x00\xbb\x00\x00\x00\xbc\x00\x00\x00\xbd\x00\x00\x00\xbe\x00\x00\x00\xbf\x00\x00\x00\xc0\x00\x00\x00\xc1\x00\x00\x00\xc2\x00\x00\x00\xc3\x00\x00\x00\xc4\x00\x00\x00\xc5\x00\x00\x00\xc6\x00\x00\x00\xc7\x00\x00\x00\xc8\x00\x00\x00\xc9\x00\x00\x00\xca\x00\x00\x00\xcb\x00\x00\x00\xcc\x00\x00\x00\xcd\x00\x00\x00\xce\x00\x00\x00\xcf\x00\x00\x00\xd0\x00\x00\x00\xd1\x00\x00\x00\xd2\x00\x00\x00\xd3\x00\x00\x00\xd4\x00\x00\x00\xd5\x00\x00\x00\xd6\x00\x00\x00\xd7\x00\x00\x00\xd8\x00\x00\x00\xd9\x00\x00\x00\xda\x00\x00\x00\xdb\x00\x00\x00\xdc\x00\x00\x00\xdd\x00\x00\x00\xde\x00\x00\x00\xdf\x00\x00\x00\xe0\x00\x00\x00\xe1\x00\x00\x00\xe2\x00\x00\x00\xe3\x00\x00\x00\xe4\x00\x00\x00\xe5\x00\x00\x00\xe6\x00\x00\x00\xe7\x00\x00\x00\xe8\x00\x00\x00\xe9\x00\x00\x00\xea\x00\x00\x00'
p4390
tp4391
bsS'indptr'
p4392
g4378
(g4379
(I0
tp4393
g4381
tp4394
Rp4395
(I1
(I236
tp4396
g4387
I00
S'\x00\x00\x00\x00\x01\x00\x00\x00\x02\x00\x00\x00\x03\x00\x00\x00\x04\x00\x00\x00\x05\x00\x00\x00\x06\x00\x00\x00\x07\x00\x00\x00\x08\x00\x00\x00\t\x00\x00\x00\n\x00\x00\x00\x0b\x00\x00\x00\x0c\x00\x00\x00\r\x00\x00\x00\x0e\x00\x00\x00\x0f\x00\x00\x00\x10\x00\x00\x00\x11\x00\x00\x00\x12\x00\x00\x00\x13\x00\x00\x00\x14\x00\x00\x00\x15\x00\x00\x00\x16\x00\x00\x00\x17\x00\x00\x00\x18\x00\x00\x00\x19\x00\x00\x00\x1a\x00\x00\x00\x1b\x00\x00\x00\x1c\x00\x00\x00\x1d\x00\x00\x00\x1e\x00\x00\x00\x1f\x00\x00\x00 \x00\x00\x00!\x00\x00\x00"\x00\x00\x00#\x00\x00\x00$\x00\x00\x00%\x00\x00\x00&\x00\x00\x00\'\x00\x00\x00(\x00\x00\x00)\x00\x00\x00*\x00\x00\x00+\x00\x00\x00,\x00\x00\x00-\x00\x00\x00.\x00\x00\x00/\x00\x00\x000\x00\x00\x001\x00\x00\x002\x00\x00\x003\x00\x00\x004\x00\x00\x005\x00\x00\x006\x00\x00\x007\x00\x00\x008\x00\x00\x009\x00\x00\x00:\x00\x00\x00;\x00\x00\x00<\x00\x00\x00=\x00\x00\x00>\x00\x00\x00?\x00\x00\x00@\x00\x00\x00A\x00\x00\x00B\x00\x00\x00C\x00\x00\x00D\x00\x00\x00E\x00\x00\x00F\x00\x00\x00G\x00\x00\x00H\x00\x00\x00I\x00\x00\x00J\x00\x00\x00K\x00\x00\x00L\x00\x00\x00M\x00\x00\x00N\x00\x00\x00O\x00\x00\x00P\x00\x00\x00Q\x00\x00\x00R\x00\x00\x00S\x00\x00\x00T\x00\x00\x00U\x00\x00\x00V\x00\x00\x00W\x00\x00\x00X\x00\x00\x00Y\x00\x00\x00Z\x00\x00\x00[\x00\x00\x00\\\x00\x00\x00]\x00\x00\x00^\x00\x00\x00_\x00\x00\x00`\x00\x00\x00a\x00\x00\x00b\x00\x00\x00c\x00\x00\x00d\x00\x00\x00e\x00\x00\x00f\x00\x00\x00g\x00\x00\x00h\x00\x00\x00i\x00\x00\x00j\x00\x00\x00k\x00\x00\x00l\x00\x00\x00m\x00\x00\x00n\x00\x00\x00o\x00\x00\x00p\x00\x00\x00q\x00\x00\x00r\x00\x00\x00s\x00\x00\x00t\x00\x00\x00u\x00\x00\x00v\x00\x00\x00w\x00\x00\x00x\x00\x00\x00y\x00\x00\x00z\x00\x00\x00{\x00\x00\x00|\x00\x00\x00}\x00\x00\x00~\x00\x00\x00\x7f\x00\x00\x00\x80\x00\x00\x00\x81\x00\x00\x00\x82\x00\x00\x00\x83\x00\x00\x00\x84\x00\x00\x00\x85\x00\x00\x00\x86\x00\x00\x00\x87\x00\x00\x00\x88\x00\x00\x00\x89\x00\x00\x00\x8a\x00\x00\x00\x8b\x00\x00\x00\x8c\x00\x00\x00\x8d\x00\x00\x00\x8e\x00\x00\x00\x8f\x00\x00\x00\x90\x00\x00\x00\x91\x00\x00\x00\x92\x00\x00\x00\x93\x00\x00\x00\x94\x00\x00\x00\x95\x00\x00\x00\x96\x00\x00\x00\x97\x00\x00\x00\x98\x00\x00\x00\x99\x00\x00\x00\x9a\x00\x00\x00\x9b\x00\x00\x00\x9c\x00\x00\x00\x9d\x00\x00\x00\x9e\x00\x00\x00\x9f\x00\x00\x00\xa0\x00\x00\x00\xa1\x00\x00\x00\xa2\x00\x00\x00\xa3\x00\x00\x00\xa4\x00\x00\x00\xa5\x00\x00\x00\xa6\x00\x00\x00\xa7\x00\x00\x00\xa8\x00\x00\x00\xa9\x00\x00\x00\xaa\x00\x00\x00\xab\x00\x00\x00\xac\x00\x00\x00\xad\x00\x00\x00\xae\x00\x00\x00\xaf\x00\x00\x00\xb0\x00\x00\x00\xb1\x00\x00\x00\xb2\x00\x00\x00\xb3\x00\x00\x00\xb4\x00\x00\x00\xb5\x00\x00\x00\xb6\x00\x00\x00\xb7\x00\x00\x00\xb8\x00\x00\x00\xb9\x00\x00\x00\xba\x00\x00\x00\xbb\x00\x00\x00\xbc\x00\x00\x00\xbd\x00\x00\x00\xbe\x00\x00\x00\xbf\x00\x00\x00\xc0\x00\x00\x00\xc1\x00\x00\x00\xc2\x00\x00\x00\xc3\x00\x00\x00\xc4\x00\x00\x00\xc5\x00\x00\x00\xc6\x00\x00\x00\xc7\x00\x00\x00\xc8\x00\x00\x00\xc9\x00\x00\x00\xca\x00\x00\x00\xcb\x00\x00\x00\xcc\x00\x00\x00\xcd\x00\x00\x00\xce\x00\x00\x00\xcf\x00\x00\x00\xd0\x00\x00\x00\xd1\x00\x00\x00\xd2\x00\x00\x00\xd3\x00\x00\x00\xd4\x00\x00\x00\xd5\x00\x00\x00\xd6\x00\x00\x00\xd7\x00\x00\x00\xd8\x00\x00\x00\xd9\x00\x00\x00\xda\x00\x00\x00\xdb\x00\x00\x00\xdc\x00\x00\x00\xdd\x00\x00\x00\xde\x00\x00\x00\xdf\x00\x00\x00\xe0\x00\x00\x00\xe1\x00\x00\x00\xe2\x00\x00\x00\xe3\x00\x00\x00\xe4\x00\x00\x00\xe5\x00\x00\x00\xe6\x00\x00\x00\xe7\x00\x00\x00\xe8\x00\x00\x00\xe9\x00\x00\x00\xea\x00\x00\x00\xeb\x00\x00\x00'
p4397
tp4398
bsS'maxprint'
p4399
I50
sS'_shape'
p4400
(I235
I235
tp4401
sg12
g4378
(g4379
(I0
tp4402
g4381
tp4403
Rp4404
(I1
(I235
tp4405
g3404
(S'f8'
p4406
I0
I1
tp4407
Rp4408
(I3
S'<'
p4409
NNNI-1
I-1
I0
tp4410
bI00
S'\x17;\xb8\xa4\xc8\xed\x1e@F\xde\xf0\xe7\x85\xde\x16@v\x1ez\x8d\xfcA\x13@\xbf\xeb\nY\xf4\xea\x19@\xd9\xf3\xd8D\x00(\x1c@\xaf\xe6\xd7(\x1f\x1c\x18@\x17;\xb8\xa4\xc8\xed\x1e@\xa8\xecN\xe0)\xf7\x13@\x81\xe1\xb5\xa1\xad&\x13@\x17;\xb8\xa4\xc8\xed\x1e@\x11\x02\x1f\x07_,\x10@\xdd\xd9)!\x07\x01\x0b@4X\x19i\x8e\x90\x12@^e\x1a\x85o\x9c\x16@\xbf\xeb\nY\xf4\xea\x19@\x17;\xb8\xa4\xc8\xed\x1e@\x93A\xece\x96N\x1d@\xcb\xd7\xbc&\xb8}\x18@\x17;\xb8\xa4\xc8\xed\x1e@\x93A\xece\x96N\x1d@\x93A\xece\x96N\x1d@\x17;\xb8\xa4\xc8\xed\x1e@\x17;\xb8\xa4\xc8\xed\x1e@F\x83\xb0\x9et;\x14@\xd9\xf3\xd8D\x00(\x1c@U\xfa\x0c\x06\xce\x88\x1a@\x17;\xb8\xa4\xc8\xed\x1e@\xf4u\xb0\xf3-\x05\x0e@\t\xec\xcb\xb2\x19]\n@\x17;\xb8\xa4\xc8\xed\x1e@\x17;\xb8\xa4\xc8\xed\x1e@\x98\x08\x05\xf6\xab\xfa\x06@\x17;\xb8\xa4\xc8\xed\x1e@\xd9kNF=\xfd\x14@q\x9f\xf8\xc8VV\x15@\xd0\x00A\xc7\x9b\xe9\x18@\xd0\x00A\xc7\x9b\xe9\x18@\x08\x1f\x9c\x86\x80C\x1b@\x17;\xb8\xa4\xc8\xed\x1e@\x06\x16m9\x9b\x99\x11@\x8b\xac\xcc\xd2\x85g\x0f@v\x1ez\x8d\xfcA\x13@oRu\xd1"\x8a\x10@\x17;\xb8\xa4\xc8\xed\x1e@Z\xfb\xba\xc3\x92\x98\x13@\x17;\xb8\xa4\xc8\xed\x1e@\x17;\xb8\xa4\xc8\xed\x1e@\x93A\xece\x96N\x1d@\x93A\xece\x96N\x1d@\xaf\xe6\xd7(\x1f\x1c\x18@\x17;\xb8\xa4\xc8\xed\x1e@\x17;\xb8\xa4\xc8\xed\x1e@\xe5M\xb5\x8f\xd2\x8d\t@\x17;\xb8\xa4\xc8\xed\x1e@\x17;\xb8\xa4\xc8\xed\x1e@C\x9a\xd6A\xe5`\x10@F\xde\xf0\xe7\x85\xde\x16@v\x1ez\x8d\xfcA\x13@\x93A\xece\x96N\x1d@\x17;\xb8\xa4\xc8\xed\x1e@\x93A\xece\x96N\x1d@\x93A\xece\x96N\x1d@\x17;\xb8\xa4\xc8\xed\x1e@\xf2?jA\xc8\x96\x0b@@\x85b\x18(\x8e\n@\x08\x1f\x9c\x86\x80C\x1b@\x17;\xb8\xa4\xc8\xed\x1e@\x17;\xb8\xa4\xc8\xed\x1e@\x17;\xb8\xa4\xc8\xed\x1e@\x17;\xb8\xa4\xc8\xed\x1e@\xfd\xaa_\xba\xf9\x85\x15@-\xbc\xfe\xee\x0eq\x17@\xd0\x00A\xc7\x9b\xe9\x18@#c\xae\xd1 \xf2\r@\xfd\xaa_\xba\xf9\x85\x15@\xa8\xecN\xe0)\xf7\x13@\xd0\x00A\xc7\x9b\xe9\x18@\x08\x97\x11\x88\xbd\x18\x14@\x17;\xb8\xa4\xc8\xed\x1e@\xd9\xf3\xd8D\x00(\x1c@C\x9a\xd6A\xe5`\x10@\x17;\xb8\xa4\xc8\xed\x1e@\xcb\xd7\xbc&\xb8}\x18@h\xbb\x9d\xdd\x03\xba\r@\xbc\xbb\xa0\x08p\xd3\x14@\x08\x1f\x9c\x86\x80C\x1b@\xd9\xf3\xd8D\x00(\x1c@\xb1-@/~\xe5\x11@\x17;\xb8\xa4\xc8\xed\x1e@\x93A\xece\x96N\x1d@\x17;\xb8\xa4\xc8\xed\x1e@\x93A\xece\x96N\x1d@\xcd\x019\xfb\xcc\xef\x08@\x92\xb9ag\xd3#\x16@\x93A\xece\x96N\x1d@\x9c\xac\xf9\xe47b\x19@\xd0\x00A\xc7\x9b\xe9\x18@-\xbc\xfe\xee\x0eq\x17@\xd6\x01\xef\x84`\xf9\x11@\x17;\xb8\xa4\xc8\xed\x1e@\xb7\x12\xa7\xc42\x0e\x0b@\x1e\x8a[3\xa1\xc4\x0f@\x17;\xb8\xa4\xc8\xed\x1e@\x08\x1f\x9c\x86\x80C\x1b@\xd9\xf3\xd8D\x00(\x1c@\x17;\xb8\xa4\xc8\xed\x1e@\x9d\xc8&a\x99\xc1\x0b@\x17;\xb8\xa4\xc8\xed\x1e@.K\xe4\x86\xe4P\x0f@\xeft\x1f\x8fF\xab\x14@-\xbc\xfe\xee\x0eq\x17@U\xfa\x0c\x06\xce\x88\x1a@\x17;\xb8\xa4\xc8\xed\x1e@\xa8\xecN\xe0)\xf7\x13@\xeft\x1f\x8fF\xab\x14@U\xfa\x0c\x06\xce\x88\x1a@\xbf\xeb\nY\xf4\xea\x19@\x90\x9d\x1b\xb3\xa5\xa7\r@\xfa\t\xcf\xec\x03M\x12@\x17;\xb8\xa4\xc8\xed\x1e@.,\xd0a\xde\xd8\x12@\x17;\xb8\xa4\xc8\xed\x1e@\x08\x97\x11\x88\xbd\x18\x14@\x08\x97\x11\x88\xbd\x18\x14@\x93A\xece\x96N\x1d@\x08\x1f\x9c\x86\x80C\x1b@j>\x03\xdf\xda\xb3\x08@\x93A\xece\x96N\x1d@\xa2\xfb\x9cs\x109\n@oRu\xd1"\x8a\x10@\x8d\x90\xdd\xc6\xef\xb7\x15@v\x1ez\x8d\xfcA\x13@\x93A\xece\x96N\x1d@\x17;\xb8\xa4\xc8\xed\x1e@\xd0\x00A\xc7\x9b\xe9\x18@\x93A\xece\x96N\x1d@\x81\xe1\xb5\xa1\xad&\x13@\x93A\xece\x96N\x1d@z\x91\xb8\xdbF\xe1\x05@T\xca\x02\xd7S\xa4\x0e@\x93A\xece\x96N\x1d@\x17;\xb8\xa4\xc8\xed\x1e@\x17;\xb8\xa4\xc8\xed\x1e@\x98B\x9a#[^\x16@\x82\xa4+\xf9+%\x17@\x93A\xece\x96N\x1d@\x0f\xc1\xb4\x86\x93\xbc\x00@\x93A\xece\x96N\x1d@\x93A\xece\x96N\x1d@\x17;\xb8\xa4\xc8\xed\x1e@\xbf\xeb\nY\xf4\xea\x19@\x17;\xb8\xa4\xc8\xed\x1e@\x17;\xb8\xa4\xc8\xed\x1e@\x08\x1f\x9c\x86\x80C\x1b@\x08\x1f\x9c\x86\x80C\x1b@\x17;\xb8\xa4\xc8\xed\x1e@\x93A\xece\x96N\x1d@\x17;\xb8\xa4\xc8\xed\x1e@\x93A\xece\x96N\x1d@\x93A\xece\x96N\x1d@\xd0\x00A\xc7\x9b\xe9\x18@\xd0\x00A\xc7\x9b\xe9\x18@\xaf\xe6\xd7(\x1f\x1c\x18@^e\x1a\x85o\x9c\x16@\x17;\xb8\xa4\xc8\xed\x1e@\x17;\xb8\xa4\xc8\xed\x1e@\xcb\xd7\xbc&\xb8}\x18@U\xfa\x0c\x06\xce\x88\x1a@\x17;\xb8\xa4\xc8\xed\x1e@\x17;\xb8\xa4\xc8\xed\x1e@\x08\x97\x11\x88\xbd\x18\x14@v\x1ez\x8d\xfcA\x13@F\xde\xf0\xe7\x85\xde\x16@q\x9f\xf8\xc8VV\x15@\xd9\xf3\xd8D\x00(\x1c@U\xfa\x0c\x06\xce\x88\x1a@\xd9\xf3\xd8D\x00(\x1c@\x17;\xb8\xa4\xc8\xed\x1e@v\x1ez\x8d\xfcA\x13@\x98B\x9a#[^\x16@\x17;\xb8\xa4\xc8\xed\x1e@U\xfa\x0c\x06\xce\x88\x1a@\x93A\xece\x96N\x1d@\xd0\x00A\xc7\x9b\xe9\x18@\x93A\xece\x96N\x1d@Tr\x82\x07\x0b^\x13@\xfd\xaa_\xba\xf9\x85\x15@\x06\x16m9\x9b\x99\x11@\x17;\xb8\xa4\xc8\xed\x1e@\xeft\x1f\x8fF\xab\x14@\x17;\xb8\xa4\xc8\xed\x1e@\x17\xb3-\xa6\x05\xc3\x17@\x08\x97\x11\x88\xbd\x18\x14@\x93A\xece\x96N\x1d@\x17;\xb8\xa4\xc8\xed\x1e@\x17\xb3-\xa6\x05\xc3\x17@\xfd\xaa_\xba\xf9\x85\x15@f\x01\x16\xa5\xd8\xc3\x06@\xe0X\x03q\xfe\x00\x11@\x17;\xb8\xa4\xc8\xed\x1e@\x90\x9d\x1b\xb3\xa5\xa7\r@\x08\x97\x11\x88\xbd\x18\x14@\xbfc\x80Z1\xc0\x12@\xce(\xa6\x1d\xbaz\x0b@\xf4u\xb0\xf3-\x05\x0e@\x08\x1f\x9c\x86\x80C\x1b@ \x1e;%\xa7\xd6\x13@\x17;\xb8\xa4\xc8\xed\x1e@\x17;\xb8\xa4\xc8\xed\x1e@\x08\x97\x11\x88\xbd\x18\x14@\xbf\xeb\nY\xf4\xea\x19@\x93A\xece\x96N\x1d@\xbf\xeb\nY\xf4\xea\x19@9\xd7\x9a-4|\x10@\x08\x1f\x9c\x86\x80C\x1b@\x81\xe1\xb5\xa1\xad&\x13@\x17;\xb8\xa4\xc8\xed\x1e@\xeft\x1f\x8fF\xab\x14@\xbf\xeb\nY\xf4\xea\x19@\x17;\xb8\xa4\xc8\xed\x1e@\xfd\xaa_\xba\xf9\x85\x15@\x08\x97\x11\x88\xbd\x18\x14@\xd4\x9d4w\xac\x06\x10@f\xa0\x1d\xd5\x96\xcb\x06@\x93A\xece\x96N\x1d@\x93A\xece\x96N\x1d@b\x83\xdc\xaa\x0e\xac\x11@\xbfc\x80Z1\xc0\x12@\x93A\xece\x96N\x1d@M\x0c\x8d\xf9\x18\xa8\x12@\x93A\xece\x96N\x1d@\xca\xf3\xf9%>\x84\x04@\xbf\xeb\nY\xf4\xea\x19@\x08\x1f\x9c\x86\x80C\x1b@\x08\x1f\x9c\x86\x80C\x1b@'
p4411
tp4412
bsbsS'use_idf'
p4413
I01
sS'sublinear_tf'
p4414
I00
sS'norm'
p4415
Vl2
p4416
sbtp4417
a(S'clsfr'
p4418
g3371
(csklearn.linear_model.stochastic_gradient
SGDClassifier
p4419
g3373
Ntp4420
Rp4421
(dp4422
S't_'
p4423
F8386.0
sS'n_jobs'
p4424
I1
sS'shuffle'
p4425
I01
sS'verbose'
p4426
I0
sS'classes_'
p4427
g4378
(g4379
(I0
tp4428
g4381
tp4429
Rp4430
(I1
(I2
tp4431
g3404
(S'S5'
p4432
I0
I1
tp4433
Rp4434
(I3
S'|'
p4435
NNNI5
I1
I0
tp4436
bI00
S'FalseTrue\x00'
p4437
tp4438
bsS'class_weight'
p4439
NsS'fit_intercept'
p4440
I01
sg8
g9
sS'random_state'
p4441
I233
sg3377
g3378
sS'loss_function'
p4442
csklearn.linear_model.sgd_fast
Hinge
p4443
(F1.0
tp4444
Rp4445
sS'C'
p4446
F1.0
sg7
I5
sS'epsilon'
p4447
F0.1
sS'learning_rate'
p4448
S'optimal'
p4449
sS'coef_'
p4450
g4378
(g4379
(I0
tp4451
g4381
tp4452
Rp4453
(I1
(I1
I235
tp4454
g4408
I00
S'\xeb\xae\xf8\xde@\xc1\xfc\xbf\x00\x00\x00\x00\x00\x00\x00\x00,\xe8\xdb\xbb\x8fU\x06@\x08G7\xaa\x1b_\x07\xc0_\xf9j|Qg\x07\xc0P\xfar\x9d]\x91\x02\xc0\x00\x00\x00\x00\x00\x00\x00\x00D\x1a\x7f\xc3\xad\x16\x0b\xc0kbi\xa3Fd\x04@E\x91\xc3\xd0\xb5\x7f\xd7\xbf3\xcew`\xc0=\xf3\xbf\x8er10~\xf4\xfe\xbf\x9e\xbd\x9f\x9a\x0f\x16\xf6\xbf\x00\x00\x00\x00\x00\x00\x00\x00\x00\x00\x00\x00\x00\x00\x00\x00\xeb\xae\xf8\xde@\xc1\xfc\xbf\x8d\xc0\xeew\x80\x93\xec\xbf*\x94\x07$\x0b\xb1\x0c\xc0\x00\x00\x00\x00\x00\x00\x00\x00\x00\x00\x00\x00\x00\x00\x00\x00\x00\x00\x00\x00\x00\x00\x00\x00\x00\x00\x00\x00\x00\x00\x00\x00\x00\x00\x00\x00\x00\x00\x00\x00\xcad\xe0\x17\x97 \xec\xbf\x00\x00\x00\x00\x00\x00\x00\x00\xee\xa1\x8f\xf5\xa4\x14\xfb\xbf\x00\x00\x00\x00\x00\x00\x00\x00\x05|@L\xdc{\x03\xc0\xb8E\x91\x17\xed\xb3\xca\xbf\x00\x00\x00\x00\x00\x00\x00\x00\x00\x00\x00\x00\x00\x00\x00\x00\xf2\xf3"zV\xb9\x05\xc0\x00\x00\x00\x00\x00\x00\x00\x00\x1b^\xff\xd1-\x80\x00\xc0\x00\x00\x00\x00\x00\x00\x00\x00\x00\x00\x00\x00\x00\x00\x00\x00\x00\x00\x00\x00\x00\x00\x00\x00\x00\x00\x00\x00\x00\x00\x00\x00\x00\x00\x00\x00\x00\x00\x00\x00\x00\x00\x00\x00\x00\x00\x00\x00PJ\xc3\xc9\xc7\xce\xf1?\xc0\x93U\x9cSV\x08@\x88\xdc\xbf#M\xef\x02\xc0\x00\x00\x00\x00\x00\x00\x00\x00\x00\x00\x00\x00\x00\x00\x00\x00\x00\x00\x00\x00\x00\x00\x00\x00\x00\x00\x00\x00\x00\x00\x00\x00\x00\x00\x00\x00\x00\x00\x00\x00\x00\x00\x00\x00\x00\x00\x00\x00\x00\x00\x00\x00\x00\x00\x00\x00\xeb\xae\xf8\xde@\xc1\xfc\xbfE\x91\xc3\xd0\xb5\x7f\xd7\xbf\x15\x88<\xb7\xf9J\xfd\xbf\x00\x00\x00\x00\x00\x00\x00\x00\xc1\xe7Dh\x04\xe9\xf6\xbfV+\xf7\xc4^\xc6\x02\xc0\x00\x00\x00\x00\x00\x00\x00\x00\x12\n\x17;\x88\x8f\x06\xc0\x00\x00\x00\x00\x00\x00\x00\x00E\x91\xc3\xd0\xb5\x7f\xd7\xbf\x00\x00\x00\x00\x00\x00\x00\x00\x00\x00\x00\x00\x00\x00\x00\x00\x9cL+-\xf5m\xf9\xbf\xbfOH\xcf\xc0\x98\x1c@)m\xd5\x18\xb0\x97\xef\xbf\x03\x15^\x1bt\xdc\n\xc0\x00\x00\x00\x00\x00\x00\x00\x00\x00\x00\x00\x00\x00\x00\x00\x00\x00\x00\x00\x00\x00\x00\x00\x00\x00\x00\x00\x00\x00\x00\x00\x00\x00\x00\x00\x00\x00\x00\x00\x00\xb5\xee\x01\x10\x01\xf7\x00\xc0\x00\x00\x00\x00\x00\x00\x00\x00\x00\x00\x00\x00\x00\x00\x00\x00\xbc\x0e\xbe\x188\xb4\xec\xbfD\x1a\x7f\xc3\xad\x16\x0b\xc0\x00\x00\x00\x00\x00\x00\x00\x00\x00\x00\x00\x00\x00\x00\x00\x00\x00\x00\x00\x00\x00\x00\x00\x00\x00\x00\x00\x00\x00\x00\x00\x00\xecq\x87\x00R\x9c\xf7\xbf\x00\x00\x00\x00\x00\x00\x00\x00\x00\x00\x00\x00\x00\x00\x00\x00\xf4\x8b\x96\xae\n^\x05\xc0\xfe\x00\xa3\x80\xa7\xc7\x02\xc0\x00\x00\x00\x00\x00\x00\x00\x00\n\r\xfd\xe4!\xaf\x05\xc0$9\xb0\xc3\xfd:\x07\xc0\x00\x00\x00\x00\x00\x00\x00\x00\x00\x00\x00\x00\x00\x00\x00\x00\xeb\xae\xf8\xde@\xc1\xfc\xbf\x00\x00\x00\x00\x00\x00\x00\x00\x9a"oA\xd5\x95\xfc\xbf\xa9\xd8\xb1u\xd7\x05\x00\xc0\x00\x00\x00\x00\x00\x00\x00\x00\x00\x00\x00\x00\x00\x00\x00\x00\x00\x00\x00\x00\x00\x00\x00\x00\x00\x00\x00\x00\x00\x00\x00\x00\x00\x00\x00\x00\x00\x00\x00\x00\x00\x00\x00\x00\x00\x00\x00\x00\x839\x8e~\x84r\x03\xc0h\x0c\xdc9=\x1b\x04\xc0\x00\x00\x00\x00\x00\x00\x00\x00\x00\x00\x00\x00\x00\x00\x00\x00\xe0\xcbw*\xfa:\x02\xc0:\xafW\xa7U\xce\xe9\xbf\xbb\xf1\x89Qx\xf3\x03\xc0\x00\x00\x00\x00\x00\x00\x00\x00\x00\x00\x00\x00\x00\x00\x00\x00\x05\xb4l\xc4\x87\xa9\x07\xc0\x00\x00\x00\x00\x00\x00\x00\x00\x00\x00\x00\x00\x00\x00\x00\x00\xc1\xe7Dh\x04\xe9\xf6\xbf\x00\x00\x00\x00\x00\x00\x00\x00\x05\xfa\x88\xdb\xad]\xf8\xbf\x00\x00\x00\x00\x00\x00\x00\x00\x00\x00\x00\x00\x00\x00\x00\x00tT\xdb\x01\x9d\x93\xf1\xbf||\\\xd9\xe1\x85\xf0?\x00\x00\x00\x00\x00\x00\x00\x00\x85\xffn\xa1\xd97\xf6\xbf\x00\x00\x00\x00\x00\x00\x00\x00\x00\x00\x00\x00\x00\x00\x00\x00\x00\x00\x00\x00\x00\x00\x00\x00\x00\x00\x00\x00\x00\x00\x00\x00\xee~\x05\x16\xfeG\t\xc0j\x8d0\x16\\\xf7\xe6\xbf\x00\x00\x00\x00\x00\x00\x00\x00\xf4\x8f\xcf\x03\xd7\xe4\xdd?\xbcTmb\xc5\xd7\xf7\xbf\x11h\x1f3/\xb5\x11\xc0\x00\x00\x00\x00\x00\x00\x00\x00\x1c"v\xf0\x00\x92\x06\xc0\x00\x00\x00\x00\x00\x00\x00\x00\x00\x00\x00\x00\x00\x00\x00\x00\x00\x00\x00\x00\x00\x00\x00\x00\x93\x1d\x17\x13\xb0a\n\xc0\x00\x00\x00\x00\x00\x00\x00\x00b\xcb\x02\xe0\xb7f\xfc\xbf\xa0\xb4\xe3\xec\xc4d\x03\xc0\x00\x00\x00\x00\x00\x00\x00\x00\x00\x00\x00\x00\x00\x00\x00\x00\x00\x00\x00\x00\x00\x00\x00\x00\x00\x00\x00\x00\x00\x00\x00\x00/\xd7\x9bR~_\x06\xc0\x00\x00\x00\x00\x00\x00\x00\x00\xae\xc1\xe0M\x98)\n\xc0\x00\x00\x00\x00\x00\x00\x00\x00\x00\x00\x00\x00\x00\x00\x00\x00\x00\x00\x00\x00\x00\x00\x00\x00\xf8Y}\x97\x98\r\t\xc0\x00\x00\x00\x00\x00\x00\x00\x00\x00\x00\x00\x00\x00\x00\x00\x00\x00\x00\x00\x00\x00\x00\x00\x00\x00\x00\x00\x00\x00\x00\x00\x00E\x91\xc3\xd0\xb5\x7f\xd7\xbf\x8d\xc0\xeew\x80\x93\xec\xbf\x00\x00\x00\x00\x00\x00\x00\x00#\x88\xf8\xee\xbaF\xea\xbf\x00\x00\x00\x00\x00\x00\x00\x00\x00\x00\x00\x00\x00\x00\x00\x00\x00\x00\x00\x00\x00\x00\x00\x00\x00\x00\x00\x00\x00\x00\x00\x00d\xd10\xf9\xbdK\xf4\xbf\x00\x00\x00\x00\x00\x00\x00\x00:\xafW\xa7U\xce\xe9\xbf\x00\x00\x00\x00\x00\x00\x00\x00\x00\x00\x00\x00\x00\x00\x00\x00\x00\x00\x00\x00\x00\x00\x00\x00\x00\x00\x00\x00\x00\x00\x00\x00\xb7\xd5\xeb\xd9\x1c\x16\n\xc0z\x9f\x9c*\xcfz\x08@\x1c&Wn\xab\xf5\xfa\xbfz`\xd9\x810\r\xf3\xbf\x00\x00\x00\x00\x00\x00\x00\x00:\xc2\t\x03\xc6G\xff\xbf\x00\x00\x00\x00\x00\x00\x00\x00\x00\x00\x00\x00\x00\x00\x00\x00W/,lN\x87\n\xc0X\xb3\x1e\x93-d\xf2\xbf\x00\x00\x00\x00\x00\x00\x00\x00\x00\x00\x00\x00\x00\x00\x00\x00\x00\x00\x00\x00\x00\x00\x00\x00\x00\x00\x00\x00\x00\x00\x00\x00\x00\x00\x00\x00\x00\x00\x00\x00\xf8^\x14l\xa1\xb8\x02\xc0\x00\x00\x00\x00\x00\x00\x00\x00\x99\xd1\xd8\xc8I\x03\x01\xc0\x00\x00\x00\x00\x00\x00\x00\x00\xaa\xe5\xed|\x0b\xbc\xec\xbf\x00\x00\x00\x00\x00\x00\x00\x000js\xf0W\xae\x04\xc0\x00\x00\x00\x00\x00\x00\x00\x00\x00\x00\x00\x00\x00\x00\x00\x00\x00\x00\x00\x00\x00\x00\x00\x00\x00\x00\x00\x00\x00\x00\x00\x00\xdc >1\xa1\x86\x02\xc0\xc3\x90\x12+\x93\x89\x10\xc033\xf2\xcb\xb4:\xf4\xbfE\x91\xc3\xd0\xb5\x7f\xd7\xbf\x10\xabF\xb8.I\x01\xc0\x00\x00\x00\x00\x00\x00\x00\x00j\xf7\x17\'\xb0\xd4\xf0\xbf;\xd1\xb9\x9c=\xd9\x07\xc0\x1e\xa0\xd6\x88\xf5y\x08\xc0\x00\x00\x00\x00\x00\x00\x00\x00\x87\xa6\x8c\xac\xb9\xbd\x06\xc0\x00\x00\x00\x00\x00\x00\x00\x00\x00\x00\x00\x00\x00\x00\x00\x00\x00\x00\x00\x00\x00\x00\x00\x00\x00\x00\x00\x00\x00\x00\x00\x00\x00\x00\x00\x00\x00\x00\x00\x00\x00\x00\x00\x00\x00\x00\x00\x00RQ\xf8\x9a\x03P\x03\xc0\'\x94J\x02v\x06\xec\xbf\x00\x00\x00\x00\x00\x00\x00\x00\x00\x00\x00\x00\x00\x00\x00\x00\x00\x00\x00\x00\x00\x00\x00\x00\x00\x00\x00\x00\x00\x00\x00\x00\x00\x00\x00\x00\x00\x00\x00\x00\xa61\x17\xbd\x8b\x17\t\xc0\x00\x00\x00\x00\x00\x00\x00\x00\xb6\xadZ\xc2\xe8\xae\x02\xc0S1c\xd1\x97b\x00\xc0\x00\x00\x00\x00\x00\x00\x00\x00\x00\x00\x00\x00\x00\x00\x00\x00\x00\x00\x00\x00\x00\x00\x00\x00\x19\x89^\xdbTw\x05\xc0\x00\x00\x00\x00\x00\x00\x00\x00\x0b4\xb6\xfe\xb2\x9d\x07\xc0\x00\x00\x00\x00\x00\x00\x00\x00\xf2\xd7\\\xb0 \xef\xf0\xbf\x00\x00\x00\x00\x00\x00\x00\x00\x00\x00\x00\x00\x00\x00\x00\x00\x00\x00\x00\x00\x00\x00\x00\x00'
p4455
tp4456
bsg11
F0.001
sS'intercept_'
p4457
g4378
(g4379
(I0
tp4458
g4381
tp4459
Rp4460
(I1
(I1
tp4461
g4408
I00
S'\xa5\xaa\xaf\x96\xea\x19\xf0\xbf'
p4462
tp4463
bsS'_expanded_class_weight'
p4464
g4378
(g4379
(I0
tp4465
g4381
tp4466
Rp4467
(I1
(I2
tp4468
g4408
I00
S'\x00\x00\x00\x00\x00\x00\xf0?\x00\x00\x00\x00\x00\x00\xf0?'
p4469
tp4470
bsS'warm_start'
p4471
I00
sg2
g3
sS'eta0'
p4472
F0.0
sS'l1_ratio'
p4473
F0.15
sS'average'
p4474
I00
sS'power_t'
p4475
F0.5
sbtp4476
asbsb.