(ialicized_models
CommandMatchingModel
p0
(dp1
S'loss'
p2
S'hinge'
p3
sS'grammar'
p4
NsS'name'
p5
S'GOOGLE_MAIL_LIST_MAIL.model'
p6
sS'n_iter'
p7
I5
sS'penalty'
p8
S'none'
p9
sS'trained'
p10
I01
sS'alpha'
p11
F0.001
sS'data'
p12
(lp13
(S'get live news feed'
p14
S'False'
p15
tp16
a(S'start browser please'
p17
g15
tp18
a(S'please pause the song'
p19
g15
tp20
a(S'spotify pause'
p21
g15
tp22
a(S'please check your watch'
p23
g15
tp24
a(S'any events on this day'
p25
g15
tp26
a(S'gimme the news'
p27
g15
tp28
a(S"please what's in my mail"
p29
S'True'
p30
tp31
a(S'what do i have on saturday'
p32
g15
tp33
a(S'please shut down my computer'
p34
g15
tp35
a(S'get the clock please'
p36
g15
tp37
a(S'please kill current window'
p38
g15
tp39
a(S'what events are on monday'
p40
g15
tp41
a(S"aren't there any events on thursday"
p42
g15
tp43
a(S'turn up the volume'
p44
g15
tp45
a(S'what do i have to do on wednesday'
p46
g15
tp47
a(S'please will you open my inbox'
p48
g30
tp49
a(S'put me on the lock screen'
p50
g15
tp51
a(S'please open mail'
p52
g30
tp53
a(S'mute please'
p54
g15
tp55
a(S'live news feed'
p56
g15
tp57
a(S'could you create new event'
p58
g15
tp59
a(S'can you please kill the current window'
p60
g15
tp61
a(S'will you check new gmail please'
p62
g30
tp63
a(S'turn off my computer please'
p64
g15
tp65
a(S'get clock please'
p66
g15
tp67
a(S'can you turn off the computer'
p68
g15
tp69
a(S'okay alice'
p70
g15
tp71
a(S'spotify stop the song'
p72
g15
tp73
a(S'send me to the lock screen please'
p74
g15
tp75
a(S'what events do i have on wednesday'
p76
g15
tp77
a(S'forecast'
p78
g15
tp79
a(S'kill the program'
p80
g15
tp81
a(S'check calendar for this day'
p82
g15
tp83
a(S'can you schedule a new event'
p84
g15
tp85
a(S"don't i have anything in a week"
p86
g15
tp87
a(S'could you check my gmail'
p88
g30
tp89
a(S'turn up the volume'
p90
g15
tp91
a(S'can you please shut my computer down'
p92
g15
tp93
a(S'what is new in new gmail'
p94
g30
tp95
a(S'am i free for a week'
p96
g15
tp97
a(S'is there anything i have to do on sunday'
p98
g15
tp99
a(S"don't i have anything to do on friday"
p100
g15
tp101
a(S'is there anything to do on sunday'
p102
g15
tp103
a(S'check what time it is'
p104
g15
tp105
a(S'read the clock'
p106
g15
tp107
a(S'do i have anything to do on thursday'
p108
g15
tp109
a(S'debrief me'
p110
g15
tp111
a(S"get if it's hot this week"
p112
g15
tp113
a(S'can you please shut down the computer'
p114
g15
tp115
a(S'do i have to do anything today'
p116
g15
tp117
a(S'is there anything to do on wednesday'
p118
g15
tp119
a(S'any gmail'
p120
g30
tp121
a(S'can you turn the tune down'
p122
g15
tp123
a(S'open dot com'
p124
g15
tp125
a(S'search google for'
p126
g15
tp127
a(S'will you check inbox'
p128
g30
tp129
a(S'please open my inbox'
p130
g30
tp131
a(S"don't i have any events on wednesday"
p132
g15
tp133
a(S'are there any events in a month'
p134
g15
tp135
a(S"what's in my inbox please"
p136
g30
tp137
a(S'please turn off the computer'
p138
g15
tp139
a(S'make a new event please'
p140
g15
tp141
a(S"aren't there any events in a month"
p142
g15
tp143
a(S'please will you open my gmail'
p144
g30
tp145
a(S'please would you open inbox'
p146
g30
tp147
a(S'check google calendar for tomorrow'
p148
g15
tp149
a(S'check calendar on thursday'
p150
g15
tp151
a(S'do i have anything on monday'
p152
g15
tp153
a(S'find the news'
p154
g15
tp155
a(S'can you please shut up'
p156
g15
tp157
a(S'what events do i have on thursday'
p158
g15
tp159
a(S'can you check my mail'
p160
g30
tp161
a(S'check events for this week'
p162
g15
tp163
a(S'am i free for'
p164
g15
tp165
a(S"get if it's raining today"
p166
g15
tp167
a(S'time please'
p168
g15
tp169
a(S'open gmail'
p170
g30
tp171
a(S"what's new in my gmail"
p172
g30
tp173
a(S'what events are on wednesday'
p174
g15
tp175
a(S'turn the beat down'
p176
g15
tp177
a(S'anything new in my inbox'
p178
g30
tp179
a(S'check google calendar for next'
p180
g15
tp181
a(S'please what is new in new gmail'
p182
g30
tp183
a(S'anything in inbox'
p184
g30
tp185
a(S'check google calendar on month'
p186
g15
tp187
a(S'please create a new event'
p188
g15
tp189
a(S'what do i have to do on sunday'
p190
g15
tp191
a(S'good bye'
p192
g15
tp193
a(S'could you please add event'
p194
g15
tp195
a(S'search google please for'
p196
g15
tp197
a(S"what's in gmail please"
p198
g30
tp199
a(S"what's new in inbox please"
p200
g30
tp201
a(S'check events on tomorrow'
p202
g15
tp203
a(S'please get the time'
p204
g15
tp205
a(S'please would you check mail'
p206
g30
tp207
a(S"don't i have any events on friday"
p208
g15
tp209
a(S'can you make new event'
p210
g15
tp211
a(S'turn up the sound'
p212
g15
tp213
a(S'can you please add an event'
p214
g15
tp215
a(S'could you add new event please'
p216
g15
tp217
a(S'check google calendar on sunday'
p218
g15
tp219
a(S'stop song please'
p220
g15
tp221
a(S'what is in new mail please'
p222
g30
tp223
a(S'lock the screen'
p224
g15
tp225
a(S'add an event please'
p226
g15
tp227
a(S'make the volume lower'
p228
g15
tp229
a(S"what's in new gmail"
p230
g30
tp231
a(S'please pause song'
p232
g15
tp233
a(S'can you send me to the lock screen'
p234
g15
tp235
a(S'start browser'
p236
g15
tp237
a(S'what events do i have on'
p238
g15
tp239
a(S"this week's temperature"
p240
g15
tp241
a(S'could you open inbox'
p242
g30
tp243
a(S"don't i have to do anything in a week"
p244
g15
tp245
a(S'anything new in inbox'
p246
g30
tp247
a(S'what is new in mail'
p248
g30
tp249
a(S'get headlines'
p250
g15
tp251
a(S'can you lock computer please'
p252
g15
tp253
a(S"what's new in gmail please"
p254
g30
tp255
a(S"today's forecast"
p256
g15
tp257
a(S"if it's freezing today"
p258
g15
tp259
a(S"please what's new in mail"
p260
g30
tp261
a(S'can you add a new event'
p262
g15
tp263
a(S"what's if it's raining today"
p264
g15
tp265
a(S'make an event'
p266
g15
tp267
a(S"how's the temperature"
p268
g15
tp269
a(S'do i have anything on saturday'
p270
g15
tp271
a(S'could you check mail'
p272
g30
tp273
a(S'what is in my gmail'
p274
g30
tp275
a(S'find live news'
p276
g15
tp277
a(S'check events for'
p278
g15
tp279
a(S'is there anything to do on thursday'
p280
g15
tp281
a(S'please will you check new mail'
p282
g30
tp283
a(S'what is on my calendar for friday'
p284
g15
tp285
a(S'please create an event'
p286
g15
tp287
a(S"don't i have to do anything on sunday"
p288
g15
tp289
a(S'please would you check my gmail'
p290
g30
tp291
a(S'please kill active window'
p292
g15
tp293
a(S"don't i have any events"
p294
g15
tp295
a(S'check events for sunday'
p296
g15
tp297
a(S'could you add a new event'
p298
g15
tp299
a(S'schedule event'
p300
g15
tp301
a(S'will you check mail'
p302
g30
tp303
a(S'sweet dreams alice'
p304
g15
tp305
a(S'open'
p306
g15
tp307
a(S'headlines'
p308
g15
tp309
a(S'live news today'
p310
g15
tp311
a(S'do i have to do anything to do'
p312
g15
tp313
a(S'set the volume zero'
p314
g15
tp315
a(S'what do i have to do on thursday'
p316
g15
tp317
a(S'check events on wednesday'
p318
g15
tp319
a(S'would you check new gmail please'
p320
g30
tp321
a(S'see ya'
p322
g15
tp323
a(S'please could you check my mail'
p324
g30
tp325
a(S'lower the tunes please'
p326
g15
tp327
a(S'please retrieve the current time'
p328
g15
tp329
a(S"don't i have to do anything on thursday"
p330
g15
tp331
a(S"today's news"
p332
g15
tp333
a(S'do i have any events on friday'
p334
g15
tp335
a(S'can you please schedule event'
p336
g15
tp337
a(S'please will you check my gmail'
p338
g30
tp339
a(S"what's the temperature"
p340
g15
tp341
a(S'do i have anything tomorrow'
p342
g15
tp343
a(S'would you open my mail'
p344
g30
tp345
a(S"don't i have anything to do on thursday"
p346
g15
tp347
a(S'get news now'
p348
g15
tp349
a(S'will you check my mail'
p350
g30
tp351
a(S'google search please for'
p352
g15
tp353
a(S'turn up the tunez'
p354
g15
tp355
a(S'am i free on wednesday'
p356
g15
tp357
a(S'can you please schedule a new event'
p358
g15
tp359
a(S'please spotify previous'
p360
g15
tp361
a(S'are there any events on thursday'
p362
g15
tp363
a(S"what's in inbox please"
p364
g30
tp365
a(S'can you please create new event'
p366
g15
tp367
a(S'would you check my mail please'
p368
g30
tp369
a(S'turn up the sound'
p370
g15
tp371
a(S'what do i have to do on tuesday'
p372
g15
tp373
a(S'lock the screen please'
p374
g15
tp375
a(S'tell me newsfeed'
p376
g15
tp377
a(S"don't i have anything to do on next"
p378
g15
tp379
a(S"what's the current news"
p380
g15
tp381
a(S'can you please close this window'
p382
g15
tp383
a(S'what do i have on wednesday'
p384
g15
tp385
a(S'what do i have on friday'
p386
g15
tp387
a(S'check the current time'
p388
g15
tp389
a(S'check my calendar for tomorrow'
p390
g15
tp391
a(S'open a default browser'
p392
g15
tp393
a(S"what's if it's cold today"
p394
g15
tp395
a(S"what's new in mail please"
p396
g30
tp397
a(S'please volume higher'
p398
g15
tp399
a(S'resume'
p400
g15
tp401
a(S"don't i have to do anything on saturday"
p402
g15
tp403
a(S'live newsfeed today'
p404
g15
tp405
a(S'read time'
p406
g15
tp407
a(S'do i have any events in a month'
p408
g15
tp409
a(S"what's in my mail"
p410
g30
tp411
a(S'what events are on sunday'
p412
g15
tp413
a(S'shut down the computer please'
p414
g15
tp415
a(S'could you please add new event'
p416
g15
tp417
a(S'spotify stop playing'
p418
g15
tp419
a(S'get forecast'
p420
g15
tp421
a(S'set the volume to zero'
p422
g15
tp423
a(S"please what's in my gmail"
p424
g30
tp425
a(S'can you check new gmail please'
p426
g30
tp427
a(S'news now please'
p428
g15
tp429
a(S"what're the headlines"
p430
g15
tp431
a(S'can you please shutdown the computer'
p432
g15
tp433
a(S'spotify play the song'
p434
g15
tp435
a(S"don't i have anything on saturday"
p436
g15
tp437
a(S'can you please make event'
p438
g15
tp439
a(S'start browsing'
p440
g15
tp441
a(S'what events do i have on tomorrow'
p442
g15
tp443
a(S'check my calendar on today'
p444
g15
tp445
a(S'check mail'
p446
g30
tp447
a(S'could you open my gmail'
p448
g30
tp449
a(S"don't i have anything on friday"
p450
g15
tp451
a(S'could you check my inbox please'
p452
g30
tp453
a(S'am i free for wednesday'
p454
g15
tp455
a(S'please what is new in gmail'
p456
g30
tp457
a(S"don't i have to do anything in a month"
p458
g15
tp459
a(S'could you open gmail please'
p460
g30
tp461
a(S'get current news'
p462
g15
tp463
a(S'do i have anything on next'
p464
g15
tp465
a(S'check calendar on month'
p466
g15
tp467
a(S'give me the news please'
p468
g15
tp469
a(S'what events do i have on today'
p470
g15
tp471
a(S'can you please turn up the beat'
p472
g15
tp473
a(S"what's this week's temperature"
p474
g15
tp475
a(S'can you please exit'
p476
g15
tp477
a(S'please close this window'
p478
g15
tp479
a(S'check mail please'
p480
g30
tp481
a(S"what's the news"
p482
g15
tp483
a(S'google search for please'
p484
g15
tp485
a(S'please kill this window'
p486
g15
tp487
a(S'read the clock please'
p488
g15
tp489
a(S'please shutdown the computer'
p490
g15
tp491
a(S'any mail'
p492
g30
tp493
a(S'would you open my inbox please'
p494
g30
tp495
a(S'what events do i have on friday'
p496
g15
tp497
a(S'can you create a new event'
p498
g15
tp499
a(S'can you unmute'
p500
g15
tp501
a(S'check google calendar on friday'
p502
g15
tp503
a(S'start default browser'
p504
g15
tp505
a(S'please would you check new mail'
p506
g30
tp507
a(S'am i free for thursday'
p508
g15
tp509
a(S'good night alice'
p510
g15
tp511
a(S'can you please open a browser'
p512
g15
tp513
a(S'would you check my mail'
p514
g30
tp515
a(S'unmute please'
p516
g15
tp517
a(S'can you make it louder please'
p518
g15
tp519
a(S'what is in gmail please'
p520
g30
tp521
a(S'could you schedule a new event please'
p522
g15
tp523
a(S'please start browser'
p524
g15
tp525
a(S'could you please schedule new event'
p526
g15
tp527
a(S'fake news'
p528
g15
tp529
a(S'is it hot today'
p530
g15
tp531
a(S'am i free on tuesday'
p532
g15
tp533
a(S"what's today's temperature"
p534
g15
tp535
a(S'add new event'
p536
g15
tp537
a(S'can you please schedule new event'
p538
g15
tp539
a(S'check the clock right now'
p540
g15
tp541
a(S'a backbone dictates above my grief'
p542
g15
tp543
a(S'check events on monday'
p544
g15
tp545
a(S'please add an event'
p546
g15
tp547
a(S'check events'
p548
g15
tp549
a(S'would you check new mail'
p550
g30
tp551
a(S'read the time'
p552
g15
tp553
a(S'please would you open my inbox'
p554
g30
tp555
a(S"get if it's cold this week"
p556
g15
tp557
a(S'do i have to do anything on wednesday'
p558
g15
tp559
a(S'go to dot net'
p560
g15
tp561
a(S'what do i have to do on next'
p562
g15
tp563
a(S'pause song please'
p564
g15
tp565
a(S"what're the live news feed"
p566
g15
tp567
a(S'lower the sound'
p568
g15
tp569
a(S'song stop'
p570
g15
tp571
a(S'please could you open mail'
p572
g30
tp573
a(S"what's in gmail"
p574
g30
tp575
a(S'check my calendar for monday'
p576
g15
tp577
a(S'any events on'
p578
g15
tp579
a(S'do i have to do anything on sunday'
p580
g15
tp581
a(S'can you add new event'
p582
g15
tp583
a(S'please what is new in inbox'
p584
g30
tp585
a(S"don't i have to do anything tomorrow"
p586
g15
tp587
a(S'check my calendar on this week'
p588
g15
tp589
a(S'please retrieve what time it is'
p590
g15
tp591
a(S'add event please'
p592
g15
tp593
a(S'open dot edu'
p594
g15
tp595
a(S'spotify skip ahead please'
p596
g15
tp597
a(S'check events for next'
p598
g15
tp599
a(S'do i have any events on thursday'
p600
g15
tp601
a(S'check google calendar for tuesday'
p602
g15
tp603
a(S'please would you check inbox'
p604
g30
tp605
a(S'will you open my mail please'
p606
g30
tp607
a(S'what are the live news feed'
p608
g15
tp609
a(S'retrieve the time'
p610
g15
tp611
a(S'what is in inbox please'
p612
g30
tp613
a(S'make the volume softer'
p614
g15
tp615
a(S'check google calendar for this day'
p616
g15
tp617
a(S'am i free for monday'
p618
g15
tp619
a(S'would you open my gmail please'
p620
g30
tp621
a(S'please could you check new gmail'
p622
g30
tp623
a(S'give me intel'
p624
g15
tp625
a(S'please will you open mail'
p626
g30
tp627
a(S'please shut down the computer'
p628
g15
tp629
a(S'please go to dot com'
p630
g15
tp631
a(S'open inbox'
p632
g30
tp633
a(S"what's new in my inbox"
p634
g30
tp635
a(S'a releasing moderate stalls beside the material cell'
p636
g15
tp637
a(S'check my calendar on saturday'
p638
g15
tp639
a(S'will you get the current events for me'
p640
g15
tp641
a(S"today's live news"
p642
g15
tp643
a(S"this week's temperature"
p644
g15
tp645
a(S"what's new in new mail please"
p646
g30
tp647
a(S'can you please kill the active window'
p648
g15
tp649
a(S'kill window'
p650
g15
tp651
a(S'is it foggy today'
p652
g15
tp653
a(S'spotify go ahead'
p654
g15
tp655
a(S'can you make an event'
p656
g15
tp657
a(S'do i have to do anything in a week'
p658
g15
tp659
a(S"don't i have anything to do on saturday"
p660
g15
tp661
a(S'check my calendar for this week'
p662
g15
tp663
a(S'please open'
p664
g15
tp665
a(S"what's in new gmail please"
p666
g30
tp667
a(S'can you put me on the lock screen please'
p668
g15
tp669
a(S'spotify pause please'
p670
g15
tp671
a(S'make the sound softer'
p672
g15
tp673
a(S'turn up'
p674
g15
tp675
a(S'unpause'
p676
g15
tp677
a(S'please go to'
p678
g15
tp679
a(S"don't i have any events on tomorrow"
p680
g15
tp681
a(S'kill current window'
p682
g15
tp683
a(S'turn up the beat please'
p684
g15
tp685
a(S'can you turn my computer off'
p686
g15
tp687
a(S'live newsfeed'
p688
g15
tp689
a(S'do i have to do anything'
p690
g15
tp691
a(S'will you check gmail please'
p692
g30
tp693
a(S'do i have anything on wednesday'
p694
g15
tp695
a(S'check my calendar for this day'
p696
g15
tp697
a(S'could you check mail please'
p698
g30
tp699
a(S'please spotify pause'
p700
g15
tp701
a(S'please start spotify'
p702
g15
tp703
a(S'anything new in mail'
p704
g30
tp705
a(S'do i have to do anything on tuesday'
p706
g15
tp707
a(S'is there anything to do'
p708
g15
tp709
a(S"don't i have to do anything on this day"
p710
g15
tp711
a(S'are there any events on monday'
p712
g15
tp713
a(S'please could you check new mail'
p714
g30
tp715
a(S"what's new in my inbox please"
p716
g30
tp717
a(S"get if it's cloudy today"
p718
g15
tp719
a(S'retrieve the current time'
p720
g15
tp721
a(S"aren't there any events"
p722
g15
tp723
a(S'check the clock please'
p724
g15
tp725
a(S'check events on this day'
p726
g15
tp727
a(S"how's the forecast this week"
p728
g15
tp729
a(S'could you schedule an event please'
p730
g15
tp731
a(S'check my calendar for wednesday'
p732
g15
tp733
a(S'will you open my inbox'
p734
g30
tp735
a(S'is there anything i have to do on tuesday'
p736
g15
tp737
a(S'schedule a new event'
p738
g15
tp739
a(S'please spotify start the song'
p740
g15
tp741
a(S'what is in mail'
p742
g30
tp743
a(S'can you turn yourself off please'
p744
g15
tp745
a(S"today's live news feed"
p746
g15
tp747
a(S'would you open gmail please'
p748
g30
tp749
a(S'please what is in mail'
p750
g30
tp751
a(S'what is new in my inbox please'
p752
g30
tp753
a(S"what're the live news"
p754
g15
tp755
a(S'check google calendar on monday'
p756
g15
tp757
a(S'any events in a week'
p758
g15
tp759
a(S"aren't there any events on monday"
p760
g15
tp761
a(S"what's the forecast today"
p762
g15
tp763
a(S'check calendar for friday'
p764
g15
tp765
a(S'is there anything i have to do on tomorrow'
p766
g15
tp767
a(S'check calendar on sunday'
p768
g15
tp769
a(S'check events on'
p770
g15
tp771
a(S'how is the temperature'
p772
g15
tp773
a(S'could you check new mail'
p774
g30
tp775
a(S'can you turn up the volume'
p776
g15
tp777
a(S'do i have anything on thursday'
p778
g15
tp779
a(S'what is on my calendar for saturday'
p780
g15
tp781
a(S'check events for this day'
p782
g15
tp783
a(S'is there anything i have to do on today'
p784
g15
tp785
a(S'turn the sound down please'
p786
g15
tp787
a(S'extract the features using almost the same feature'
p788
g15
tp789
a(S'are there any events on'
p790
g15
tp791
a(S'what is on my calendar for this day'
p792
g15
tp793
a(S'please open gmail'
p794
g30
tp795
a(S"what're the news feed"
p796
g15
tp797
a(S'could you make event'
p798
g15
tp799
a(S'shut off my computer'
p800
g15
tp801
a(S'am i free for today'
p802
g15
tp803
a(S'what events do i have on next'
p804
g15
tp805
a(S'tell me the news'
p806
g15
tp807
a(S'go to dot org'
p808
g15
tp809
a(S'turn up the sound please'
p810
g15
tp811
a(S'what events are on friday'
p812
g15
tp813
a(S'shut the fuck up'
p814
g15
tp815
a(S'please spotify pause the song'
p816
g15
tp817
a(S'what events do i have on sunday'
p818
g15
tp819
a(S'can you kill this window'
p820
g15
tp821
a(S'do i have anything to do in a month'
p822
g15
tp823
a(S"this week's forecast"
p824
g15
tp825
a(S'please read the time'
p826
g15
tp827
a(S'could you open inbox please'
p828
g30
tp829
a(S'open my mail'
p830
g30
tp831
a(S'lock'
p832
g15
tp833
a(S'please read me the clock'
p834
g15
tp835
a(S'get the time'
p836
g15
tp837
a(S"don't i have to do anything"
p838
g15
tp839
a(S'continue the song'
p840
g15
tp841
a(S'can you please close active window'
p842
g15
tp843
a(S'schedule an event please'
p844
g15
tp845
a(S'please can you check gmail'
p846
g30
tp847
a(S'can you please shut off my computer'
p848
g15
tp849
a(S"what's in new mail please"
p850
g30
tp851
a(S'please schedule new event'
p852
g15
tp853
a(S'please what is new in mail'
p854
g30
tp855
a(S'current events please'
p856
g15
tp857
a(S'can you check if i have anything in my inbox'
p858
g30
tp859
a(S'is there anything i have to do on wednesday'
p860
g15
tp861
a(S'could you open my mail please'
p862
g30
tp863
a(S'the news'
p864
g15
tp865
a(S"don't i have anything on wednesday"
p866
g15
tp867
a(S'is it foggy this week'
p868
g15
tp869
a(S'get weather'
p870
g15
tp871
a(S'can you quit'
p872
g15
tp873
a(S'check google calendar for friday'
p874
g15
tp875
a(S'could you open my gmail please'
p876
g30
tp877
a(S'any events on tomorrow'
p878
g15
tp879
a(S'am i free on friday'
p880
g15
tp881
a(S"what's the live news"
p882
g15
tp883
a(S"get if it's raining this week"
p884
g15
tp885
a(S'shut down my computer'
p886
g15
tp887
a(S'check my calendar for this day'
p888
g15
tp889
a(S'open a browser'
p890
g15
tp891
a(S'what is in mail please'
p892
g30
tp893
a(S'lower the volume'
p894
g15
tp895
a(S'close active window'
p896
g15
tp897
a(S'what do i have on tomorrow'
p898
g15
tp899
a(S'go ahead'
p900
g15
tp901
a(S"if it's raining this week"
p902
g15
tp903
a(S'what is in inbox'
p904
g30
tp905
a(S"if it's snowing this week"
p906
g15
tp907
a(S'open dot gov'
p908
g15
tp909
a(S"what's if it's foggy today"
p910
g15
tp911
a(S"how's the weather today"
p912
g15
tp913
a(S'will you check my mail please'
p914
g30
tp915
a(S'is there anything to do on tuesday'
p916
g15
tp917
a(S'can you please add a new event'
p918
g15
tp919
a(S'check calendar for this month'
p920
g15
tp921
a(S"get today's weather"
p922
g15
tp923
a(S'check google calendar on saturday'
p924
g15
tp925
a(S'what events are on tuesday'
p926
g15
tp927
a(S'is there anything i have to do tomorrow'
p928
g15
tp929
a(S"if it's hot today"
p930
g15
tp931
a(S"what's the weather"
p932
g15
tp933
a(S"don't i have to do anything today"
p934
g15
tp935
a(S"don't i have to do anything on"
p936
g15
tp937
a(S'please turn it down'
p938
g15
tp939
a(S'do i have anything to do'
p940
g15
tp941
a(S'am i free on this day'
p942
g15
tp943
a(S'google search please'
p944
g15
tp945
a(S"get if it's freezing this week"
p946
g15
tp947
a(S'get me the news todays'
p948
g15
tp949
a(S'start default browser please'
p950
g15
tp951
a(S"please what's new in my mail"
p952
g30
tp953
a(S'bye bye'
p954
g15
tp955
a(S'what events do i have on monday'
p956
g15
tp957
a(S'check my inbox please'
p958
g30
tp959
a(S'current temperature'
p960
g15
tp961
a(S'turn off my computer'
p962
g15
tp963
a(S'can you create an event please'
p964
g15
tp965
a(S"what's today's weather"
p966
g15
tp967
a(S"i think i didn't answer an earlier question"
p968
g15
tp969
a(S'will you get the news for me'
p970
g15
tp971
a(S'turn off the sound please'
p972
g15
tp973
a(S'spotify skip ahead'
p974
g15
tp975
a(S"what're the news"
p976
g15
tp977
a(S'check new mail please'
p978
g30
tp979
a(S'is there anything to do on next'
p980
g15
tp981
a(S'please spotify start'
p982
g15
tp983
a(S'please get time'
p984
g15
tp985
a(S'search for please'
p986
g15
tp987
a(S'please would you open mail'
p988
g30
tp989
a(S'create new event please'
p990
g15
tp991
a(S'can you exit'
p992
g15
tp993
a(S"what's new in mail"
p994
g30
tp995
a(S"what's weather"
p996
g15
tp997
a(S'please make new event'
p998
g15
tp999
a(S'what is on my calendar for this month'
p1000
g15
tp1001
a(S'can you open browser please'
p1002
g15
tp1003
a(S'would you check my inbox'
p1004
g30
tp1005
a(S'turn it off'
p1006
g15
tp1007
a(S'pause please'
p1008
g15
tp1009
a(S'please what is new in my inbox'
p1010
g30
tp1011
a(S'shutdown please'
p1012
g15
tp1013
a(S'get the the latest headlines'
p1014
g15
tp1015
a(S'please schedule an event'
p1016
g15
tp1017
a(S'kill the current window'
p1018
g15
tp1019
a(S'make new event please'
p1020
g15
tp1021
a(S'gather the latest headlines please'
p1022
g15
tp1023
a(S'retrieve the time please'
p1024
g15
tp1025
a(S"what's temperature"
p1026
g15
tp1027
a(S'any events on today'
p1028
g15
tp1029
a(S'lock computer'
p1030
g15
tp1031
a(S'check what time it is please'
p1032
g15
tp1033
a(S"please what's new in gmail"
p1034
g30
tp1035
a(S'check google calendar on this week'
p1036
g15
tp1037
a(S'can you check my inbox please'
p1038
g30
tp1039
a(S'can you please create an event'
p1040
g15
tp1041
a(S'please turn my computer off'
p1042
g15
tp1043
a(S'would you check gmail'
p1044
g30
tp1045
a(S'please will you open inbox'
p1046
g30
tp1047
a(S'exit'
p1048
g15
tp1049
a(S'would you open my inbox'
p1050
g30
tp1051
a(S'can you turn the volume higher please'
p1052
g15
tp1053
a(S'google for please'
p1054
g15
tp1055
a(S'the tale pretends'
p1056
g15
tp1057
a(S'what is new in my inbox'
p1058
g30
tp1059
a(S'spotify play the last song'
p1060
g15
tp1061
a(S'what is new in my mail please'
p1062
g30
tp1063
a(S'please can you make it louder'
p1064
g15
tp1065
a(S"get this week's weather"
p1066
g15
tp1067
a(S'am i free for this day'
p1068
g15
tp1069
a(S'do i have to do anything on thursday'
p1070
g15
tp1071
a(S'could you open gmail'
p1072
g30
tp1073
a(S'would you open inbox'
p1074
g30
tp1075
a(S"what's in inbox"
p1076
g30
tp1077
a(S'check calendar on saturday'
p1078
g15
tp1079
a(S'search'
p1080
g15
tp1081
a(S"aren't there any events on sunday"
p1082
g15
tp1083
a(S'check events for saturday'
p1084
g15
tp1085
a(S'check the clock'
p1086
g15
tp1087
a(S'is there anything i have to do on friday'
p1088
g15
tp1089
a(S'will it hail today'
p1090
g15
tp1091
a(S'can you please kill active window'
p1092
g15
tp1093
a(S'check my calendar on thursday'
p1094
g15
tp1095
a(S'please spotify play previous song'
p1096
g15
tp1097
a(S'please schedule event'
p1098
g15
tp1099
a(S'what do i have to do on friday'
p1100
g15
tp1101
a(S'get me the clock please'
p1102
g15
tp1103
a(S'what events are on saturday'
p1104
g15
tp1105
a(S'please search for'
p1106
g15
tp1107
a(S'could you make a new event please'
p1108
g15
tp1109
a(S'what is on my calendar for today'
p1110
g15
tp1111
a(S'can you please close current window'
p1112
g15
tp1113
a(S'what events do i have on tuesday'
p1114
g15
tp1115
a(S'can you shut down'
p1116
g15
tp1117
a(S"please what's in gmail"
p1118
g30
tp1119
a(S'shut down the computer'
p1120
g15
tp1121
a(S'shut down my computer please'
p1122
g15
tp1123
a(S'could you check my gmail please'
p1124
g30
tp1125
a(S'are there any events on friday'
p1126
g15
tp1127
a(S'start spotify please'
p1128
g15
tp1129
a(S'will you get the current headlines'
p1130
g15
tp1131
a(S'can you check my gmail'
p1132
g30
tp1133
a(S'any events on monday'
p1134
g15
tp1135
a(S'do i have anything to do on saturday'
p1136
g15
tp1137
a(S"get today's forecast"
p1138
g15
tp1139
a(S'bye bye alice'
p1140
g15
tp1141
a(S"don't i have any events in a month"
p1142
g15
tp1143
a(S"this week's forecast"
p1144
g15
tp1145
a(S'will you check my inbox please'
p1146
g30
tp1147
a(S'make event please'
p1148
g15
tp1149
a(S'stop playing'
p1150
g15
tp1151
a(S"what's the weather this week"
p1152
g15
tp1153
a(S'play'
p1154
g15
tp1155
a(S"don't i have to do anything tomorrow"
p1156
g15
tp1157
a(S'please will you open gmail'
p1158
g30
tp1159
a(S'what time is it'
p1160
g15
tp1161
a(S'what do i have on thursday'
p1162
g15
tp1163
a(S'get the current time'
p1164
g15
tp1165
a(S'sweet dreams'
p1166
g15
tp1167
a(S'could you please schedule event'
p1168
g15
tp1169
a(S'check google calendar on today'
p1170
g15
tp1171
a(S'alex'
p1172
g15
tp1173
a(S'what do i have to do in a week'
p1174
g15
tp1175
a(S'search google for please'
p1176
g15
tp1177
a(S'check new gmail'
p1178
g30
tp1179
a(S'check calendar for'
p1180
g15
tp1181
a(S'can you check new mail please'
p1182
g30
tp1183
a(S'check my calendar on next'
p1184
g15
tp1185
a(S'bye alice'
p1186
g15
tp1187
a(S"don't i have anything to do today"
p1188
g15
tp1189
a(S'please when is it'
p1190
g15
tp1191
a(S'am i free in a week'
p1192
g15
tp1193
a(S'news'
p1194
g15
tp1195
a(S'shut my computer down'
p1196
g15
tp1197
a(S'shut off my computer please'
p1198
g15
tp1199
a(S"don't i have to do anything on saturday"
p1200
g15
tp1201
a(S'can you please shut down'
p1202
g15
tp1203
a(S"what's new in new mail"
p1204
g30
tp1205
a(S'check inbox'
p1206
g30
tp1207
a(S'what is in my inbox please'
p1208
g30
tp1209
a(S'please close the current window'
p1210
g15
tp1211
a(S'tell me live news feed'
p1212
g15
tp1213
a(S'open dot ee dee you'
p1214
g15
tp1215
a(S'check events for wednesday'
p1216
g15
tp1217
a(S"please what's new in inbox"
p1218
g30
tp1219
a(S'spotify previous song please'
p1220
g15
tp1221
a(S"what's the live news feed"
p1222
g15
tp1223
a(S'turn it down'
p1224
g15
tp1225
a(S'can you kill the current window'
p1226
g15
tp1227
a(S'do i have to do anything tomorrow'
p1228
g15
tp1229
a(S"don't i have any events on next"
p1230
g15
tp1231
a(S'could you create a new event'
p1232
g15
tp1233
a(S'check events on thursday'
p1234
g15
tp1235
a(S'can you check my mail please'
p1236
g30
tp1237
a(S'spotify play'
p1238
g15
tp1239
a(S'please can you check my inbox'
p1240
g30
tp1241
a(S'can you check mail'
p1242
g30
tp1243
a(S'would you check mail'
p1244
g30
tp1245
a(S'can you turn the sound down'
p1246
g15
tp1247
a(S'check calendar on tuesday'
p1248
g15
tp1249
a(S'will you open gmail'
p1250
g30
tp1251
a(S'please search'
p1252
g15
tp1253
a(S'spotify pause the song please'
p1254
g15
tp1255
a(S'please can you check inbox'
p1256
g30
tp1257
a(S'intelligence report'
p1258
g15
tp1259
a(S'shut off'
p1260
g15
tp1261
a(S'please shut my computer down'
p1262
g15
tp1263
a(S"don't i have anything on sunday"
p1264
g15
tp1265
a(S'unmute'
p1266
g15
tp1267
a(S"what's new in my mail please"
p1268
g30
tp1269
a(S'pause spotify'
p1270
g15
tp1271
a(S'please shut down'
p1272
g15
tp1273
a(S'please spotify go'
p1274
g15
tp1275
a(S"please what's in new mail"
p1276
g30
tp1277
a(S'open browser please'
p1278
g15
tp1279
a(S'please check new gmail'
p1280
g30
tp1281
a(S'what do i have on tuesday'
p1282
g15
tp1283
a(S'could you make an event'
p1284
g15
tp1285
a(S'can you schedule an event'
p1286
g15
tp1287
a(S'are there any events on next'
p1288
g15
tp1289
a(S'spotify next song'
p1290
g15
tp1291
a(S'please what is in inbox'
p1292
g30
tp1293
a(S'check the clock right now please'
p1294
g15
tp1295
a(S"what's the forecast this week"
p1296
g15
tp1297
a(S'check my calendar for thursday'
p1298
g15
tp1299
a(S'could you add event please'
p1300
g15
tp1301
a(S'please check my inbox'
p1302
g30
tp1303
a(S'check google calendar for monday'
p1304
g15
tp1305
a(S'next'
p1306
g15
tp1307
a(S'please get current time'
p1308
g15
tp1309
a(S'can you check inbox'
p1310
g30
tp1311
a(S'check my inbox'
p1312
g30
tp1313
a(S"today's weather"
p1314
g15
tp1315
a(S'please can you check my gmail'
p1316
g30
tp1317
a(S'am i free on sunday'
p1318
g15
tp1319
a(S'do i have anything in a week'
p1320
g15
tp1321
a(S'is it cold this week'
p1322
g15
tp1323
a(S"don't i have anything on"
p1324
g15
tp1325
a(S'get current time'
p1326
g15
tp1327
a(S"get if it's rainy this week"
p1328
g15
tp1329
a(S'what is on my calendar for tomorrow'
p1330
g15
tp1331
a(S'please would you open gmail'
p1332
g30
tp1333
a(S'start the song'
p1334
g15
tp1335
a(S'check google calendar on wednesday'
p1336
g15
tp1337
a(S'check inbox please'
p1338
g30
tp1339
a(S'will you open inbox please'
p1340
g30
tp1341
a(S'lock my computer'
p1342
g15
tp1343
a(S"aren't there any events on friday"
p1344
g15
tp1345
a(S'please lock the screen'
p1346
g15
tp1347
a(S'anything in my gmail'
p1348
g30
tp1349
a(S'please sound up'
p1350
g15
tp1351
a(S"what's if it's cloudy today"
p1352
g15
tp1353
a(S'any new mail'
p1354
g30
tp1355
a(S'shutdown the computer please'
p1356
g15
tp1357
a(S'check my calendar on friday'
p1358
g15
tp1359
a(S'do i have any events on today'
p1360
g15
tp1361
a(S'would you open mail please'
p1362
g30
tp1363
a(S"how's the forecast"
p1364
g15
tp1365
a(S'what time is it now'
p1366
g15
tp1367
a(S'can you please turn off my computer'
p1368
g15
tp1369
a(S'can you turn up the tune'
p1370
g15
tp1371
a(S'resume the song'
p1372
g15
tp1373
a(S'check my calendar on tuesday'
p1374
g15
tp1375
a(S'check events for tomorrow'
p1376
g15
tp1377
a(S'turn my computer off please'
p1378
g15
tp1379
a(S"today's newsfeed"
p1380
g15
tp1381
a(S'what is in new mail'
p1382
g30
tp1383
a(S'find current events'
p1384
g15
tp1385
a(S'please could you check mail'
p1386
g30
tp1387
a(S'what do i have on this day'
p1388
g15
tp1389
a(S'tell me current news'
p1390
g15
tp1391
a(S"don't i have anything on tuesday"
p1392
g15
tp1393
a(S'could you add event'
p1394
g15
tp1395
a(S'can you please kill current window'
p1396
g15
tp1397
a(S'any events'
p1398
g15
tp1399
a(S'what events are going on right now'
p1400
g15
tp1401
a(S"don't i have anything in a month"
p1402
g15
tp1403
a(S'is it snowing today'
p1404
g15
tp1405
a(S"please what's new in new gmail"
p1406
g30
tp1407
a(S'is it hot this week'
p1408
g15
tp1409
a(S'please close active window'
p1410
g15
tp1411
a(S'what is live news'
p1412
g15
tp1413
a(S"what's the temperature this week"
p1414
g15
tp1415
a(S'will you open my mail'
p1416
g30
tp1417
a(S"what's if it's hot this week"
p1418
g15
tp1419
a(S'turn the volume to zero'
p1420
g15
tp1421
a(S'what is the news today'
p1422
g15
tp1423
a(S'please open a browser'
p1424
g15
tp1425
a(S'get current temperature'
p1426
g15
tp1427
a(S'google please'
p1428
g15
tp1429
a(S'make event'
p1430
g15
tp1431
a(S'any new gmail'
p1432
g30
tp1433
a(S'would you open gmail'
p1434
g30
tp1435
a(S'please tell me whats going on in the news please'
p1436
g15
tp1437
a(S'will you check my inbox'
p1438
g30
tp1439
a(S'what is new in gmail please'
p1440
g30
tp1441
a(S"don't i have anything to do"
p1442
g15
tp1443
a(S'is there anything to do in a week'
p1444
g15
tp1445
a(S'can you please create event'
p1446
g15
tp1447
a(S'find newsfeed'
p1448
g15
tp1449
a(S"what's new in new gmail please"
p1450
g30
tp1451
a(S'can you please mute'
p1452
g15
tp1453
a(S"aren't there any events on"
p1454
g15
tp1455
a(S"this week's weather"
p1456
g15
tp1457
a(S'will it rain this week'
p1458
g15
tp1459
a(S"what's if it's cloudy this week"
p1460
g15
tp1461
a(S'can you please turn the beat down'
p1462
g15
tp1463
a(S'can you close the current window'
p1464
g15
tp1465
a(S'do i have anything to do on wednesday'
p1466
g15
tp1467
a(S'check my calendar for today'
p1468
g15
tp1469
a(S'what do i have on monday'
p1470
g15
tp1471
a(S"what's forecast"
p1472
g15
tp1473
a(S"don't i have to do anything on sunday"
p1474
g15
tp1475
a(S'do i have any events'
p1476
g15
tp1477
a(S'okay alex'
p1478
g15
tp1479
a(S"aren't there any events on tuesday"
p1480
g15
tp1481
a(S"how's the weather"
p1482
g15
tp1483
a(S'check events on'
p1484
g15
tp1485
a(S'intel'
p1486
g15
tp1487
a(S'please can you check my mail'
p1488
g30
tp1489
a(S'add event'
p1490
g15
tp1491
a(S'check new mail'
p1492
g30
tp1493
a(S'what is news feed'
p1494
g15
tp1495
a(S'can you please close the active window'
p1496
g15
tp1497
a(S'check events on tuesday'
p1498
g15
tp1499
a(S"what're the current news"
p1500
g15
tp1501
a(S'can you turn off'
p1502
g15
tp1503
a(S'please spotify play last song'
p1504
g15
tp1505
a(S'do i have anything on'
p1506
g15
tp1507
a(S"don't i have anything on monday"
p1508
g15
tp1509
a(S"don't i have to do anything on tuesday"
p1510
g15
tp1511
a(S'what do i have to do on this day'
p1512
g15
tp1513
a(S'check calendar for monday'
p1514
g15
tp1515
a(S'a decent problem gossips beside the shoulder'
p1516
g15
tp1517
a(S'do i have anything to do on next'
p1518
g15
tp1519
a(S'please make a new event'
p1520
g15
tp1521
a(S'check your watch please'
p1522
g15
tp1523
a(S'please pause spotify'
p1524
g15
tp1525
a(S'could you check my inbox'
p1526
g30
tp1527
a(S'what are the latest events '
p1528
g15
tp1529
a(S'please create event'
p1530
g15
tp1531
a(S'could you check new gmail'
p1532
g30
tp1533
a(S'check calendar for sunday'
p1534
g15
tp1535
a(S'can you add an event please'
p1536
g15
tp1537
a(S'hey alice'
p1538
g15
tp1539
a(S'please could you open my inbox'
p1540
g30
tp1541
a(S'can you shut down my computer'
p1542
g15
tp1543
a(S'can you please turn off the computer'
p1544
g15
tp1545
a(S'we stick to simple problems in this post for the sake of illustration'
p1546
g15
tp1547
a(S'could you open my mail'
p1548
g30
tp1549
a(S'check events on this week'
p1550
g15
tp1551
a(S'play spotify please'
p1552
g15
tp1553
a(S'please spotify pause'
p1554
g15
tp1555
a(S'turn down the volume'
p1556
g15
tp1557
a(S"if it's rainy this week"
p1558
g15
tp1559
a(S'get time'
p1560
g15
tp1561
a(S'check google calendar on tuesday'
p1562
g15
tp1563
a(S'am i free on thursday'
p1564
g15
tp1565
a(S'is there anything i have to do today'
p1566
g15
tp1567
a(S'please add new event'
p1568
g15
tp1569
a(S'volume higher please'
p1570
g15
tp1571
a(S'can you decrease the sound'
p1572
g15
tp1573
a(S'what events are'
p1574
g15
tp1575
a(S'what time is it currently'
p1576
g15
tp1577
a(S'would you check my gmail'
p1578
g30
tp1579
a(S'will you open mail please'
p1580
g30
tp1581
a(S'will it snow this week'
p1582
g15
tp1583
a(S"don't i have to do anything on next"
p1584
g15
tp1585
a(S"don't i have to do anything on wednesday"
p1586
g15
tp1587
a(S'how is the forecast'
p1588
g15
tp1589
a(S'news feed today'
p1590
g15
tp1591
a(S'will you check my gmail'
p1592
g30
tp1593
a(S'please would you check gmail'
p1594
g30
tp1595
a(S'would you check my inbox please'
p1596
g30
tp1597
a(S'check events for monday'
p1598
g15
tp1599
a(S'check calendar for tuesday'
p1600
g15
tp1601
a(S'byebye'
p1602
g15
tp1603
a(S'can you please make an event'
p1604
g15
tp1605
a(S"don't i have any events on saturday"
p1606
g15
tp1607
a(S'turn off the computer'
p1608
g15
tp1609
a(S'please could you open my mail'
p1610
g30
tp1611
a(S'am i free for sunday'
p1612
g15
tp1613
a(S'could you make an event please'
p1614
g15
tp1615
a(S'check google calendar for thursday'
p1616
g15
tp1617
a(S'what events do i have in a month'
p1618
g15
tp1619
a(S'check my calendar for friday'
p1620
g15
tp1621
a(S"how's the weather this week"
p1622
g15
tp1623
a(S'check my calendar for this month'
p1624
g15
tp1625
a(S'give me the news'
p1626
g15
tp1627
a(S'is there anything i have to do'
p1628
g15
tp1629
a(S'what is new in mail please'
p1630
g30
tp1631
a(S'is there anything to do in a month'
p1632
g15
tp1633
a(S'check my gmail please'
p1634
g30
tp1635
a(S'please make event'
p1636
g15
tp1637
a(S'please would you check new gmail'
p1638
g30
tp1639
a(S'turn my computer off'
p1640
g15
tp1641
a(S'get me the clock'
p1642
g15
tp1643
a(S"don't i have to do anything on friday"
p1644
g15
tp1645
a(S'is it rainy this week'
p1646
g15
tp1647
a(S'spotify next'
p1648
g15
tp1649
a(S"don't i have to do anything on thursday"
p1650
g15
tp1651
a(S'add a new event'
p1652
g15
tp1653
a(S'is it rainy today'
p1654
g15
tp1655
a(S"don't i have to do anything on this day"
p1656
g15
tp1657
a(S"aren't there any events on saturday"
p1658
g15
tp1659
a(S'spotify pause please'
p1660
g15
tp1661
a(S"what's in my gmail please"
p1662
g30
tp1663
a(S"what's new in inbox"
p1664
g30
tp1665
a(S'schedule new event please'
p1666
g15
tp1667
a(S"please what's in inbox"
p1668
g30
tp1669
a(S'go to dot gov'
p1670
g15
tp1671
a(S'what do i have on sunday'
p1672
g15
tp1673
a(S'can you open a browser'
p1674
g15
tp1675
a(S'lock computer please'
p1676
g15
tp1677
a(S'open default browser please'
p1678
g15
tp1679
a(S'can you schedule event'
p1680
g15
tp1681
a(S'google search'
p1682
g15
tp1683
a(S'check calendar on this day'
p1684
g15
tp1685
a(S'is it cloudy today'
p1686
g15
tp1687
a(S'get clock'
p1688
g15
tp1689
a(S"what're the live newsfeed"
p1690
g15
tp1691
a(S'please pause'
p1692
g15
tp1693
a(S"what's new in my gmail please"
p1694
g30
tp1695
a(S'check events for thursday'
p1696
g15
tp1697
a(S'do i have anything to do on tuesday'
p1698
g15
tp1699
a(S'what are the news'
p1700
g15
tp1701
a(S'louder please'
p1702
g15
tp1703
a(S'turn off the beats'
p1704
g15
tp1705
a(S'do i have to do anything on friday'
p1706
g15
tp1707
a(S"what's if it's rainy today"
p1708
g15
tp1709
a(S'tell me live news'
p1710
g15
tp1711
a(S'could you please create an event'
p1712
g15
tp1713
a(S"don't i have any events in a week"
p1714
g15
tp1715
a(S'alice go ahead please'
p1716
g15
tp1717
a(S"don't i have any events on thursday"
p1718
g15
tp1719
a(S"what's today's forecast"
p1720
g15
tp1721
a(S'please can you turn up the volume'
p1722
g15
tp1723
a(S'am i free on tomorrow'
p1724
g15
tp1725
a(S"today's temperature"
p1726
g15
tp1727
a(S'please could you check my inbox'
p1728
g30
tp1729
a(S'check my mail please'
p1730
g30
tp1731
a(S'what is on my calendar for next'
p1732
g15
tp1733
a(S'lock my computer please'
p1734
g15
tp1735
a(S'check calendar on wednesday'
p1736
g15
tp1737
a(S'get live newsfeed'
p1738
g15
tp1739
a(S'do i have to do anything next'
p1740
g15
tp1741
a(S'search please for'
p1742
g15
tp1743
a(S"don't i have to do anything on friday"
p1744
g15
tp1745
a(S'can you turn up the volume please'
p1746
g15
tp1747
a(S'could you please create event'
p1748
g15
tp1749
a(S'shut my computer down please'
p1750
g15
tp1751
a(S'check events on sunday'
p1752
g15
tp1753
a(S'what are the news feed'
p1754
g15
tp1755
a(S"don't i have to do anything today"
p1756
g15
tp1757
a(S'alice next please'
p1758
g15
tp1759
a(S'check events on month'
p1760
g15
tp1761
a(S'please would you check my inbox'
p1762
g30
tp1763
a(S'decrease the volume'
p1764
g15
tp1765
a(S'turn up the volume please'
p1766
g15
tp1767
a(S'will you check mail please'
p1768
g30
tp1769
a(S'tell me news feed'
p1770
g15
tp1771
a(S'current weather'
p1772
g15
tp1773
a(S'is there anything to do tomorrow'
p1774
g15
tp1775
a(S'what is in my mail please'
p1776
g30
tp1777
a(S'get temperature'
p1778
g15
tp1779
a(S'go back'
p1780
g15
tp1781
a(S'turn it up please'
p1782
g15
tp1783
a(S'can you add new event please'
p1784
g15
tp1785
a(S'open mail'
p1786
g30
tp1787
a(S'open dot org'
p1788
g15
tp1789
a(S'check calendar for thursday'
p1790
g15
tp1791
a(S'could you check inbox'
p1792
g30
tp1793
a(S'stop'
p1794
g15
tp1795
a(S'next spotify please'
p1796
g15
tp1797
a(S'do i have anything'
p1798
g15
tp1799
a(S'can you shut up'
p1800
g15
tp1801
a(S'turn the tune down'
p1802
g15
tp1803
a(S'please google search for'
p1804
g15
tp1805
a(S'please start a browser'
p1806
g15
tp1807
a(S'close current window'
p1808
g15
tp1809
a(S'check calendar for saturday'
p1810
g15
tp1811
a(S'what is in my gmail please'
p1812
g30
tp1813
a(S'am i free on'
p1814
g15
tp1815
a(S'google for'
p1816
g15
tp1817
a(S'am i free on next'
p1818
g15
tp1819
a(S'close window'
p1820
g15
tp1821
a(S'kill this window'
p1822
g15
tp1823
a(S'please open browser'
p1824
g15
tp1825
a(S"get this week's forecast"
p1826
g15
tp1827
a(S'is there anything to do on monday'
p1828
g15
tp1829
a(S'check calendar on'
p1830
g15
tp1831
a(S"don't i have anything today"
p1832
g15
tp1833
a(S'could you make new event'
p1834
g15
tp1835
a(S'turn the beat down please'
p1836
g15
tp1837
a(S'what events are on'
p1838
g15
tp1839
a(S'could you create an event'
p1840
g15
tp1841
a(S'can you put me on the lock screen'
p1842
g15
tp1843
a(S'get the time please'
p1844
g15
tp1845
a(S'can you create event'
p1846
g15
tp1847
a(S"what're the newsfeed"
p1848
g15
tp1849
a(S'can you please shut down my computer'
p1850
g15
tp1851
a(S'what is in gmail'
p1852
g30
tp1853
a(S'can you lock the screen please'
p1854
g15
tp1855
a(S'do i have any events on'
p1856
g15
tp1857
a(S'what do i have to do on monday'
p1858
g15
tp1859
a(S"how's the forecast today"
p1860
g15
tp1861
a(S'please close the active window'
p1862
g15
tp1863
a(S"what's if it's freezing this week"
p1864
g15
tp1865
a(S'google search for'
p1866
g15
tp1867
a(S'what is new in my mail'
p1868
g30
tp1869
a(S'am i free on saturday'
p1870
g15
tp1871
a(S'please louder'
p1872
g15
tp1873
a(S'check google calendar on next'
p1874
g15
tp1875
a(S'could you check my mail please'
p1876
g30
tp1877
a(S'could you please add a new event'
p1878
g15
tp1879
a(S'do i have any events on this day'
p1880
g15
tp1881
a(S'can you please turn up the volume'
p1882
g15
tp1883
a(S'do i have to do anything on saturday'
p1884
g15
tp1885
a(S'are there any events on wednesday'
p1886
g15
tp1887
a(S'turn it down'
p1888
g15
tp1889
a(S'sound higher please'
p1890
g15
tp1891
a(S'could you create event'
p1892
g15
tp1893
a(S'please google search'
p1894
g15
tp1895
a(S"if it's cloudy today"
p1896
g15
tp1897
a(S"what's the news feed"
p1898
g15
tp1899
a(S'make the volume zero'
p1900
g15
tp1901
a(S'could you make event please'
p1902
g15
tp1903
a(S'can you please turn off'
p1904
g15
tp1905
a(S'please would you check my mail'
p1906
g30
tp1907
a(S'can you schedule an event please'
p1908
g15
tp1909
a(S'are there any events on today'
p1910
g15
tp1911
a(S'open mail please'
p1912
g30
tp1913
a(S'check calendar on today'
p1914
g15
tp1915
a(S'check events for this month'
p1916
g15
tp1917
a(S'what are the the news'
p1918
g15
tp1919
a(S'what do i have on next'
p1920
g15
tp1921
a(S"don't i have any events on monday"
p1922
g15
tp1923
a(S"today's forecast"
p1924
g15
tp1925
a(S'turn yourself off please'
p1926
g15
tp1927
a(S'anything new in my gmail'
p1928
g30
tp1929
a(S'what is current events'
p1930
g15
tp1931
a(S"get if it's cold today"
p1932
g15
tp1933
a(S'would you open my mail please'
p1934
g30
tp1935
a(S'will you check new mail please'
p1936
g30
tp1937
a(S"aren't there any events in a week"
p1938
g15
tp1939
a(S'temperature'
p1940
g15
tp1941
a(S'can you shut off my computer'
p1942
g15
tp1943
a(S'shut down please'
p1944
g15
tp1945
a(S'can you close the active window'
p1946
g15
tp1947
a(S'open a default browser please'
p1948
g15
tp1949
a(S'do i have anything to do today'
p1950
g15
tp1951
a(S'pause spotify please'
p1952
g15
tp1953
a(S"today's weather"
p1954
g15
tp1955
a(S"if it's cold this week"
p1956
g15
tp1957
a(S'what is on my calendar for wednesday'
p1958
g15
tp1959
a(S'can you please turn up the sound'
p1960
g15
tp1961
a(S'make the sound higher'
p1962
g15
tp1963
a(S'search for'
p1964
g15
tp1965
a(S"don't i have to do anything on monday"
p1966
g15
tp1967
a(S'what do i have to do'
p1968
g15
tp1969
a(S'please check new mail'
p1970
g30
tp1971
a(S'turn up the tunes'
p1972
g15
tp1973
a(S'good night'
p1974
g15
tp1975
a(S'can you please schedule an event'
p1976
g15
tp1977
a(S'is it freezing today'
p1978
g15
tp1979
a(S'read your watch'
p1980
g15
tp1981
a(S"don't i have anything on this day"
p1982
g15
tp1983
a(S'please give me current events'
p1984
g15
tp1985
a(S'what is on my calendar for thursday'
p1986
g15
tp1987
a(S'what is on my calendar for sunday'
p1988
g15
tp1989
a(S'what events are on thursday'
p1990
g15
tp1991
a(S'is there anything to do on saturday'
p1992
g15
tp1993
a(S'can you add an event'
p1994
g15
tp1995
a(S"today's current events"
p1996
g15
tp1997
a(S'current events today'
p1998
g15
tp1999
a(S'what is in new gmail'
p2000
g30
tp2001
a(S'could you check new mail please'
p2002
g30
tp2003
a(S'do i have any events on saturday'
p2004
g15
tp2005
a(S'play song'
p2006
g15
tp2007
a(S'go to dot ee dee you'
p2008
g15
tp2009
a(S'read your watch please'
p2010
g15
tp2011
a(S'open my gmail'
p2012
g30
tp2013
a(S'can you shutdown'
p2014
g15
tp2015
a(S'any events on saturday'
p2016
g15
tp2017
a(S'please check the clock right now'
p2018
g15
tp2019
a(S'will you open my gmail'
p2020
g30
tp2021
a(S'tell me news'
p2022
g15
tp2023
a(S'can you create an event'
p2024
g15
tp2025
a(S'can you shutdown my computer'
p2026
g15
tp2027
a(S'could you open my inbox'
p2028
g30
tp2029
a(S'create event'
p2030
g15
tp2031
a(S'check calendar for tomorrow'
p2032
g15
tp2033
a(S'is it raining today'
p2034
g15
tp2035
a(S'start a default browser please'
p2036
g15
tp2037
a(S'shut down'
p2038
g15
tp2039
a(S'am i free on monday'
p2040
g15
tp2041
a(S"what's if it's snowing today"
p2042
g15
tp2043
a(S'check my calendar'
p2044
g15
tp2045
a(S'turn off the computer please'
p2046
g15
tp2047
a(S'will you check new gmail'
p2048
g30
tp2049
a(S'would you check new mail please'
p2050
g30
tp2051
a(S'please close the window'
p2052
g15
tp2053
a(S'am i free'
p2054
g15
tp2055
a(S'what is new in new mail'
p2056
g30
tp2057
a(S'would you check new gmail'
p2058
g30
tp2059
a(S'please check my mail'
p2060
g30
tp2061
a(S"don't i have to do anything on wednesday"
p2062
g15
tp2063
a(S'what are the live news'
p2064
g15
tp2065
a(S'can you make event please'
p2066
g15
tp2067
a(S"don't i have to do anything on"
p2068
g15
tp2069
a(S"if it's hot this week"
p2070
g15
tp2071
a(S'check new gmail please'
p2072
g30
tp2073
a(S'please shut off my computer'
p2074
g15
tp2075
a(S'please open my mail'
p2076
g30
tp2077
a(S'please would you open my gmail'
p2078
g30
tp2079
a(S'exit please'
p2080
g15
tp2081
a(S'what events do i have on this day'
p2082
g15
tp2083
a(S'current time'
p2084
g15
tp2085
a(S'can you turn off my computer'
p2086
g15
tp2087
a(S'could you schedule event please'
p2088
g15
tp2089
a(S"don't i have anything to do on monday"
p2090
g15
tp2091
a(S"if it's snowing today"
p2092
g15
tp2093
a(S'check calendar for today'
p2094
g15
tp2095
a(S'sound up please'
p2096
g15
tp2097
a(S'can you get the current events'
p2098
g15
tp2099
a(S"what's the headlines"
p2100
g15
tp2101
a(S"what's this week's forecast"
p2102
g15
tp2103
a(S'start a default browser'
p2104
g15
tp2105
a(S'please add event'
p2106
g15
tp2107
a(S'turn up the tunez please'
p2108
g15
tp2109
a(S'can you lock my computer please'
p2110
g15
tp2111
a(S'will you open inbox'
p2112
g30
tp2113
a(S'please open dot com'
p2114
g15
tp2115
a(S'current news today'
p2116
g15
tp2117
a(S'please what is new in my gmail'
p2118
g30
tp2119
a(S'please could you check inbox'
p2120
g30
tp2121
a(S'tell me live newsfeed'
p2122
g15
tp2123
a(S'create an event'
p2124
g15
tp2125
a(S'check google calendar for today'
p2126
g15
tp2127
a(S'check my calendar for tuesday'
p2128
g15
tp2129
a(S'any events on tuesday'
p2130
g15
tp2131
a(S'do i have anything to do on this day'
p2132
g15
tp2133
a(S'check google calendar on tomorrow'
p2134
g15
tp2135
a(S'could you open mail'
p2136
g30
tp2137
a(S'find news feed'
p2138
g15
tp2139
a(S'what do i have to do in a month'
p2140
g15
tp2141
a(S"if it's freezing this week"
p2142
g15
tp2143
a(S'what is on my calendar for tuesday'
p2144
g15
tp2145
a(S'go to dot com'
p2146
g15
tp2147
a(S'headlines today'
p2148
g15
tp2149
a(S'please will you check my mail'
p2150
g30
tp2151
a(S'do i have anything to do next'
p2152
g15
tp2153
a(S"what's in my mail please"
p2154
g30
tp2155
a(S'do i have anything to do on sunday'
p2156
g15
tp2157
a(S'spotify start the song please'
p2158
g15
tp2159
a(S'spotify go to the last song'
p2160
g15
tp2161
a(S'could you create an event please'
p2162
g15
tp2163
a(S'newsfeed'
p2164
g15
tp2165
a(S'open browser'
p2166
g15
tp2167
a(S"what's if it's foggy this week"
p2168
g15
tp2169
a(S'could you please schedule a new event'
p2170
g15
tp2171
a(S"don't i have any events on this day"
p2172
g15
tp2173
a(S'am i free for next'
p2174
g15
tp2175
a(S"what's this week's weather"
p2176
g15
tp2177
a(S'please last song'
p2178
g15
tp2179
a(S'get live news'
p2180
g15
tp2181
a(S'check my calendar on sunday'
p2182
g15
tp2183
a(S"please what's in mail"
p2184
g30
tp2185
a(S'start browsing please'
p2186
g15
tp2187
a(S'can you please add new event'
p2188
g15
tp2189
a(S'lower the volume'
p2190
g15
tp2191
a(S'what is on my calendar for monday'
p2192
g15
tp2193
a(S'check google calendar for'
p2194
g15
tp2195
a(S'can you lock my computer please'
p2196
g15
tp2197
a(S'please get the current events'
p2198
g15
tp2199
a(S'please give me the news'
p2200
g15
tp2201
a(S'what do i have to do on saturday'
p2202
g15
tp2203
a(S"what's the newsfeed"
p2204
g15
tp2205
a(S'search please'
p2206
g15
tp2207
a(S'can you please kill this window'
p2208
g15
tp2209
a(S"please what's in new gmail"
p2210
g30
tp2211
a(S'please will you check new gmail'
p2212
g30
tp2213
a(S'please can you check new mail'
p2214
g30
tp2215
a(S'increase the volume'
p2216
g15
tp2217
a(S"what's new in gmail"
p2218
g30
tp2219
a(S'please kill the current window'
p2220
g15
tp2221
a(S'shutdown my computer please'
p2222
g15
tp2223
a(S'check the current time please'
p2224
g15
tp2225
a(S'what is new in gmail'
p2226
g30
tp2227
a(S'can you check new mail'
p2228
g30
tp2229
a(S'shutdown the computer'
p2230
g15
tp2231
a(S'are there any events on sunday'
p2232
g15
tp2233
a(S'make new event'
p2234
g15
tp2235
a(S'can you make an event please'
p2236
g15
tp2237
a(S'please get the current time'
p2238
g15
tp2239
a(S"today's temperature"
p2240
g15
tp2241
a(S'can you please shutdown my computer'
p2242
g15
tp2243
a(S'is it freezing this week'
p2244
g15
tp2245
a(S'please could you open inbox'
p2246
g30
tp2247
a(S'can you lock computer'
p2248
g15
tp2249
a(S"what're the current events"
p2250
g15
tp2251
a(S'pause the song please'
p2252
g15
tp2253
a(S'please could you check my gmail'
p2254
g30
tp2255
a(S'do i have anything on friday'
p2256
g15
tp2257
a(S'do i have anything to do on monday'
p2258
g15
tp2259
a(S'what events are on tomorrow'
p2260
g15
tp2261
a(S'please sound higher'
p2262
g15
tp2263
a(S'what is on my calendar'
p2264
g15
tp2265
a(S'briefing'
p2266
g15
tp2267
a(S"what's in mail please"
p2268
g30
tp2269
a(S'check my calendar for'
p2270
g15
tp2271
a(S'what is in my inbox'
p2272
g30
tp2273
a(S'could you please create a new event'
p2274
g15
tp2275
a(S'please what is in gmail'
p2276
g30
tp2277
a(S"what's in my gmail"
p2278
g30
tp2279
a(S'would you open mail'
p2280
g30
tp2281
a(S'find headlines'
p2282
g15
tp2283
a(S'schedule new event'
p2284
g15
tp2285
a(S'be quiet'
p2286
g15
tp2287
a(S'please google for'
p2288
g15
tp2289
a(S'do i have anything today'
p2290
g15
tp2291
a(S'can you turn up the sound'
p2292
g15
tp2293
a(S'will you check my gmail please'
p2294
g30
tp2295
a(S'could you make a new event'
p2296
g15
tp2297
a(S'read me the clock please'
p2298
g15
tp2299
a(S'please google'
p2300
g15
tp2301
a(S"aren't there any events on next"
p2302
g15
tp2303
a(S'will you get the current events'
p2304
g15
tp2305
a(S"don't i have to do anything in a week"
p2306
g15
tp2307
a(S'please go spotify'
p2308
g15
tp2309
a(S'time'
p2310
g15
tp2311
a(S'am i free in a month'
p2312
g15
tp2313
a(S'spotify start please'
p2314
g15
tp2315
a(S"today's live newsfeed"
p2316
g15
tp2317
a(S'check google calendar for this day'
p2318
g15
tp2319
a(S"this week's weather"
p2320
g15
tp2321
a(S'please add a new event'
p2322
g15
tp2323
a(S"don't i have to do anything"
p2324
g15
tp2325
a(S'could you add a new event please'
p2326
g15
tp2327
a(S'please check gmail'
p2328
g30
tp2329
a(S'can you turn yourself off'
p2330
g15
tp2331
a(S"what's in new mail"
p2332
g30
tp2333
a(S'please check my gmail'
p2334
g30
tp2335
a(S'spotify play previous song please'
p2336
g15
tp2337
a(S'what are the live newsfeed'
p2338
g15
tp2339
a(S'open my inbox'
p2340
g30
tp2341
a(S'do i have to do anything on next'
p2342
g15
tp2343
a(S'gather information on todays current events please'
p2344
g15
tp2345
a(S'go to'
p2346
g15
tp2347
a(S'go to dot edu'
p2348
g15
tp2349
a(S'please search google'
p2350
g15
tp2351
a(S'shut up'
p2352
g15
tp2353
a(S"what's if it's hot today"
p2354
g15
tp2355
a(S'bye'
p2356
g15
tp2357
a(S'check google calendar on this day'
p2358
g15
tp2359
a(S'shut up please'
p2360
g15
tp2361
a(S'could you add an event'
p2362
g15
tp2363
a(S'would you check gmail please'
p2364
g30
tp2365
a(S'current forecast'
p2366
g15
tp2367
a(S'read the time please'
p2368
g15
tp2369
a(S'please turn off'
p2370
g15
tp2371
a(S'are there any events on this day'
p2372
g15
tp2373
a(S'what is in my mail'
p2374
g30
tp2375
a(S'check my calendar for next'
p2376
g15
tp2377
a(S'would you check inbox please'
p2378
g30
tp2379
a(S'what are the newsfeed'
p2380
g15
tp2381
a(S'what is live news feed'
p2382
g15
tp2383
a(S'please will you check mail'
p2384
g30
tp2385
a(S'can you turn up the tunez'
p2386
g15
tp2387
a(S"what's the time"
p2388
g15
tp2389
a(S'the news today'
p2390
g15
tp2391
a(S'check events on today'
p2392
g15
tp2393
a(S"aren't there any events on tomorrow"
p2394
g15
tp2395
a(S'news today'
p2396
g15
tp2397
a(S'open a browser please'
p2398
g15
tp2399
a(S"get if it's freezing today"
p2400
g15
tp2401
a(S'could you check inbox please'
p2402
g30
tp2403
a(S"aren't there any events on today"
p2404
g15
tp2405
a(S'please get the news'
p2406
g15
tp2407
a(S'check gmail please'
p2408
g30
tp2409
a(S'open dot net'
p2410
g15
tp2411
a(S'skip'
p2412
g15
tp2413
a(S'what is new in new mail please'
p2414
g30
tp2415
a(S"get if it's snowing this week"
p2416
g15
tp2417
a(S'what is new in my gmail please'
p2418
g30
tp2419
a(S'check google calendar for wednesday'
p2420
g15
tp2421
a(S"don't i have anything on thursday"
p2422
g15
tp2423
a(S'check my calendar on wednesday'
p2424
g15
tp2425
a(S'mute'
p2426
g15
tp2427
a(S'get news'
p2428
g15
tp2429
a(S'quit'
p2430
g15
tp2431
a(S'search google'
p2432
g15
tp2433
a(S'please will you check my inbox'
p2434
g30
tp2435
a(S'stop the song'
p2436
g15
tp2437
a(S'please read the clock'
p2438
g15
tp2439
a(S'can you add a new event please'
p2440
g15
tp2441
a(S'will you open my inbox please'
p2442
g30
tp2443
a(S'what is current news'
p2444
g15
tp2445
a(S'could you create event please'
p2446
g15
tp2447
a(S'turn off please'
p2448
g15
tp2449
a(S'get the current events'
p2450
g15
tp2451
a(S'check my calendar on'
p2452
g15
tp2453
a(S'please check what time it is'
p2454
g15
tp2455
a(S'do i have any events on tuesday'
p2456
g15
tp2457
a(S'is there anything to do on tomorrow'
p2458
g15
tp2459
a(S"don't i have anything to do on this day"
p2460
g15
tp2461
a(S'check my calendar on tomorrow'
p2462
g15
tp2463
a(S"don't i have to do anything on monday"
p2464
g15
tp2465
a(S'check my calendar on this day'
p2466
g15
tp2467
a(S'whats going on in the world todays please'
p2468
g15
tp2469
a(S'brief me'
p2470
g15
tp2471
a(S"get if it's hot today"
p2472
g15
tp2473
a(S'please start a default browser'
p2474
g15
tp2475
a(S'open default browser'
p2476
g15
tp2477
a(S"don't i have anything to do in a week"
p2478
g15
tp2479
a(S'could you add an event please'
p2480
g15
tp2481
a(S'get current weather'
p2482
g15
tp2483
a(S'get newsfeed'
p2484
g15
tp2485
a(S'please search google for'
p2486
g15
tp2487
a(S'can you make a new event'
p2488
g15
tp2489
a(S'are there any events'
p2490
g15
tp2491
a(S'can you please make a new event'
p2492
g15
tp2493
a(S"what's if it's freezing today"
p2494
g15
tp2495
a(S"if it's rainy today"
p2496
g15
tp2497
a(S'can you please shut off'
p2498
g15
tp2499
a(S'do i have anything on this day'
p2500
g15
tp2501
a(S'check calendar'
p2502
g15
tp2503
a(S'am i free for friday'
p2504
g15
tp2505
a(S'anything in gmail'
p2506
g30
tp2507
a(S"please what's new in my gmail"
p2508
g30
tp2509
a(S'please will you open my mail'
p2510
g30
tp2511
a(S'would you check mail please'
p2512
g30
tp2513
a(S'please turn it up'
p2514
g15
tp2515
a(S'please stop song'
p2516
g15
tp2517
a(S"aren't there any events on wednesday"
p2518
g15
tp2519
a(S'could you open my inbox please'
p2520
g30
tp2521
a(S'could you check gmail please'
p2522
g30
tp2523
a(S'can you check gmail please'
p2524
g30
tp2525
a(S'am i free for a month'
p2526
g15
tp2527
a(S'please schedule a new event'
p2528
g15
tp2529
a(S'what is in new gmail please'
p2530
g30
tp2531
a(S'open my mail please'
p2532
g30
tp2533
a(S'please will you check inbox'
p2534
g30
tp2535
a(S'schedule an event'
p2536
g15
tp2537
a(S"get if it's foggy today"
p2538
g15
tp2539
a(S'what do i have'
p2540
g15
tp2541
a(S'open my inbox please'
p2542
g30
tp2543
a(S'news feed'
p2544
g15
tp2545
a(S'can you please kill the window'
p2546
g15
tp2547
a(S'do i have anything on tuesday'
p2548
g15
tp2549
a(S'check my mail'
p2550
g30
tp2551
a(S'please check mail'
p2552
g30
tp2553
a(S'volume up'
p2554
g15
tp2555
a(S'can you lock the screen'
p2556
g15
tp2557
a(S"what's the the news"
p2558
g15
tp2559
a(S'live news feed today'
p2560
g15
tp2561
a(S'what do i have in a month'
p2562
g15
tp2563
a(S'please start'
p2564
g15
tp2565
a(S'please can you check mail'
p2566
g30
tp2567
a(S'anything new in gmail'
p2568
g30
tp2569
a(S'search google please'
p2570
g15
tp2571
a(S'check my gmail'
p2572
g30
tp2573
a(S'can you please turn up the tune'
p2574
g15
tp2575
a(S'do i have to do anything on this day'
p2576
g15
tp2577
a(S'go back to the last song'
p2578
g15
tp2579
a(S'find the current events'
p2580
g15
tp2581
a(S'kill the music'
p2582
g15
tp2583
a(S'please can you turn the volume higher'
p2584
g15
tp2585
a(S'do i have any events on next'
p2586
g15
tp2587
a(S'google'
p2588
g15
tp2589
a(S'any events on friday'
p2590
g15
tp2591
a(S'can you make new event please'
p2592
g15
tp2593
a(S"don't i have any events on sunday"
p2594
g15
tp2595
a(S'what are the current news'
p2596
g15
tp2597
a(S'please could you open gmail'
p2598
g30
tp2599
a(S"what's the clock"
p2600
g15
tp2601
a(S'what is going on in the world today'
p2602
g15
tp2603
a(S'is there anything i have to do on thursday'
p2604
g15
tp2605
a(S'please give me the current events please'
p2606
g15
tp2607
a(S"don't i have to do anything on tuesday"
p2608
g15
tp2609
a(S'turn up the tune'
p2610
g15
tp2611
a(S'do i have anything to do on friday'
p2612
g15
tp2613
a(S"what's if it's raining this week"
p2614
g15
tp2615
a(S'get current forecast'
p2616
g15
tp2617
a(S'any events on wednesday'
p2618
g15
tp2619
a(S"if it's cold today"
p2620
g15
tp2621
a(S"what's the live newsfeed"
p2622
g15
tp2623
a(S'please what is in my inbox'
p2624
g30
tp2625
a(S'make a new event'
p2626
g15
tp2627
a(S'will you get the headlines'
p2628
g15
tp2629
a(S'please what is new in my mail'
p2630
g30
tp2631
a(S'see ya alice'
p2632
g15
tp2633
a(S"today's headlines"
p2634
g15
tp2635
a(S'please turn off my computer'
p2636
g15
tp2637
a(S'shutdown'
p2638
g15
tp2639
a(S'turn up the the beat'
p2640
g15
tp2641
a(S'what events are on next'
p2642
g15
tp2643
a(S'do i have anything to do in a week'
p2644
g15
tp2645
a(S'do i have anything in my inbox'
p2646
g30
tp2647
a(S'check events on friday'
p2648
g15
tp2649
a(S"get if it's cloudy this week"
p2650
g15
tp2651
a(S'music down'
p2652
g15
tp2653
a(S'predict the outcome on a new document'
p2654
g15
tp2655
a(S'please start browsing'
p2656
g15
tp2657
a(S'do i have to do anything in a month'
p2658
g15
tp2659
a(S'could you please add an event'
p2660
g15
tp2661
a(S'could you please make an event'
p2662
g15
tp2663
a(S'create a new event please'
p2664
g15
tp2665
a(S'what is headlines'
p2666
g15
tp2667
a(S'any events on thursday'
p2668
g15
tp2669
a(S'please shut off'
p2670
g15
tp2671
a(S'is there anything i have to do on monday'
p2672
g15
tp2673
a(S'please find out the latest headlines'
p2674
g15
tp2675
a(S'alice'
p2676
g15
tp2677
a(S'find live news feed'
p2678
g15
tp2679
a(S'emergency shutdown'
p2680
g15
tp2681
a(S"get today's temperature"
p2682
g15
tp2683
a(S'start'
p2684
g15
tp2685
a(S'spotify last please'
p2686
g15
tp2687
a(S'what is new in inbox'
p2688
g30
tp2689
a(S'can you shutdown the computer'
p2690
g15
tp2691
a(S'can you please turn the tune down'
p2692
g15
tp2693
a(S'could you schedule a new event'
p2694
g15
tp2695
a(S'weather'
p2696
g15
tp2697
a(S'could you make new event please'
p2698
g15
tp2699
a(S'please send me to the lock screen'
p2700
g15
tp2701
a(S'get the current time please'
p2702
g15
tp2703
a(S'could you open mail please'
p2704
g30
tp2705
a(S'could you create new event please'
p2706
g15
tp2707
a(S'what time is it right now'
p2708
g15
tp2709
a(S'spotify stop'
p2710
g15
tp2711
a(S'what do i have to do on'
p2712
g15
tp2713
a(S'get the news'
p2714
g15
tp2715
a(S'spotify shut up'
p2716
g15
tp2717
a(S'do i have any events in a week'
p2718
g15
tp2719
a(S'train a classifier to try to predict the category of a post'
p2720
g15
tp2721
a(S'please could you open my gmail'
p2722
g30
tp2723
a(S"what's if it's snowing this week"
p2724
g15
tp2725
a(S'can you get information on the current events'
p2726
g15
tp2727
a(S'play the song before'
p2728
g15
tp2729
a(S'can you please create a new event'
p2730
g15
tp2731
a(S'is there anything i have to do in a month'
p2732
g15
tp2733
a(S'could you add new event'
p2734
g15
tp2735
a(S'are there any events in a week'
p2736
g15
tp2737
a(S'will you open my gmail please'
p2738
g30
tp2739
a(S"please what's in my inbox"
p2740
g30
tp2741
a(S'check events for today'
p2742
g15
tp2743
a(S'please close current window'
p2744
g15
tp2745
a(S'please shutdown'
p2746
g15
tp2747
a(S'find current news'
p2748
g15
tp2749
a(S'is there anything i have to do on saturday'
p2750
g15
tp2751
a(S'please read your watch'
p2752
g15
tp2753
a(S'can you mute'
p2754
g15
tp2755
a(S'is it cloudy this week'
p2756
g15
tp2757
a(S'check calendar for wednesday'
p2758
g15
tp2759
a(S'what is on my calendar for this week'
p2760
g15
tp2761
a(S'get the current events'
p2762
g15
tp2763
a(S'spotify go please'
p2764
g15
tp2765
a(S'retrieve what time it is'
p2766
g15
tp2767
a(S'please will you check gmail'
p2768
g30
tp2769
a(S'please what is in my mail'
p2770
g30
tp2771
a(S'do i have to do anything on monday'
p2772
g15
tp2773
a(S'start a browser please'
p2774
g15
tp2775
a(S'check events for tuesday'
p2776
g15
tp2777
a(S'turn up the beat'
p2778
g15
tp2779
a(S'please kill the active window'
p2780
g15
tp2781
a(S'is there anything i have to do on this day'
p2782
g15
tp2783
a(S'find news'
p2784
g15
tp2785
a(S'is it snowing this week'
p2786
g15
tp2787
a(S'can you please shutdown'
p2788
g15
tp2789
a(S'what do i have on today'
p2790
g15
tp2791
a(S"please what's new in new mail"
p2792
g30
tp2793
a(S'can you shut off'
p2794
g15
tp2795
a(S'please play spotify'
p2796
g15
tp2797
a(S"get if it's rainy today"
p2798
g15
tp2799
a(S'could you schedule an event'
p2800
g15
tp2801
a(S'add new event please'
p2802
g15
tp2803
a(S'please get clock'
p2804
g15
tp2805
a(S'am i free today'
p2806
g15
tp2807
a(S'do i have any events on sunday'
p2808
g15
tp2809
a(S'will it rain today'
p2810
g15
tp2811
a(S'open my gmail please'
p2812
g30
tp2813
a(S'give me the current events please'
p2814
g15
tp2815
a(S'read me the clock'
p2816
g15
tp2817
a(S'what events do i have in a week'
p2818
g15
tp2819
a(S"what's new in my mail"
p2820
g30
tp2821
a(S"if it's foggy this week"
p2822
g15
tp2823
a(S'what events are in a month'
p2824
g15
tp2825
a(S'put me on the lock screen please'
p2826
g15
tp2827
a(S'can you kill the window'
p2828
g15
tp2829
a(S'close the current window'
p2830
g15
tp2831
a(S"what's if it's rainy this week"
p2832
g15
tp2833
a(S'are there any events on saturday'
p2834
g15
tp2835
a(S"don't i have to do anything on next"
p2836
g15
tp2837
a(S"what's the weather today"
p2838
g15
tp2839
a(S'open gmail please'
p2840
g30
tp2841
a(S'could you create a new event please'
p2842
g15
tp2843
a(S'todays headlines'
p2844
g15
tp2845
a(S'find live newsfeed'
p2846
g15
tp2847
a(S'will it hail this week'
p2848
g15
tp2849
a(S'kill the noise'
p2850
g15
tp2851
a(S'hey alex'
p2852
g15
tp2853
a(S'please open inbox'
p2854
g30
tp2855
a(S'create event please'
p2856
g15
tp2857
a(S'get the information'
p2858
g15
tp2859
a(S'do i have any events on tomorrow'
p2860
g15
tp2861
a(S'issue commands'
p2862
g15
tp2863
a(S'check google calendar on'
p2864
g15
tp2865
a(S'can you create event please'
p2866
g15
tp2867
a(S'kill the active program'
p2868
g15
tp2869
a(S'set volume 0'
p2870
g15
tp2871
a(S'please check the clock'
p2872
g15
tp2873
a(S'can you add event please'
p2874
g15
tp2875
a(S'google please for'
p2876
g15
tp2877
a(S'read time please'
p2878
g15
tp2879
a(S'check calendar for next'
p2880
g15
tp2881
a(S'please get the clock'
p2882
g15
tp2883
a(S'what is the news'
p2884
g15
tp2885
a(S'please make an event'
p2886
g15
tp2887
a(S'clock'
p2888
g15
tp2889
a(S'make an event please'
p2890
g15
tp2891
a(S'can you please turn up the tunez'
p2892
g15
tp2893
a(S'turn yourself off'
p2894
g15
tp2895
a(S'do i have anything to do tomorrow'
p2896
g15
tp2897
a(S'do i have anything in a month'
p2898
g15
tp2899
a(S'anything in my inbox'
p2900
g30
tp2901
a(S'get current events'
p2902
g15
tp2903
a(S'is there anything to do on'
p2904
g15
tp2905
a(S'please spotify previous song'
p2906
g15
tp2907
a(S'what do i have on'
p2908
g15
tp2909
a(S'can you schedule a new event please'
p2910
g15
tp2911
a(S'add a new event please'
p2912
g15
tp2913
a(S'check calendar'
p2914
g15
tp2915
a(S'please be quiet'
p2916
g15
tp2917
a(S'how is the weather'
p2918
g15
tp2919
a(S'what events are on this day'
p2920
g15
tp2921
a(S'am i free for saturday'
p2922
g15
tp2923
a(S'check google calendar for sunday'
p2924
g15
tp2925
a(S"don't i have any events on today"
p2926
g15
tp2927
a(S'could you please create new event'
p2928
g15
tp2929
a(S"please what's new in my inbox"
p2930
g30
tp2931
a(S'what is new in inbox please'
p2932
g30
tp2933
a(S"get if it's foggy this week"
p2934
g15
tp2935
a(S'kill active window'
p2936
g15
tp2937
a(S'am i free for tuesday'
p2938
g15
tp2939
a(S'shutdown my computer'
p2940
g15
tp2941
a(S'please open my gmail'
p2942
g30
tp2943
a(S'close current program'
p2944
g15
tp2945
a(S"what's the current events"
p2946
g15
tp2947
a(S'stop the tunez'
p2948
g15
tp2949
a(S'i like dogs'
p2950
g15
tp2951
a(S'schedule event please'
p2952
g15
tp2953
a(S'do i have any events on monday'
p2954
g15
tp2955
a(S'can you send me to the lock screen please'
p2956
g15
tp2957
a(S'gather information on'
p2958
g15
tp2959
a(S'tell me headlines'
p2960
g15
tp2961
a(S'check calendar on next'
p2962
g15
tp2963
a(S'current news'
p2964
g15
tp2965
a(S'spotify skip'
p2966
g15
tp2967
a(S"get this week's temperature"
p2968
g15
tp2969
a(S'spotify play the song before'
p2970
g15
tp2971
a(S'send me to the lock screen'
p2972
g15
tp2973
a(S"get if it's snowing today"
p2974
g15
tp2975
a(S'can you unmute please'
p2976
g15
tp2977
a(S'what is new in new gmail please'
p2978
g30
tp2979
a(S'will you check inbox please'
p2980
g30
tp2981
a(S'check my calendar for sunday'
p2982
g15
tp2983
a(S"don't i have any events on tuesday"
p2984
g15
tp2985
a(S'go back please'
p2986
g15
tp2987
a(S'can you get the latest headlines'
p2988
g15
tp2989
a(S"what're the the news"
p2990
g15
tp2991
a(S'could you schedule new event please'
p2992
g15
tp2993
a(S'current events'
p2994
g15
tp2995
a(S'what are the headlines'
p2996
g15
tp2997
a(S'will you open a browser'
p2998
g15
tp2999
a(S'spotify play last song please'
p3000
g15
tp3001
a(S'can you check new gmail'
p3002
g30
tp3003
a(S'create a new event'
p3004
g15
tp3005
a(S'check my calendar on this month'
p3006
g15
tp3007
a(S'please go back'
p3008
g15
tp3009
a(S'please check the current time'
p3010
g15
tp3011
a(S'what is live newsfeed'
p3012
g15
tp3013
a(S'what is new in my gmail'
p3014
g30
tp3015
a(S'what is on my calendar for'
p3016
g15
tp3017
a(S'is there anything to do on today'
p3018
g15
tp3019
a(S'please check inbox'
p3020
g30
tp3021
a(S"don't i have anything to do on"
p3022
g15
tp3023
a(S'check calendar for this week'
p3024
g15
tp3025
a(S'can you schedule event please'
p3026
g15
tp3027
a(S'can you check gmail'
p3028
g30
tp3029
a(S'can you schedule new event please'
p3030
g15
tp3031
a(S'any events on sunday'
p3032
g15
tp3033
a(S'is there anything i have to do in a week'
p3034
g15
tp3035
a(S'can you shut my computer down'
p3036
g15
tp3037
a(S'anything new in my mail'
p3038
g30
tp3039
a(S'current events'
p3040
g15
tp3041
a(S'open inbox please'
p3042
g30
tp3043
a(S"don't i have anything on next"
p3044
g15
tp3045
a(S'lower the tunez please'
p3046
g15
tp3047
a(S"don't i have anything to do on wednesday"
p3048
g15
tp3049
a(S'turn off'
p3050
g15
tp3051
a(S'check if i have anything in my inbox'
p3052
g30
tp3053
a(S'can you please turn my computer off'
p3054
g15
tp3055
a(S'can you turn the beat down'
p3056
g15
tp3057
a(S'last song please'
p3058
g15
tp3059
a(S'please get me the clock'
p3060
g15
tp3061
a(S"what's if it's cold this week"
p3062
g15
tp3063
a(S'is it cold today'
p3064
g15
tp3065
a(S'when is it please'
p3066
g15
tp3067
a(S'go spotify please'
p3068
g15
tp3069
a(S'would you open my gmail'
p3070
g30
tp3071
a(S"how's the temperature today"
p3072
g15
tp3073
a(S'what do i have to do on today'
p3074
g15
tp3075
a(S'please would you open my mail'
p3076
g30
tp3077
a(S'could you check my mail'
p3078
g30
tp3079
a(S'is there anything i have to do on next'
p3080
g15
tp3081
a(S"don't i have anything to do on sunday"
p3082
g15
tp3083
a(S'what events are in a week'
p3084
g15
tp3085
a(S'would you check my gmail please'
p3086
g30
tp3087
a(S'what events are on today'
p3088
g15
tp3089
a(S'are there any events on tomorrow'
p3090
g15
tp3091
a(S'get time please'
p3092
g15
tp3093
a(S'create new event'
p3094
g15
tp3095
a(S'could you check new gmail please'
p3096
g30
tp3097
a(S'make the volume 0'
p3098
g15
tp3099
a(S'could you schedule event'
p3100
g15
tp3101
a(S'anything in my mail'
p3102
g30
tp3103
a(S'can you create a new event please'
p3104
g15
tp3105
a(S'what is in the news today'
p3106
g15
tp3107
a(S'is there anything to do on friday'
p3108
g15
tp3109
a(S'can you check mail please'
p3110
g30
tp3111
a(S'get current time please'
p3112
g15
tp3113
a(S"what's in mail"
p3114
g30
tp3115
a(S"don't i have anything"
p3116
g15
tp3117
a(S'will you open mail'
p3118
g30
tp3119
a(S'close this window'
p3120
g15
tp3121
a(S'what are the current events today'
p3122
g15
tp3123
a(S'can you create new event'
p3124
g15
tp3125
a(S'can you create new event please'
p3126
g15
tp3127
a(S'please lock my computer'
p3128
g15
tp3129
a(S'schedule a new event please'
p3130
g15
tp3131
a(S'retrieve the current time please'
p3132
g15
tp3133
a(S'check calendar on this week'
p3134
g15
tp3135
a(S'could you please make new event'
p3136
g15
tp3137
a(S'do i have anything on sunday'
p3138
g15
tp3139
a(S"don't i have to do anything in a month"
p3140
g15
tp3141
a(S'what are the current events'
p3142
g15
tp3143
a(S'will you check gmail'
p3144
g30
tp3145
a(S'can you check my inbox'
p3146
g30
tp3147
a(S'stop spotify'
p3148
g15
tp3149
a(S'check events on saturday'
p3150
g15
tp3151
a(S'spotify previous please'
p3152
g15
tp3153
a(S'are there any events on tuesday'
p3154
g15
tp3155
a(S'could you schedule new event'
p3156
g15
tp3157
a(S'can you please close the current window'
p3158
g15
tp3159
a(S'shut off please'
p3160
g15
tp3161
a(S"don't i have anything to do on tuesday"
p3162
g15
tp3163
a(S'can you make a new event please'
p3164
g15
tp3165
a(S'what events do i have on saturday'
p3166
g15
tp3167
a(S'what events do i have'
p3168
g15
tp3169
a(S'please could you check gmail'
p3170
g30
tp3171
a(S"what's new in new gmail"
p3172
g30
tp3173
a(S'close the active window'
p3174
g15
tp3175
a(S'please spotify last'
p3176
g15
tp3177
a(S'tell me current events'
p3178
g15
tp3179
a(S'please can you check new gmail'
p3180
g30
tp3181
a(S'can you close this window'
p3182
g15
tp3183
a(S'get the clock'
p3184
g15
tp3185
a(S'spotify go back'
p3186
g15
tp3187
a(S'can you turn up the beat'
p3188
g15
tp3189
a(S'please lock computer'
p3190
g15
tp3191
a(S"aren't there any events on this day"
p3192
g15
tp3193
a(S'please what is in new mail'
p3194
g30
tp3195
a(S'live news'
p3196
g15
tp3197
a(S'will it snow today'
p3198
g15
tp3199
a(S'turn down the sound'
p3200
g15
tp3201
a(S'can you check my gmail please'
p3202
g30
tp3203
a(S'can you please make new event'
p3204
g15
tp3205
a(S'am i free'
p3206
g15
tp3207
a(S'will you check new mail'
p3208
g30
tp3209
a(S'can you please turn the sound down'
p3210
g15
tp3211
a(S'can you open this program'
p3212
g15
tp3213
a(S'check my calendar on monday'
p3214
g15
tp3215
a(S"if it's cloudy this week"
p3216
g15
tp3217
a(S'check google calendar for this month'
p3218
g15
tp3219
a(S"don't i have any events on"
p3220
g15
tp3221
a(S'please what is new in new mail'
p3222
g30
tp3223
a(S'check google calendar for this week'
p3224
g15
tp3225
a(S'spotify last song please'
p3226
g15
tp3227
a(S"if it's foggy today"
p3228
g15
tp3229
a(S'please shutdown my computer'
p3230
g15
tp3231
a(S'could you please make a new event'
p3232
g15
tp3233
a(S'can you shut down the computer'
p3234
g15
tp3235
a(S'retrieve what time it is please'
p3236
g15
tp3237
a(S'check calendar on tomorrow'
p3238
g15
tp3239
a(S"how's the temperature this week"
p3240
g15
tp3241
a(S'unpause the song'
p3242
g15
tp3243
a(S'skip spotify please'
p3244
g15
tp3245
a(S'anything in mail'
p3246
g30
tp3247
a(S'please spotify last song'
p3248
g15
tp3249
a(S'check your watch'
p3250
g15
tp3251
a(S'please start default browser'
p3252
g15
tp3253
a(S"don't i have anything to do in a month"
p3254
g15
tp3255
a(S'go ahead spotify please'
p3256
g15
tp3257
a(S'check calendar for this day'
p3258
g15
tp3259
a(S'give me the current events'
p3260
g15
tp3261
a(S'kill the active window'
p3262
g15
tp3263
a(S'please retrieve the time'
p3264
g15
tp3265
a(S'please kill the window'
p3266
g15
tp3267
a(S'see you'
p3268
g15
tp3269
a(S'what is news'
p3270
g15
tp3271
a(S'is there anything to do on this day'
p3272
g15
tp3273
a(S"today's news feed"
p3274
g15
tp3275
a(S'make the sound louder'
p3276
g15
tp3277
a(S'is there anything to do today'
p3278
g15
tp3279
a(S'can you add event'
p3280
g15
tp3281
a(S"what's the forecast"
p3282
g15
tp3283
a(S"what's the temperature today"
p3284
g15
tp3285
a(S'check google calendar for saturday'
p3286
g15
tp3287
a(S'is there anything i have to do on'
p3288
g15
tp3289
a(S'any events in a month'
p3290
g15
tp3291
a(S'check calendar on monday'
p3292
g15
tp3293
a(S'please what is in new gmail'
p3294
g30
tp3295
a(S'check events for friday'
p3296
g15
tp3297
a(S'can you make event'
p3298
g15
tp3299
a(S'check gmail'
p3300
g30
tp3301
a(S'would you check inbox'
p3302
g30
tp3303
a(S'can you check inbox please'
p3304
g30
tp3305
a(S'would you open inbox please'
p3306
g30
tp3307
a(S'will you open gmail please'
p3308
g30
tp3309
a(S'add an event'
p3310
g15
tp3311
a(S'could you please schedule an event'
p3312
g15
tp3313
a(S'make the sound quieter'
p3314
g15
tp3315
a(S'check google calendar'
p3316
g15
tp3317
a(S"today's current news "
p3318
g15
tp3319
a(S'please what is in my gmail'
p3320
g30
tp3321
a(S'please read time'
p3322
g15
tp3323
a(S"what's in my inbox"
p3324
g30
tp3325
a(S'any events on next'
p3326
g15
tp3327
a(S"don't i have anything tomorrow"
p3328
g15
tp3329
a(S'check calendar on friday'
p3330
g15
tp3331
a(S'start a browser'
p3332
g15
tp3333
a(S'do i have any events on wednesday'
p3334
g15
tp3335
a(S'what is newsfeed'
p3336
g15
tp3337
a(S'can you schedule new event'
p3338
g15
tp3339
a(S'please open a browser'
p3340
g15
tp3341
a(S'get news feed'
p3342
g15
tp3343
a(S'check my calendar for saturday'
p3344
g15
tp3345
a(S'check google calendar on thursday'
p3346
g15
tp3347
a(S'could you please make event'
p3348
g15
tp3349
a(S"if it's raining today"
p3350
g15
tp3351
a(S'spotify go back to the last song'
p3352
g15
tp3353
a(S'what do i have to do on tomorrow'
p3354
g15
tp3355
a(S'please create new event'
p3356
g15
tp3357
a(S'can you please add event'
p3358
g15
tp3359
a(S'what do i have in a week'
p3360
g15
tp3361
a(S'am i free for tomorrow'
p3362
g15
tp3363
a(S'start song'
p3364
g15
tp3365
a(S'is it raining this week'
p3366
g15
tp3367
a(S'create an event please'
p3368
g15
tp3369
a(S"don't i have anything to do tomorrow"
p3370
g15
tp3371
a(S'can you open a browser please'
p3372
g15
tp3373
a(S'next song'
p3374
g15
tp3375
a(S'check events for this day'
p3376
g15
tp3377
a(S'give me intel on current events'
p3378
g15
tp3379
asS'classifier'
p3380
ccopy_reg
_reconstructor
p3381
(csklearn.pipeline
Pipeline
p3382
c__builtin__
object
p3383
Ntp3384
Rp3385
(dp3386
S'_sklearn_version'
p3387
S'0.18.1'
p3388
sS'steps'
p3389
(lp3390
(S'vect'
p3391
g3381
(csklearn.feature_extraction.text
CountVectorizer
p3392
g3383
Ntp3393
Rp3394
(dp3395
S'decode_error'
p3396
Vstrict
p3397
sS'lowercase'
p3398
I01
sS'stop_words'
p3399
NsS'vocabulary'
p3400
NsS'tokenizer'
p3401
NsS'encoding'
p3402
Vutf-8
p3403
sS'token_pattern'
p3404
V(?u)\u005cb\u005cw\u005cw+\u005cb
p3405
sS'input'
p3406
Vcontent
p3407
sS'analyzer'
p3408
Vword
p3409
sS'vocabulary_'
p3410
(dp3411
Vraining
p3412
cnumpy.core.multiarray
scalar
p3413
(cnumpy
dtype
p3414
(S'i8'
p3415
I0
I1
tp3416
Rp3417
(I3
S'<'
p3418
NNNI-1
I-1
I0
tp3419
bS'\xa1\x00\x00\x00\x00\x00\x00\x00'
p3420
tp3421
Rp3422
sVtodays
p3423
g3413
(g3417
S'\xcf\x00\x00\x00\x00\x00\x00\x00'
p3424
tp3425
Rp3426
sVmute
p3427
g3413
(g3417
S'~\x00\x00\x00\x00\x00\x00\x00'
p3428
tp3429
Rp3430
sVbyebye
p3431
g3413
(g3417
S'\x1a\x00\x00\x00\x00\x00\x00\x00'
p3432
tp3433
Rp3434
sVskip
p3435
g3413
(g3417
S'\xb7\x00\x00\x00\x00\x00\x00\x00'
p3436
tp3437
Rp3438
sVmonth
p3439
g3413
(g3417
S'|\x00\x00\x00\x00\x00\x00\x00'
p3440
tp3441
Rp3442
sVsofter
p3443
g3413
(g3417
S'\xba\x00\x00\x00\x00\x00\x00\x00'
p3444
tp3445
Rp3446
sVkill
p3447
g3413
(g3417
S'n\x00\x00\x00\x00\x00\x00\x00'
p3448
tp3449
Rp3450
sVedu
p3451
g3413
(g3417
S'=\x00\x00\x00\x00\x00\x00\x00'
p3452
tp3453
Rp3454
sVgo
p3455
g3413
(g3417
S'U\x00\x00\x00\x00\x00\x00\x00'
p3456
tp3457
Rp3458
sVheadlines
p3459
g3413
(g3417
S'^\x00\x00\x00\x00\x00\x00\x00'
p3460
tp3461
Rp3462
sVfind
p3463
g3413
(g3417
S'H\x00\x00\x00\x00\x00\x00\x00'
p3464
tp3465
Rp3466
sVprevious
p3467
g3413
(g3417
S'\x97\x00\x00\x00\x00\x00\x00\x00'
p3468
tp3469
Rp3470
sVspotify
p3471
g3413
(g3417
S'\xbd\x00\x00\x00\x00\x00\x00\x00'
p3472
tp3473
Rp3474
sVpause
p3475
g3413
(g3417
S'\x90\x00\x00\x00\x00\x00\x00\x00'
p3476
tp3477
Rp3478
sVsnowing
p3479
g3413
(g3417
S'\xb9\x00\x00\x00\x00\x00\x00\x00'
p3480
tp3481
Rp3482
sVsunday
p3483
g3413
(g3417
S'\xc2\x00\x00\x00\x00\x00\x00\x00'
p3484
tp3485
Rp3486
sVsend
p3487
g3413
(g3417
S'\xb1\x00\x00\x00\x00\x00\x00\x00'
p3488
tp3489
Rp3490
sVaren
p3491
g3413
(g3417
S'\r\x00\x00\x00\x00\x00\x00\x00'
p3492
tp3493
Rp3494
sVto
p3495
g3413
(g3417
S'\xcd\x00\x00\x00\x00\x00\x00\x00'
p3496
tp3497
Rp3498
sVwindow
p3499
g3413
(g3417
S'\xe6\x00\x00\x00\x00\x00\x00\x00'
p3500
tp3501
Rp3502
sVprogram
p3503
g3413
(g3417
S'\x9a\x00\x00\x00\x00\x00\x00\x00'
p3504
tp3505
Rp3506
sVmail
p3507
g3413
(g3417
S'v\x00\x00\x00\x00\x00\x00\x00'
p3508
tp3509
Rp3510
sVset
p3511
g3413
(g3417
S'\xb2\x00\x00\x00\x00\x00\x00\x00'
p3512
tp3513
Rp3514
sVbye
p3515
g3413
(g3417
S'\x19\x00\x00\x00\x00\x00\x00\x00'
p3516
tp3517
Rp3518
sVdo
p3519
g3413
(g3417
S'5\x00\x00\x00\x00\x00\x00\x00'
p3520
tp3521
Rp3522
sVgood
p3523
g3413
(g3417
S'W\x00\x00\x00\x00\x00\x00\x00'
p3524
tp3525
Rp3526
sVemergency
p3527
g3413
(g3417
S'?\x00\x00\x00\x00\x00\x00\x00'
p3528
tp3529
Rp3530
sVsong
p3531
g3413
(g3417
S'\xbb\x00\x00\x00\x00\x00\x00\x00'
p3532
tp3533
Rp3534
sVya
p3535
g3413
(g3417
S'\xe9\x00\x00\x00\x00\x00\x00\x00'
p3536
tp3537
Rp3538
sVmaterial
p3539
g3413
(g3417
S'x\x00\x00\x00\x00\x00\x00\x00'
p3540
tp3541
Rp3542
sVstop
p3543
g3413
(g3417
S'\xc1\x00\x00\x00\x00\x00\x00\x00'
p3544
tp3545
Rp3546
sVschedule
p3547
g3413
(g3417
S'\xad\x00\x00\x00\x00\x00\x00\x00'
p3548
tp3549
Rp3550
sVme
p3551
g3413
(g3417
S'y\x00\x00\x00\x00\x00\x00\x00'
p3552
tp3553
Rp3554
sVreport
p3555
g3413
(g3417
S'\xa6\x00\x00\x00\x00\x00\x00\x00'
p3556
tp3557
Rp3558
sVworld
p3559
g3413
(g3417
S'\xe7\x00\x00\x00\x00\x00\x00\x00'
p3560
tp3561
Rp3562
sVnow
p3563
g3413
(g3417
S'\x87\x00\x00\x00\x00\x00\x00\x00'
p3564
tp3565
Rp3566
sVday
p3567
g3413
(g3417
S'-\x00\x00\x00\x00\x00\x00\x00'
p3568
tp3569
Rp3570
sVdreams
p3571
g3413
(g3417
S';\x00\x00\x00\x00\x00\x00\x00'
p3572
tp3573
Rp3574
sVintel
p3575
g3413
(g3417
S'i\x00\x00\x00\x00\x00\x00\x00'
p3576
tp3577
Rp3578
sVshoulder
p3579
g3413
(g3417
S'\xb3\x00\x00\x00\x00\x00\x00\x00'
p3580
tp3581
Rp3582
sVcold
p3583
g3413
(g3417
S'$\x00\x00\x00\x00\x00\x00\x00'
p3584
tp3585
Rp3586
sVmoderate
p3587
g3413
(g3417
S'z\x00\x00\x00\x00\x00\x00\x00'
p3588
tp3589
Rp3590
sValex
p3591
g3413
(g3417
S'\x04\x00\x00\x00\x00\x00\x00\x00'
p3592
tp3593
Rp3594
sVlike
p3595
g3413
(g3417
S'q\x00\x00\x00\x00\x00\x00\x00'
p3596
tp3597
Rp3598
sVgossips
p3599
g3413
(g3417
S'Y\x00\x00\x00\x00\x00\x00\x00'
p3600
tp3601
Rp3602
sVdidn
p3603
g3413
(g3417
S'4\x00\x00\x00\x00\x00\x00\x00'
p3604
tp3605
Rp3606
sVwednesday
p3607
g3413
(g3417
S'\xe0\x00\x00\x00\x00\x00\x00\x00'
p3608
tp3609
Rp3610
sVcloudy
p3611
g3413
(g3417
S'#\x00\x00\x00\x00\x00\x00\x00'
p3612
tp3613
Rp3614
sVtry
p3615
g3413
(g3417
S'\xd2\x00\x00\x00\x00\x00\x00\x00'
p3616
tp3617
Rp3618
sVtunez
p3619
g3413
(g3417
S'\xd6\x00\x00\x00\x00\x00\x00\x00'
p3620
tp3621
Rp3622
sVgimme
p3623
g3413
(g3417
S'R\x00\x00\x00\x00\x00\x00\x00'
p3624
tp3625
Rp3626
sVcontinue
p3627
g3413
(g3417
S'(\x00\x00\x00\x00\x00\x00\x00'
p3628
tp3629
Rp3630
sVnight
p3631
g3413
(g3417
S'\x85\x00\x00\x00\x00\x00\x00\x00'
p3632
tp3633
Rp3634
sVtunes
p3635
g3413
(g3417
S'\xd5\x00\x00\x00\x00\x00\x00\x00'
p3636
tp3637
Rp3638
sVclassifier
p3639
g3413
(g3417
S' \x00\x00\x00\x00\x00\x00\x00'
p3640
tp3641
Rp3642
sVinbox
p3643
g3413
(g3417
S'f\x00\x00\x00\x00\x00\x00\x00'
p3644
tp3645
Rp3646
sVgoogle
p3647
g3413
(g3417
S'X\x00\x00\x00\x00\x00\x00\x00'
p3648
tp3649
Rp3650
sVretrieve
p3651
g3413
(g3417
S'\xa8\x00\x00\x00\x00\x00\x00\x00'
p3652
tp3653
Rp3654
sVee
p3655
g3413
(g3417
S'>\x00\x00\x00\x00\x00\x00\x00'
p3656
tp3657
Rp3658
sVintelligence
p3659
g3413
(g3417
S'j\x00\x00\x00\x00\x00\x00\x00'
p3660
tp3661
Rp3662
sVshut
p3663
g3413
(g3417
S'\xb4\x00\x00\x00\x00\x00\x00\x00'
p3664
tp3665
Rp3666
sVhail
p3667
g3413
(g3417
S'\\\x00\x00\x00\x00\x00\x00\x00'
p3668
tp3669
Rp3670
sValice
p3671
g3413
(g3417
S'\x05\x00\x00\x00\x00\x00\x00\x00'
p3672
tp3673
Rp3674
sVzero
p3675
g3413
(g3417
S'\xed\x00\x00\x00\x00\x00\x00\x00'
p3676
tp3677
Rp3678
sVcomputer
p3679
g3413
(g3417
S"'\x00\x00\x00\x00\x00\x00\x00"
p3680
tp3681
Rp3682
sVare
p3683
g3413
(g3417
S'\x0c\x00\x00\x00\x00\x00\x00\x00'
p3684
tp3685
Rp3686
sVclose
p3687
g3413
(g3417
S'"\x00\x00\x00\x00\x00\x00\x00'
p3688
tp3689
Rp3690
sVcalendar
p3691
g3413
(g3417
S'\x1b\x00\x00\x00\x00\x00\x00\x00'
p3692
tp3693
Rp3694
sVextract
p3695
g3413
(g3417
S'C\x00\x00\x00\x00\x00\x00\x00'
p3696
tp3697
Rp3698
sVevent
p3699
g3413
(g3417
S'@\x00\x00\x00\x00\x00\x00\x00'
p3700
tp3701
Rp3702
sVout
p3703
g3413
(g3417
S'\x8e\x00\x00\x00\x00\x00\x00\x00'
p3704
tp3705
Rp3706
sVcategory
p3707
g3413
(g3417
S'\x1d\x00\x00\x00\x00\x00\x00\x00'
p3708
tp3709
Rp3710
sVwhat
p3711
g3413
(g3417
S'\xe2\x00\x00\x00\x00\x00\x00\x00'
p3712
tp3713
Rp3714
sVgive
p3715
g3413
(g3417
S'S\x00\x00\x00\x00\x00\x00\x00'
p3716
tp3717
Rp3718
sVfor
p3719
g3413
(g3417
S'J\x00\x00\x00\x00\x00\x00\x00'
p3720
tp3721
Rp3722
sVclock
p3723
g3413
(g3417
S'!\x00\x00\x00\x00\x00\x00\x00'
p3724
tp3725
Rp3726
sVdebrief
p3727
g3413
(g3417
S'.\x00\x00\x00\x00\x00\x00\x00'
p3728
tp3729
Rp3730
sVcurrently
p3731
g3413
(g3417
S',\x00\x00\x00\x00\x00\x00\x00'
p3732
tp3733
Rp3734
sVplease
p3735
g3413
(g3417
S'\x93\x00\x00\x00\x00\x00\x00\x00'
p3736
tp3737
Rp3738
sVbrief
p3739
g3413
(g3417
S'\x15\x00\x00\x00\x00\x00\x00\x00'
p3740
tp3741
Rp3742
sVforecast
p3743
g3413
(g3417
S'K\x00\x00\x00\x00\x00\x00\x00'
p3744
tp3745
Rp3746
sVcell
p3747
g3413
(g3417
S'\x1e\x00\x00\x00\x00\x00\x00\x00'
p3748
tp3749
Rp3750
sVre
p3751
g3413
(g3417
S'\xa3\x00\x00\x00\x00\x00\x00\x00'
p3752
tp3753
Rp3754
sVexit
p3755
g3413
(g3417
S'B\x00\x00\x00\x00\x00\x00\x00'
p3756
tp3757
Rp3758
sVabove
p3759
g3413
(g3417
S'\x00\x00\x00\x00\x00\x00\x00\x00'
p3760
tp3761
Rp3762
sVit
p3763
g3413
(g3417
S'm\x00\x00\x00\x00\x00\x00\x00'
p3764
tp3765
Rp3766
sVnew
p3767
g3413
(g3417
S'\x81\x00\x00\x00\x00\x00\x00\x00'
p3768
tp3769
Rp3770
sVnet
p3771
g3413
(g3417
S'\x80\x00\x00\x00\x00\x00\x00\x00'
p3772
tp3773
Rp3774
sVgov
p3775
g3413
(g3417
S'Z\x00\x00\x00\x00\x00\x00\x00'
p3776
tp3777
Rp3778
sVissue
p3779
g3413
(g3417
S'l\x00\x00\x00\x00\x00\x00\x00'
p3780
tp3781
Rp3782
sVunpause
p3783
g3413
(g3417
S'\xd9\x00\x00\x00\x00\x00\x00\x00'
p3784
tp3785
Rp3786
sVbe
p3787
g3413
(g3417
S'\x10\x00\x00\x00\x00\x00\x00\x00'
p3788
tp3789
Rp3790
sVwe
p3791
g3413
(g3417
S'\xde\x00\x00\x00\x00\x00\x00\x00'
p3792
tp3793
Rp3794
sVfriday
p3795
g3413
(g3417
S'N\x00\x00\x00\x00\x00\x00\x00'
p3796
tp3797
Rp3798
sVresume
p3799
g3413
(g3417
S'\xa7\x00\x00\x00\x00\x00\x00\x00'
p3800
tp3801
Rp3802
sVscreen
p3803
g3413
(g3417
S'\xae\x00\x00\x00\x00\x00\x00\x00'
p3804
tp3805
Rp3806
sVdictates
p3807
g3413
(g3417
S'3\x00\x00\x00\x00\x00\x00\x00'
p3808
tp3809
Rp3810
sVfree
p3811
g3413
(g3417
S'L\x00\x00\x00\x00\x00\x00\x00'
p3812
tp3813
Rp3814
sVillustration
p3815
g3413
(g3417
S'd\x00\x00\x00\x00\x00\x00\x00'
p3816
tp3817
Rp3818
sVput
p3819
g3413
(g3417
S'\x9b\x00\x00\x00\x00\x00\x00\x00'
p3820
tp3821
Rp3822
sVnews
p3823
g3413
(g3417
S'\x82\x00\x00\x00\x00\x00\x00\x00'
p3824
tp3825
Rp3826
sVpost
p3827
g3413
(g3417
S'\x94\x00\x00\x00\x00\x00\x00\x00'
p3828
tp3829
Rp3830
sVdon
p3831
g3413
(g3417
S'8\x00\x00\x00\x00\x00\x00\x00'
p3832
tp3833
Rp3834
sVon
p3835
g3413
(g3417
S'\x8b\x00\x00\x00\x00\x00\x00\x00'
p3836
tp3837
Rp3838
sVsearch
p3839
g3413
(g3417
S'\xaf\x00\x00\x00\x00\x00\x00\x00'
p3840
tp3841
Rp3842
sVlast
p3843
g3413
(g3417
S'o\x00\x00\x00\x00\x00\x00\x00'
p3844
tp3845
Rp3846
sVanything
p3847
g3413
(g3417
S'\x0b\x00\x00\x00\x00\x00\x00\x00'
p3848
tp3849
Rp3850
sVof
p3851
g3413
(g3417
S'\x88\x00\x00\x00\x00\x00\x00\x00'
p3852
tp3853
Rp3854
sVcould
p3855
g3413
(g3417
S')\x00\x00\x00\x00\x00\x00\x00'
p3856
tp3857
Rp3858
sVcurrent
p3859
g3413
(g3417
S'+\x00\x00\x00\x00\x00\x00\x00'
p3860
tp3861
Rp3862
sVquiet
p3863
g3413
(g3417
S'\x9d\x00\x00\x00\x00\x00\x00\x00'
p3864
tp3865
Rp3866
sVturn
p3867
g3413
(g3417
S'\xd7\x00\x00\x00\x00\x00\x00\x00'
p3868
tp3869
Rp3870
sVbrowsing
p3871
g3413
(g3417
S'\x18\x00\x00\x00\x00\x00\x00\x00'
p3872
tp3873
Rp3874
sVcom
p3875
g3413
(g3417
S'%\x00\x00\x00\x00\x00\x00\x00'
p3876
tp3877
Rp3878
sVthink
p3879
g3413
(g3417
S'\xc9\x00\x00\x00\x00\x00\x00\x00'
p3880
tp3881
Rp3882
sVfeed
p3883
g3413
(g3417
S'G\x00\x00\x00\x00\x00\x00\x00'
p3884
tp3885
Rp3886
sVthis
p3887
g3413
(g3417
S'\xca\x00\x00\x00\x00\x00\x00\x00'
p3888
tp3889
Rp3890
sVwhats
p3891
g3413
(g3417
S'\xe3\x00\x00\x00\x00\x00\x00\x00'
p3892
tp3893
Rp3894
sVfeatures
p3895
g3413
(g3417
S'F\x00\x00\x00\x00\x00\x00\x00'
p3896
tp3897
Rp3898
sVsimple
p3899
g3413
(g3417
S'\xb6\x00\x00\x00\x00\x00\x00\x00'
p3900
tp3901
Rp3902
sVsweet
p3903
g3413
(g3417
S'\xc3\x00\x00\x00\x00\x00\x00\x00'
p3904
tp3905
Rp3906
sVtuesday
p3907
g3413
(g3417
S'\xd3\x00\x00\x00\x00\x00\x00\x00'
p3908
tp3909
Rp3910
sVyourself
p3911
g3413
(g3417
S'\xec\x00\x00\x00\x00\x00\x00\x00'
p3912
tp3913
Rp3914
sVdown
p3915
g3413
(g3417
S':\x00\x00\x00\x00\x00\x00\x00'
p3916
tp3917
Rp3918
sVactive
p3919
g3413
(g3417
S'\x01\x00\x00\x00\x00\x00\x00\x00'
p3920
tp3921
Rp3922
sVweather
p3923
g3413
(g3417
S'\xdf\x00\x00\x00\x00\x00\x00\x00'
p3924
tp3925
Rp3926
sVdecrease
p3927
g3413
(g3417
S'0\x00\x00\x00\x00\x00\x00\x00'
p3928
tp3929
Rp3930
sVthursday
p3931
g3413
(g3417
S'\xcb\x00\x00\x00\x00\x00\x00\x00'
p3932
tp3933
Rp3934
sVshutdown
p3935
g3413
(g3417
S'\xb5\x00\x00\x00\x00\x00\x00\x00'
p3936
tp3937
Rp3938
sVfake
p3939
g3413
(g3417
S'D\x00\x00\x00\x00\x00\x00\x00'
p3940
tp3941
Rp3942
sVopen
p3943
g3413
(g3417
S'\x8c\x00\x00\x00\x00\x00\x00\x00'
p3944
tp3945
Rp3946
sVtomorrow
p3947
g3413
(g3417
S'\xd0\x00\x00\x00\x00\x00\x00\x00'
p3948
tp3949
Rp3950
sVquit
p3951
g3413
(g3417
S'\x9f\x00\x00\x00\x00\x00\x00\x00'
p3952
tp3953
Rp3954
sVtemperature
p3955
g3413
(g3417
S'\xc6\x00\x00\x00\x00\x00\x00\x00'
p3956
tp3957
Rp3958
sVwould
p3959
g3413
(g3417
S'\xe8\x00\x00\x00\x00\x00\x00\x00'
p3960
tp3961
Rp3962
sVsake
p3963
g3413
(g3417
S'\xaa\x00\x00\x00\x00\x00\x00\x00'
p3964
tp3965
Rp3966
sVdecent
p3967
g3413
(g3417
S'/\x00\x00\x00\x00\x00\x00\x00'
p3968
tp3969
Rp3970
sVcreate
p3971
g3413
(g3417
S'*\x00\x00\x00\x00\x00\x00\x00'
p3972
tp3973
Rp3974
sVthere
p3975
g3413
(g3417
S'\xc8\x00\x00\x00\x00\x00\x00\x00'
p3976
tp3977
Rp3978
sVquestion
p3979
g3413
(g3417
S'\x9c\x00\x00\x00\x00\x00\x00\x00'
p3980
tp3981
Rp3982
sVadd
p3983
g3413
(g3417
S'\x02\x00\x00\x00\x00\x00\x00\x00'
p3984
tp3985
Rp3986
sVnext
p3987
g3413
(g3417
S'\x84\x00\x00\x00\x00\x00\x00\x00'
p3988
tp3989
Rp3990
sVstart
p3991
g3413
(g3417
S'\xbf\x00\x00\x00\x00\x00\x00\x00'
p3992
tp3993
Rp3994
sVlive
p3995
g3413
(g3417
S'r\x00\x00\x00\x00\x00\x00\x00'
p3996
tp3997
Rp3998
sVgoing
p3999
g3413
(g3417
S'V\x00\x00\x00\x00\x00\x00\x00'
p4000
tp4001
Rp4002
sVmusic
p4003
g3413
(g3417
S'}\x00\x00\x00\x00\x00\x00\x00'
p4004
tp4005
Rp4006
sVtell
p4007
g3413
(g3417
S'\xc5\x00\x00\x00\x00\x00\x00\x00'
p4008
tp4009
Rp4010
sVtoday
p4011
g3413
(g3417
S'\xce\x00\x00\x00\x00\x00\x00\x00'
p4012
tp4013
Rp4014
sVpretends
p4015
g3413
(g3417
S'\x96\x00\x00\x00\x00\x00\x00\x00'
p4016
tp4017
Rp4018
sValmost
p4019
g3413
(g3417
S'\x06\x00\x00\x00\x00\x00\x00\x00'
p4020
tp4021
Rp4022
sVreleasing
p4023
g3413
(g3417
S'\xa5\x00\x00\x00\x00\x00\x00\x00'
p4024
tp4025
Rp4026
sVcommands
p4027
g3413
(g3417
S'&\x00\x00\x00\x00\x00\x00\x00'
p4028
tp4029
Rp4030
sVback
p4031
g3413
(g3417
S'\x0e\x00\x00\x00\x00\x00\x00\x00'
p4032
tp4033
Rp4034
sVvolume
p4035
g3413
(g3417
S'\xdc\x00\x00\x00\x00\x00\x00\x00'
p4036
tp4037
Rp4038
sVtrain
p4039
g3413
(g3417
S'\xd1\x00\x00\x00\x00\x00\x00\x00'
p4040
tp4041
Rp4042
sVstick
p4043
g3413
(g3417
S'\xc0\x00\x00\x00\x00\x00\x00\x00'
p4044
tp4045
Rp4046
sVbeat
p4047
g3413
(g3417
S'\x11\x00\x00\x00\x00\x00\x00\x00'
p4048
tp4049
Rp4050
sVfoggy
p4051
g3413
(g3417
S'I\x00\x00\x00\x00\x00\x00\x00'
p4052
tp4053
Rp4054
sVdocument
p4055
g3413
(g3417
S'6\x00\x00\x00\x00\x00\x00\x00'
p4056
tp4057
Rp4058
sVsound
p4059
g3413
(g3417
S'\xbc\x00\x00\x00\x00\x00\x00\x00'
p4060
tp4061
Rp4062
sVahead
p4063
g3413
(g3417
S'\x03\x00\x00\x00\x00\x00\x00\x00'
p4064
tp4065
Rp4066
sVunmute
p4067
g3413
(g3417
S'\xd8\x00\x00\x00\x00\x00\x00\x00'
p4068
tp4069
Rp4070
sVsee
p4071
g3413
(g3417
S'\xb0\x00\x00\x00\x00\x00\x00\x00'
p4072
tp4073
Rp4074
sVdogs
p4075
g3413
(g3417
S'7\x00\x00\x00\x00\x00\x00\x00'
p4076
tp4077
Rp4078
sVwill
p4079
g3413
(g3417
S'\xe5\x00\x00\x00\x00\x00\x00\x00'
p4080
tp4081
Rp4082
sVlouder
p4083
g3413
(g3417
S't\x00\x00\x00\x00\x00\x00\x00'
p4084
tp4085
Rp4086
sVcan
p4087
g3413
(g3417
S'\x1c\x00\x00\x00\x00\x00\x00\x00'
p4088
tp4089
Rp4090
sVbriefing
p4091
g3413
(g3417
S'\x16\x00\x00\x00\x00\x00\x00\x00'
p4092
tp4093
Rp4094
sVproblem
p4095
g3413
(g3417
S'\x98\x00\x00\x00\x00\x00\x00\x00'
p4096
tp4097
Rp4098
sVoutcome
p4099
g3413
(g3417
S'\x8f\x00\x00\x00\x00\x00\x00\x00'
p4100
tp4101
Rp4102
sVmy
p4103
g3413
(g3417
S'\x7f\x00\x00\x00\x00\x00\x00\x00'
p4104
tp4105
Rp4106
sVdee
p4107
g3413
(g3417
S'1\x00\x00\x00\x00\x00\x00\x00'
p4108
tp4109
Rp4110
sVfeature
p4111
g3413
(g3417
S'E\x00\x00\x00\x00\x00\x00\x00'
p4112
tp4113
Rp4114
sVbrowser
p4115
g3413
(g3417
S'\x17\x00\x00\x00\x00\x00\x00\x00'
p4116
tp4117
Rp4118
sVup
p4119
g3413
(g3417
S'\xda\x00\x00\x00\x00\x00\x00\x00'
p4120
tp4121
Rp4122
sVpredict
p4123
g3413
(g3417
S'\x95\x00\x00\x00\x00\x00\x00\x00'
p4124
tp4125
Rp4126
sVlock
p4127
g3413
(g3417
S's\x00\x00\x00\x00\x00\x00\x00'
p4128
tp4129
Rp4130
sVis
p4131
g3413
(g3417
S'k\x00\x00\x00\x00\x00\x00\x00'
p4132
tp4133
Rp4134
sVin
p4135
g3413
(g3417
S'e\x00\x00\x00\x00\x00\x00\x00'
p4136
tp4137
Rp4138
sVam
p4139
g3413
(g3417
S'\x07\x00\x00\x00\x00\x00\x00\x00'
p4140
tp4141
Rp4142
sVfuck
p4143
g3413
(g3417
S'O\x00\x00\x00\x00\x00\x00\x00'
p4144
tp4145
Rp4146
sVbackbone
p4147
g3413
(g3417
S'\x0f\x00\x00\x00\x00\x00\x00\x00'
p4148
tp4149
Rp4150
sVan
p4151
g3413
(g3417
S'\x08\x00\x00\x00\x00\x00\x00\x00'
p4152
tp4153
Rp4154
sVbeats
p4155
g3413
(g3417
S'\x12\x00\x00\x00\x00\x00\x00\x00'
p4156
tp4157
Rp4158
sVright
p4159
g3413
(g3417
S'\xa9\x00\x00\x00\x00\x00\x00\x00'
p4160
tp4161
Rp4162
sVhave
p4163
g3413
(g3417
S']\x00\x00\x00\x00\x00\x00\x00'
p4164
tp4165
Rp4166
sVstalls
p4167
g3413
(g3417
S'\xbe\x00\x00\x00\x00\x00\x00\x00'
p4168
tp4169
Rp4170
sVany
p4171
g3413
(g3417
S'\n\x00\x00\x00\x00\x00\x00\x00'
p4172
tp4173
Rp4174
sVif
p4175
g3413
(g3417
S'c\x00\x00\x00\x00\x00\x00\x00'
p4176
tp4177
Rp4178
sVinformation
p4179
g3413
(g3417
S'h\x00\x00\x00\x00\x00\x00\x00'
p4180
tp4181
Rp4182
sVrainy
p4183
g3413
(g3417
S'\xa2\x00\x00\x00\x00\x00\x00\x00'
p4184
tp4185
Rp4186
sVanswer
p4187
g3413
(g3417
S'\t\x00\x00\x00\x00\x00\x00\x00'
p4188
tp4189
Rp4190
sVcheck
p4191
g3413
(g3417
S'\x1f\x00\x00\x00\x00\x00\x00\x00'
p4192
tp4193
Rp4194
sVmake
p4195
g3413
(g3417
S'w\x00\x00\x00\x00\x00\x00\x00'
p4196
tp4197
Rp4198
sVget
p4199
g3413
(g3417
S'Q\x00\x00\x00\x00\x00\x00\x00'
p4200
tp4201
Rp4202
sVwhen
p4203
g3413
(g3417
S'\xe4\x00\x00\x00\x00\x00\x00\x00'
p4204
tp4205
Rp4206
sVsnow
p4207
g3413
(g3417
S'\xb8\x00\x00\x00\x00\x00\x00\x00'
p4208
tp4209
Rp4210
sVsame
p4211
g3413
(g3417
S'\xab\x00\x00\x00\x00\x00\x00\x00'
p4212
tp4213
Rp4214
sVsaturday
p4215
g3413
(g3417
S'\xac\x00\x00\x00\x00\x00\x00\x00'
p4216
tp4217
Rp4218
sVbeside
p4219
g3413
(g3417
S'\x14\x00\x00\x00\x00\x00\x00\x00'
p4220
tp4221
Rp4222
sVhow
p4223
g3413
(g3417
S'b\x00\x00\x00\x00\x00\x00\x00'
p4224
tp4225
Rp4226
sVhot
p4227
g3413
(g3417
S'a\x00\x00\x00\x00\x00\x00\x00'
p4228
tp4229
Rp4230
sVbefore
p4231
g3413
(g3417
S'\x13\x00\x00\x00\x00\x00\x00\x00'
p4232
tp4233
Rp4234
sVyou
p4235
g3413
(g3417
S'\xea\x00\x00\x00\x00\x00\x00\x00'
p4236
tp4237
Rp4238
sVgmail
p4239
g3413
(g3417
S'T\x00\x00\x00\x00\x00\x00\x00'
p4240
tp4241
Rp4242
sVevents
p4243
g3413
(g3417
S'A\x00\x00\x00\x00\x00\x00\x00'
p4244
tp4245
Rp4246
sVhigher
p4247
g3413
(g3417
S'`\x00\x00\x00\x00\x00\x00\x00'
p4248
tp4249
Rp4250
sVweek
p4251
g3413
(g3417
S'\xe1\x00\x00\x00\x00\x00\x00\x00'
p4252
tp4253
Rp4254
sVplay
p4255
g3413
(g3417
S'\x91\x00\x00\x00\x00\x00\x00\x00'
p4256
tp4257
Rp4258
sVokay
p4259
g3413
(g3417
S'\x8a\x00\x00\x00\x00\x00\x00\x00'
p4260
tp4261
Rp4262
sVhey
p4263
g3413
(g3417
S'_\x00\x00\x00\x00\x00\x00\x00'
p4264
tp4265
Rp4266
sVmonday
p4267
g3413
(g3417
S'{\x00\x00\x00\x00\x00\x00\x00'
p4268
tp4269
Rp4270
sVdefault
p4271
g3413
(g3417
S'2\x00\x00\x00\x00\x00\x00\x00'
p4272
tp4273
Rp4274
sVwatch
p4275
g3413
(g3417
S'\xdd\x00\x00\x00\x00\x00\x00\x00'
p4276
tp4277
Rp4278
sVorg
p4279
g3413
(g3417
S'\x8d\x00\x00\x00\x00\x00\x00\x00'
p4280
tp4281
Rp4282
sVearlier
p4283
g3413
(g3417
S'<\x00\x00\x00\x00\x00\x00\x00'
p4284
tp4285
Rp4286
sVproblems
p4287
g3413
(g3417
S'\x99\x00\x00\x00\x00\x00\x00\x00'
p4288
tp4289
Rp4290
sVquieter
p4291
g3413
(g3417
S'\x9e\x00\x00\x00\x00\x00\x00\x00'
p4292
tp4293
Rp4294
sVrain
p4295
g3413
(g3417
S'\xa0\x00\x00\x00\x00\x00\x00\x00'
p4296
tp4297
Rp4298
sVfreezing
p4299
g3413
(g3417
S'M\x00\x00\x00\x00\x00\x00\x00'
p4300
tp4301
Rp4302
sVnoise
p4303
g3413
(g3417
S'\x86\x00\x00\x00\x00\x00\x00\x00'
p4304
tp4305
Rp4306
sVtune
p4307
g3413
(g3417
S'\xd4\x00\x00\x00\x00\x00\x00\x00'
p4308
tp4309
Rp4310
sVyour
p4311
g3413
(g3417
S'\xeb\x00\x00\x00\x00\x00\x00\x00'
p4312
tp4313
Rp4314
sVgrief
p4315
g3413
(g3417
S'[\x00\x00\x00\x00\x00\x00\x00'
p4316
tp4317
Rp4318
sVlower
p4319
g3413
(g3417
S'u\x00\x00\x00\x00\x00\x00\x00'
p4320
tp4321
Rp4322
sVoff
p4323
g3413
(g3417
S'\x89\x00\x00\x00\x00\x00\x00\x00'
p4324
tp4325
Rp4326
sVusing
p4327
g3413
(g3417
S'\xdb\x00\x00\x00\x00\x00\x00\x00'
p4328
tp4329
Rp4330
sVread
p4331
g3413
(g3417
S'\xa4\x00\x00\x00\x00\x00\x00\x00'
p4332
tp4333
Rp4334
sVgather
p4335
g3413
(g3417
S'P\x00\x00\x00\x00\x00\x00\x00'
p4336
tp4337
Rp4338
sVtale
p4339
g3413
(g3417
S'\xc4\x00\x00\x00\x00\x00\x00\x00'
p4340
tp4341
Rp4342
sVtime
p4343
g3413
(g3417
S'\xcc\x00\x00\x00\x00\x00\x00\x00'
p4344
tp4345
Rp4346
sVnewsfeed
p4347
g3413
(g3417
S'\x83\x00\x00\x00\x00\x00\x00\x00'
p4348
tp4349
Rp4350
sVthe
p4351
g3413
(g3417
S'\xc7\x00\x00\x00\x00\x00\x00\x00'
p4352
tp4353
Rp4354
sVincrease
p4355
g3413
(g3417
S'g\x00\x00\x00\x00\x00\x00\x00'
p4356
tp4357
Rp4358
sVplaying
p4359
g3413
(g3417
S'\x92\x00\x00\x00\x00\x00\x00\x00'
p4360
tp4361
Rp4362
sVdot
p4363
g3413
(g3417
S'9\x00\x00\x00\x00\x00\x00\x00'
p4364
tp4365
Rp4366
sVlatest
p4367
g3413
(g3417
S'p\x00\x00\x00\x00\x00\x00\x00'
p4368
tp4369
Rp4370
ssS'binary'
p4371
I00
sS'ngram_range'
p4372
(I1
I1
tp4373
sg3387
g3388
sS'max_df'
p4374
F1.0
sS'min_df'
p4375
I1
sS'max_features'
p4376
NsS'fixed_vocabulary_'
p4377
I00
sS'strip_accents'
p4378
NsS'dtype'
p4379
cnumpy
int64
p4380
sS'stop_words_'
p4381
c__builtin__
set
p4382
((lp4383
tp4384
Rp4385
sS'preprocessor'
p4386
Nsbtp4387
a(S'tfidf'
p4388
g3381
(csklearn.feature_extraction.text
TfidfTransformer
p4389
g3383
Ntp4390
Rp4391
(dp4392
S'smooth_idf'
p4393
I01
sg3387
g3388
sS'_idf_diag'
p4394
g3381
(cscipy.sparse.csr
csr_matrix
p4395
g3383
Ntp4396
Rp4397
(dp4398
S'indices'
p4399
cnumpy.core.multiarray
_reconstruct
p4400
(cnumpy
ndarray
p4401
(I0
tp4402
S'b'
p4403
tp4404
Rp4405
(I1
(I238
tp4406
g3414
(S'i4'
p4407
I0
I1
tp4408
Rp4409
(I3
S'<'
p4410
NNNI-1
I-1
I0
tp4411
bI00
S'\x00\x00\x00\x00\x01\x00\x00\x00\x02\x00\x00\x00\x03\x00\x00\x00\x04\x00\x00\x00\x05\x00\x00\x00\x06\x00\x00\x00\x07\x00\x00\x00\x08\x00\x00\x00\t\x00\x00\x00\n\x00\x00\x00\x0b\x00\x00\x00\x0c\x00\x00\x00\r\x00\x00\x00\x0e\x00\x00\x00\x0f\x00\x00\x00\x10\x00\x00\x00\x11\x00\x00\x00\x12\x00\x00\x00\x13\x00\x00\x00\x14\x00\x00\x00\x15\x00\x00\x00\x16\x00\x00\x00\x17\x00\x00\x00\x18\x00\x00\x00\x19\x00\x00\x00\x1a\x00\x00\x00\x1b\x00\x00\x00\x1c\x00\x00\x00\x1d\x00\x00\x00\x1e\x00\x00\x00\x1f\x00\x00\x00 \x00\x00\x00!\x00\x00\x00"\x00\x00\x00#\x00\x00\x00$\x00\x00\x00%\x00\x00\x00&\x00\x00\x00\'\x00\x00\x00(\x00\x00\x00)\x00\x00\x00*\x00\x00\x00+\x00\x00\x00,\x00\x00\x00-\x00\x00\x00.\x00\x00\x00/\x00\x00\x000\x00\x00\x001\x00\x00\x002\x00\x00\x003\x00\x00\x004\x00\x00\x005\x00\x00\x006\x00\x00\x007\x00\x00\x008\x00\x00\x009\x00\x00\x00:\x00\x00\x00;\x00\x00\x00<\x00\x00\x00=\x00\x00\x00>\x00\x00\x00?\x00\x00\x00@\x00\x00\x00A\x00\x00\x00B\x00\x00\x00C\x00\x00\x00D\x00\x00\x00E\x00\x00\x00F\x00\x00\x00G\x00\x00\x00H\x00\x00\x00I\x00\x00\x00J\x00\x00\x00K\x00\x00\x00L\x00\x00\x00M\x00\x00\x00N\x00\x00\x00O\x00\x00\x00P\x00\x00\x00Q\x00\x00\x00R\x00\x00\x00S\x00\x00\x00T\x00\x00\x00U\x00\x00\x00V\x00\x00\x00W\x00\x00\x00X\x00\x00\x00Y\x00\x00\x00Z\x00\x00\x00[\x00\x00\x00\\\x00\x00\x00]\x00\x00\x00^\x00\x00\x00_\x00\x00\x00`\x00\x00\x00a\x00\x00\x00b\x00\x00\x00c\x00\x00\x00d\x00\x00\x00e\x00\x00\x00f\x00\x00\x00g\x00\x00\x00h\x00\x00\x00i\x00\x00\x00j\x00\x00\x00k\x00\x00\x00l\x00\x00\x00m\x00\x00\x00n\x00\x00\x00o\x00\x00\x00p\x00\x00\x00q\x00\x00\x00r\x00\x00\x00s\x00\x00\x00t\x00\x00\x00u\x00\x00\x00v\x00\x00\x00w\x00\x00\x00x\x00\x00\x00y\x00\x00\x00z\x00\x00\x00{\x00\x00\x00|\x00\x00\x00}\x00\x00\x00~\x00\x00\x00\x7f\x00\x00\x00\x80\x00\x00\x00\x81\x00\x00\x00\x82\x00\x00\x00\x83\x00\x00\x00\x84\x00\x00\x00\x85\x00\x00\x00\x86\x00\x00\x00\x87\x00\x00\x00\x88\x00\x00\x00\x89\x00\x00\x00\x8a\x00\x00\x00\x8b\x00\x00\x00\x8c\x00\x00\x00\x8d\x00\x00\x00\x8e\x00\x00\x00\x8f\x00\x00\x00\x90\x00\x00\x00\x91\x00\x00\x00\x92\x00\x00\x00\x93\x00\x00\x00\x94\x00\x00\x00\x95\x00\x00\x00\x96\x00\x00\x00\x97\x00\x00\x00\x98\x00\x00\x00\x99\x00\x00\x00\x9a\x00\x00\x00\x9b\x00\x00\x00\x9c\x00\x00\x00\x9d\x00\x00\x00\x9e\x00\x00\x00\x9f\x00\x00\x00\xa0\x00\x00\x00\xa1\x00\x00\x00\xa2\x00\x00\x00\xa3\x00\x00\x00\xa4\x00\x00\x00\xa5\x00\x00\x00\xa6\x00\x00\x00\xa7\x00\x00\x00\xa8\x00\x00\x00\xa9\x00\x00\x00\xaa\x00\x00\x00\xab\x00\x00\x00\xac\x00\x00\x00\xad\x00\x00\x00\xae\x00\x00\x00\xaf\x00\x00\x00\xb0\x00\x00\x00\xb1\x00\x00\x00\xb2\x00\x00\x00\xb3\x00\x00\x00\xb4\x00\x00\x00\xb5\x00\x00\x00\xb6\x00\x00\x00\xb7\x00\x00\x00\xb8\x00\x00\x00\xb9\x00\x00\x00\xba\x00\x00\x00\xbb\x00\x00\x00\xbc\x00\x00\x00\xbd\x00\x00\x00\xbe\x00\x00\x00\xbf\x00\x00\x00\xc0\x00\x00\x00\xc1\x00\x00\x00\xc2\x00\x00\x00\xc3\x00\x00\x00\xc4\x00\x00\x00\xc5\x00\x00\x00\xc6\x00\x00\x00\xc7\x00\x00\x00\xc8\x00\x00\x00\xc9\x00\x00\x00\xca\x00\x00\x00\xcb\x00\x00\x00\xcc\x00\x00\x00\xcd\x00\x00\x00\xce\x00\x00\x00\xcf\x00\x00\x00\xd0\x00\x00\x00\xd1\x00\x00\x00\xd2\x00\x00\x00\xd3\x00\x00\x00\xd4\x00\x00\x00\xd5\x00\x00\x00\xd6\x00\x00\x00\xd7\x00\x00\x00\xd8\x00\x00\x00\xd9\x00\x00\x00\xda\x00\x00\x00\xdb\x00\x00\x00\xdc\x00\x00\x00\xdd\x00\x00\x00\xde\x00\x00\x00\xdf\x00\x00\x00\xe0\x00\x00\x00\xe1\x00\x00\x00\xe2\x00\x00\x00\xe3\x00\x00\x00\xe4\x00\x00\x00\xe5\x00\x00\x00\xe6\x00\x00\x00\xe7\x00\x00\x00\xe8\x00\x00\x00\xe9\x00\x00\x00\xea\x00\x00\x00\xeb\x00\x00\x00\xec\x00\x00\x00\xed\x00\x00\x00'
p4412
tp4413
bsS'indptr'
p4414
g4400
(g4401
(I0
tp4415
g4403
tp4416
Rp4417
(I1
(I239
tp4418
g4409
I00
S'\x00\x00\x00\x00\x01\x00\x00\x00\x02\x00\x00\x00\x03\x00\x00\x00\x04\x00\x00\x00\x05\x00\x00\x00\x06\x00\x00\x00\x07\x00\x00\x00\x08\x00\x00\x00\t\x00\x00\x00\n\x00\x00\x00\x0b\x00\x00\x00\x0c\x00\x00\x00\r\x00\x00\x00\x0e\x00\x00\x00\x0f\x00\x00\x00\x10\x00\x00\x00\x11\x00\x00\x00\x12\x00\x00\x00\x13\x00\x00\x00\x14\x00\x00\x00\x15\x00\x00\x00\x16\x00\x00\x00\x17\x00\x00\x00\x18\x00\x00\x00\x19\x00\x00\x00\x1a\x00\x00\x00\x1b\x00\x00\x00\x1c\x00\x00\x00\x1d\x00\x00\x00\x1e\x00\x00\x00\x1f\x00\x00\x00 \x00\x00\x00!\x00\x00\x00"\x00\x00\x00#\x00\x00\x00$\x00\x00\x00%\x00\x00\x00&\x00\x00\x00\'\x00\x00\x00(\x00\x00\x00)\x00\x00\x00*\x00\x00\x00+\x00\x00\x00,\x00\x00\x00-\x00\x00\x00.\x00\x00\x00/\x00\x00\x000\x00\x00\x001\x00\x00\x002\x00\x00\x003\x00\x00\x004\x00\x00\x005\x00\x00\x006\x00\x00\x007\x00\x00\x008\x00\x00\x009\x00\x00\x00:\x00\x00\x00;\x00\x00\x00<\x00\x00\x00=\x00\x00\x00>\x00\x00\x00?\x00\x00\x00@\x00\x00\x00A\x00\x00\x00B\x00\x00\x00C\x00\x00\x00D\x00\x00\x00E\x00\x00\x00F\x00\x00\x00G\x00\x00\x00H\x00\x00\x00I\x00\x00\x00J\x00\x00\x00K\x00\x00\x00L\x00\x00\x00M\x00\x00\x00N\x00\x00\x00O\x00\x00\x00P\x00\x00\x00Q\x00\x00\x00R\x00\x00\x00S\x00\x00\x00T\x00\x00\x00U\x00\x00\x00V\x00\x00\x00W\x00\x00\x00X\x00\x00\x00Y\x00\x00\x00Z\x00\x00\x00[\x00\x00\x00\\\x00\x00\x00]\x00\x00\x00^\x00\x00\x00_\x00\x00\x00`\x00\x00\x00a\x00\x00\x00b\x00\x00\x00c\x00\x00\x00d\x00\x00\x00e\x00\x00\x00f\x00\x00\x00g\x00\x00\x00h\x00\x00\x00i\x00\x00\x00j\x00\x00\x00k\x00\x00\x00l\x00\x00\x00m\x00\x00\x00n\x00\x00\x00o\x00\x00\x00p\x00\x00\x00q\x00\x00\x00r\x00\x00\x00s\x00\x00\x00t\x00\x00\x00u\x00\x00\x00v\x00\x00\x00w\x00\x00\x00x\x00\x00\x00y\x00\x00\x00z\x00\x00\x00{\x00\x00\x00|\x00\x00\x00}\x00\x00\x00~\x00\x00\x00\x7f\x00\x00\x00\x80\x00\x00\x00\x81\x00\x00\x00\x82\x00\x00\x00\x83\x00\x00\x00\x84\x00\x00\x00\x85\x00\x00\x00\x86\x00\x00\x00\x87\x00\x00\x00\x88\x00\x00\x00\x89\x00\x00\x00\x8a\x00\x00\x00\x8b\x00\x00\x00\x8c\x00\x00\x00\x8d\x00\x00\x00\x8e\x00\x00\x00\x8f\x00\x00\x00\x90\x00\x00\x00\x91\x00\x00\x00\x92\x00\x00\x00\x93\x00\x00\x00\x94\x00\x00\x00\x95\x00\x00\x00\x96\x00\x00\x00\x97\x00\x00\x00\x98\x00\x00\x00\x99\x00\x00\x00\x9a\x00\x00\x00\x9b\x00\x00\x00\x9c\x00\x00\x00\x9d\x00\x00\x00\x9e\x00\x00\x00\x9f\x00\x00\x00\xa0\x00\x00\x00\xa1\x00\x00\x00\xa2\x00\x00\x00\xa3\x00\x00\x00\xa4\x00\x00\x00\xa5\x00\x00\x00\xa6\x00\x00\x00\xa7\x00\x00\x00\xa8\x00\x00\x00\xa9\x00\x00\x00\xaa\x00\x00\x00\xab\x00\x00\x00\xac\x00\x00\x00\xad\x00\x00\x00\xae\x00\x00\x00\xaf\x00\x00\x00\xb0\x00\x00\x00\xb1\x00\x00\x00\xb2\x00\x00\x00\xb3\x00\x00\x00\xb4\x00\x00\x00\xb5\x00\x00\x00\xb6\x00\x00\x00\xb7\x00\x00\x00\xb8\x00\x00\x00\xb9\x00\x00\x00\xba\x00\x00\x00\xbb\x00\x00\x00\xbc\x00\x00\x00\xbd\x00\x00\x00\xbe\x00\x00\x00\xbf\x00\x00\x00\xc0\x00\x00\x00\xc1\x00\x00\x00\xc2\x00\x00\x00\xc3\x00\x00\x00\xc4\x00\x00\x00\xc5\x00\x00\x00\xc6\x00\x00\x00\xc7\x00\x00\x00\xc8\x00\x00\x00\xc9\x00\x00\x00\xca\x00\x00\x00\xcb\x00\x00\x00\xcc\x00\x00\x00\xcd\x00\x00\x00\xce\x00\x00\x00\xcf\x00\x00\x00\xd0\x00\x00\x00\xd1\x00\x00\x00\xd2\x00\x00\x00\xd3\x00\x00\x00\xd4\x00\x00\x00\xd5\x00\x00\x00\xd6\x00\x00\x00\xd7\x00\x00\x00\xd8\x00\x00\x00\xd9\x00\x00\x00\xda\x00\x00\x00\xdb\x00\x00\x00\xdc\x00\x00\x00\xdd\x00\x00\x00\xde\x00\x00\x00\xdf\x00\x00\x00\xe0\x00\x00\x00\xe1\x00\x00\x00\xe2\x00\x00\x00\xe3\x00\x00\x00\xe4\x00\x00\x00\xe5\x00\x00\x00\xe6\x00\x00\x00\xe7\x00\x00\x00\xe8\x00\x00\x00\xe9\x00\x00\x00\xea\x00\x00\x00\xeb\x00\x00\x00\xec\x00\x00\x00\xed\x00\x00\x00\xee\x00\x00\x00'
p4419
tp4420
bsS'maxprint'
p4421
I50
sS'_shape'
p4422
(I238
I238
tp4423
sg12
g4400
(g4401
(I0
tp4424
g4403
tp4425
Rp4426
(I1
(I238
tp4427
g3414
(S'f8'
p4428
I0
I1
tp4429
Rp4430
(I3
S'<'
p4431
NNNI-1
I-1
I0
tp4432
bI00
S'\xaa\x154\x9a\xd4\xf0\x1e@\xd9\xb8l\xdd\x91\xe1\x16@\n\xf9\xf5\x82\x08E\x13@R\xc6\x86N\x00\xee\x19@l\xceT:\x0c+\x1c@B\xc1S\x1e+\x1f\x18@\xaa\x154\x9a\xd4\xf0\x1e@;\xc7\xca\xd55\xfa\x13@\x14\xbc1\x97\xb9)\x13@\xaa\x154\x9a\xd4\xf0\x1e@\xa4\xdc\x9a\xfcj/\x10@\x02\x8f!\x0c\x1f\x07\x0b@\xc62\x95^\x9a\x93\x12@\xf0?\x96z{\x9f\x16@R\xc6\x86N\x00\xee\x19@\xaa\x154\x9a\xd4\xf0\x1e@%\x1ch[\xa2Q\x1d@]\xb28\x1c\xc4\x80\x18@\xaa\x154\x9a\xd4\xf0\x1e@%\x1ch[\xa2Q\x1d@%\x1ch[\xa2Q\x1d@\xaa\x154\x9a\xd4\xf0\x1e@\xaa\x154\x9a\xd4\xf0\x1e@\xd9],\x94\x80>\x14@l\xceT:\x0c+\x1c@\xe8\xd4\x88\xfb\xd9\x8b\x1a@\xaa\x154\x9a\xd4\xf0\x1e@\x19+\xa8\xdeE\x0b\x0e@.\xa1\xc3\x9d1c\n@\xaa\x154\x9a\xd4\xf0\x1e@\xaa\x154\x9a\xd4\xf0\x1e@\xbe\xbd\xfc\xe0\xc3\x00\x07@\xaa\x154\x9a\xd4\xf0\x1e@lF\xca;I\x00\x15@\x04zt\xbebY\x15@c\xdb\xbc\xbc\xa7\xec\x18@c\xdb\xbc\xbc\xa7\xec\x18@\x9b\xf9\x17|\x8cF\x1b@\xaa\x154\x9a\xd4\xf0\x1e@\x98\xf0\xe8.\xa7\x9c\x11@\xaa\x154\x9a\xd4\xf0\x1e@\xb0a\xc4\xbd\x9dm\x0f@\n\xf9\xf5\x82\x08E\x13@\x02-\xf1\xc6.\x8d\x10@\xaa\x154\x9a\xd4\xf0\x1e@\xee\xd56\xb9\x9e\x9b\x13@\xaa\x154\x9a\xd4\xf0\x1e@\xaa\x154\x9a\xd4\xf0\x1e@%\x1ch[\xa2Q\x1d@%\x1ch[\xa2Q\x1d@B\xc1S\x1e+\x1f\x18@\xaa\x154\x9a\xd4\xf0\x1e@\xaa\x154\x9a\xd4\xf0\x1e@\x0b\x03\xadz\xea\x93\t@\xaa\x154\x9a\xd4\xf0\x1e@\xaa\x154\x9a\xd4\xf0\x1e@\xd6tR7\xf1c\x10@\xd9\xb8l\xdd\x91\xe1\x16@\n\xf9\xf5\x82\x08E\x13@%\x1ch[\xa2Q\x1d@\xaa\x154\x9a\xd4\xf0\x1e@%\x1ch[\xa2Q\x1d@%\x1ch[\xa2Q\x1d@\xaa\x154\x9a\xd4\xf0\x1e@\x18\xf5a,\xe0\x9c\x0b@e:Z\x03@\x94\n@\x9b\xf9\x17|\x8cF\x1b@\xaa\x154\x9a\xd4\xf0\x1e@\xaa\x154\x9a\xd4\xf0\x1e@\xaa\x154\x9a\xd4\xf0\x1e@\xaa\x154\x9a\xd4\xf0\x1e@\x90\x85\xdb\xaf\x05\x89\x15@\xbf\x96z\xe4\x1at\x17@c\xdb\xbc\xbc\xa7\xec\x18@I\x18\xa6\xbc8\xf8\r@\x90\x85\xdb\xaf\x05\x89\x15@;\xc7\xca\xd55\xfa\x13@c\xdb\xbc\xbc\xa7\xec\x18@\x9bq\x8d}\xc9\x1b\x14@\xaa\x154\x9a\xd4\xf0\x1e@l\xceT:\x0c+\x1c@\xd6tR7\xf1c\x10@\xaa\x154\x9a\xd4\xf0\x1e@]\xb28\x1c\xc4\x80\x18@\x8dp\x95\xc8\x1b\xc0\r@N\x96\x1c\xfe{\xd6\x14@\x9b\xf9\x17|\x8cF\x1b@l\xceT:\x0c+\x1c@D\x08\xbc$\x8a\xe8\x11@\xaa\x154\x9a\xd4\xf0\x1e@%\x1ch[\xa2Q\x1d@\xaa\x154\x9a\xd4\xf0\x1e@%\x1ch[\xa2Q\x1d@\xf3\xb60\xe6\xe4\xf5\x08@%\x94\xdd\\\xdf&\x16@%\x1ch[\xa2Q\x1d@.\x87u\xdaCe\x19@c\xdb\xbc\xbc\xa7\xec\x18@\xbf\x96z\xe4\x1at\x17@h\xdcjzl\xfc\x11@\xaa\x154\x9a\xd4\xf0\x1e@\xdc\xc7\x9e\xafJ\x14\x0b@C?S\x1e\xb9\xca\x0f@\xaa\x154\x9a\xd4\xf0\x1e@\x9b\xf9\x17|\x8cF\x1b@l\xceT:\x0c+\x1c@\xaa\x154\x9a\xd4\xf0\x1e@\xc2}\x1eL\xb1\xc7\x0b@\xaa\x154\x9a\xd4\xf0\x1e@S\x00\xdcq\xfcV\x0f@\x82O\x9b\x84R\xae\x14@\xbf\x96z\xe4\x1at\x17@\xe8\xd4\x88\xfb\xd9\x8b\x1a@\xaa\x154\x9a\xd4\xf0\x1e@;\xc7\xca\xd55\xfa\x13@\x82O\x9b\x84R\xae\x14@\xe8\xd4\x88\xfb\xd9\x8b\x1a@R\xc6\x86N\x00\xee\x19@\xb5R\x13\x9e\xbd\xad\r@\x8d\xe4J\xe2\x0fP\x12@\xaa\x154\x9a\xd4\xf0\x1e@\xc1\x06LW\xea\xdb\x12@\xaa\x154\x9a\xd4\xf0\x1e@\x9bq\x8d}\xc9\x1b\x14@\x9bq\x8d}\xc9\x1b\x14@%\x1ch[\xa2Q\x1d@\x9b\xf9\x17|\x8cF\x1b@\x90\xf3\xfa\xc9\xf2\xb9\x08@%\x1ch[\xa2Q\x1d@\xc7\xb0\x94^(?\n@\x02-\xf1\xc6.\x8d\x10@\x1fkY\xbc\xfb\xba\x15@\n\xf9\xf5\x82\x08E\x13@%\x1ch[\xa2Q\x1d@\xaa\x154\x9a\xd4\xf0\x1e@c\xdb\xbc\xbc\xa7\xec\x18@%\x1ch[\xa2Q\x1d@\x14\xbc1\x97\xb9)\x13@%\x1ch[\xa2Q\x1d@\xa0F\xb0\xc6^\xe7\x05@z\x7f\xfa\xc1k\xaa\x0e@%\x1ch[\xa2Q\x1d@\xaa\x154\x9a\xd4\xf0\x1e@\xaa\x154\x9a\xd4\xf0\x1e@+\x1d\x16\x19ga\x16@\x14\x7f\xa7\xee7(\x17@%\x1ch[\xa2Q\x1d@4v\xacq\xab\xc2\x00@%\x1ch[\xa2Q\x1d@%\x1ch[\xa2Q\x1d@\xaa\x154\x9a\xd4\xf0\x1e@R\xc6\x86N\x00\xee\x19@\xaa\x154\x9a\xd4\xf0\x1e@\xaa\x154\x9a\xd4\xf0\x1e@\x9b\xf9\x17|\x8cF\x1b@\x9b\xf9\x17|\x8cF\x1b@\xaa\x154\x9a\xd4\xf0\x1e@%\x1ch[\xa2Q\x1d@\xaa\x154\x9a\xd4\xf0\x1e@%\x1ch[\xa2Q\x1d@%\x1ch[\xa2Q\x1d@c\xdb\xbc\xbc\xa7\xec\x18@c\xdb\xbc\xbc\xa7\xec\x18@B\xc1S\x1e+\x1f\x18@\xf0?\x96z{\x9f\x16@\xaa\x154\x9a\xd4\xf0\x1e@\xaa\x154\x9a\xd4\xf0\x1e@%\x1ch[\xa2Q\x1d@]\xb28\x1c\xc4\x80\x18@\xe8\xd4\x88\xfb\xd9\x8b\x1a@\xaa\x154\x9a\xd4\xf0\x1e@\xaa\x154\x9a\xd4\xf0\x1e@\x9bq\x8d}\xc9\x1b\x14@\n\xf9\xf5\x82\x08E\x13@\xd9\xb8l\xdd\x91\xe1\x16@\x04zt\xbebY\x15@l\xceT:\x0c+\x1c@\xe8\xd4\x88\xfb\xd9\x8b\x1a@l\xceT:\x0c+\x1c@\xaa\x154\x9a\xd4\xf0\x1e@\n\xf9\xf5\x82\x08E\x13@+\x1d\x16\x19ga\x16@\xaa\x154\x9a\xd4\xf0\x1e@\xe8\xd4\x88\xfb\xd9\x8b\x1a@%\x1ch[\xa2Q\x1d@c\xdb\xbc\xbc\xa7\xec\x18@%\x1ch[\xa2Q\x1d@\xfdU\xcfE \x0f\x13@\x90\x85\xdb\xaf\x05\x89\x15@\x98\xf0\xe8.\xa7\x9c\x11@\xaa\x154\x9a\xd4\xf0\x1e@\x82O\x9b\x84R\xae\x14@\xaa\x154\x9a\xd4\xf0\x1e@\xaa\x8d\xa9\x9b\x11\xc6\x17@\x9bq\x8d}\xc9\x1b\x14@%\x1ch[\xa2Q\x1d@\xaa\x154\x9a\xd4\xf0\x1e@\xaa\x8d\xa9\x9b\x11\xc6\x17@\x90\x85\xdb\xaf\x05\x89\x15@~zY\x92\xe2\xb2\x06@r3\x7ff\n\x04\x11@\xaa\x154\x9a\xd4\xf0\x1e@\xb5R\x13\x9e\xbd\xad\r@\x9bq\x8d}\xc9\x1b\x14@R>\xfcO=\xc3\x12@\xf3\xdd\x9d\x08\xd2\x80\x0b@\x19+\xa8\xdeE\x0b\x0e@\x9b\xf9\x17|\x8cF\x1b@\xb2\xf8\xb6\x1a\xb3\xd9\x13@\xaa\x154\x9a\xd4\xf0\x1e@\xaa\x154\x9a\xd4\xf0\x1e@\x9bq\x8d}\xc9\x1b\x14@R\xc6\x86N\x00\xee\x19@%\x1ch[\xa2Q\x1d@R\xc6\x86N\x00\xee\x19@\xcc\xb1\x16#@\x7f\x10@\x9b\xf9\x17|\x8cF\x1b@%\x1ch[\xa2Q\x1d@\x14\xbc1\x97\xb9)\x13@\xaa\x154\x9a\xd4\xf0\x1e@\x82O\x9b\x84R\xae\x14@R\xc6\x86N\x00\xee\x19@\xaa\x154\x9a\xd4\xf0\x1e@\x90\x85\xdb\xaf\x05\x89\x15@\x9bq\x8d}\xc9\x1b\x14@fx\xb0l\xb8\t\x10@\x8cU\x15\xc0\xae\xd1\x06@%\x1ch[\xa2Q\x1d@%\x1ch[\xa2Q\x1d@\xf6]X\xa0\x1a\xaf\x11@R>\xfcO=\xc3\x12@%\x1ch[\xa2Q\x1d@\xe0\xe6\x08\xef$\xab\x12@%\x1ch[\xa2Q\x1d@\xef\xa8\xf1\x10V\x8a\x04@R\xc6\x86N\x00\xee\x19@\x9b\xf9\x17|\x8cF\x1b@\x9b\xf9\x17|\x8cF\x1b@'
p4433
tp4434
bsbsS'use_idf'
p4435
I01
sS'sublinear_tf'
p4436
I00
sS'norm'
p4437
Vl2
p4438
sbtp4439
a(S'clsfr'
p4440
g3381
(csklearn.linear_model.stochastic_gradient
SGDClassifier
p4441
g3383
Ntp4442
Rp4443
(dp4444
S't_'
p4445
F8411.0
sS'n_jobs'
p4446
I1
sS'shuffle'
p4447
I01
sS'verbose'
p4448
I0
sS'classes_'
p4449
g4400
(g4401
(I0
tp4450
g4403
tp4451
Rp4452
(I1
(I2
tp4453
g3414
(S'S5'
p4454
I0
I1
tp4455
Rp4456
(I3
S'|'
p4457
NNNI5
I1
I0
tp4458
bI00
S'FalseTrue\x00'
p4459
tp4460
bsS'class_weight'
p4461
NsS'fit_intercept'
p4462
I01
sg8
g9
sS'random_state'
p4463
I160
sg3387
g3388
sS'loss_function'
p4464
csklearn.linear_model.sgd_fast
Hinge
p4465
(F1.0
tp4466
Rp4467
sS'C'
p4468
F1.0
sg7
I5
sS'epsilon'
p4469
F0.1
sS'learning_rate'
p4470
S'optimal'
p4471
sS'coef_'
p4472
g4400
(g4401
(I0
tp4473
g4403
tp4474
Rp4475
(I1
(I1
I238
tp4476
g4430
I00
S'\xda\xcev\xcf\xd7\x14\xf0\xbf\x00\x00\x00\x00\x00\x00\x00\x00\x00\x00\x00\x00\x00\x00\x00\x00\x00\x00\x00\x00\x00\x00\x00\x00\x00\x00\x00\x00\x00\x00\x00\x00]\xb8\xb3\x9a>\x06\xf1\xbf\x00\x00\x00\x00\x00\x00\x00\x00\x16\xfd\x8aF\xb9?\x02\xc0\x7fD"q\xbf\xd6\xe1\xbf\x08\xf1\xe0\xc5\x83\xcd\xec\xbfG\x92aF\xcaY\xef\xbf\xf0W\x97f\x0b7\xf4\xbf\xcfyY\x8d\x03\x8b\xe6\xbf\x00\x00\x00\x00\x00\x00\x00\x00\x00\x00\x00\x00\x00\x00\x00\x00\xda\xcev\xcf\xd7\x14\xf0\xbf`Kq\xce7B\xe9\xbf\x00\x00\x00\x00\x00\x00\x00\x00\x00\x00\x00\x00\x00\x00\x00\x00\x00\x00\x00\x00\x00\x00\x00\x00\x00\x00\x00\x00\x00\x00\x00\x00\x84\x93\x9b\x90\x07}\x07\xc0\x00\x00\x00\x00\x00\x00\x00\x00\xd6dA\x9b +\x0c\xc0\x00\x00\x00\x00\x00\x00\x00\x00\x00\x00\x00\x00\x00\x00\x00\x00\x00\x00\x00\x00\x00\x00\x00\x00\xac\xa7a.LV\n\xc0aR\t\xaaZ|\xf5\xbf\x00\x00\x00\x00\x00\x00\x00\x00\x00\x00\x00\x00\x00\x00\x00\x00~\xf5\xa4FB\xed\xf8?\x00\x00\x00\x00\x00\x00\x00\x00\x00\x00\x00\x00\x00\x00\x00\x00r\x03#9\xb2\xdc\x07\xc0\x00\x00\x00\x00\x00\x00\x00\x00\x15\xf4\xf5}:\x0f\x0b\xc0\x00\x00\x00\x00\x00\x00\x00\x00\x00\x00\x00\x00\x00\x00\x00\x00y\x9380\x1c\x1f\x06\xc0\x00\x00\x00\x00\x00\x00\x00\x00\x00\x00\x00\x00\x00\x00\x00\x00\x00\x00\x00\x00\x00\x00\x00\x00\x00\x00\x00\x00\x00\x00\x00\x00\x00\x00\x00\x00\x00\x00\x00\x00\x00\x00\x00\x00\x00\x00\x00\x00\x00\x00\x00\x00\x00\x00\x00\x00\x00\x00\x00\x00\x00\x00\x00\x00\x00\x00\x00\x00\x00\x00\x00\x00\x00\x00\x00\x00\x00\x00\x00\x00\x00\x00\x00\x00\x00\x00\x00\x00\xda\xcev\xcf\xd7\x14\xf0\xbf\x08\xf1\xe0\xc5\x83\xcd\xec\xbf\x15KC{\xd1\xd0\xff\xbf\x00\x00\x00\x00\x00\x00\x00\x00\x00\x00\x00\x00\x00\x00\x00\x00 bJ\xa0\x9b^\xfe\xbf\xe3f\xc9\xba\xdd\xc0\x08\xc06\x1e\xdao\xc8\xba\x01\xc0?w\xdf)\xfe\x08\r\xc0\x08\xf1\xe0\xc5\x83\xcd\xec\xbf\x00\x00\x00\x00\x00\x00\x00\x00\x00\x00\x00\x00\x00\x00\x00\x00.\xd0[Mz\xad\xfd\xbf\xa2\xa3\xc4\xa1\xfa`\r\xc0\xd8k\xce\xaa!\xa2\xfb\xbf8p\x89\x9e\xab`\xe4\xbf\x00\x00\x00\x00\x00\x00\x00\x00\x00\x00\x00\x00\x00\x00\x00\x00\x00\x00\x00\x00\x00\x00\x00\x00\x00\x00\x00\x00\x00\x00\x00\x00\x00\x00\x00\x00\x00\x00\x00\x00\x00\x00\x00\x00\x00\x00\x00\x00\x00\x00\x00\x00\x00\x00\x00\x00&9x\xd3i`\xfb\xbf`\xb6\x96\xfeH \x07\xc0\x16\xfd\x8aF\xb9?\x02\xc0\x00\x00\x00\x00\x00\x00\x00\x00\x00\x00\x00\x00\x00\x00\x00\x00\x00\x00\x00\x00\x00\x00\x00\x00\x00\x00\x00\x00\x00\x00\x00\x00\x12\x85\x1b\x9b\xc1\x9a\xfc\xbf\x00\x00\x00\x00\x00\x00\x00\x00\x00\x00\x00\x00\x00\x00\x00\x00\xb0&\xf11Q\x95\x19@nL\xfeU\xba\xa9\x07\xc0\x00\x00\x00\x00\x00\x00\x00\x00$\x93\x12\xb9\xc4\xbf\xf0\xbf\x9a\xc0\x0fe\x80:\x07\xc0\x00\x00\x00\x00\x00\x00\x00\x00\x00\x00\x00\x00\x00\x00\x00\x00\xda\xcev\xcf\xd7\x14\xf0\xbf\x00\x00\x00\x00\x00\x00\x00\x00\x19:BY8\xe8\x08\xc0,D\xf2\x00\xb2\xb5\xf7\xbf\x00\x00\x00\x00\x00\x00\x00\x00\x00\x00\x00\x00\x00\x00\x00\x00\x00\x00\x00\x00\x00\x00\x00\x00\x00\x00\x00\x00\x00\x00\x00\x00\x1ef\xef\xa4\xe5b\x00\xc0\x00\x00\x00\x00\x00\x00\x00\x00\x96\x08\xa4~\x14l\x10@\xae\xb9\x9cY&\xb0\x14@\x00\x00\x00\x00\x00\x00\x00\x00\x00\x00\x00\x00\x00\x00\x00\x00\x00\x00\x00\x00\x00\x00\x00\x00\x00\x00\x00\x00\x00\x00\x00\x00\xaf>\n\x88\xf3{\xfb?\x00\x00\x00\x00\x00\x00\x00\x00]n\xd6\x1c\x1f\x03\x01\xc0\x00\x00\x00\x00\x00\x00\x00\x00\x00\x00\x00\x00\x00\x00\x00\x00\x00\x00\x00\x00\x00\x00\x00\x00\x00\x00\x00\x00\x00\x00\x00\x00\x92V\x1eC-\xf3\x0c\xc0\xc4v\xf2\xd9\xd4\x9a\xf7\xbf\x00\x00\x00\x00\x00\x00\x00\x00\x00\x00\x00\x00\x00\x00\x00\x00\xa9\x83\xde?\xd5.\x14@\xbf/\xa0Fb\xc8\xff\xbf\x00\x00\x00\x00\x00\x00\x00\x00\xf87L\xd3#\xa2\xfc\xbf\x00\x00\x00\x00\x00\x00\x00\x00\x00\x00\x00\x00\x00\x00\x00\x00\xb3\x7fOp"\xa1\x02\xc0\xc0\xcdI\xcc\xc7\xf9\n\xc0JF=HFu\xf2\xbf\x88\xcd\x0c@z\xc8\x01@\x00\x00\x00\x00\x00\x00\x00\x00\x84\x12\x9b\x1dB\xe1\xb8?\xce\xf5\xed\x06?\xfc\x07\xc08\xd0\x1b\x02B\xf6\x02\xc0_\x9eY3z\xd9\xf2\xbf\xcb\xb1\x87\xcb\xeen\xf1\xbf\x00\x00\x00\x00\x00\x00\x00\x00\x00\x00\x00\x00\x00\x00\x00\x00\x00\x00\x00\x00\x00\x00\x00\x00pF\x96\x8d\xda\x11\x08\xc0\x00\x00\x00\x00\x00\x00\x00\x00\xfa\r\xc1\xd0\n\xd4\x0b\xc0\x89\xcb\xea\xe2]\x06\xc4\xbfqqn\x9b\xc8\xb7\x0f\xc0\x00\x00\x00\x00\x00\x00\x00\x00\x00\x00\x00\x00\x00\x00\x00\x00\x00\x00\x00\x00\x00\x00\x00\x00E\xf8\xce\xba\xcf\xb8\xf0\xbf\xd0.8\x1a`}\x03\xc0\x80\'\x1f\x98\xe2\xfd\xf6\xbf\x00\x00\x00\x00\x00\x00\x00\x00\x00\x00\x00\x00\x00\x00\x00\x00\x00\x00\x00\x00\x00\x00\x00\x00\x00\x00\x00\x00\x00\x00\x00\x00\x00\x00\x00\x00\x00\x00\x00\x00\x00\x00\x00\x00\x00\x00\x00\x00\x00\x00\x00\x00\x00\x00\x00\x00\x00\x00\x00\x00\x00\x00\x00\x00\x08\xf1\xe0\xc5\x83\xcd\xec\xbf`Kq\xce7B\xe9\xbf\x00\x00\x00\x00\x00\x00\x00\x00\xa6\xfd\xe1Jy\x86\x15\xc0\x00\x00\x00\x00\x00\x00\x00\x00\x00\x00\x00\x00\x00\x00\x00\x00\x00\x00\x00\x00\x00\x00\x00\x00\x00\x00\x00\x00\x00\x00\x00\x00\xb6\x90\xb1wk\xfd\xe6\xbf\x00\x00\x00\x00\x00\x00\x00\x00\x00\x00\x00\x00\x00\x00\x00\x00\x00\x00\x00\x00\x00\x00\x00\x00\x00\x00\x00\x00\x00\x00\x00\x00\x00\x00\x00\x00\x00\x00\x00\x00\x00\x00\x00\x00\x00\x00\x00\x00\x00\x00\x00\x00\x00\x00\x00\x00\\\xcc\xd5\xb1\x13\x15\n\xc0\x8c\xdcW\x15LH\x08\xc0\x00\x00\x00\x00\x00\x00\x00\x00\x00\x00\x00\x00\x00\x00\x00\x00\x00\xdd\x1cq\xd5\xd0\xeb\xbf\x00\x00\x00\x00\x00\x00\x00\x00\x00\x00\x00\x00\x00\x00\x00\x00\x00\x00\x00\x00\x00\x00\x00\x00fhp\x82\xad \x04\xc0l;\xed\xc5\x82w\xf5\xbf\x00\x00\x00\x00\x00\x00\x00\x00\x00\x00\x00\x00\x00\x00\x00\x00\x00\x00\x00\x00\x00\x00\x00\x00\x00\x00\x00\x00\x00\x00\x00\x00\x00\x00\x00\x00\x00\x00\x00\x003\xfe9\x17\xed\xd8\x05\xc0\x00\x00\x00\x00\x00\x00\x00\x00zv\xf8h\xee\xff\x03\xc0\x00\x00\x00\x00\x00\x00\x00\x00\xba\xfe\xec\xce\xb7\xc6\x0c\xc0\x00\x00\x00\x00\x00\x00\x00\x00\xae\xe8p\xc8o\x9b\xff\xbf\x00\x00\x00\x00\x00\x00\x00\x00?w\xdf)\xfe\x08\r\xc0\x00\x00\x00\x00\x00\x00\x00\x00\x00\x00\x00\x00\x00\x00\x00\x00\x94\x9e\xb0\xe1\x0c\xc7\x00\xc0\xc1\x04\x11\x0c\xe0t\r\xc0\xecH[\xbac*\x05\xc0\x08\xf1\xe0\xc5\x83\xcd\xec\xbfuj\x93\xff\x01\xdf\xff\xbf\x00\x00\x00\x00\x00\x00\x00\x00l\xdf\xb5\xfauk\x06\xc0\x96<\xd8N\xf7\x1a\x01\xc0\xf3\xa4m\xb8\x0eO\x00\xc0\x00\x00\x00\x00\x00\x00\x00\x00\x00\x00\x00\x00\x00\x00\x00\x00\x00\x00\x00\x00\x00\x00\x00\x00\x00\x00\x00\x00\x00\x00\x00\x00\xd7\xf2\xe99e^\x02\xc0\x00\x00\x00\x00\x00\x00\x00\x00\x00\x00\x00\x00\x00\x00\x00\x00\x00\x00\x00\x00\x00\x00\x00\x00\xbdg7\x15\xa1\xb8\x04\xc0\x00\x00\x00\x00\x00\x00\x00\x00\x92\xeb\xa9\x85\xd7\xcd\x10\xc0p\xcc\xeaP\'\x04\x04\xc0\x00\x00\x00\x00\x00\x00\x00\x00\x00\x00\x00\x00\x00\x00\x00\x00l\xd3QL\xabY\xea\xbf\x00\x00\x00\x00\x00\x00\x00\x00?!JCb\x1d\x07\xc0\x00\x00\x00\x00\x00\x00\x00\x00\x0c\xa4b8\x9d\x16\x06\xc0L\xa1\x02p\xed\x0b\xeb\xbf\x00\x00\x00\x00\x00\x00\x00\x00\x00\x00\x00\x00\x00\x00\x00\x00\x00\x00\x00\x00\x00\x00\x00\x00\xb1-\xa1u\x9c\xf8\x04\xc0\x00\x00\x00\x00\x00\x00\x00\x00\x8b\xd8\x87F\x10\xdd\x14@\x00\x00\x00\x00\x00\x00\x00\x00\xd0\x07\xe5t\x81\x1d\xf8?l\xd3QL\xabY\xea\xbf\x00\x00\x00\x00\x00\x00\x00\x00\x00\x00\x00\x00\x00\x00\x00\x00'
p4477
tp4478
bsg11
F0.001
sS'intercept_'
p4479
g4400
(g4401
(I0
tp4480
g4403
tp4481
Rp4482
(I1
(I1
tp4483
g4430
I00
S'Ia\r\x04\xdcy\xf0\xbf'
p4484
tp4485
bsS'_expanded_class_weight'
p4486
g4400
(g4401
(I0
tp4487
g4403
tp4488
Rp4489
(I1
(I2
tp4490
g4430
I00
S'\x00\x00\x00\x00\x00\x00\xf0?\x00\x00\x00\x00\x00\x00\xf0?'
p4491
tp4492
bsS'warm_start'
p4493
I00
sg2
g3
sS'eta0'
p4494
F0.0
sS'l1_ratio'
p4495
F0.15
sS'average'
p4496
I00
sS'power_t'
p4497
F0.5
sbtp4498
asbsb.