(ialicized_models
CommandMatchingModel
p0
(dp1
S'loss'
p2
S'hinge'
p3
sS'grammar'
p4
NsS'name'
p5
S'GOOGLE_CALENDAR_SHOW_EVENTS.model'
p6
sS'n_iter'
p7
I5
sS'penalty'
p8
S'none'
p9
sS'trained'
p10
I01
sS'alpha'
p11
F0.001
sS'data'
p12
(lp13
(S'check my calendar on tomorrow'
p14
S'True'
p15
tp16
a(S"what's the time"
p17
S'False'
p18
tp19
a(S'could you make an event'
p20
g18
tp21
a(S'please check gmail'
p22
g18
tp23
a(S'open my gmail please'
p24
g18
tp25
a(S'current time'
p26
g18
tp27
a(S'good bye'
p28
g18
tp29
a(S'tell me current events'
p30
g18
tp31
a(S'any events in a month'
p32
g15
tp33
a(S'are there any events'
p34
g15
tp35
a(S'what is new in inbox'
p36
g18
tp37
a(S"today's forecast"
p38
g18
tp39
a(S'i like dogs'
p40
g18
tp41
a(S'am i free'
p42
g15
tp43
a(S'please pause spotify'
p44
g18
tp45
a(S'could you open my mail please'
p46
g18
tp47
a(S'spotify play the last song'
p48
g18
tp49
a(S'what events do i have on this day'
p50
g15
tp51
a(S'check your watch'
p52
g18
tp53
a(S'issue commands'
p54
g18
tp55
a(S'what is in my inbox please'
p56
g18
tp57
a(S'lower the sound'
p58
g18
tp59
a(S'please search'
p60
g18
tp61
a(S"what's the weather today"
p62
g18
tp63
a(S'please can you check mail'
p64
g18
tp65
a(S'pause spotify please'
p66
g18
tp67
a(S'could you open my mail'
p68
g18
tp69
a(S'can you please turn up the volume'
p70
g18
tp71
a(S"what's in my gmail please"
p72
g18
tp73
a(S'a releasing moderate stalls beside the material cell'
p74
g18
tp75
a(S'hey alice'
p76
g18
tp77
a(S'check events for next'
p78
g15
tp79
a(S"what's in new gmail"
p80
g18
tp81
a(S"don't i have to do anything on"
p82
g15
tp83
a(S'the news today'
p84
g18
tp85
a(S"please what's new in gmail"
p86
g18
tp87
a(S"what's new in new gmail please"
p88
g18
tp89
a(S'any events on next'
p90
g15
tp91
a(S"what's in inbox"
p92
g18
tp93
a(S"don't i have anything on friday"
p94
g15
tp95
a(S'get forecast'
p96
g18
tp97
a(S'please get time'
p98
g18
tp99
a(S'is it cold today'
p100
g18
tp101
a(S'do i have anything to do on friday'
p102
g15
tp103
a(S'could you please add an event'
p104
g18
tp105
a(S'news feed'
p106
g18
tp107
a(S'check google calendar on monday'
p108
g15
tp109
a(S'can you shut down'
p110
g18
tp111
a(S'play the song before'
p112
g18
tp113
a(S'spotify stop the song '
p114
g18
tp115
a(S'will you check inbox'
p116
g18
tp117
a(S'google search please'
p118
g18
tp119
a(S'check my calendar on tuesday'
p120
g15
tp121
a(S'turn up the the beat'
p122
g18
tp123
a(S'please turn off the computer'
p124
g18
tp125
a(S'turn it down'
p126
g18
tp127
a(S'what is in my mail'
p128
g18
tp129
a(S'please check the clock right now'
p130
g18
tp131
a(S"what's the clock"
p132
g18
tp133
a(S'please sound up'
p134
g18
tp135
a(S'can you please add event'
p136
g18
tp137
a(S'check calendar for saturday'
p138
g15
tp139
a(S'check google calendar for monday'
p140
g15
tp141
a(S'google for'
p142
g18
tp143
a(S"don't i have anything on next"
p144
g15
tp145
a(S'am i free today'
p146
g15
tp147
a(S'please will you check inbox'
p148
g18
tp149
a(S'what are the live news'
p150
g18
tp151
a(S'close active window'
p152
g18
tp153
a(S'anything in my mail'
p154
g18
tp155
a(S'what do i have to do on this day'
p156
g15
tp157
a(S'please could you check my inbox'
p158
g18
tp159
a(S'could you please schedule an event'
p160
g18
tp161
a(S'check calendar for tuesday'
p162
g15
tp163
a(S"don't i have anything on monday"
p164
g15
tp165
a(S'check calendar for'
p166
g15
tp167
a(S'please will you check new gmail'
p168
g18
tp169
a(S'increase the volume'
p170
g18
tp171
a(S'check calendar for this day'
p172
g15
tp173
a(S"aren't there any events on thursday"
p174
g15
tp175
a(S'please read the time'
p176
g18
tp177
a(S'any events on tomorrow'
p178
g15
tp179
a(S'check events on tuesday'
p180
g15
tp181
a(S'what are the news'
p182
g18
tp183
a(S'kill current window'
p184
g18
tp185
a(S'louder please'
p186
g18
tp187
a(S'spotify play'
p188
g18
tp189
a(S'open my inbox please'
p190
g18
tp191
a(S'could you create a new event please'
p192
g18
tp193
a(S'add a new event please'
p194
g18
tp195
a(S'shut off'
p196
g18
tp197
a(S"get if it's freezing today"
p198
g18
tp199
a(S'please get current time'
p200
g18
tp201
a(S"what's new in mail please"
p202
g18
tp203
a(S"aren't there any events on tomorrow"
p204
g15
tp205
a(S'please spotify play last song'
p206
g18
tp207
a(S'bye bye alice'
p208
g18
tp209
a(S'read time please'
p210
g18
tp211
a(S'is there anything to do on wednesday'
p212
g15
tp213
a(S'please would you open gmail'
p214
g18
tp215
a(S'will you open mail please'
p216
g18
tp217
a(S'please check mail'
p218
g18
tp219
a(S'get news'
p220
g18
tp221
a(S'get the current time'
p222
g18
tp223
a(S'check my calendar for today'
p224
g15
tp225
a(S'get the information'
p226
g18
tp227
a(S'can you kill this window'
p228
g18
tp229
a(S'please turn it down'
p230
g18
tp231
a(S'what is in inbox please'
p232
g18
tp233
a(S'kill active window'
p234
g18
tp235
a(S'please could you open my inbox'
p236
g18
tp237
a(S'what is current news'
p238
g18
tp239
a(S'please add a new event'
p240
g18
tp241
a(S"how's the weather today"
p242
g18
tp243
a(S'shut down the computer'
p244
g18
tp245
a(S'any mail'
p246
g18
tp247
a(S'please close active window'
p248
g18
tp249
a(S'what is on my calendar for this week'
p250
g15
tp251
a(S'will you open gmail please'
p252
g18
tp253
a(S'please what is new in my mail'
p254
g18
tp255
a(S'check my calendar for monday'
p256
g15
tp257
a(S'is there anything i have to do'
p258
g15
tp259
a(S'could you please make an event'
p260
g18
tp261
a(S'shut down my computer please'
p262
g18
tp263
a(S"don't i have any events on monday"
p264
g15
tp265
a(S'what is new in new mail please'
p266
g18
tp267
a(S'would you open my inbox please'
p268
g18
tp269
a(S'check my calendar on friday'
p270
g15
tp271
a(S'can you turn up the tune'
p272
g18
tp273
a(S'can you create a new event'
p274
g18
tp275
a(S"what's new in inbox"
p276
g18
tp277
a(S'check calendar on this week'
p278
g15
tp279
a(S"what's if it's foggy this week"
p280
g18
tp281
a(S'shut down my computer'
p282
g18
tp283
a(S"how's the temperature today"
p284
g18
tp285
a(S'brief me'
p286
g18
tp287
a(S"what's the weather"
p288
g18
tp289
a(S'can you schedule a new event please'
p290
g18
tp291
a(S'do i have any events on'
p292
g15
tp293
a(S'are there any events on today'
p294
g15
tp295
a(S'can you lock my computer please'
p296
g18
tp297
a(S'please schedule new event'
p298
g18
tp299
a(S"what's new in inbox please"
p300
g18
tp301
a(S'would you check new gmail please'
p302
g18
tp303
a(S'please open my inbox'
p304
g18
tp305
a(S'please shut down the computer'
p306
g18
tp307
a(S'will you check my gmail'
p308
g18
tp309
a(S'do i have to do anything in a week'
p310
g15
tp311
a(S"aren't there any events on today"
p312
g15
tp313
a(S'skip spotify please'
p314
g18
tp315
a(S'could you open mail'
p316
g18
tp317
a(S"what's if it's foggy today"
p318
g18
tp319
a(S'okay alex'
p320
g18
tp321
a(S'am i free on thursday'
p322
g15
tp323
a(S'could you add event'
p324
g18
tp325
a(S'what is on my calendar for today'
p326
g15
tp327
a(S'do i have any events on friday'
p328
g15
tp329
a(S'can you please turn up the tune'
p330
g18
tp331
a(S'tell me newsfeed'
p332
g18
tp333
a(S"what's the current events"
p334
g18
tp335
a(S"don't i have to do anything on wednesday"
p336
g15
tp337
a(S'what events are going on right now'
p338
g18
tp339
a(S'what is in my gmail'
p340
g18
tp341
a(S'check my inbox'
p342
g18
tp343
a(S"today's live news feed"
p344
g18
tp345
a(S'what are the current news'
p346
g18
tp347
a(S'what is in new mail please'
p348
g18
tp349
a(S'can you schedule an event'
p350
g18
tp351
a(S'check events for saturday'
p352
g15
tp353
a(S'make the volume lower'
p354
g18
tp355
a(S'spotify play previous song please'
p356
g18
tp357
a(S'open'
p358
g18
tp359
a(S'is there anything to do today'
p360
g15
tp361
a(S"i think i didn't answer an earlier question"
p362
g18
tp363
a(S'do i have to do anything'
p364
g15
tp365
a(S'check what time it is please'
p366
g18
tp367
a(S'can you shut off my computer'
p368
g18
tp369
a(S'read the time'
p370
g18
tp371
a(S'can you please make a new event'
p372
g18
tp373
a(S'please what is in mail'
p374
g18
tp375
a(S'open inbox'
p376
g18
tp377
a(S'get live newsfeed'
p378
g18
tp379
a(S"aren't there any events in a week"
p380
g15
tp381
a(S"if it's freezing today"
p382
g18
tp383
a(S'can you turn the volume higher please'
p384
g18
tp385
a(S'google search for'
p386
g18
tp387
a(S'check inbox'
p388
g18
tp389
a(S'please could you check new gmail'
p390
g18
tp391
a(S'could you schedule a new event'
p392
g18
tp393
a(S'please pause'
p394
g18
tp395
a(S'can you turn up the volume please'
p396
g18
tp397
a(S'predict the outcome on a new document'
p398
g18
tp399
a(S'schedule new event please'
p400
g18
tp401
a(S'please sound higher'
p402
g18
tp403
a(S'what is new in gmail'
p404
g18
tp405
a(S'check my calendar for next'
p406
g15
tp407
a(S'can you close the active window'
p408
g18
tp409
a(S'please shut down'
p410
g18
tp411
a(S'could you add an event please'
p412
g18
tp413
a(S'what events are on tomorrow'
p414
g15
tp415
a(S'check google calendar for next'
p416
g15
tp417
a(S'what is current events'
p418
g18
tp419
a(S'check new mail'
p420
g18
tp421
a(S'schedule event'
p422
g18
tp423
a(S'lock my computer'
p424
g18
tp425
a(S'please start browser'
p426
g18
tp427
a(S"please what's in new gmail"
p428
g18
tp429
a(S'please will you open my inbox'
p430
g18
tp431
a(S'please start a browser'
p432
g18
tp433
a(S'am i free for sunday'
p434
g15
tp435
a(S'please retrieve the current time'
p436
g18
tp437
a(S'check calendar on this day'
p438
g15
tp439
a(S'please start browsing'
p440
g18
tp441
a(S"what's if it's cold this week"
p442
g18
tp443
a(S'spotify previous song please'
p444
g18
tp445
a(S'please start a default browser'
p446
g18
tp447
a(S'could you check my inbox please'
p448
g18
tp449
a(S'could you schedule new event'
p450
g18
tp451
a(S'can you please exit'
p452
g18
tp453
a(S'schedule new event'
p454
g18
tp455
a(S"today's temperature"
p456
g18
tp457
a(S'close this window'
p458
g18
tp459
a(S'would you check my gmail'
p460
g18
tp461
a(S"don't i have to do anything on"
p462
g15
tp463
a(S'get current time please'
p464
g18
tp465
a(S'check google calendar for wednesday'
p466
g15
tp467
a(S"aren't there any events in a month"
p468
g15
tp469
a(S"get if it's cloudy today"
p470
g18
tp471
a(S'do i have any events in a week'
p472
g15
tp473
a(S"what's in mail"
p474
g18
tp475
a(S'could you check new mail'
p476
g18
tp477
a(S'could you schedule a new event please'
p478
g18
tp479
a(S'am i free for this day'
p480
g15
tp481
a(S"what's if it's snowing today"
p482
g18
tp483
a(S'what is on my calendar for saturday'
p484
g15
tp485
a(S'am i free for thursday'
p486
g15
tp487
a(S'add new event please'
p488
g18
tp489
a(S'what is live news'
p490
g18
tp491
a(S'please lock the screen'
p492
g18
tp493
a(S'open a browser'
p494
g18
tp495
a(S'could you schedule new event please'
p496
g18
tp497
a(S'exit'
p498
g18
tp499
a(S'do i have any events on next'
p500
g15
tp501
a(S"don't i have to do anything in a week"
p502
g15
tp503
a(S'please play spotify '
p504
g18
tp505
a(S'do i have anything on monday'
p506
g15
tp507
a(S'any events on saturday'
p508
g15
tp509
a(S'could you please create an event'
p510
g18
tp511
a(S'check events on month'
p512
g15
tp513
a(S'can you turn off'
p514
g18
tp515
a(S'find live news feed'
p516
g18
tp517
a(S'find the current events'
p518
g18
tp519
a(S'shutdown the computer'
p520
g18
tp521
a(S"please what's in my inbox"
p522
g18
tp523
a(S'can you please make an event'
p524
g18
tp525
a(S'check my calendar on next'
p526
g15
tp527
a(S'please shut off my computer'
p528
g18
tp529
a(S'lock my computer please'
p530
g18
tp531
a(S'add an event please'
p532
g18
tp533
a(S'can you open this program'
p534
g18
tp535
a(S"this week's weather"
p536
g18
tp537
a(S'could you check mail'
p538
g18
tp539
a(S"what's new in my mail please"
p540
g18
tp541
a(S'will you get the headlines'
p542
g18
tp543
a(S'check calendar for sunday'
p544
g15
tp545
a(S'check google calendar on next'
p546
g15
tp547
a(S'okay alice'
p548
g18
tp549
a(S'check calendar'
p550
g15
tp551
a(S'can you check gmail'
p552
g18
tp553
a(S'please will you check my inbox'
p554
g18
tp555
a(S'be quiet'
p556
g18
tp557
a(S'what is in inbox'
p558
g18
tp559
a(S'start a default browser'
p560
g18
tp561
a(S'please what is new in inbox'
p562
g18
tp563
a(S'what is in the news today'
p564
g18
tp565
a(S'add an event'
p566
g18
tp567
a(S'check events for this month'
p568
g15
tp569
a(S'could you open gmail please'
p570
g18
tp571
a(S'check inbox please'
p572
g18
tp573
a(S'check my calendar on monday'
p574
g15
tp575
a(S'retrieve the time please'
p576
g18
tp577
a(S'would you check new gmail'
p578
g18
tp579
a(S'is it raining today'
p580
g18
tp581
a(S'can you lock my computer please'
p582
g18
tp583
a(S'can you create new event please'
p584
g18
tp585
a(S'please check new gmail'
p586
g18
tp587
a(S'any events on sunday'
p588
g15
tp589
a(S'kill this window'
p590
g18
tp591
a(S'any events on'
p592
g15
tp593
a(S"please what's new in inbox"
p594
g18
tp595
a(S"get this week's forecast"
p596
g18
tp597
a(S'give me intel'
p598
g18
tp599
a(S'check calendar for wednesday'
p600
g15
tp601
a(S'will you open my mail'
p602
g18
tp603
a(S'can you check my mail'
p604
g18
tp605
a(S'make the sound softer'
p606
g18
tp607
a(S'is there anything i have to do on wednesday'
p608
g15
tp609
a(S'what are the live news feed'
p610
g18
tp611
a(S'kill the program'
p612
g18
tp613
a(S'stop spotify'
p614
g18
tp615
a(S'what is in mail please'
p616
g18
tp617
a(S'please volume higher'
p618
g18
tp619
a(S'check calendar on monday'
p620
g15
tp621
a(S'check my calendar on this month'
p622
g15
tp623
a(S"get today's forecast"
p624
g18
tp625
a(S'any events on tuesday'
p626
g15
tp627
a(S'check my calendar for wednesday'
p628
g15
tp629
a(S'any events on today'
p630
g15
tp631
a(S'read your watch'
p632
g18
tp633
a(S"don't i have to do anything today"
p634
g15
tp635
a(S'what do i have in a week'
p636
g15
tp637
a(S'could you schedule an event please'
p638
g18
tp639
a(S'can you please create an event'
p640
g18
tp641
a(S'can you please shutdown my computer'
p642
g18
tp643
a(S'would you open mail'
p644
g18
tp645
a(S'turn up the sound'
p646
g18
tp647
a(S'can you please turn up the sound'
p648
g18
tp649
a(S'could you please create a new event'
p650
g18
tp651
a(S'can you please turn off'
p652
g18
tp653
a(S'what is in new gmail please'
p654
g18
tp655
a(S'send me to the lock screen'
p656
g18
tp657
a(S"this week's forecast"
p658
g18
tp659
a(S'current events'
p660
g18
tp661
a(S'is there anything i have to do on next'
p662
g15
tp663
a(S'can you check new gmail please'
p664
g18
tp665
a(S'please will you open my mail'
p666
g18
tp667
a(S'would you check my gmail please'
p668
g18
tp669
a(S'what are the headlines'
p670
g18
tp671
a(S'sound up please'
p672
g18
tp673
a(S'can you turn the beat down'
p674
g18
tp675
a(S'what is in gmail please'
p676
g18
tp677
a(S'could you create new event please'
p678
g18
tp679
a(S'get live news feed'
p680
g18
tp681
a(S"what's in new mail"
p682
g18
tp683
a(S'check what time it is'
p684
g18
tp685
a(S'will you check new mail'
p686
g18
tp687
a(S'give me the news'
p688
g18
tp689
a(S'please make a new event'
p690
g18
tp691
a(S'am i free on'
p692
g15
tp693
a(S"what's the weather this week"
p694
g18
tp695
a(S'turn the volume to zero'
p696
g18
tp697
a(S"don't i have anything to do today"
p698
g15
tp699
a(S'open browser'
p700
g18
tp701
a(S"don't i have anything today"
p702
g15
tp703
a(S'check calendar on month'
p704
g15
tp705
a(S'spotify pause please'
p706
g18
tp707
a(S'do i have to do anything on saturday'
p708
g15
tp709
a(S'what is new in new mail'
p710
g18
tp711
a(S'check my calendar on'
p712
g15
tp713
a(S'would you check mail please'
p714
g18
tp715
a(S'check google calendar on this day'
p716
g15
tp717
a(S"get if it's cloudy this week"
p718
g18
tp719
a(S'please can you make it louder'
p720
g18
tp721
a(S'would you open inbox please'
p722
g18
tp723
a(S'please open my mail'
p724
g18
tp725
a(S'gather the latest headlines please'
p726
g18
tp727
a(S'do i have to do anything on this day'
p728
g15
tp729
a(S'please get the time'
p730
g18
tp731
a(S"if it's hot today"
p732
g18
tp733
a(S"what's the news feed"
p734
g18
tp735
a(S'what are the the news'
p736
g18
tp737
a(S"what's the headlines"
p738
g18
tp739
a(S'are there any events on thursday'
p740
g15
tp741
a(S'can you please close active window'
p742
g18
tp743
a(S'go to'
p744
g18
tp745
a(S'spotify go ahead'
p746
g18
tp747
a(S'please open browser'
p748
g18
tp749
a(S'could you create event please'
p750
g18
tp751
a(S'lower the tunes please'
p752
g18
tp753
a(S'check my calendar for thursday'
p754
g15
tp755
a(S'spotify next'
p756
g18
tp757
a(S'do i have anything tomorrow'
p758
g15
tp759
a(S'search for'
p760
g18
tp761
a(S'volume up'
p762
g18
tp763
a(S'any events on thursday'
p764
g15
tp765
a(S'could you check new mail please'
p766
g18
tp767
a(S'find headlines'
p768
g18
tp769
a(S'go to dot org'
p770
g18
tp771
a(S'what do i have on monday'
p772
g15
tp773
a(S'check events on friday'
p774
g15
tp775
a(S'can you please shutdown'
p776
g18
tp777
a(S'google'
p778
g18
tp779
a(S'please would you check new gmail'
p780
g18
tp781
a(S'last song please'
p782
g18
tp783
a(S'turn my computer off'
p784
g18
tp785
a(S'can you add event'
p786
g18
tp787
a(S'set the volume zero'
p788
g18
tp789
a(S'could you add new event'
p790
g18
tp791
a(S'can you turn up the sound'
p792
g18
tp793
a(S"what're the current events"
p794
g18
tp795
a(S'please would you check new mail'
p796
g18
tp797
a(S'turn up the sound please'
p798
g18
tp799
a(S'please create new event'
p800
g18
tp801
a(S'check my mail please'
p802
g18
tp803
a(S'go to dot ee dee you'
p804
g18
tp805
a(S"don't i have to do anything on friday"
p806
g15
tp807
a(S'pause song please'
p808
g18
tp809
a(S'please shutdown the computer'
p810
g18
tp811
a(S'please get the current events'
p812
g18
tp813
a(S'sweet dreams'
p814
g18
tp815
a(S'turn it off'
p816
g18
tp817
a(S'is it rainy today'
p818
g18
tp819
a(S"what's in new mail please"
p820
g18
tp821
a(S"if it's freezing this week"
p822
g18
tp823
a(S'get the clock please'
p824
g18
tp825
a(S'go to dot net'
p826
g18
tp827
a(S'can you add a new event'
p828
g18
tp829
a(S"what's if it's cold today"
p830
g18
tp831
a(S'please could you open gmail'
p832
g18
tp833
a(S'please retrieve what time it is'
p834
g18
tp835
a(S'what time is it'
p836
g18
tp837
a(S'can you turn up the beat'
p838
g18
tp839
a(S'am i free for monday'
p840
g15
tp841
a(S'can you check my gmail please'
p842
g18
tp843
a(S'fake news'
p844
g18
tp845
a(S'am i free on tuesday'
p846
g15
tp847
a(S'see ya alice'
p848
g18
tp849
a(S'can you check my gmail'
p850
g18
tp851
a(S'play '
p852
g18
tp853
a(S"what's the temperature this week"
p854
g18
tp855
a(S'please create a new event'
p856
g18
tp857
a(S'please get the current time'
p858
g18
tp859
a(S'create new event'
p860
g18
tp861
a(S'is there anything i have to do today'
p862
g15
tp863
a(S'is there anything to do in a month'
p864
g15
tp865
a(S'go to dot edu'
p866
g18
tp867
a(S'could you open my gmail'
p868
g18
tp869
a(S"don't i have to do anything on friday"
p870
g15
tp871
a(S'what events do i have in a week'
p872
g15
tp873
a(S'please could you check gmail'
p874
g18
tp875
a(S"don't i have anything on this day"
p876
g15
tp877
a(S'will you get the current events for me'
p878
g18
tp879
a(S"don't i have any events in a month"
p880
g15
tp881
a(S'next spotify please'
p882
g18
tp883
a(S'the tale pretends'
p884
g18
tp885
a(S'what are the current events today'
p886
g18
tp887
a(S'what are the current events'
p888
g18
tp889
a(S'anything new in inbox'
p890
g18
tp891
a(S'please what is in gmail'
p892
g18
tp893
a(S"what's if it's cloudy today"
p894
g18
tp895
a(S"don't i have anything in a week"
p896
g15
tp897
a(S'can you unmute please'
p898
g18
tp899
a(S'get the news'
p900
g18
tp901
a(S'is there anything i have to do on monday'
p902
g15
tp903
a(S'retrieve the time'
p904
g18
tp905
a(S'read me the clock please'
p906
g18
tp907
a(S'please will you open gmail'
p908
g18
tp909
a(S'would you check gmail please'
p910
g18
tp911
a(S'is there anything to do on'
p912
g15
tp913
a(S'what do i have to do on'
p914
g15
tp915
a(S'can you turn the sound down'
p916
g18
tp917
a(S"don't i have to do anything on this day"
p918
g15
tp919
a(S'can you check mail'
p920
g18
tp921
a(S"what's in my inbox please"
p922
g18
tp923
a(S'anything in mail'
p924
g18
tp925
a(S'do i have anything to do on tuesday'
p926
g15
tp927
a(S'check calendar for tomorrow'
p928
g15
tp929
a(S"get if it's cold today"
p930
g18
tp931
a(S'please could you open mail'
p932
g18
tp933
a(S'please would you check my mail'
p934
g18
tp935
a(S"what's new in my gmail please"
p936
g18
tp937
a(S'do i have any events on tuesday'
p938
g15
tp939
a(S'please last song'
p940
g18
tp941
a(S'gimme the news'
p942
g18
tp943
a(S'get me the news todays'
p944
g18
tp945
a(S'check google calendar on saturday'
p946
g15
tp947
a(S'unmute please'
p948
g18
tp949
a(S"aren't there any events on wednesday"
p950
g15
tp951
a(S'lock the screen please'
p952
g18
tp953
a(S'please would you open my mail'
p954
g18
tp955
a(S'can you please open a browser'
p956
g18
tp957
a(S'shutdown'
p958
g18
tp959
a(S'please will you open inbox'
p960
g18
tp961
a(S'close current window'
p962
g18
tp963
a(S"don't i have to do anything on sunday"
p964
g15
tp965
a(S'please get clock'
p966
g18
tp967
a(S'get news feed'
p968
g18
tp969
a(S"get if it's foggy this week"
p970
g18
tp971
a(S'will you open my gmail please'
p972
g18
tp973
a(S'current news today'
p974
g18
tp975
a(S"please what's in mail"
p976
g18
tp977
a(S'please open'
p978
g18
tp979
a(S"what's new in mail"
p980
g18
tp981
a(S'make the volume zero'
p982
g18
tp983
a(S'is it rainy this week'
p984
g18
tp985
a(S'could you check new gmail'
p986
g18
tp987
a(S'alice go ahead please'
p988
g18
tp989
a(S"what're the live newsfeed"
p990
g18
tp991
a(S'what is news feed'
p992
g18
tp993
a(S"how's the forecast this week"
p994
g18
tp995
a(S'check events on saturday'
p996
g15
tp997
a(S'am i free for today'
p998
g15
tp999
a(S'what is live newsfeed'
p1000
g18
tp1001
a(S'start browsing please'
p1002
g18
tp1003
a(S'can you shutdown'
p1004
g18
tp1005
a(S"what's new in gmail please"
p1006
g18
tp1007
a(S'live news feed today'
p1008
g18
tp1009
a(S'go back'
p1010
g18
tp1011
a(S'will it snow today'
p1012
g18
tp1013
a(S"don't i have to do anything on tuesday"
p1014
g15
tp1015
a(S"don't i have anything to do on friday"
p1016
g15
tp1017
a(S'search google'
p1018
g18
tp1019
a(S"what's if it's raining this week"
p1020
g18
tp1021
a(S'please will you check new mail'
p1022
g18
tp1023
a(S'please what is new in new gmail'
p1024
g18
tp1025
a(S'what do i have to do on next'
p1026
g15
tp1027
a(S'am i free for friday'
p1028
g15
tp1029
a(S'search google for please'
p1030
g18
tp1031
a(S'do i have anything on friday'
p1032
g15
tp1033
a(S'can you get the current events'
p1034
g18
tp1035
a(S'will you open a browser'
p1036
g18
tp1037
a(S'please could you open my mail'
p1038
g18
tp1039
a(S"aren't there any events on monday"
p1040
g15
tp1041
a(S'could you create an event'
p1042
g18
tp1043
a(S'can you open a browser please'
p1044
g18
tp1045
a(S"what's new in gmail"
p1046
g18
tp1047
a(S"don't i have anything on tuesday"
p1048
g15
tp1049
a(S'check calendar for this day'
p1050
g15
tp1051
a(S"what's the newsfeed"
p1052
g18
tp1053
a(S'check events on today'
p1054
g15
tp1055
a(S'would you check my inbox'
p1056
g18
tp1057
a(S'get me the clock please'
p1058
g18
tp1059
a(S'please will you check my gmail'
p1060
g18
tp1061
a(S'what is new in my gmail'
p1062
g18
tp1063
a(S'do i have any events on today'
p1064
g15
tp1065
a(S'what do i have'
p1066
g15
tp1067
a(S'turn up the tunez please'
p1068
g18
tp1069
a(S'please what is in my gmail'
p1070
g18
tp1071
a(S'check my calendar for this month'
p1072
g15
tp1073
a(S'check my calendar for this week'
p1074
g15
tp1075
a(S'what events are'
p1076
g15
tp1077
a(S'please be quiet'
p1078
g18
tp1079
a(S"don't i have to do anything tomorrow"
p1080
g15
tp1081
a(S"if it's snowing today"
p1082
g18
tp1083
a(S'what do i have on friday'
p1084
g15
tp1085
a(S'current weather'
p1086
g18
tp1087
a(S'can you turn my computer off'
p1088
g18
tp1089
a(S'train a classifier to try to predict the category of a post'
p1090
g18
tp1091
a(S'please can you check inbox'
p1092
g18
tp1093
a(S'can you please make event'
p1094
g18
tp1095
a(S'spotify go back'
p1096
g18
tp1097
a(S'could you schedule event please'
p1098
g18
tp1099
a(S'please make event'
p1100
g18
tp1101
a(S'do i have anything to do in a week'
p1102
g15
tp1103
a(S'could you schedule event'
p1104
g18
tp1105
a(S'could you check inbox please'
p1106
g18
tp1107
a(S'do i have anything on tuesday'
p1108
g15
tp1109
a(S'what is on my calendar for thursday'
p1110
g15
tp1111
a(S'spotify go back to the last song '
p1112
g18
tp1113
a(S'what events are on this day'
p1114
g15
tp1115
a(S'sound higher please'
p1116
g18
tp1117
a(S"get if it's rainy this week"
p1118
g18
tp1119
a(S'is there anything i have to do tomorrow'
p1120
g15
tp1121
a(S'please turn off'
p1122
g18
tp1123
a(S'lower the tunez please'
p1124
g18
tp1125
a(S'sweet dreams alice'
p1126
g18
tp1127
a(S'open mail please'
p1128
g18
tp1129
a(S'turn up the beat please'
p1130
g18
tp1131
a(S"what's if it's freezing today"
p1132
g18
tp1133
a(S'check google calendar for today'
p1134
g15
tp1135
a(S'check google calendar on today'
p1136
g15
tp1137
a(S'spotify play the song'
p1138
g18
tp1139
a(S'get time please'
p1140
g18
tp1141
a(S'forecast'
p1142
g18
tp1143
a(S'turn off my computer please'
p1144
g18
tp1145
a(S'could you schedule an event'
p1146
g18
tp1147
a(S"today's headlines"
p1148
g18
tp1149
a(S'please check my gmail'
p1150
g18
tp1151
a(S'spotify pause please'
p1152
g18
tp1153
a(S'what events do i have'
p1154
g15
tp1155
a(S"don't i have to do anything on sunday"
p1156
g15
tp1157
a(S'get newsfeed'
p1158
g18
tp1159
a(S'turn my computer off please'
p1160
g18
tp1161
a(S'will you open inbox'
p1162
g18
tp1163
a(S'what events are on'
p1164
g15
tp1165
a(S'get clock please'
p1166
g18
tp1167
a(S'would you open my inbox'
p1168
g18
tp1169
a(S'create an event'
p1170
g18
tp1171
a(S"don't i have to do anything today"
p1172
g15
tp1173
a(S'what is in new gmail'
p1174
g18
tp1175
a(S'will you open mail'
p1176
g18
tp1177
a(S'what events do i have on wednesday'
p1178
g15
tp1179
a(S'start browsing'
p1180
g18
tp1181
a(S'make the sound quieter'
p1182
g18
tp1183
a(S'what is live news feed'
p1184
g18
tp1185
a(S"don't i have anything to do in a month"
p1186
g15
tp1187
a(S'can you create an event'
p1188
g18
tp1189
a(S'go to dot com'
p1190
g18
tp1191
a(S'create new event please'
p1192
g18
tp1193
a(S"today's news"
p1194
g18
tp1195
a(S'shutdown my computer'
p1196
g18
tp1197
a(S'what events are on monday'
p1198
g15
tp1199
a(S'check google calendar for'
p1200
g15
tp1201
a(S'please would you open mail'
p1202
g18
tp1203
a(S'what events are on wednesday'
p1204
g15
tp1205
a(S'what is in mail'
p1206
g18
tp1207
a(S'please schedule an event'
p1208
g18
tp1209
a(S"what're the current news"
p1210
g18
tp1211
a(S"what's if it's hot today"
p1212
g18
tp1213
a(S'do i have anything to do on thursday'
p1214
g15
tp1215
a(S'could you make a new event'
p1216
g18
tp1217
a(S'off'
p1218
g18
tp1219
a(S'shut down please'
p1220
g18
tp1221
a(S"if it's snowing this week"
p1222
g18
tp1223
a(S"please what's new in my inbox"
p1224
g18
tp1225
a(S'can you make it louder please'
p1226
g18
tp1227
a(S'check google calendar for this month'
p1228
g15
tp1229
a(S'will you get the news for me'
p1230
g18
tp1231
a(S'could you please create event'
p1232
g18
tp1233
a(S'would you open my gmail'
p1234
g18
tp1235
a(S'anything in my gmail'
p1236
g18
tp1237
a(S'read me the clock'
p1238
g18
tp1239
a(S'is it hot today'
p1240
g18
tp1241
a(S'put me on the lock screen'
p1242
g18
tp1243
a(S'what is on my calendar for wednesday'
p1244
g15
tp1245
a(S"today's current events"
p1246
g18
tp1247
a(S"please what's in my gmail"
p1248
g18
tp1249
a(S'check my calendar for tomorrow'
p1250
g15
tp1251
a(S'please spotify previous'
p1252
g18
tp1253
a(S'can you create an event please'
p1254
g18
tp1255
a(S'please spotify start'
p1256
g18
tp1257
a(S'check your watch please'
p1258
g18
tp1259
a(S'check google calendar for saturday'
p1260
g15
tp1261
a(S'please spotify play previous song'
p1262
g18
tp1263
a(S'please read the clock'
p1264
g18
tp1265
a(S'get the time please'
p1266
g18
tp1267
a(S'make the volume 0'
p1268
g18
tp1269
a(S'check calendar for this month'
p1270
g15
tp1271
a(S"don't i have to do anything"
p1272
g15
tp1273
a(S'lower the volume'
p1274
g18
tp1275
a(S'news now please'
p1276
g18
tp1277
a(S'what is on my calendar'
p1278
g15
tp1279
a(S'bye alice'
p1280
g18
tp1281
a(S'will you check new gmail'
p1282
g18
tp1283
a(S'am i free for a week'
p1284
g15
tp1285
a(S'please google search'
p1286
g18
tp1287
a(S'retrieve the current time please'
p1288
g18
tp1289
a(S'how is the temperature'
p1290
g18
tp1291
a(S'is there anything to do tomorrow'
p1292
g15
tp1293
a(S"don't i have any events on wednesday"
p1294
g15
tp1295
a(S"what's if it's hot this week"
p1296
g18
tp1297
a(S'check events on this week'
p1298
g15
tp1299
a(S'find news'
p1300
g18
tp1301
a(S'get the current events'
p1302
g18
tp1303
a(S'google search for please'
p1304
g18
tp1305
a(S'get headlines'
p1306
g18
tp1307
a(S"don't i have any events on"
p1308
g15
tp1309
a(S'live newsfeed today'
p1310
g18
tp1311
a(S'check my calendar'
p1312
g15
tp1313
a(S'what are the live newsfeed'
p1314
g18
tp1315
a(S'please google for'
p1316
g18
tp1317
a(S'turn off'
p1318
g18
tp1319
a(S'check events for sunday'
p1320
g15
tp1321
a(S'what do i have to do on tuesday'
p1322
g15
tp1323
a(S"don't i have anything on wednesday"
p1324
g15
tp1325
a(S'can you shut off'
p1326
g18
tp1327
a(S'open a default browser'
p1328
g18
tp1329
a(S'open my inbox'
p1330
g18
tp1331
a(S'can you please shut off'
p1332
g18
tp1333
a(S'please spotify go '
p1334
g18
tp1335
a(S'are there any events in a month'
p1336
g15
tp1337
a(S'spotify pause'
p1338
g18
tp1339
a(S'please find out the latest headlines'
p1340
g18
tp1341
a(S'am i free in a week'
p1342
g15
tp1343
a(S'mute please'
p1344
g18
tp1345
a(S'shutdown my computer please'
p1346
g18
tp1347
a(S'make the sound louder'
p1348
g18
tp1349
a(S'what do i have on this day'
p1350
g15
tp1351
a(S'could you check gmail please'
p1352
g18
tp1353
a(S'lock computer please'
p1354
g18
tp1355
a(S'please close the active window'
p1356
g18
tp1357
a(S'spotify skip ahead please'
p1358
g18
tp1359
a(S'what is new in new gmail please'
p1360
g18
tp1361
a(S'a backbone dictates above my grief'
p1362
g18
tp1363
a(S'check google calendar for friday'
p1364
g15
tp1365
a(S'please open my gmail'
p1366
g18
tp1367
a(S'please start default browser'
p1368
g18
tp1369
a(S'anything in inbox'
p1370
g18
tp1371
a(S'check calendar for monday'
p1372
g15
tp1373
a(S"what's in my gmail"
p1374
g18
tp1375
a(S'please will you check gmail'
p1376
g18
tp1377
a(S'am i free for saturday'
p1378
g15
tp1379
a(S'is there anything i have to do on this day'
p1380
g15
tp1381
a(S"what's in gmail"
p1382
g18
tp1383
a(S'get current time'
p1384
g18
tp1385
a(S"aren't there any events on next"
p1386
g15
tp1387
a(S'will you check my inbox please'
p1388
g18
tp1389
a(S'send me to the lock screen please'
p1390
g18
tp1391
a(S'is there anything to do on thursday'
p1392
g15
tp1393
a(S'mute'
p1394
g18
tp1395
a(S'schedule a new event please'
p1396
g18
tp1397
a(S'is there anything i have to do on tuesday'
p1398
g15
tp1399
a(S'what is headlines'
p1400
g18
tp1401
a(S'turn the sound down please'
p1402
g18
tp1403
a(S'can you please add new event'
p1404
g18
tp1405
a(S'check the clock right now please'
p1406
g18
tp1407
a(S'can you add event please'
p1408
g18
tp1409
a(S"don't i have anything tomorrow"
p1410
g15
tp1411
a(S'add a new event'
p1412
g18
tp1413
a(S"today's weather"
p1414
g18
tp1415
a(S'what is in gmail'
p1416
g18
tp1417
a(S'what are the newsfeed'
p1418
g18
tp1419
a(S'what is on my calendar for this day'
p1420
g15
tp1421
a(S'retrieve what time it is please'
p1422
g18
tp1423
a(S'lock the screen'
p1424
g18
tp1425
a(S'check my mail'
p1426
g18
tp1427
a(S'read the time please'
p1428
g18
tp1429
a(S'what events do i have on sunday'
p1430
g15
tp1431
a(S"if it's rainy today"
p1432
g18
tp1433
a(S'emergency shutdown'
p1434
g18
tp1435
a(S'can you check my inbox'
p1436
g18
tp1437
a(S'headlines today'
p1438
g18
tp1439
a(S'would you check new mail please'
p1440
g18
tp1441
a(S'please start'
p1442
g18
tp1443
a(S'do i have anything to do'
p1444
g15
tp1445
a(S'get the time'
p1446
g18
tp1447
a(S"today's news feed"
p1448
g18
tp1449
a(S'please when is it'
p1450
g18
tp1451
a(S'can you kill the window'
p1452
g18
tp1453
a(S'can you please create event'
p1454
g18
tp1455
a(S'schedule a new event'
p1456
g18
tp1457
a(S'do i have any events'
p1458
g15
tp1459
a(S'do i have anything today'
p1460
g15
tp1461
a(S'can you add a new event please'
p1462
g18
tp1463
a(S'check events for thursday'
p1464
g15
tp1465
a(S'make an event'
p1466
g18
tp1467
a(S'is it freezing this week'
p1468
g18
tp1469
a(S'google search please for'
p1470
g18
tp1471
a(S'time please'
p1472
g18
tp1473
a(S'could you make new event please'
p1474
g18
tp1475
a(S'check events for monday'
p1476
g15
tp1477
a(S'check calendar on friday'
p1478
g15
tp1479
a(S'check new gmail please'
p1480
g18
tp1481
a(S'do i have to do anything to do'
p1482
g15
tp1483
a(S'open inbox please'
p1484
g18
tp1485
a(S'what is new in my inbox'
p1486
g18
tp1487
a(S'any events on wednesday'
p1488
g15
tp1489
a(S'retrieve what time it is'
p1490
g18
tp1491
a(S'get current news'
p1492
g18
tp1493
a(S'please give me the news'
p1494
g18
tp1495
a(S'do i have anything on thursday'
p1496
g15
tp1497
a(S'get the the latest headlines'
p1498
g18
tp1499
a(S'please go to'
p1500
g18
tp1501
a(S'turn off the sound please'
p1502
g18
tp1503
a(S"what's new in new gmail"
p1504
g18
tp1505
a(S'can you please schedule event'
p1506
g18
tp1507
a(S'please make new event'
p1508
g18
tp1509
a(S'can you close the current window'
p1510
g18
tp1511
a(S'make new event'
p1512
g18
tp1513
a(S'please turn it up'
p1514
g18
tp1515
a(S'check google calendar on sunday'
p1516
g15
tp1517
a(S'could you please schedule new event'
p1518
g18
tp1519
a(S'check my calendar for friday'
p1520
g15
tp1521
a(S'what events do i have on monday'
p1522
g15
tp1523
a(S"if it's cloudy this week"
p1524
g18
tp1525
a(S"if it's cloudy today"
p1526
g18
tp1527
a(S'please can you turn the volume higher'
p1528
g18
tp1529
a(S'open dot gov'
p1530
g18
tp1531
a(S'get the clock'
p1532
g18
tp1533
a(S'shut off my computer please'
p1534
g18
tp1535
a(S"what's new in new mail please"
p1536
g18
tp1537
a(S"get if it's foggy today"
p1538
g18
tp1539
a(S'are there any events on monday'
p1540
g15
tp1541
a(S'can you please shut off my computer'
p1542
g18
tp1543
a(S"what's the news"
p1544
g18
tp1545
a(S'could you please make event'
p1546
g18
tp1547
a(S'please add an event'
p1548
g18
tp1549
a(S'create an event please'
p1550
g18
tp1551
a(S'tell me live news'
p1552
g18
tp1553
a(S'check my calendar for sunday'
p1554
g15
tp1555
a(S"get today's temperature"
p1556
g18
tp1557
a(S'pause the song please'
p1558
g18
tp1559
a(S'can you please shut up'
p1560
g18
tp1561
a(S'is there anything i have to do in a month'
p1562
g15
tp1563
a(S'what is on my calendar for this month'
p1564
g15
tp1565
a(S'is it foggy this week'
p1566
g18
tp1567
a(S"don't i have to do anything on saturday"
p1568
g15
tp1569
a(S'do i have any events in a month'
p1570
g15
tp1571
a(S'please would you check my inbox'
p1572
g18
tp1573
a(S'please could you check my gmail'
p1574
g18
tp1575
a(S"get if it's hot this week"
p1576
g18
tp1577
a(S'please check my mail'
p1578
g18
tp1579
a(S"what's in inbox please"
p1580
g18
tp1581
a(S'find live news'
p1582
g18
tp1583
a(S'google for please'
p1584
g18
tp1585
a(S'open browser please'
p1586
g18
tp1587
a(S'is it raining this week'
p1588
g18
tp1589
a(S'the news'
p1590
g18
tp1591
a(S'check my inbox please'
p1592
g18
tp1593
a(S'could you please add a new event'
p1594
g18
tp1595
a(S'get me the clock'
p1596
g18
tp1597
a(S'what events do i have on today'
p1598
g15
tp1599
a(S'create event'
p1600
g18
tp1601
a(S'what events are on thursday'
p1602
g15
tp1603
a(S'is it snowing this week'
p1604
g18
tp1605
a(S'do i have anything to do on monday'
p1606
g15
tp1607
a(S'please what is in inbox'
p1608
g18
tp1609
a(S'open my mail'
p1610
g18
tp1611
a(S'can you send me to the lock screen please'
p1612
g18
tp1613
a(S'please search google for'
p1614
g18
tp1615
a(S'do i have anything to do on saturday'
p1616
g15
tp1617
a(S'please google search for'
p1618
g18
tp1619
a(S'can you please close the current window'
p1620
g18
tp1621
a(S'can you please shutdown the computer'
p1622
g18
tp1623
a(S"what's the live newsfeed"
p1624
g18
tp1625
a(S'can you shut up'
p1626
g18
tp1627
a(S'start the song'
p1628
g18
tp1629
a(S'shutdown the computer please'
p1630
g18
tp1631
a(S'do i have anything'
p1632
g15
tp1633
a(S'turn up the volume please'
p1634
g18
tp1635
a(S'please open inbox'
p1636
g18
tp1637
a(S'please get me the clock'
p1638
g18
tp1639
a(S"get if it's raining today"
p1640
g18
tp1641
a(S'could you check my gmail'
p1642
g18
tp1643
a(S'will you check mail'
p1644
g18
tp1645
a(S'could you open mail please'
p1646
g18
tp1647
a(S"what's the live news feed"
p1648
g18
tp1649
a(S'can you shut down the computer'
p1650
g18
tp1651
a(S'what events are on sunday'
p1652
g15
tp1653
a(S'can you lock the screen'
p1654
g18
tp1655
a(S'can you lock the screen please'
p1656
g18
tp1657
a(S'please spotify pause'
p1658
g18
tp1659
a(S'do i have anything to do today'
p1660
g15
tp1661
a(S'do i have anything to do on wednesday'
p1662
g15
tp1663
a(S'can you check my mail please'
p1664
g18
tp1665
a(S"don't i have anything to do on this day"
p1666
g15
tp1667
a(S'turn off please'
p1668
g18
tp1669
a(S'please would you open my inbox'
p1670
g18
tp1671
a(S'open a browser please'
p1672
g18
tp1673
a(S"if it's foggy this week"
p1674
g18
tp1675
a(S'what do i have to do on saturday'
p1676
g15
tp1677
a(S"get if it's hot today"
p1678
g18
tp1679
a(S'please could you open my gmail'
p1680
g18
tp1681
a(S'please close the current window'
p1682
g18
tp1683
a(S'make an event please'
p1684
g18
tp1685
a(S"how's the temperature this week"
p1686
g18
tp1687
a(S'tell me live newsfeed'
p1688
g18
tp1689
a(S"don't i have anything on sunday"
p1690
g15
tp1691
a(S'get temperature'
p1692
g18
tp1693
a(S'can you please schedule new event'
p1694
g18
tp1695
a(S"what's today's weather"
p1696
g18
tp1697
a(S'please check your watch'
p1698
g18
tp1699
a(S"please what's in new mail"
p1700
g18
tp1701
a(S'spotify pause the song please'
p1702
g18
tp1703
a(S'any events'
p1704
g15
tp1705
a(S'would you check my mail'
p1706
g18
tp1707
a(S'current events today'
p1708
g18
tp1709
a(S'what do i have to do on tomorrow'
p1710
g15
tp1711
a(S'current temperature'
p1712
g18
tp1713
a(S'a decent problem gossips beside the shoulder'
p1714
g18
tp1715
a(S'time'
p1716
g18
tp1717
a(S'decrease the volume'
p1718
g18
tp1719
a(S'do i have any events on wednesday'
p1720
g15
tp1721
a(S'could you please make new event'
p1722
g18
tp1723
a(S'could you please add new event'
p1724
g18
tp1725
a(S'live news'
p1726
g18
tp1727
a(S'start spotify please'
p1728
g18
tp1729
a(S'see ya'
p1730
g18
tp1731
a(S"aren't there any events"
p1732
g15
tp1733
a(S'please shutdown my computer'
p1734
g18
tp1735
a(S'can you turn yourself off'
p1736
g18
tp1737
a(S"don't i have anything to do on sunday"
p1738
g15
tp1739
a(S'check events on monday'
p1740
g15
tp1741
a(S'gather information on'
p1742
g18
tp1743
a(S'please go back'
p1744
g18
tp1745
a(S'what events do i have on thursday'
p1746
g15
tp1747
a(S"if it's cold this week"
p1748
g18
tp1749
a(S'todays headlines'
p1750
g18
tp1751
a(S'can you make a new event please'
p1752
g18
tp1753
a(S'check google calendar for this week'
p1754
g15
tp1755
a(S'please could you check my mail'
p1756
g18
tp1757
a(S"what's weather"
p1758
g18
tp1759
a(S'close current program'
p1760
g18
tp1761
a(S"today's current news "
p1762
g18
tp1763
a(S'check calendar on wednesday'
p1764
g15
tp1765
a(S'can you put me on the lock screen'
p1766
g18
tp1767
a(S'can you make new event'
p1768
g18
tp1769
a(S'please what is new in my gmail'
p1770
g18
tp1771
a(S'please could you check new mail'
p1772
g18
tp1773
a(S'intelligence report'
p1774
g18
tp1775
a(S'will it hail this week'
p1776
g18
tp1777
a(S'check calendar for next'
p1778
g15
tp1779
a(S'shut my computer down please'
p1780
g18
tp1781
a(S'what is on my calendar for friday'
p1782
g15
tp1783
a(S'temperature'
p1784
g18
tp1785
a(S'would you check new mail'
p1786
g18
tp1787
a(S'are there any events on saturday'
p1788
g15
tp1789
a(S'could you check mail please'
p1790
g18
tp1791
a(S"don't i have to do anything in a month"
p1792
g15
tp1793
a(S'could you open inbox'
p1794
g18
tp1795
a(S"aren't there any events on this day"
p1796
g15
tp1797
a(S'would you check gmail'
p1798
g18
tp1799
a(S'current events'
p1800
g18
tp1801
a(S'please check inbox'
p1802
g18
tp1803
a(S'can you please add an event'
p1804
g18
tp1805
a(S'can you schedule new event'
p1806
g18
tp1807
a(S'will you check mail please'
p1808
g18
tp1809
a(S'when is it please'
p1810
g18
tp1811
a(S'anything new in my mail'
p1812
g18
tp1813
a(S'check events on this day'
p1814
g15
tp1815
a(S'next'
p1816
g18
tp1817
a(S'spotify go to the last song'
p1818
g18
tp1819
a(S'what is in new mail'
p1820
g18
tp1821
a(S"don't i have to do anything on saturday"
p1822
g15
tp1823
a(S'do i have anything on sunday'
p1824
g15
tp1825
a(S"what's new in my inbox"
p1826
g18
tp1827
a(S'could you open my inbox'
p1828
g18
tp1829
a(S'would you check my mail please'
p1830
g18
tp1831
a(S'check my gmail please'
p1832
g18
tp1833
a(S"get this week's weather"
p1834
g18
tp1835
a(S'what events do i have on saturday'
p1836
g15
tp1837
a(S'start'
p1838
g18
tp1839
a(S'spotify play the song before'
p1840
g18
tp1841
a(S'please read time'
p1842
g18
tp1843
a(S'can you please turn the sound down'
p1844
g18
tp1845
a(S'please spotify previous song'
p1846
g18
tp1847
a(S'can you please kill the current window'
p1848
g18
tp1849
a(S'check events for friday'
p1850
g15
tp1851
a(S'what events do i have on tuesday'
p1852
g15
tp1853
a(S'we stick to simple problems in this post for the sake of illustration'
p1854
g18
tp1855
a(S'can you schedule a new event'
p1856
g18
tp1857
a(S'can you create event'
p1858
g18
tp1859
a(S"what's in mail please"
p1860
g18
tp1861
a(S'would you check mail'
p1862
g18
tp1863
a(S'can you check my inbox please'
p1864
g18
tp1865
a(S'can you turn up the tunez'
p1866
g18
tp1867
a(S"if it's raining this week"
p1868
g18
tp1869
a(S'headlines'
p1870
g18
tp1871
a(S'find current news'
p1872
g18
tp1873
a(S"what's today's temperature"
p1874
g18
tp1875
a(S"what's new in my mail"
p1876
g18
tp1877
a(S'what do i have to do on today'
p1878
g15
tp1879
a(S'please can you check my mail'
p1880
g18
tp1881
a(S"don't i have any events on this day"
p1882
g15
tp1883
a(S'could you create a new event'
p1884
g18
tp1885
a(S'please shutdown'
p1886
g18
tp1887
a(S'create a new event'
p1888
g18
tp1889
a(S"if it's hot this week"
p1890
g18
tp1891
a(S'check events for this week'
p1892
g15
tp1893
a(S'check calendar on sunday'
p1894
g15
tp1895
a(S"what's in new gmail please"
p1896
g18
tp1897
a(S'set volume 0'
p1898
g18
tp1899
a(S'check the current time'
p1900
g18
tp1901
a(S"get this week's temperature"
p1902
g18
tp1903
a(S"what're the news feed"
p1904
g18
tp1905
a(S'could you create an event please'
p1906
g18
tp1907
a(S'please google'
p1908
g18
tp1909
a(S'play spotify please'
p1910
g18
tp1911
a(S'please lock my computer'
p1912
g18
tp1913
a(S'what events do i have on tomorrow'
p1914
g15
tp1915
a(S'do i have anything to do next'
p1916
g15
tp1917
a(S'could you please create new event'
p1918
g18
tp1919
a(S'what is on my calendar for'
p1920
g15
tp1921
a(S'please shut off'
p1922
g18
tp1923
a(S'please would you open my gmail'
p1924
g18
tp1925
a(S"how's the weather this week"
p1926
g18
tp1927
a(S'what events are in a week'
p1928
g15
tp1929
a(S'are there any events in a week'
p1930
g15
tp1931
a(S'skip'
p1932
g18
tp1933
a(S'do i have anything in a month'
p1934
g15
tp1935
a(S'am i free for a month'
p1936
g15
tp1937
a(S'byebye'
p1938
g18
tp1939
a(S'can you open a browser'
p1940
g18
tp1941
a(S'please could you check mail'
p1942
g18
tp1943
a(S'what do i have on sunday'
p1944
g15
tp1945
a(S'check gmail'
p1946
g18
tp1947
a(S'read the clock please'
p1948
g18
tp1949
a(S"don't i have anything to do on tuesday"
p1950
g15
tp1951
a(S"what's if it's freezing this week"
p1952
g18
tp1953
a(S'can you add an event please'
p1954
g18
tp1955
a(S'can you please kill current window'
p1956
g18
tp1957
a(S'turn the beat down please'
p1958
g18
tp1959
a(S'shutdown please'
p1960
g18
tp1961
a(S"don't i have to do anything tomorrow"
p1962
g15
tp1963
a(S'open dot com'
p1964
g18
tp1965
a(S'could you make event please'
p1966
g18
tp1967
a(S'please start spotify'
p1968
g18
tp1969
a(S'please open gmail'
p1970
g18
tp1971
a(S"what's in my mail please"
p1972
g18
tp1973
a(S'am i free on this day'
p1974
g15
tp1975
a(S"don't i have to do anything on next"
p1976
g15
tp1977
a(S'can you please shut my computer down'
p1978
g18
tp1979
a(S'do i have anything to do in a month'
p1980
g15
tp1981
a(S'could you check inbox'
p1982
g18
tp1983
a(S'check google calendar on thursday'
p1984
g15
tp1985
a(S'can you close this window'
p1986
g18
tp1987
a(S'are there any events on next'
p1988
g15
tp1989
a(S"how's the forecast"
p1990
g18
tp1991
a(S"if it's rainy this week"
p1992
g18
tp1993
a(S'go ahead spotify please'
p1994
g18
tp1995
a(S'can you please kill the active window'
p1996
g18
tp1997
a(S'get current events'
p1998
g18
tp1999
a(S'check google calendar on this week'
p2000
g15
tp2001
a(S"don't i have anything"
p2002
g15
tp2003
a(S'start a default browser please'
p2004
g18
tp2005
a(S'search for please'
p2006
g18
tp2007
a(S'turn up the volume'
p2008
g18
tp2009
a(S"please what's in inbox"
p2010
g18
tp2011
a(S'google please'
p2012
g18
tp2013
a(S"get if it's snowing today"
p2014
g18
tp2015
a(S'make event please'
p2016
g18
tp2017
a(S'please can you check new mail'
p2018
g18
tp2019
a(S'spotify stop playing'
p2020
g18
tp2021
a(S'what events are on tuesday'
p2022
g15
tp2023
a(S'please close the window'
p2024
g18
tp2025
a(S'check mail'
p2026
g18
tp2027
a(S'turn it up please'
p2028
g18
tp2029
a(S"don't i have anything to do on"
p2030
g15
tp2031
a(S'what do i have on tomorrow'
p2032
g15
tp2033
a(S"what're the news"
p2034
g18
tp2035
a(S"don't i have any events on sunday"
p2036
g15
tp2037
a(S'start a browser please'
p2038
g18
tp2039
a(S'can you lock computer'
p2040
g18
tp2041
a(S'will it hail today'
p2042
g18
tp2043
a(S'check calendar for this week'
p2044
g15
tp2045
a(S'alice next please'
p2046
g18
tp2047
a(S'go to dot gov'
p2048
g18
tp2049
a(S'can you schedule an event please'
p2050
g18
tp2051
a(S'shut up please'
p2052
g18
tp2053
a(S'what is new in my gmail please'
p2054
g18
tp2055
a(S'please what is new in mail'
p2056
g18
tp2057
a(S"get today's weather"
p2058
g18
tp2059
a(S'please shut down my computer'
p2060
g18
tp2061
a(S"what's in my mail"
p2062
g18
tp2063
a(S'do i have anything on this day'
p2064
g15
tp2065
a(S'can you please close the active window'
p2066
g18
tp2067
a(S'please what is new in new mail'
p2068
g18
tp2069
a(S'could you check my inbox'
p2070
g18
tp2071
a(S'please spotify last song'
p2072
g18
tp2073
a(S'what do i have to do in a week'
p2074
g15
tp2075
a(S'any events on friday'
p2076
g15
tp2077
a(S'check my gmail'
p2078
g18
tp2079
a(S'make the sound higher'
p2080
g18
tp2081
a(S'what do i have to do on monday'
p2082
g15
tp2083
a(S'retrieve the current time'
p2084
g18
tp2085
a(S'current events please'
p2086
g18
tp2087
a(S"what're the the news"
p2088
g18
tp2089
a(S'read time'
p2090
g18
tp2091
a(S'get weather'
p2092
g18
tp2093
a(S"what's the live news"
p2094
g18
tp2095
a(S'please what is in my inbox'
p2096
g18
tp2097
a(S'can you please turn off my computer'
p2098
g18
tp2099
a(S'please shut my computer down'
p2100
g18
tp2101
a(S'live news today'
p2102
g18
tp2103
a(S"please what's in gmail"
p2104
g18
tp2105
a(S"don't i have to do anything in a month"
p2106
g15
tp2107
a(S'turn it down'
p2108
g18
tp2109
a(S'check the clock'
p2110
g18
tp2111
a(S'can you unmute'
p2112
g18
tp2113
a(S'is it foggy today'
p2114
g18
tp2115
a(S'can you turn the tune down'
p2116
g18
tp2117
a(S'pause please'
p2118
g18
tp2119
a(S'can you please add a new event'
p2120
g18
tp2121
a(S'how is the forecast'
p2122
g18
tp2123
a(S'could you make a new event please'
p2124
g18
tp2125
a(S'please kill active window'
p2126
g18
tp2127
a(S"what's today's forecast"
p2128
g18
tp2129
a(S'please read your watch'
p2130
g18
tp2131
a(S'check calendar for today'
p2132
g15
tp2133
a(S'will you check gmail'
p2134
g18
tp2135
a(S'what events are in a month'
p2136
g15
tp2137
a(S'please could you check inbox'
p2138
g18
tp2139
a(S'what events are on friday'
p2140
g15
tp2141
a(S'check calendar on today'
p2142
g15
tp2143
a(S'find live newsfeed'
p2144
g18
tp2145
a(S'am i free for tomorrow'
p2146
g15
tp2147
a(S'please what is new in gmail'
p2148
g18
tp2149
a(S'stop song please'
p2150
g18
tp2151
a(S'check mail please'
p2152
g18
tp2153
a(S"what's the current news"
p2154
g18
tp2155
a(S'shut off please'
p2156
g18
tp2157
a(S'please check the clock'
p2158
g18
tp2159
a(S'search google please for'
p2160
g18
tp2161
a(S'find current events'
p2162
g18
tp2163
a(S'make event'
p2164
g18
tp2165
a(S'search'
p2166
g18
tp2167
a(S'are there any events on sunday'
p2168
g15
tp2169
a(S'open gmail please'
p2170
g18
tp2171
a(S'check google calendar for sunday'
p2172
g15
tp2173
a(S'shut my computer down'
p2174
g18
tp2175
a(S'could you add new event please'
p2176
g18
tp2177
a(S'check google calendar for this day'
p2178
g15
tp2179
a(S'can you shutdown my computer'
p2180
g18
tp2181
a(S'please tell me whats going on in the news please'
p2182
g18
tp2183
a(S'what do i have to do on thursday'
p2184
g15
tp2185
a(S'do i have to do anything on sunday'
p2186
g15
tp2187
a(S'please spotify pause'
p2188
g18
tp2189
a(S"don't i have anything to do on monday"
p2190
g15
tp2191
a(S'will you open my inbox'
p2192
g18
tp2193
a(S"what's temperature"
p2194
g18
tp2195
a(S'read your watch please'
p2196
g18
tp2197
a(S'please give me the current events please'
p2198
g18
tp2199
a(S'start default browser'
p2200
g18
tp2201
a(S'get current weather'
p2202
g18
tp2203
a(S'are there any events on wednesday'
p2204
g15
tp2205
a(S'check events for this day'
p2206
g15
tp2207
a(S'please what is in new gmail'
p2208
g18
tp2209
a(S"don't i have anything to do on wednesday"
p2210
g15
tp2211
a(S'turn up the tunes'
p2212
g18
tp2213
a(S'can you please turn up the tunez'
p2214
g18
tp2215
a(S"get if it's cold this week"
p2216
g18
tp2217
a(S'briefing'
p2218
g18
tp2219
a(S"get if it's rainy today"
p2220
g18
tp2221
a(S'will you check my mail'
p2222
g18
tp2223
a(S'will it rain this week'
p2224
g18
tp2225
a(S'what do i have on today'
p2226
g15
tp2227
a(S'can you add an event'
p2228
g18
tp2229
a(S'please create event'
p2230
g18
tp2231
a(S'check the current time please'
p2232
g18
tp2233
a(S'can you make an event please'
p2234
g18
tp2235
a(S'make a new event please'
p2236
g18
tp2237
a(S"don't i have to do anything on wednesday"
p2238
g15
tp2239
a(S'am i free for next'
p2240
g15
tp2241
a(S'turn the beat down'
p2242
g18
tp2243
a(S'live news feed'
p2244
g18
tp2245
a(S"what's the forecast"
p2246
g18
tp2247
a(S'what events are on today'
p2248
g15
tp2249
a(S'can you check new mail please'
p2250
g18
tp2251
a(S'what do i have to do on sunday'
p2252
g15
tp2253
a(S'exit please'
p2254
g18
tp2255
a(S'check my calendar for'
p2256
g15
tp2257
a(S'do i have any events on this day'
p2258
g15
tp2259
a(S'can you create new event'
p2260
g18
tp2261
a(S'get the current events'
p2262
g18
tp2263
a(S'spotify start the song please'
p2264
g18
tp2265
a(S'what are the news feed'
p2266
g18
tp2267
a(S'could you please schedule event'
p2268
g18
tp2269
a(S'see you'
p2270
g18
tp2271
a(S'would you open my mail'
p2272
g18
tp2273
a(S"if it's raining today"
p2274
g18
tp2275
a(S"what're the live news"
p2276
g18
tp2277
a(S'close the current window'
p2278
g18
tp2279
a(S'do i have to do anything in a month'
p2280
g15
tp2281
a(S"today's live newsfeed"
p2282
g18
tp2283
a(S"aren't there any events on tuesday"
p2284
g15
tp2285
a(S'tell me news'
p2286
g18
tp2287
a(S'please kill current window'
p2288
g18
tp2289
a(S'check events on'
p2290
g15
tp2291
a(S'put me on the lock screen please'
p2292
g18
tp2293
a(S'would you open gmail'
p2294
g18
tp2295
a(S'will it rain today'
p2296
g18
tp2297
a(S'please retrieve the time'
p2298
g18
tp2299
a(S"don't i have to do anything on thursday"
p2300
g15
tp2301
a(S'spotify last please'
p2302
g18
tp2303
a(S'please read me the clock'
p2304
g18
tp2305
a(S'check my calendar on saturday'
p2306
g15
tp2307
a(S'go back to the last song '
p2308
g18
tp2309
a(S'can you open browser please'
p2310
g18
tp2311
a(S'can you exit'
p2312
g18
tp2313
a(S'spotify skip'
p2314
g18
tp2315
a(S'please would you check mail'
p2316
g18
tp2317
a(S"don't i have anything to do in a week"
p2318
g15
tp2319
a(S'please create an event'
p2320
g18
tp2321
a(S"don't i have to do anything on thursday"
p2322
g15
tp2323
a(S'can you check new gmail'
p2324
g18
tp2325
a(S"today's live news"
p2326
g18
tp2327
a(S'turn up the tune'
p2328
g18
tp2329
a(S'is there anything i have to do on sunday'
p2330
g15
tp2331
a(S'is there anything to do on monday'
p2332
g15
tp2333
a(S'is it hot this week'
p2334
g18
tp2335
a(S'check events for wednesday'
p2336
g15
tp2337
a(S'do i have any events on monday'
p2338
g15
tp2339
a(S'turn up'
p2340
g18
tp2341
a(S'can you please kill the window'
p2342
g18
tp2343
a(S'do i have to do anything on next'
p2344
g15
tp2345
a(S'please spotify start the song'
p2346
g18
tp2347
a(S'get news now'
p2348
g18
tp2349
a(S'start default browser please'
p2350
g18
tp2351
a(S'can you lock computer please'
p2352
g18
tp2353
a(S'please would you check gmail'
p2354
g18
tp2355
a(S'is there anything to do in a week'
p2356
g15
tp2357
a(S'start browser please'
p2358
g18
tp2359
a(S'schedule an event please'
p2360
g18
tp2361
a(S"don't i have any events on thursday"
p2362
g15
tp2363
a(S'turn the tune down'
p2364
g18
tp2365
a(S'will it snow this week'
p2366
g18
tp2367
a(S'spotify play last song please'
p2368
g18
tp2369
a(S'check events for this day'
p2370
g15
tp2371
a(S"don't i have to do anything"
p2372
g15
tp2373
a(S'schedule an event'
p2374
g18
tp2375
a(S'lock'
p2376
g18
tp2377
a(S'do i have any events on thursday'
p2378
g15
tp2379
a(S'please schedule event'
p2380
g18
tp2381
a(S"don't i have anything to do"
p2382
g15
tp2383
a(S'what events do i have on'
p2384
g15
tp2385
a(S'do i have anything on wednesday'
p2386
g15
tp2387
a(S'please close this window'
p2388
g18
tp2389
a(S'could you open my inbox please'
p2390
g18
tp2391
a(S'do i have to do anything on thursday'
p2392
g15
tp2393
a(S'please get the news'
p2394
g18
tp2395
a(S'do i have anything to do on sunday'
p2396
g15
tp2397
a(S'can you please schedule an event'
p2398
g18
tp2399
a(S'check calendar on tuesday'
p2400
g15
tp2401
a(S'what time is it right now'
p2402
g18
tp2403
a(S'check my calendar on today'
p2404
g15
tp2405
a(S'please search google'
p2406
g18
tp2407
a(S'please lock computer'
p2408
g18
tp2409
a(S"this week's temperature"
p2410
g18
tp2411
a(S'check new gmail'
p2412
g18
tp2413
a(S'is there anything i have to do on tomorrow'
p2414
g15
tp2415
a(S'turn yourself off please'
p2416
g18
tp2417
a(S'can you check inbox please'
p2418
g18
tp2419
a(S'could you make an event please'
p2420
g18
tp2421
a(S"don't i have anything in a month"
p2422
g15
tp2423
a(S'what is on my calendar for tuesday'
p2424
g15
tp2425
a(S'search please for'
p2426
g18
tp2427
a(S'can you mute'
p2428
g18
tp2429
a(S'what events do i have in a month'
p2430
g15
tp2431
a(S'open my mail please'
p2432
g18
tp2433
a(S'add event please'
p2434
g18
tp2435
a(S'check events on tomorrow'
p2436
g15
tp2437
a(S'am i free for tuesday'
p2438
g15
tp2439
a(S'open dot org'
p2440
g18
tp2441
a(S"what's if it's snowing this week"
p2442
g18
tp2443
a(S'do i have anything in a week'
p2444
g15
tp2445
a(S'shut up'
p2446
g18
tp2447
a(S'kill the active program'
p2448
g18
tp2449
a(S'can you please turn off the computer'
p2450
g18
tp2451
a(S'check google calendar on'
p2452
g15
tp2453
a(S"please what's new in new gmail"
p2454
g18
tp2455
a(S'can you add new event'
p2456
g18
tp2457
a(S'please will you open my gmail'
p2458
g18
tp2459
a(S"what's forecast"
p2460
g18
tp2461
a(S'bye bye'
p2462
g18
tp2463
a(S'tell me the news'
p2464
g18
tp2465
a(S'am i free on friday'
p2466
g15
tp2467
a(S'are there any events on'
p2468
g15
tp2469
a(S"aren't there any events on"
p2470
g15
tp2471
a(S'song stop'
p2472
g18
tp2473
a(S'what events are on saturday'
p2474
g15
tp2475
a(S'is there anything to do on tuesday'
p2476
g15
tp2477
a(S'can you create event please'
p2478
g18
tp2479
a(S"get if it's freezing this week"
p2480
g18
tp2481
a(S'check my calendar on this day'
p2482
g15
tp2483
a(S'check events for tomorrow'
p2484
g15
tp2485
a(S"what's the forecast this week"
p2486
g18
tp2487
a(S'am i free'
p2488
g15
tp2489
a(S'search please'
p2490
g18
tp2491
a(S"don't i have anything to do on saturday"
p2492
g15
tp2493
a(S"don't i have any events on friday"
p2494
g15
tp2495
a(S"don't i have anything on thursday"
p2496
g15
tp2497
a(S'lock computer'
p2498
g18
tp2499
a(S'do i have to do anything tomorrow'
p2500
g15
tp2501
a(S'open my gmail'
p2502
g18
tp2503
a(S'please schedule a new event'
p2504
g18
tp2505
a(S'turn down the sound'
p2506
g18
tp2507
a(S'kill the current window'
p2508
g18
tp2509
a(S'check my calendar on wednesday'
p2510
g15
tp2511
a(S'please check the current time'
p2512
g18
tp2513
a(S'am i free on wednesday'
p2514
g15
tp2515
a(S"today's temperature"
p2516
g18
tp2517
a(S'what is new in mail please'
p2518
g18
tp2519
a(S'do i have any events on sunday'
p2520
g15
tp2521
a(S'anything new in mail'
p2522
g18
tp2523
a(S'turn off the computer'
p2524
g18
tp2525
a(S'spotify previous please'
p2526
g18
tp2527
a(S"what's in gmail please"
p2528
g18
tp2529
a(S'find news feed'
p2530
g18
tp2531
a(S'could you please schedule a new event'
p2532
g18
tp2533
a(S'is there anything i have to do on thursday'
p2534
g15
tp2535
a(S'please get the clock'
p2536
g18
tp2537
a(S'open mail'
p2538
g18
tp2539
a(S'please kill the active window'
p2540
g18
tp2541
a(S'please will you check mail'
p2542
g18
tp2543
a(S'please open a browser'
p2544
g18
tp2545
a(S"don't i have anything to do tomorrow"
p2546
g15
tp2547
a(S'would you open mail please'
p2548
g18
tp2549
a(S"what's if it's raining today"
p2550
g18
tp2551
a(S'schedule event please'
p2552
g18
tp2553
a(S'can you check inbox'
p2554
g18
tp2555
a(S'open a default browser please'
p2556
g18
tp2557
a(S'check calendar on saturday'
p2558
g15
tp2559
a(S'check calendar'
p2560
g15
tp2561
a(S'kill window'
p2562
g18
tp2563
a(S'could you create event'
p2564
g18
tp2565
a(S"please what's in my mail"
p2566
g18
tp2567
a(S'any events on monday'
p2568
g15
tp2569
a(S'can you create a new event please'
p2570
g18
tp2571
a(S'will you open gmail'
p2572
g18
tp2573
a(S'clock'
p2574
g18
tp2575
a(S'turn up the volume'
p2576
g18
tp2577
a(S'what do i have to do on friday'
p2578
g15
tp2579
a(S'could you check my mail please'
p2580
g18
tp2581
a(S'shut down the computer please'
p2582
g18
tp2583
a(S'please give me current events'
p2584
g18
tp2585
a(S"don't i have to do anything on monday"
p2586
g15
tp2587
a(S'is there anything to do on today'
p2588
g15
tp2589
a(S'check calendar for friday'
p2590
g15
tp2591
a(S'will you open my inbox please'
p2592
g18
tp2593
a(S"this week's weather"
p2594
g18
tp2595
a(S'do i have any events on saturday'
p2596
g15
tp2597
a(S'can you please mute'
p2598
g18
tp2599
a(S'please open a browser'
p2600
g18
tp2601
a(S"don't i have to do anything on tuesday"
p2602
g15
tp2603
a(S'do i have anything on next'
p2604
g15
tp2605
a(S'unmute'
p2606
g18
tp2607
a(S'check events on wednesday'
p2608
g15
tp2609
a(S'could you add event please'
p2610
g18
tp2611
a(S'read the clock'
p2612
g18
tp2613
a(S"don't i have any events on tomorrow"
p2614
g15
tp2615
a(S'check calendar on'
p2616
g15
tp2617
a(S'what is in my gmail please'
p2618
g18
tp2619
a(S'google search'
p2620
g18
tp2621
a(S"get if it's snowing this week"
p2622
g18
tp2623
a(S'check events on'
p2624
g15
tp2625
a(S'what is newsfeed'
p2626
g18
tp2627
a(S'please turn off my computer'
p2628
g18
tp2629
a(S'is there anything to do on tomorrow'
p2630
g15
tp2631
a(S'can you make event'
p2632
g18
tp2633
a(S'can you get the latest headlines'
p2634
g18
tp2635
a(S'how is the weather'
p2636
g18
tp2637
a(S'alex'
p2638
g18
tp2639
a(S'add new event'
p2640
g18
tp2641
a(S'will you check my gmail please'
p2642
g18
tp2643
a(S'kill the noise'
p2644
g18
tp2645
a(S'what is new in my mail'
p2646
g18
tp2647
a(S'is there anything i have to do in a week'
p2648
g15
tp2649
a(S"don't i have any events on tuesday"
p2650
g15
tp2651
a(S'search google for'
p2652
g18
tp2653
a(S'next song'
p2654
g18
tp2655
a(S'will you open my mail please'
p2656
g18
tp2657
a(S'do i have anything on'
p2658
g15
tp2659
a(S"please what's new in mail"
p2660
g18
tp2661
a(S'shut down'
p2662
g18
tp2663
a(S'please check my inbox'
p2664
g18
tp2665
a(S'what events do i have on friday'
p2666
g15
tp2667
a(S"what's if it's rainy today"
p2668
g18
tp2669
a(S'can you turn up the volume'
p2670
g18
tp2671
a(S'can you put me on the lock screen please'
p2672
g18
tp2673
a(S'can you kill the current window'
p2674
g18
tp2675
a(S'spotify last song please'
p2676
g18
tp2677
a(S'turn up the sound'
p2678
g18
tp2679
a(S'add event'
p2680
g18
tp2681
a(S'whats going on in the world todays please'
p2682
g18
tp2683
a(S'what events do i have on next'
p2684
g15
tp2685
a(S'are there any events on friday'
p2686
g15
tp2687
a(S"how's the temperature"
p2688
g18
tp2689
a(S'intel'
p2690
g18
tp2691
a(S'shut the fuck up'
p2692
g18
tp2693
a(S"don't i have to do anything on this day"
p2694
g15
tp2695
a(S"what's this week's weather"
p2696
g18
tp2697
a(S"what's if it's cloudy this week"
p2698
g18
tp2699
a(S'volume higher please'
p2700
g18
tp2701
a(S'could you add a new event please'
p2702
g18
tp2703
a(S'could you make new event'
p2704
g18
tp2705
a(S'any gmail'
p2706
g18
tp2707
a(S'can you shut my computer down'
p2708
g18
tp2709
a(S'good night'
p2710
g18
tp2711
a(S'spotify start please'
p2712
g18
tp2713
a(S'is there anything i have to do on today'
p2714
g15
tp2715
a(S'can you decrease the sound'
p2716
g18
tp2717
a(S"don't i have to do anything in a week"
p2718
g15
tp2719
a(S'can you shutdown the computer'
p2720
g18
tp2721
a(S'get clock'
p2722
g18
tp2723
a(S'can you please make new event'
p2724
g18
tp2725
a(S'please can you turn up the volume'
p2726
g18
tp2727
a(S'what is going on in the world today'
p2728
g18
tp2729
a(S'what is on my calendar for sunday'
p2730
g15
tp2731
a(S'check google calendar on tuesday'
p2732
g15
tp2733
a(S"today's weather"
p2734
g18
tp2735
a(S'please search for'
p2736
g18
tp2737
a(S'anything in my inbox'
p2738
g18
tp2739
a(S'is there anything to do on saturday'
p2740
g15
tp2741
a(S'please what is new in my inbox'
p2742
g18
tp2743
a(S'could you check new gmail please'
p2744
g18
tp2745
a(S'can you make a new event'
p2746
g18
tp2747
a(S'can you please shut down my computer'
p2748
g18
tp2749
a(S'what do i have on wednesday'
p2750
g15
tp2751
a(S'please open mail'
p2752
g18
tp2753
a(S'please louder'
p2754
g18
tp2755
a(S'check the clock right now'
p2756
g18
tp2757
a(S'live newsfeed'
p2758
g18
tp2759
a(S"what's this week's temperature"
p2760
g18
tp2761
a(S'turn off the beats'
p2762
g18
tp2763
a(S'get current forecast'
p2764
g18
tp2765
a(S'check google calendar'
p2766
g15
tp2767
a(S'can you please turn up the beat'
p2768
g18
tp2769
a(S'could you please add event'
p2770
g18
tp2771
a(S'could you add an event'
p2772
g18
tp2773
a(S'news'
p2774
g18
tp2775
a(S'get current temperature'
p2776
g18
tp2777
a(S"what're the newsfeed"
p2778
g18
tp2779
a(S'alice'
p2780
g18
tp2781
a(S'are there any events on tuesday'
p2782
g15
tp2783
a(S'will you check new mail please'
p2784
g18
tp2785
a(S'stop the song'
p2786
g18
tp2787
a(S'current forecast'
p2788
g18
tp2789
a(S"today's forecast"
p2790
g18
tp2791
a(S'can you get information on the current events'
p2792
g18
tp2793
a(S'check google calendar on tomorrow'
p2794
g15
tp2795
a(S'can you check new mail'
p2796
g18
tp2797
a(S"if it's cold today"
p2798
g18
tp2799
a(S"don't i have to do anything on next"
p2800
g15
tp2801
a(S'would you check my inbox please'
p2802
g18
tp2803
a(S'please spotify last'
p2804
g18
tp2805
a(S'am i free for wednesday'
p2806
g15
tp2807
a(S'could you check my gmail please'
p2808
g18
tp2809
a(S'weather'
p2810
g18
tp2811
a(S'will you check gmail please'
p2812
g18
tp2813
a(S'any new gmail'
p2814
g18
tp2815
a(S"don't i have anything to do on thursday"
p2816
g15
tp2817
a(S'can you please kill active window'
p2818
g18
tp2819
a(S'what do i have in a month'
p2820
g15
tp2821
a(S'play song'
p2822
g18
tp2823
a(S'is it freezing today'
p2824
g18
tp2825
a(S'please what is in my mail'
p2826
g18
tp2827
a(S'create a new event please'
p2828
g18
tp2829
a(S'news feed today'
p2830
g18
tp2831
a(S'is there anything to do'
p2832
g15
tp2833
a(S"what's the the news"
p2834
g18
tp2835
a(S'check my calendar on sunday'
p2836
g15
tp2837
a(S'what is new in mail'
p2838
g18
tp2839
a(S'hey alex'
p2840
g18
tp2841
a(S'please check new mail'
p2842
g18
tp2843
a(S"what's the temperature today"
p2844
g18
tp2845
a(S"aren't there any events on saturday"
p2846
g15
tp2847
a(S'stop'
p2848
g18
tp2849
a(S"if it's foggy today"
p2850
g18
tp2851
a(S'check new mail please'
p2852
g18
tp2853
a(S'check calendar for thursday'
p2854
g15
tp2855
a(S'start browser'
p2856
g18
tp2857
a(S"what's if it's rainy this week"
p2858
g18
tp2859
a(S'set the volume to zero'
p2860
g18
tp2861
a(S'check google calendar for this day'
p2862
g15
tp2863
a(S'could you check my mail'
p2864
g18
tp2865
a(S'can you please turn my computer off'
p2866
g18
tp2867
a(S'please add event'
p2868
g18
tp2869
a(S'bye'
p2870
g18
tp2871
a(S'will you open inbox please'
p2872
g18
tp2873
a(S'would you check inbox please'
p2874
g18
tp2875
a(S'is it snowing today'
p2876
g18
tp2877
a(S'turn up the beat'
p2878
g18
tp2879
a(S'find the news'
p2880
g18
tp2881
a(S'what is on my calendar for next'
p2882
g15
tp2883
a(S'can you make new event please'
p2884
g18
tp2885
a(S'could you create new event'
p2886
g18
tp2887
a(S'gather information on todays current events please'
p2888
g18
tp2889
a(S'can you add new event please'
p2890
g18
tp2891
a(S'do i have anything to do tomorrow'
p2892
g15
tp2893
a(S'what is new in my inbox please'
p2894
g18
tp2895
a(S'open default browser please'
p2896
g18
tp2897
a(S'please open dot com'
p2898
g18
tp2899
a(S'is there anything i have to do on friday'
p2900
g15
tp2901
a(S'music down'
p2902
g18
tp2903
a(S'what is in my mail please'
p2904
g18
tp2905
a(S'will you check inbox please'
p2906
g18
tp2907
a(S'good night alice'
p2908
g18
tp2909
a(S'open dot edu'
p2910
g18
tp2911
a(S"aren't there any events on friday"
p2912
g15
tp2913
a(S'is it cloudy today'
p2914
g18
tp2915
a(S"don't i have any events on next"
p2916
g15
tp2917
a(S"please what's new in my mail"
p2918
g18
tp2919
a(S'please pause the song'
p2920
g18
tp2921
a(S'is it cloudy this week'
p2922
g18
tp2923
a(S'do i have to do anything today'
p2924
g15
tp2925
a(S'get live news'
p2926
g18
tp2927
a(S'what do i have on tuesday'
p2928
g15
tp2929
a(S'what is on my calendar for monday'
p2930
g15
tp2931
a(S'am i free in a month'
p2932
g15
tp2933
a(S'what is the news today'
p2934
g18
tp2935
a(S'tell me news feed'
p2936
g18
tp2937
a(S'any new mail'
p2938
g18
tp2939
a(S'can you schedule event'
p2940
g18
tp2941
a(S"what's the temperature"
p2942
g18
tp2943
a(S'create event please'
p2944
g18
tp2945
a(S'could you make event'
p2946
g18
tp2947
a(S'check my calendar for saturday'
p2948
g15
tp2949
a(S'what is new in gmail please'
p2950
g18
tp2951
a(S'is there anything i have to do on saturday'
p2952
g15
tp2953
a(S'please send me to the lock screen'
p2954
g18
tp2955
a(S'check my calendar for tuesday'
p2956
g15
tp2957
a(S'spotify stop'
p2958
g18
tp2959
a(S'start song'
p2960
g18
tp2961
a(S'check google calendar for tomorrow'
p2962
g15
tp2963
a(S"what're the headlines"
p2964
g18
tp2965
a(S'can you turn yourself off please'
p2966
g18
tp2967
a(S"don't i have to do anything on monday"
p2968
g15
tp2969
a(S'could you open gmail'
p2970
g18
tp2971
a(S'please stop song'
p2972
g18
tp2973
a(S'what is in my inbox'
p2974
g18
tp2975
a(S'extract the features using almost the same feature'
p2976
g18
tp2977
a(S'please will you open mail'
p2978
g18
tp2979
a(S'please kill this window'
p2980
g18
tp2981
a(S'can you send me to the lock screen'
p2982
g18
tp2983
a(S'tell me live news feed'
p2984
g18
tp2985
a(S'what time is it currently'
p2986
g18
tp2987
a(S"aren't there any events on sunday"
p2988
g15
tp2989
a(S'could you please make a new event'
p2990
g18
tp2991
a(S"don't i have any events"
p2992
g15
tp2993
a(S'start a browser'
p2994
g18
tp2995
a(S'check google calendar for thursday'
p2996
g15
tp2997
a(S'open default browser'
p2998
g18
tp2999
a(S'please can you check my gmail'
p3000
g18
tp3001
a(S'are there any events on this day'
p3002
g15
tp3003
a(S"what's new in my inbox please"
p3004
g18
tp3005
a(S'will you check my inbox'
p3006
g18
tp3007
a(S"what's in my inbox"
p3008
g18
tp3009
a(S'can you shut down my computer'
p3010
g18
tp3011
a(S'do i have anything to do on this day'
p3012
g15
tp3013
a(S'is there anything i have to do on'
p3014
g15
tp3015
a(S'turn off my computer'
p3016
g18
tp3017
a(S'please go to dot com'
p3018
g18
tp3019
a(S'what do i have to do'
p3020
g15
tp3021
a(S"please what's new in new mail"
p3022
g18
tp3023
a(S'can you please create a new event'
p3024
g18
tp3025
a(S'make the volume softer'
p3026
g18
tp3027
a(S'give me the news please'
p3028
g18
tp3029
a(S'can you check mail please'
p3030
g18
tp3031
a(S'turn off the computer please'
p3032
g18
tp3033
a(S'anything in gmail'
p3034
g18
tp3035
a(S'please kill the window'
p3036
g18
tp3037
a(S'any events on this day'
p3038
g15
tp3039
a(S'tell me current news'
p3040
g18
tp3041
a(S'please would you check my gmail'
p3042
g18
tp3043
a(S'would you open my gmail please'
p3044
g18
tp3045
a(S'please will you check my mail'
p3046
g18
tp3047
a(S'get the current time please'
p3048
g18
tp3049
a(S'am i free on tomorrow'
p3050
g15
tp3051
a(S'lower the volume'
p3052
g18
tp3053
a(S'open gmail'
p3054
g18
tp3055
a(S'do i have to do anything next'
p3056
g15
tp3057
a(S'please pause song'
p3058
g18
tp3059
a(S'can you please shut down the computer'
p3060
g18
tp3061
a(S'is there anything to do on this day'
p3062
g15
tp3063
a(S'will you get the current headlines'
p3064
g18
tp3065
a(S'what is news'
p3066
g18
tp3067
a(S'check google calendar on wednesday'
p3068
g15
tp3069
a(S'kill the active window'
p3070
g18
tp3071
a(S"this week's temperature"
p3072
g18
tp3073
a(S'spotify next song '
p3074
g18
tp3075
a(S'go back please'
p3076
g18
tp3077
a(S'am i free on monday'
p3078
g15
tp3079
a(S'anything new in my gmail'
p3080
g18
tp3081
a(S'am i free for'
p3082
g15
tp3083
a(S'what do i have on thursday'
p3084
g15
tp3085
a(S"don't i have anything to do on next"
p3086
g15
tp3087
a(S'stop playing'
p3088
g18
tp3089
a(S'what do i have on saturday'
p3090
g15
tp3091
a(S'what is new in inbox please'
p3092
g18
tp3093
a(S'what events are on next'
p3094
g15
tp3095
a(S'check my calendar for this day'
p3096
g15
tp3097
a(S'what are the latest events '
p3098
g18
tp3099
a(S'please would you check inbox'
p3100
g18
tp3101
a(S'will you open my gmail'
p3102
g18
tp3103
a(S'can you schedule new event please'
p3104
g18
tp3105
a(S'check google calendar on friday'
p3106
g15
tp3107
a(S'check events for today'
p3108
g15
tp3109
a(S"what's new in my gmail"
p3110
g18
tp3111
a(S"today's newsfeed"
p3112
g18
tp3113
a(S'please what is in new mail'
p3114
g18
tp3115
a(S'can you please close current window'
p3116
g18
tp3117
a(S"how's the weather"
p3118
g18
tp3119
a(S'please go spotify '
p3120
g18
tp3121
a(S'check events on sunday'
p3122
g15
tp3123
a(S'what is the news'
p3124
g18
tp3125
a(S'do i have to do anything on tuesday'
p3126
g15
tp3127
a(S"what's the forecast today"
p3128
g18
tp3129
a(S'do i have to do anything on friday'
p3130
g15
tp3131
a(S'debrief me'
p3132
g18
tp3133
a(S'stop the tunez'
p3134
g18
tp3135
a(S'would you open my mail please'
p3136
g18
tp3137
a(S'can you schedule event please'
p3138
g18
tp3139
a(S'is there anything to do on sunday'
p3140
g15
tp3141
a(S'check the clock please'
p3142
g18
tp3143
a(S'make new event please'
p3144
g18
tp3145
a(S'would you check inbox'
p3146
g18
tp3147
a(S'check my calendar on thursday'
p3148
g15
tp3149
a(S'what do i have to do in a month'
p3150
g15
tp3151
a(S'is there anything to do on next'
p3152
g15
tp3153
a(S'can you turn off the computer'
p3154
g18
tp3155
a(S'will you get the current events'
p3156
g18
tp3157
a(S'check events for tuesday'
p3158
g15
tp3159
a(S'search google please'
p3160
g18
tp3161
a(S'can you please schedule a new event'
p3162
g18
tp3163
a(S'please can you check my inbox'
p3164
g18
tp3165
a(S'please add new event'
p3166
g18
tp3167
a(S'anything new in gmail'
p3168
g18
tp3169
a(S'go spotify please'
p3170
g18
tp3171
a(S"how's the forecast today"
p3172
g18
tp3173
a(S'turn down the volume'
p3174
g18
tp3175
a(S'check events on thursday'
p3176
g15
tp3177
a(S"don't i have any events in a week"
p3178
g15
tp3179
a(S'please turn my computer off'
p3180
g18
tp3181
a(S'check google calendar for tuesday'
p3182
g15
tp3183
a(S"what're the live news feed"
p3184
g18
tp3185
a(S'pause spotify'
p3186
g18
tp3187
a(S'do i have to do anything on monday'
p3188
g15
tp3189
a(S'close the active window'
p3190
g18
tp3191
a(S'google please for'
p3192
g18
tp3193
a(S'can you check gmail please'
p3194
g18
tp3195
a(S'get time'
p3196
g18
tp3197
a(S'please would you open inbox'
p3198
g18
tp3199
a(S"please what's new in my gmail"
p3200
g18
tp3201
a(S'can you please turn the beat down'
p3202
g18
tp3203
a(S'tell me headlines'
p3204
g18
tp3205
a(S'check events'
p3206
g15
tp3207
a(S'what do i have on next'
p3208
g15
tp3209
a(S'please check what time it is'
p3210
g18
tp3211
a(S'find newsfeed'
p3212
g18
tp3213
a(S'am i free on next'
p3214
g15
tp3215
a(S'give me the current events'
p3216
g18
tp3217
a(S'could you add a new event'
p3218
g18
tp3219
a(S'can you please close this window'
p3220
g18
tp3221
a(S'can you make event please'
p3222
g18
tp3223
a(S'anything new in my inbox'
p3224
g18
tp3225
a(S'check gmail please'
p3226
g18
tp3227
a(S'check my calendar on this week'
p3228
g15
tp3229
a(S'check events for'
p3230
g15
tp3231
a(S'do i have to do anything on wednesday'
p3232
g15
tp3233
a(S'do i have anything on saturday'
p3234
g15
tp3235
a(S"don't i have any events on today"
p3236
g15
tp3237
a(S"don't i have any events on saturday"
p3238
g15
tp3239
a(S"don't i have anything on saturday"
p3240
g15
tp3241
a(S'turn yourself off'
p3242
g18
tp3243
a(S'can you please create new event'
p3244
g18
tp3245
a(S'close window'
p3246
g18
tp3247
a(S'make a new event'
p3248
g18
tp3249
a(S'what is new in new gmail'
p3250
g18
tp3251
a(S'turn up the tunez'
p3252
g18
tp3253
a(S'am i free on saturday'
p3254
g15
tp3255
a(S'am i free on sunday'
p3256
g15
tp3257
a(S'please could you open inbox'
p3258
g18
tp3259
a(S'please can you check new gmail'
p3260
g18
tp3261
a(S'will you check new gmail please'
p3262
g18
tp3263
a(S'what is new in my mail please'
p3264
g18
tp3265
a(S'could you open inbox please'
p3266
g18
tp3267
a(S'please close current window'
p3268
g18
tp3269
a(S"what's new in new mail"
p3270
g18
tp3271
a(S'spotify shut up'
p3272
g18
tp3273
a(S'give me intel on current events'
p3274
g18
tp3275
a(S'what time is it now'
p3276
g18
tp3277
a(S'please spotify pause the song'
p3278
g18
tp3279
a(S'is there anything to do on friday'
p3280
g15
tp3281
a(S'newsfeed'
p3282
g18
tp3283
a(S'spotify skip ahead'
p3284
g18
tp3285
a(S'go ahead'
p3286
g18
tp3287
a(S'check calendar on thursday'
p3288
g15
tp3289
a(S'can you please kill this window'
p3290
g18
tp3291
a(S'check calendar on next'
p3292
g15
tp3293
a(S'current news'
p3294
g18
tp3295
a(S'what do i have to do on wednesday'
p3296
g15
tp3297
a(S'open dot ee dee you'
p3298
g18
tp3299
a(S'check google calendar on month'
p3300
g15
tp3301
a(S'would you open gmail please'
p3302
g18
tp3303
a(S'can you please shut down'
p3304
g18
tp3305
a(S'what do i have on'
p3306
g15
tp3307
a(S'can you make an event'
p3308
g18
tp3309
a(S'any events in a week'
p3310
g15
tp3311
a(S'please can you check gmail'
p3312
g18
tp3313
a(S'is it cold this week'
p3314
g18
tp3315
a(S'give me the current events please'
p3316
g18
tp3317
a(S"what's this week's forecast"
p3318
g18
tp3319
a(S'would you open inbox'
p3320
g18
tp3321
a(S'are there any events on tomorrow'
p3322
g15
tp3323
a(S'can you please turn the tune down'
p3324
g18
tp3325
a(S'do i have anything to do on next'
p3326
g15
tp3327
a(S'do i have any events on tomorrow'
p3328
g15
tp3329
a(S'check my calendar for this day'
p3330
g15
tp3331
a(S"get if it's raining this week"
p3332
g18
tp3333
a(S'please make an event'
p3334
g18
tp3335
a(S'kill the music'
p3336
g18
tp3337
a(S'check calendar on tomorrow'
p3338
g15
tp3339
a(S"this week's forecast"
p3340
g18
tp3341
a(S'shut off my computer'
p3342
g18
tp3343
a(S'please kill the current window'
p3344
g18
tp3345
a(S'spotify go please'
p3346
g18
tp3347
a(S'news today'
p3348
g18
tp3349
a(S'could you open my gmail please'
p3350
g18
tp3351
a(S"don't i have anything on"
p3352
g15
tp3353
a(S'open dot net'
p3354
g18
tp3355
a(S'what is on my calendar for tomorrow'
p3356
g15
tp3357
a(S'will you check my mail please'
p3358
g18
tp3359
a(S'can you turn off my computer'
p3360
g18
tp3361
asS'classifier'
p3362
ccopy_reg
_reconstructor
p3363
(csklearn.pipeline
Pipeline
p3364
c__builtin__
object
p3365
Ntp3366
Rp3367
(dp3368
S'_sklearn_version'
p3369
S'0.18.1'
p3370
sS'steps'
p3371
(lp3372
(S'vect'
p3373
g3363
(csklearn.feature_extraction.text
CountVectorizer
p3374
g3365
Ntp3375
Rp3376
(dp3377
S'decode_error'
p3378
Vstrict
p3379
sS'lowercase'
p3380
I01
sS'stop_words'
p3381
NsS'vocabulary'
p3382
NsS'tokenizer'
p3383
NsS'encoding'
p3384
Vutf-8
p3385
sS'token_pattern'
p3386
V(?u)\u005cb\u005cw\u005cw+\u005cb
p3387
sS'input'
p3388
Vcontent
p3389
sS'analyzer'
p3390
Vword
p3391
sS'vocabulary_'
p3392
(dp3393
Vraining
p3394
cnumpy.core.multiarray
scalar
p3395
(cnumpy
dtype
p3396
(S'i8'
p3397
I0
I1
tp3398
Rp3399
(I3
S'<'
p3400
NNNI-1
I-1
I0
tp3401
bS'\x9f\x00\x00\x00\x00\x00\x00\x00'
p3402
tp3403
Rp3404
sVtodays
p3405
g3395
(g3399
S'\xcc\x00\x00\x00\x00\x00\x00\x00'
p3406
tp3407
Rp3408
sVmute
p3409
g3395
(g3399
S'}\x00\x00\x00\x00\x00\x00\x00'
p3410
tp3411
Rp3412
sVbyebye
p3413
g3395
(g3399
S'\x1a\x00\x00\x00\x00\x00\x00\x00'
p3414
tp3415
Rp3416
sVskip
p3417
g3395
(g3399
S'\xb4\x00\x00\x00\x00\x00\x00\x00'
p3418
tp3419
Rp3420
sVmonth
p3421
g3395
(g3399
S'{\x00\x00\x00\x00\x00\x00\x00'
p3422
tp3423
Rp3424
sVsofter
p3425
g3395
(g3399
S'\xb7\x00\x00\x00\x00\x00\x00\x00'
p3426
tp3427
Rp3428
sVkill
p3429
g3395
(g3399
S'm\x00\x00\x00\x00\x00\x00\x00'
p3430
tp3431
Rp3432
sVedu
p3433
g3395
(g3399
S'<\x00\x00\x00\x00\x00\x00\x00'
p3434
tp3435
Rp3436
sVgo
p3437
g3395
(g3399
S'T\x00\x00\x00\x00\x00\x00\x00'
p3438
tp3439
Rp3440
sVcold
p3441
g3395
(g3399
S'$\x00\x00\x00\x00\x00\x00\x00'
p3442
tp3443
Rp3444
sVfind
p3445
g3395
(g3399
S'G\x00\x00\x00\x00\x00\x00\x00'
p3446
tp3447
Rp3448
sVbefore
p3449
g3395
(g3399
S'\x13\x00\x00\x00\x00\x00\x00\x00'
p3450
tp3451
Rp3452
sVspotify
p3453
g3395
(g3399
S'\xba\x00\x00\x00\x00\x00\x00\x00'
p3454
tp3455
Rp3456
sVpause
p3457
g3395
(g3399
S'\x8f\x00\x00\x00\x00\x00\x00\x00'
p3458
tp3459
Rp3460
sVsnowing
p3461
g3395
(g3399
S'\xb6\x00\x00\x00\x00\x00\x00\x00'
p3462
tp3463
Rp3464
sVsunday
p3465
g3395
(g3399
S'\xbf\x00\x00\x00\x00\x00\x00\x00'
p3466
tp3467
Rp3468
sVsend
p3469
g3395
(g3399
S'\xae\x00\x00\x00\x00\x00\x00\x00'
p3470
tp3471
Rp3472
sVaren
p3473
g3395
(g3399
S'\r\x00\x00\x00\x00\x00\x00\x00'
p3474
tp3475
Rp3476
sVto
p3477
g3395
(g3399
S'\xca\x00\x00\x00\x00\x00\x00\x00'
p3478
tp3479
Rp3480
sVadd
p3481
g3395
(g3399
S'\x02\x00\x00\x00\x00\x00\x00\x00'
p3482
tp3483
Rp3484
sVgoing
p3485
g3395
(g3399
S'U\x00\x00\x00\x00\x00\x00\x00'
p3486
tp3487
Rp3488
sVmail
p3489
g3395
(g3399
S'u\x00\x00\x00\x00\x00\x00\x00'
p3490
tp3491
Rp3492
sVbye
p3493
g3395
(g3399
S'\x19\x00\x00\x00\x00\x00\x00\x00'
p3494
tp3495
Rp3496
sVdo
p3497
g3395
(g3399
S'4\x00\x00\x00\x00\x00\x00\x00'
p3498
tp3499
Rp3500
sVpredict
p3501
g3395
(g3399
S'\x94\x00\x00\x00\x00\x00\x00\x00'
p3502
tp3503
Rp3504
sVgood
p3505
g3395
(g3399
S'V\x00\x00\x00\x00\x00\x00\x00'
p3506
tp3507
Rp3508
sVemergency
p3509
g3395
(g3399
S'>\x00\x00\x00\x00\x00\x00\x00'
p3510
tp3511
Rp3512
sVget
p3513
g3395
(g3399
S'P\x00\x00\x00\x00\x00\x00\x00'
p3514
tp3515
Rp3516
sVya
p3517
g3395
(g3399
S'\xe5\x00\x00\x00\x00\x00\x00\x00'
p3518
tp3519
Rp3520
sVmaterial
p3521
g3395
(g3399
S'w\x00\x00\x00\x00\x00\x00\x00'
p3522
tp3523
Rp3524
sVstop
p3525
g3395
(g3399
S'\xbe\x00\x00\x00\x00\x00\x00\x00'
p3526
tp3527
Rp3528
sVreport
p3529
g3395
(g3399
S'\xa4\x00\x00\x00\x00\x00\x00\x00'
p3530
tp3531
Rp3532
sVworld
p3533
g3395
(g3399
S'\xe3\x00\x00\x00\x00\x00\x00\x00'
p3534
tp3535
Rp3536
sVnow
p3537
g3395
(g3399
S'\x86\x00\x00\x00\x00\x00\x00\x00'
p3538
tp3539
Rp3540
sVday
p3541
g3395
(g3399
S',\x00\x00\x00\x00\x00\x00\x00'
p3542
tp3543
Rp3544
sVdreams
p3545
g3395
(g3399
S':\x00\x00\x00\x00\x00\x00\x00'
p3546
tp3547
Rp3548
sVlike
p3549
g3395
(g3399
S'p\x00\x00\x00\x00\x00\x00\x00'
p3550
tp3551
Rp3552
sVshoulder
p3553
g3395
(g3399
S'\xb0\x00\x00\x00\x00\x00\x00\x00'
p3554
tp3555
Rp3556
sVmoderate
p3557
g3395
(g3399
S'y\x00\x00\x00\x00\x00\x00\x00'
p3558
tp3559
Rp3560
sValex
p3561
g3395
(g3399
S'\x04\x00\x00\x00\x00\x00\x00\x00'
p3562
tp3563
Rp3564
sVintel
p3565
g3395
(g3399
S'h\x00\x00\x00\x00\x00\x00\x00'
p3566
tp3567
Rp3568
sVgossips
p3569
g3395
(g3399
S'X\x00\x00\x00\x00\x00\x00\x00'
p3570
tp3571
Rp3572
sVdidn
p3573
g3395
(g3399
S'3\x00\x00\x00\x00\x00\x00\x00'
p3574
tp3575
Rp3576
sValice
p3577
g3395
(g3399
S'\x05\x00\x00\x00\x00\x00\x00\x00'
p3578
tp3579
Rp3580
sVcloudy
p3581
g3395
(g3399
S'#\x00\x00\x00\x00\x00\x00\x00'
p3582
tp3583
Rp3584
sVtry
p3585
g3395
(g3399
S'\xcf\x00\x00\x00\x00\x00\x00\x00'
p3586
tp3587
Rp3588
sVunmute
p3589
g3395
(g3399
S'\xd5\x00\x00\x00\x00\x00\x00\x00'
p3590
tp3591
Rp3592
sVgimme
p3593
g3395
(g3399
S'Q\x00\x00\x00\x00\x00\x00\x00'
p3594
tp3595
Rp3596
sVweather
p3597
g3395
(g3399
S'\xdb\x00\x00\x00\x00\x00\x00\x00'
p3598
tp3599
Rp3600
sVnight
p3601
g3395
(g3399
S'\x84\x00\x00\x00\x00\x00\x00\x00'
p3602
tp3603
Rp3604
sVtunes
p3605
g3395
(g3399
S'\xd2\x00\x00\x00\x00\x00\x00\x00'
p3606
tp3607
Rp3608
sVclassifier
p3609
g3395
(g3399
S' \x00\x00\x00\x00\x00\x00\x00'
p3610
tp3611
Rp3612
sVinbox
p3613
g3395
(g3399
S'e\x00\x00\x00\x00\x00\x00\x00'
p3614
tp3615
Rp3616
sVset
p3617
g3395
(g3399
S'\xaf\x00\x00\x00\x00\x00\x00\x00'
p3618
tp3619
Rp3620
sVretrieve
p3621
g3395
(g3399
S'\xa5\x00\x00\x00\x00\x00\x00\x00'
p3622
tp3623
Rp3624
sVee
p3625
g3395
(g3399
S'=\x00\x00\x00\x00\x00\x00\x00'
p3626
tp3627
Rp3628
sVintelligence
p3629
g3395
(g3399
S'i\x00\x00\x00\x00\x00\x00\x00'
p3630
tp3631
Rp3632
sVback
p3633
g3395
(g3399
S'\x0e\x00\x00\x00\x00\x00\x00\x00'
p3634
tp3635
Rp3636
sVhail
p3637
g3395
(g3399
S'[\x00\x00\x00\x00\x00\x00\x00'
p3638
tp3639
Rp3640
sVwednesday
p3641
g3395
(g3399
S'\xdc\x00\x00\x00\x00\x00\x00\x00'
p3642
tp3643
Rp3644
sVzero
p3645
g3395
(g3399
S'\xe9\x00\x00\x00\x00\x00\x00\x00'
p3646
tp3647
Rp3648
sVcomputer
p3649
g3395
(g3399
S"'\x00\x00\x00\x00\x00\x00\x00"
p3650
tp3651
Rp3652
sVare
p3653
g3395
(g3399
S'\x0c\x00\x00\x00\x00\x00\x00\x00'
p3654
tp3655
Rp3656
sVclose
p3657
g3395
(g3399
S'"\x00\x00\x00\x00\x00\x00\x00'
p3658
tp3659
Rp3660
sVcalendar
p3661
g3395
(g3399
S'\x1b\x00\x00\x00\x00\x00\x00\x00'
p3662
tp3663
Rp3664
sVextract
p3665
g3395
(g3399
S'B\x00\x00\x00\x00\x00\x00\x00'
p3666
tp3667
Rp3668
sVevent
p3669
g3395
(g3399
S'?\x00\x00\x00\x00\x00\x00\x00'
p3670
tp3671
Rp3672
sVout
p3673
g3395
(g3399
S'\x8d\x00\x00\x00\x00\x00\x00\x00'
p3674
tp3675
Rp3676
sVcategory
p3677
g3395
(g3399
S'\x1d\x00\x00\x00\x00\x00\x00\x00'
p3678
tp3679
Rp3680
sVwhat
p3681
g3395
(g3399
S'\xde\x00\x00\x00\x00\x00\x00\x00'
p3682
tp3683
Rp3684
sVgive
p3685
g3395
(g3399
S'R\x00\x00\x00\x00\x00\x00\x00'
p3686
tp3687
Rp3688
sVfor
p3689
g3395
(g3399
S'I\x00\x00\x00\x00\x00\x00\x00'
p3690
tp3691
Rp3692
sVclock
p3693
g3395
(g3399
S'!\x00\x00\x00\x00\x00\x00\x00'
p3694
tp3695
Rp3696
sVdebrief
p3697
g3395
(g3399
S'-\x00\x00\x00\x00\x00\x00\x00'
p3698
tp3699
Rp3700
sVcurrently
p3701
g3395
(g3399
S'+\x00\x00\x00\x00\x00\x00\x00'
p3702
tp3703
Rp3704
sVplease
p3705
g3395
(g3399
S'\x92\x00\x00\x00\x00\x00\x00\x00'
p3706
tp3707
Rp3708
sVbrief
p3709
g3395
(g3399
S'\x15\x00\x00\x00\x00\x00\x00\x00'
p3710
tp3711
Rp3712
sVforecast
p3713
g3395
(g3399
S'J\x00\x00\x00\x00\x00\x00\x00'
p3714
tp3715
Rp3716
sVcell
p3717
g3395
(g3399
S'\x1e\x00\x00\x00\x00\x00\x00\x00'
p3718
tp3719
Rp3720
sVre
p3721
g3395
(g3399
S'\xa1\x00\x00\x00\x00\x00\x00\x00'
p3722
tp3723
Rp3724
sVexit
p3725
g3395
(g3399
S'A\x00\x00\x00\x00\x00\x00\x00'
p3726
tp3727
Rp3728
sVabove
p3729
g3395
(g3399
S'\x00\x00\x00\x00\x00\x00\x00\x00'
p3730
tp3731
Rp3732
sVnew
p3733
g3395
(g3399
S'\x80\x00\x00\x00\x00\x00\x00\x00'
p3734
tp3735
Rp3736
sVnet
p3737
g3395
(g3399
S'\x7f\x00\x00\x00\x00\x00\x00\x00'
p3738
tp3739
Rp3740
sVgov
p3741
g3395
(g3399
S'Y\x00\x00\x00\x00\x00\x00\x00'
p3742
tp3743
Rp3744
sVissue
p3745
g3395
(g3399
S'k\x00\x00\x00\x00\x00\x00\x00'
p3746
tp3747
Rp3748
sVbe
p3749
g3395
(g3399
S'\x10\x00\x00\x00\x00\x00\x00\x00'
p3750
tp3751
Rp3752
sVshut
p3753
g3395
(g3399
S'\xb1\x00\x00\x00\x00\x00\x00\x00'
p3754
tp3755
Rp3756
sVfriday
p3757
g3395
(g3399
S'M\x00\x00\x00\x00\x00\x00\x00'
p3758
tp3759
Rp3760
sVschedule
p3761
g3395
(g3399
S'\xaa\x00\x00\x00\x00\x00\x00\x00'
p3762
tp3763
Rp3764
sVscreen
p3765
g3395
(g3399
S'\xab\x00\x00\x00\x00\x00\x00\x00'
p3766
tp3767
Rp3768
sVdictates
p3769
g3395
(g3399
S'2\x00\x00\x00\x00\x00\x00\x00'
p3770
tp3771
Rp3772
sVfree
p3773
g3395
(g3399
S'K\x00\x00\x00\x00\x00\x00\x00'
p3774
tp3775
Rp3776
sVwe
p3777
g3395
(g3399
S'\xda\x00\x00\x00\x00\x00\x00\x00'
p3778
tp3779
Rp3780
sVillustration
p3781
g3395
(g3399
S'c\x00\x00\x00\x00\x00\x00\x00'
p3782
tp3783
Rp3784
sVactive
p3785
g3395
(g3399
S'\x01\x00\x00\x00\x00\x00\x00\x00'
p3786
tp3787
Rp3788
sVnews
p3789
g3395
(g3399
S'\x81\x00\x00\x00\x00\x00\x00\x00'
p3790
tp3791
Rp3792
sVpost
p3793
g3395
(g3399
S'\x93\x00\x00\x00\x00\x00\x00\x00'
p3794
tp3795
Rp3796
sVdon
p3797
g3395
(g3399
S'7\x00\x00\x00\x00\x00\x00\x00'
p3798
tp3799
Rp3800
sVearlier
p3801
g3395
(g3399
S';\x00\x00\x00\x00\x00\x00\x00'
p3802
tp3803
Rp3804
sVon
p3805
g3395
(g3399
S'\x8a\x00\x00\x00\x00\x00\x00\x00'
p3806
tp3807
Rp3808
sVsearch
p3809
g3395
(g3399
S'\xac\x00\x00\x00\x00\x00\x00\x00'
p3810
tp3811
Rp3812
sVlast
p3813
g3395
(g3399
S'n\x00\x00\x00\x00\x00\x00\x00'
p3814
tp3815
Rp3816
sVanything
p3817
g3395
(g3399
S'\x0b\x00\x00\x00\x00\x00\x00\x00'
p3818
tp3819
Rp3820
sVof
p3821
g3395
(g3399
S'\x87\x00\x00\x00\x00\x00\x00\x00'
p3822
tp3823
Rp3824
sVcould
p3825
g3395
(g3399
S'(\x00\x00\x00\x00\x00\x00\x00'
p3826
tp3827
Rp3828
sVcurrent
p3829
g3395
(g3399
S'*\x00\x00\x00\x00\x00\x00\x00'
p3830
tp3831
Rp3832
sVquiet
p3833
g3395
(g3399
S'\x9c\x00\x00\x00\x00\x00\x00\x00'
p3834
tp3835
Rp3836
sVturn
p3837
g3395
(g3399
S'\xd4\x00\x00\x00\x00\x00\x00\x00'
p3838
tp3839
Rp3840
sVbrowsing
p3841
g3395
(g3399
S'\x18\x00\x00\x00\x00\x00\x00\x00'
p3842
tp3843
Rp3844
sVcom
p3845
g3395
(g3399
S'%\x00\x00\x00\x00\x00\x00\x00'
p3846
tp3847
Rp3848
sVthink
p3849
g3395
(g3399
S'\xc6\x00\x00\x00\x00\x00\x00\x00'
p3850
tp3851
Rp3852
sVfeed
p3853
g3395
(g3399
S'F\x00\x00\x00\x00\x00\x00\x00'
p3854
tp3855
Rp3856
sVthis
p3857
g3395
(g3399
S'\xc7\x00\x00\x00\x00\x00\x00\x00'
p3858
tp3859
Rp3860
sVwhats
p3861
g3395
(g3399
S'\xdf\x00\x00\x00\x00\x00\x00\x00'
p3862
tp3863
Rp3864
sVfeatures
p3865
g3395
(g3399
S'E\x00\x00\x00\x00\x00\x00\x00'
p3866
tp3867
Rp3868
sVsimple
p3869
g3395
(g3399
S'\xb3\x00\x00\x00\x00\x00\x00\x00'
p3870
tp3871
Rp3872
sVsweet
p3873
g3395
(g3399
S'\xc0\x00\x00\x00\x00\x00\x00\x00'
p3874
tp3875
Rp3876
sVtuesday
p3877
g3395
(g3399
S'\xd0\x00\x00\x00\x00\x00\x00\x00'
p3878
tp3879
Rp3880
sVyourself
p3881
g3395
(g3399
S'\xe8\x00\x00\x00\x00\x00\x00\x00'
p3882
tp3883
Rp3884
sVdown
p3885
g3395
(g3399
S'9\x00\x00\x00\x00\x00\x00\x00'
p3886
tp3887
Rp3888
sVput
p3889
g3395
(g3399
S'\x9a\x00\x00\x00\x00\x00\x00\x00'
p3890
tp3891
Rp3892
sVgoogle
p3893
g3395
(g3399
S'W\x00\x00\x00\x00\x00\x00\x00'
p3894
tp3895
Rp3896
sVdecrease
p3897
g3395
(g3399
S'/\x00\x00\x00\x00\x00\x00\x00'
p3898
tp3899
Rp3900
sVthursday
p3901
g3395
(g3399
S'\xc8\x00\x00\x00\x00\x00\x00\x00'
p3902
tp3903
Rp3904
sVshutdown
p3905
g3395
(g3399
S'\xb2\x00\x00\x00\x00\x00\x00\x00'
p3906
tp3907
Rp3908
sVfake
p3909
g3395
(g3399
S'C\x00\x00\x00\x00\x00\x00\x00'
p3910
tp3911
Rp3912
sVopen
p3913
g3395
(g3399
S'\x8b\x00\x00\x00\x00\x00\x00\x00'
p3914
tp3915
Rp3916
sVtomorrow
p3917
g3395
(g3399
S'\xcd\x00\x00\x00\x00\x00\x00\x00'
p3918
tp3919
Rp3920
sVtemperature
p3921
g3395
(g3399
S'\xc3\x00\x00\x00\x00\x00\x00\x00'
p3922
tp3923
Rp3924
sVwould
p3925
g3395
(g3399
S'\xe4\x00\x00\x00\x00\x00\x00\x00'
p3926
tp3927
Rp3928
sVtunez
p3929
g3395
(g3399
S'\xd3\x00\x00\x00\x00\x00\x00\x00'
p3930
tp3931
Rp3932
sVsake
p3933
g3395
(g3399
S'\xa7\x00\x00\x00\x00\x00\x00\x00'
p3934
tp3935
Rp3936
sVdecent
p3937
g3395
(g3399
S'.\x00\x00\x00\x00\x00\x00\x00'
p3938
tp3939
Rp3940
sVcreate
p3941
g3395
(g3399
S')\x00\x00\x00\x00\x00\x00\x00'
p3942
tp3943
Rp3944
sVthere
p3945
g3395
(g3399
S'\xc5\x00\x00\x00\x00\x00\x00\x00'
p3946
tp3947
Rp3948
sVquestion
p3949
g3395
(g3399
S'\x9b\x00\x00\x00\x00\x00\x00\x00'
p3950
tp3951
Rp3952
sVhey
p3953
g3395
(g3399
S'^\x00\x00\x00\x00\x00\x00\x00'
p3954
tp3955
Rp3956
sVnext
p3957
g3395
(g3399
S'\x83\x00\x00\x00\x00\x00\x00\x00'
p3958
tp3959
Rp3960
sVstart
p3961
g3395
(g3399
S'\xbc\x00\x00\x00\x00\x00\x00\x00'
p3962
tp3963
Rp3964
sVlive
p3965
g3395
(g3399
S'q\x00\x00\x00\x00\x00\x00\x00'
p3966
tp3967
Rp3968
sVwindow
p3969
g3395
(g3399
S'\xe2\x00\x00\x00\x00\x00\x00\x00'
p3970
tp3971
Rp3972
sVmusic
p3973
g3395
(g3399
S'|\x00\x00\x00\x00\x00\x00\x00'
p3974
tp3975
Rp3976
sVtell
p3977
g3395
(g3399
S'\xc2\x00\x00\x00\x00\x00\x00\x00'
p3978
tp3979
Rp3980
sVtoday
p3981
g3395
(g3399
S'\xcb\x00\x00\x00\x00\x00\x00\x00'
p3982
tp3983
Rp3984
sVpretends
p3985
g3395
(g3399
S'\x95\x00\x00\x00\x00\x00\x00\x00'
p3986
tp3987
Rp3988
sVsound
p3989
g3395
(g3399
S'\xb9\x00\x00\x00\x00\x00\x00\x00'
p3990
tp3991
Rp3992
sVreleasing
p3993
g3395
(g3399
S'\xa3\x00\x00\x00\x00\x00\x00\x00'
p3994
tp3995
Rp3996
sVcommands
p3997
g3395
(g3399
S'&\x00\x00\x00\x00\x00\x00\x00'
p3998
tp3999
Rp4000
sVit
p4001
g3395
(g3399
S'l\x00\x00\x00\x00\x00\x00\x00'
p4002
tp4003
Rp4004
sVvolume
p4005
g3395
(g3399
S'\xd8\x00\x00\x00\x00\x00\x00\x00'
p4006
tp4007
Rp4008
sVtrain
p4009
g3395
(g3399
S'\xce\x00\x00\x00\x00\x00\x00\x00'
p4010
tp4011
Rp4012
sVstick
p4013
g3395
(g3399
S'\xbd\x00\x00\x00\x00\x00\x00\x00'
p4014
tp4015
Rp4016
sVbeat
p4017
g3395
(g3399
S'\x11\x00\x00\x00\x00\x00\x00\x00'
p4018
tp4019
Rp4020
sVfoggy
p4021
g3395
(g3399
S'H\x00\x00\x00\x00\x00\x00\x00'
p4022
tp4023
Rp4024
sVdocument
p4025
g3395
(g3399
S'5\x00\x00\x00\x00\x00\x00\x00'
p4026
tp4027
Rp4028
sVme
p4029
g3395
(g3399
S'x\x00\x00\x00\x00\x00\x00\x00'
p4030
tp4031
Rp4032
sVahead
p4033
g3395
(g3399
S'\x03\x00\x00\x00\x00\x00\x00\x00'
p4034
tp4035
Rp4036
sVdefault
p4037
g3395
(g3399
S'1\x00\x00\x00\x00\x00\x00\x00'
p4038
tp4039
Rp4040
sVsnow
p4041
g3395
(g3399
S'\xb5\x00\x00\x00\x00\x00\x00\x00'
p4042
tp4043
Rp4044
sVsee
p4045
g3395
(g3399
S'\xad\x00\x00\x00\x00\x00\x00\x00'
p4046
tp4047
Rp4048
sVdogs
p4049
g3395
(g3399
S'6\x00\x00\x00\x00\x00\x00\x00'
p4050
tp4051
Rp4052
sVwill
p4053
g3395
(g3399
S'\xe1\x00\x00\x00\x00\x00\x00\x00'
p4054
tp4055
Rp4056
sVlouder
p4057
g3395
(g3399
S's\x00\x00\x00\x00\x00\x00\x00'
p4058
tp4059
Rp4060
sVcan
p4061
g3395
(g3399
S'\x1c\x00\x00\x00\x00\x00\x00\x00'
p4062
tp4063
Rp4064
sVbriefing
p4065
g3395
(g3399
S'\x16\x00\x00\x00\x00\x00\x00\x00'
p4066
tp4067
Rp4068
sVproblem
p4069
g3395
(g3399
S'\x97\x00\x00\x00\x00\x00\x00\x00'
p4070
tp4071
Rp4072
sVoutcome
p4073
g3395
(g3399
S'\x8e\x00\x00\x00\x00\x00\x00\x00'
p4074
tp4075
Rp4076
sVmy
p4077
g3395
(g3399
S'~\x00\x00\x00\x00\x00\x00\x00'
p4078
tp4079
Rp4080
sVdee
p4081
g3395
(g3399
S'0\x00\x00\x00\x00\x00\x00\x00'
p4082
tp4083
Rp4084
sVbrowser
p4085
g3395
(g3399
S'\x17\x00\x00\x00\x00\x00\x00\x00'
p4086
tp4087
Rp4088
sVprogram
p4089
g3395
(g3399
S'\x99\x00\x00\x00\x00\x00\x00\x00'
p4090
tp4091
Rp4092
sVup
p4093
g3395
(g3399
S'\xd6\x00\x00\x00\x00\x00\x00\x00'
p4094
tp4095
Rp4096
sValmost
p4097
g3395
(g3399
S'\x06\x00\x00\x00\x00\x00\x00\x00'
p4098
tp4099
Rp4100
sVlock
p4101
g3395
(g3399
S'r\x00\x00\x00\x00\x00\x00\x00'
p4102
tp4103
Rp4104
sVis
p4105
g3395
(g3399
S'j\x00\x00\x00\x00\x00\x00\x00'
p4106
tp4107
Rp4108
sVstalls
p4109
g3395
(g3399
S'\xbb\x00\x00\x00\x00\x00\x00\x00'
p4110
tp4111
Rp4112
sVam
p4113
g3395
(g3399
S'\x07\x00\x00\x00\x00\x00\x00\x00'
p4114
tp4115
Rp4116
sVfuck
p4117
g3395
(g3399
S'N\x00\x00\x00\x00\x00\x00\x00'
p4118
tp4119
Rp4120
sVan
p4121
g3395
(g3399
S'\x08\x00\x00\x00\x00\x00\x00\x00'
p4122
tp4123
Rp4124
sVheadlines
p4125
g3395
(g3399
S']\x00\x00\x00\x00\x00\x00\x00'
p4126
tp4127
Rp4128
sVbeats
p4129
g3395
(g3399
S'\x12\x00\x00\x00\x00\x00\x00\x00'
p4130
tp4131
Rp4132
sVright
p4133
g3395
(g3399
S'\xa6\x00\x00\x00\x00\x00\x00\x00'
p4134
tp4135
Rp4136
sVhave
p4137
g3395
(g3399
S'\\\x00\x00\x00\x00\x00\x00\x00'
p4138
tp4139
Rp4140
sVin
p4141
g3395
(g3399
S'd\x00\x00\x00\x00\x00\x00\x00'
p4142
tp4143
Rp4144
sVcheck
p4145
g3395
(g3399
S'\x1f\x00\x00\x00\x00\x00\x00\x00'
p4146
tp4147
Rp4148
sVif
p4149
g3395
(g3399
S'b\x00\x00\x00\x00\x00\x00\x00'
p4150
tp4151
Rp4152
sVinformation
p4153
g3395
(g3399
S'g\x00\x00\x00\x00\x00\x00\x00'
p4154
tp4155
Rp4156
sVrainy
p4157
g3395
(g3399
S'\xa0\x00\x00\x00\x00\x00\x00\x00'
p4158
tp4159
Rp4160
sVmake
p4161
g3395
(g3399
S'v\x00\x00\x00\x00\x00\x00\x00'
p4162
tp4163
Rp4164
sVsong
p4165
g3395
(g3399
S'\xb8\x00\x00\x00\x00\x00\x00\x00'
p4166
tp4167
Rp4168
sVwhen
p4169
g3395
(g3399
S'\xe0\x00\x00\x00\x00\x00\x00\x00'
p4170
tp4171
Rp4172
sVfeature
p4173
g3395
(g3399
S'D\x00\x00\x00\x00\x00\x00\x00'
p4174
tp4175
Rp4176
sVsame
p4177
g3395
(g3399
S'\xa8\x00\x00\x00\x00\x00\x00\x00'
p4178
tp4179
Rp4180
sVsaturday
p4181
g3395
(g3399
S'\xa9\x00\x00\x00\x00\x00\x00\x00'
p4182
tp4183
Rp4184
sVbeside
p4185
g3395
(g3399
S'\x14\x00\x00\x00\x00\x00\x00\x00'
p4186
tp4187
Rp4188
sVhow
p4189
g3395
(g3399
S'a\x00\x00\x00\x00\x00\x00\x00'
p4190
tp4191
Rp4192
sVhot
p4193
g3395
(g3399
S'`\x00\x00\x00\x00\x00\x00\x00'
p4194
tp4195
Rp4196
sVanswer
p4197
g3395
(g3399
S'\t\x00\x00\x00\x00\x00\x00\x00'
p4198
tp4199
Rp4200
sVyou
p4201
g3395
(g3399
S'\xe6\x00\x00\x00\x00\x00\x00\x00'
p4202
tp4203
Rp4204
sVgmail
p4205
g3395
(g3399
S'S\x00\x00\x00\x00\x00\x00\x00'
p4206
tp4207
Rp4208
sVevents
p4209
g3395
(g3399
S'@\x00\x00\x00\x00\x00\x00\x00'
p4210
tp4211
Rp4212
sVhigher
p4213
g3395
(g3399
S'_\x00\x00\x00\x00\x00\x00\x00'
p4214
tp4215
Rp4216
sVweek
p4217
g3395
(g3399
S'\xdd\x00\x00\x00\x00\x00\x00\x00'
p4218
tp4219
Rp4220
sVplay
p4221
g3395
(g3399
S'\x90\x00\x00\x00\x00\x00\x00\x00'
p4222
tp4223
Rp4224
sVokay
p4225
g3395
(g3399
S'\x89\x00\x00\x00\x00\x00\x00\x00'
p4226
tp4227
Rp4228
sVmonday
p4229
g3395
(g3399
S'z\x00\x00\x00\x00\x00\x00\x00'
p4230
tp4231
Rp4232
sVany
p4233
g3395
(g3399
S'\n\x00\x00\x00\x00\x00\x00\x00'
p4234
tp4235
Rp4236
sVwatch
p4237
g3395
(g3399
S'\xd9\x00\x00\x00\x00\x00\x00\x00'
p4238
tp4239
Rp4240
sVorg
p4241
g3395
(g3399
S'\x8c\x00\x00\x00\x00\x00\x00\x00'
p4242
tp4243
Rp4244
sVbackbone
p4245
g3395
(g3399
S'\x0f\x00\x00\x00\x00\x00\x00\x00'
p4246
tp4247
Rp4248
sVproblems
p4249
g3395
(g3399
S'\x98\x00\x00\x00\x00\x00\x00\x00'
p4250
tp4251
Rp4252
sVquieter
p4253
g3395
(g3399
S'\x9d\x00\x00\x00\x00\x00\x00\x00'
p4254
tp4255
Rp4256
sVrain
p4257
g3395
(g3399
S'\x9e\x00\x00\x00\x00\x00\x00\x00'
p4258
tp4259
Rp4260
sVfreezing
p4261
g3395
(g3399
S'L\x00\x00\x00\x00\x00\x00\x00'
p4262
tp4263
Rp4264
sVnoise
p4265
g3395
(g3399
S'\x85\x00\x00\x00\x00\x00\x00\x00'
p4266
tp4267
Rp4268
sVprevious
p4269
g3395
(g3399
S'\x96\x00\x00\x00\x00\x00\x00\x00'
p4270
tp4271
Rp4272
sVtune
p4273
g3395
(g3399
S'\xd1\x00\x00\x00\x00\x00\x00\x00'
p4274
tp4275
Rp4276
sVyour
p4277
g3395
(g3399
S'\xe7\x00\x00\x00\x00\x00\x00\x00'
p4278
tp4279
Rp4280
sVgrief
p4281
g3395
(g3399
S'Z\x00\x00\x00\x00\x00\x00\x00'
p4282
tp4283
Rp4284
sVlower
p4285
g3395
(g3399
S't\x00\x00\x00\x00\x00\x00\x00'
p4286
tp4287
Rp4288
sVoff
p4289
g3395
(g3399
S'\x88\x00\x00\x00\x00\x00\x00\x00'
p4290
tp4291
Rp4292
sVusing
p4293
g3395
(g3399
S'\xd7\x00\x00\x00\x00\x00\x00\x00'
p4294
tp4295
Rp4296
sVread
p4297
g3395
(g3399
S'\xa2\x00\x00\x00\x00\x00\x00\x00'
p4298
tp4299
Rp4300
sVgather
p4301
g3395
(g3399
S'O\x00\x00\x00\x00\x00\x00\x00'
p4302
tp4303
Rp4304
sVtale
p4305
g3395
(g3399
S'\xc1\x00\x00\x00\x00\x00\x00\x00'
p4306
tp4307
Rp4308
sVtime
p4309
g3395
(g3399
S'\xc9\x00\x00\x00\x00\x00\x00\x00'
p4310
tp4311
Rp4312
sVnewsfeed
p4313
g3395
(g3399
S'\x82\x00\x00\x00\x00\x00\x00\x00'
p4314
tp4315
Rp4316
sVthe
p4317
g3395
(g3399
S'\xc4\x00\x00\x00\x00\x00\x00\x00'
p4318
tp4319
Rp4320
sVincrease
p4321
g3395
(g3399
S'f\x00\x00\x00\x00\x00\x00\x00'
p4322
tp4323
Rp4324
sVplaying
p4325
g3395
(g3399
S'\x91\x00\x00\x00\x00\x00\x00\x00'
p4326
tp4327
Rp4328
sVdot
p4329
g3395
(g3399
S'8\x00\x00\x00\x00\x00\x00\x00'
p4330
tp4331
Rp4332
sVlatest
p4333
g3395
(g3399
S'o\x00\x00\x00\x00\x00\x00\x00'
p4334
tp4335
Rp4336
ssS'binary'
p4337
I00
sS'ngram_range'
p4338
(I1
I1
tp4339
sg3369
g3370
sS'max_df'
p4340
F1.0
sS'min_df'
p4341
I1
sS'max_features'
p4342
NsS'fixed_vocabulary_'
p4343
I00
sS'strip_accents'
p4344
NsS'dtype'
p4345
cnumpy
int64
p4346
sS'stop_words_'
p4347
c__builtin__
set
p4348
((lp4349
tp4350
Rp4351
sS'preprocessor'
p4352
Nsbtp4353
a(S'tfidf'
p4354
g3363
(csklearn.feature_extraction.text
TfidfTransformer
p4355
g3365
Ntp4356
Rp4357
(dp4358
S'smooth_idf'
p4359
I01
sg3369
g3370
sS'_idf_diag'
p4360
g3363
(cscipy.sparse.csr
csr_matrix
p4361
g3365
Ntp4362
Rp4363
(dp4364
S'indices'
p4365
cnumpy.core.multiarray
_reconstruct
p4366
(cnumpy
ndarray
p4367
(I0
tp4368
S'b'
p4369
tp4370
Rp4371
(I1
(I234
tp4372
g3396
(S'i4'
p4373
I0
I1
tp4374
Rp4375
(I3
S'<'
p4376
NNNI-1
I-1
I0
tp4377
bI00
S'\x00\x00\x00\x00\x01\x00\x00\x00\x02\x00\x00\x00\x03\x00\x00\x00\x04\x00\x00\x00\x05\x00\x00\x00\x06\x00\x00\x00\x07\x00\x00\x00\x08\x00\x00\x00\t\x00\x00\x00\n\x00\x00\x00\x0b\x00\x00\x00\x0c\x00\x00\x00\r\x00\x00\x00\x0e\x00\x00\x00\x0f\x00\x00\x00\x10\x00\x00\x00\x11\x00\x00\x00\x12\x00\x00\x00\x13\x00\x00\x00\x14\x00\x00\x00\x15\x00\x00\x00\x16\x00\x00\x00\x17\x00\x00\x00\x18\x00\x00\x00\x19\x00\x00\x00\x1a\x00\x00\x00\x1b\x00\x00\x00\x1c\x00\x00\x00\x1d\x00\x00\x00\x1e\x00\x00\x00\x1f\x00\x00\x00 \x00\x00\x00!\x00\x00\x00"\x00\x00\x00#\x00\x00\x00$\x00\x00\x00%\x00\x00\x00&\x00\x00\x00\'\x00\x00\x00(\x00\x00\x00)\x00\x00\x00*\x00\x00\x00+\x00\x00\x00,\x00\x00\x00-\x00\x00\x00.\x00\x00\x00/\x00\x00\x000\x00\x00\x001\x00\x00\x002\x00\x00\x003\x00\x00\x004\x00\x00\x005\x00\x00\x006\x00\x00\x007\x00\x00\x008\x00\x00\x009\x00\x00\x00:\x00\x00\x00;\x00\x00\x00<\x00\x00\x00=\x00\x00\x00>\x00\x00\x00?\x00\x00\x00@\x00\x00\x00A\x00\x00\x00B\x00\x00\x00C\x00\x00\x00D\x00\x00\x00E\x00\x00\x00F\x00\x00\x00G\x00\x00\x00H\x00\x00\x00I\x00\x00\x00J\x00\x00\x00K\x00\x00\x00L\x00\x00\x00M\x00\x00\x00N\x00\x00\x00O\x00\x00\x00P\x00\x00\x00Q\x00\x00\x00R\x00\x00\x00S\x00\x00\x00T\x00\x00\x00U\x00\x00\x00V\x00\x00\x00W\x00\x00\x00X\x00\x00\x00Y\x00\x00\x00Z\x00\x00\x00[\x00\x00\x00\\\x00\x00\x00]\x00\x00\x00^\x00\x00\x00_\x00\x00\x00`\x00\x00\x00a\x00\x00\x00b\x00\x00\x00c\x00\x00\x00d\x00\x00\x00e\x00\x00\x00f\x00\x00\x00g\x00\x00\x00h\x00\x00\x00i\x00\x00\x00j\x00\x00\x00k\x00\x00\x00l\x00\x00\x00m\x00\x00\x00n\x00\x00\x00o\x00\x00\x00p\x00\x00\x00q\x00\x00\x00r\x00\x00\x00s\x00\x00\x00t\x00\x00\x00u\x00\x00\x00v\x00\x00\x00w\x00\x00\x00x\x00\x00\x00y\x00\x00\x00z\x00\x00\x00{\x00\x00\x00|\x00\x00\x00}\x00\x00\x00~\x00\x00\x00\x7f\x00\x00\x00\x80\x00\x00\x00\x81\x00\x00\x00\x82\x00\x00\x00\x83\x00\x00\x00\x84\x00\x00\x00\x85\x00\x00\x00\x86\x00\x00\x00\x87\x00\x00\x00\x88\x00\x00\x00\x89\x00\x00\x00\x8a\x00\x00\x00\x8b\x00\x00\x00\x8c\x00\x00\x00\x8d\x00\x00\x00\x8e\x00\x00\x00\x8f\x00\x00\x00\x90\x00\x00\x00\x91\x00\x00\x00\x92\x00\x00\x00\x93\x00\x00\x00\x94\x00\x00\x00\x95\x00\x00\x00\x96\x00\x00\x00\x97\x00\x00\x00\x98\x00\x00\x00\x99\x00\x00\x00\x9a\x00\x00\x00\x9b\x00\x00\x00\x9c\x00\x00\x00\x9d\x00\x00\x00\x9e\x00\x00\x00\x9f\x00\x00\x00\xa0\x00\x00\x00\xa1\x00\x00\x00\xa2\x00\x00\x00\xa3\x00\x00\x00\xa4\x00\x00\x00\xa5\x00\x00\x00\xa6\x00\x00\x00\xa7\x00\x00\x00\xa8\x00\x00\x00\xa9\x00\x00\x00\xaa\x00\x00\x00\xab\x00\x00\x00\xac\x00\x00\x00\xad\x00\x00\x00\xae\x00\x00\x00\xaf\x00\x00\x00\xb0\x00\x00\x00\xb1\x00\x00\x00\xb2\x00\x00\x00\xb3\x00\x00\x00\xb4\x00\x00\x00\xb5\x00\x00\x00\xb6\x00\x00\x00\xb7\x00\x00\x00\xb8\x00\x00\x00\xb9\x00\x00\x00\xba\x00\x00\x00\xbb\x00\x00\x00\xbc\x00\x00\x00\xbd\x00\x00\x00\xbe\x00\x00\x00\xbf\x00\x00\x00\xc0\x00\x00\x00\xc1\x00\x00\x00\xc2\x00\x00\x00\xc3\x00\x00\x00\xc4\x00\x00\x00\xc5\x00\x00\x00\xc6\x00\x00\x00\xc7\x00\x00\x00\xc8\x00\x00\x00\xc9\x00\x00\x00\xca\x00\x00\x00\xcb\x00\x00\x00\xcc\x00\x00\x00\xcd\x00\x00\x00\xce\x00\x00\x00\xcf\x00\x00\x00\xd0\x00\x00\x00\xd1\x00\x00\x00\xd2\x00\x00\x00\xd3\x00\x00\x00\xd4\x00\x00\x00\xd5\x00\x00\x00\xd6\x00\x00\x00\xd7\x00\x00\x00\xd8\x00\x00\x00\xd9\x00\x00\x00\xda\x00\x00\x00\xdb\x00\x00\x00\xdc\x00\x00\x00\xdd\x00\x00\x00\xde\x00\x00\x00\xdf\x00\x00\x00\xe0\x00\x00\x00\xe1\x00\x00\x00\xe2\x00\x00\x00\xe3\x00\x00\x00\xe4\x00\x00\x00\xe5\x00\x00\x00\xe6\x00\x00\x00\xe7\x00\x00\x00\xe8\x00\x00\x00\xe9\x00\x00\x00'
p4378
tp4379
bsS'indptr'
p4380
g4366
(g4367
(I0
tp4381
g4369
tp4382
Rp4383
(I1
(I235
tp4384
g4375
I00
S'\x00\x00\x00\x00\x01\x00\x00\x00\x02\x00\x00\x00\x03\x00\x00\x00\x04\x00\x00\x00\x05\x00\x00\x00\x06\x00\x00\x00\x07\x00\x00\x00\x08\x00\x00\x00\t\x00\x00\x00\n\x00\x00\x00\x0b\x00\x00\x00\x0c\x00\x00\x00\r\x00\x00\x00\x0e\x00\x00\x00\x0f\x00\x00\x00\x10\x00\x00\x00\x11\x00\x00\x00\x12\x00\x00\x00\x13\x00\x00\x00\x14\x00\x00\x00\x15\x00\x00\x00\x16\x00\x00\x00\x17\x00\x00\x00\x18\x00\x00\x00\x19\x00\x00\x00\x1a\x00\x00\x00\x1b\x00\x00\x00\x1c\x00\x00\x00\x1d\x00\x00\x00\x1e\x00\x00\x00\x1f\x00\x00\x00 \x00\x00\x00!\x00\x00\x00"\x00\x00\x00#\x00\x00\x00$\x00\x00\x00%\x00\x00\x00&\x00\x00\x00\'\x00\x00\x00(\x00\x00\x00)\x00\x00\x00*\x00\x00\x00+\x00\x00\x00,\x00\x00\x00-\x00\x00\x00.\x00\x00\x00/\x00\x00\x000\x00\x00\x001\x00\x00\x002\x00\x00\x003\x00\x00\x004\x00\x00\x005\x00\x00\x006\x00\x00\x007\x00\x00\x008\x00\x00\x009\x00\x00\x00:\x00\x00\x00;\x00\x00\x00<\x00\x00\x00=\x00\x00\x00>\x00\x00\x00?\x00\x00\x00@\x00\x00\x00A\x00\x00\x00B\x00\x00\x00C\x00\x00\x00D\x00\x00\x00E\x00\x00\x00F\x00\x00\x00G\x00\x00\x00H\x00\x00\x00I\x00\x00\x00J\x00\x00\x00K\x00\x00\x00L\x00\x00\x00M\x00\x00\x00N\x00\x00\x00O\x00\x00\x00P\x00\x00\x00Q\x00\x00\x00R\x00\x00\x00S\x00\x00\x00T\x00\x00\x00U\x00\x00\x00V\x00\x00\x00W\x00\x00\x00X\x00\x00\x00Y\x00\x00\x00Z\x00\x00\x00[\x00\x00\x00\\\x00\x00\x00]\x00\x00\x00^\x00\x00\x00_\x00\x00\x00`\x00\x00\x00a\x00\x00\x00b\x00\x00\x00c\x00\x00\x00d\x00\x00\x00e\x00\x00\x00f\x00\x00\x00g\x00\x00\x00h\x00\x00\x00i\x00\x00\x00j\x00\x00\x00k\x00\x00\x00l\x00\x00\x00m\x00\x00\x00n\x00\x00\x00o\x00\x00\x00p\x00\x00\x00q\x00\x00\x00r\x00\x00\x00s\x00\x00\x00t\x00\x00\x00u\x00\x00\x00v\x00\x00\x00w\x00\x00\x00x\x00\x00\x00y\x00\x00\x00z\x00\x00\x00{\x00\x00\x00|\x00\x00\x00}\x00\x00\x00~\x00\x00\x00\x7f\x00\x00\x00\x80\x00\x00\x00\x81\x00\x00\x00\x82\x00\x00\x00\x83\x00\x00\x00\x84\x00\x00\x00\x85\x00\x00\x00\x86\x00\x00\x00\x87\x00\x00\x00\x88\x00\x00\x00\x89\x00\x00\x00\x8a\x00\x00\x00\x8b\x00\x00\x00\x8c\x00\x00\x00\x8d\x00\x00\x00\x8e\x00\x00\x00\x8f\x00\x00\x00\x90\x00\x00\x00\x91\x00\x00\x00\x92\x00\x00\x00\x93\x00\x00\x00\x94\x00\x00\x00\x95\x00\x00\x00\x96\x00\x00\x00\x97\x00\x00\x00\x98\x00\x00\x00\x99\x00\x00\x00\x9a\x00\x00\x00\x9b\x00\x00\x00\x9c\x00\x00\x00\x9d\x00\x00\x00\x9e\x00\x00\x00\x9f\x00\x00\x00\xa0\x00\x00\x00\xa1\x00\x00\x00\xa2\x00\x00\x00\xa3\x00\x00\x00\xa4\x00\x00\x00\xa5\x00\x00\x00\xa6\x00\x00\x00\xa7\x00\x00\x00\xa8\x00\x00\x00\xa9\x00\x00\x00\xaa\x00\x00\x00\xab\x00\x00\x00\xac\x00\x00\x00\xad\x00\x00\x00\xae\x00\x00\x00\xaf\x00\x00\x00\xb0\x00\x00\x00\xb1\x00\x00\x00\xb2\x00\x00\x00\xb3\x00\x00\x00\xb4\x00\x00\x00\xb5\x00\x00\x00\xb6\x00\x00\x00\xb7\x00\x00\x00\xb8\x00\x00\x00\xb9\x00\x00\x00\xba\x00\x00\x00\xbb\x00\x00\x00\xbc\x00\x00\x00\xbd\x00\x00\x00\xbe\x00\x00\x00\xbf\x00\x00\x00\xc0\x00\x00\x00\xc1\x00\x00\x00\xc2\x00\x00\x00\xc3\x00\x00\x00\xc4\x00\x00\x00\xc5\x00\x00\x00\xc6\x00\x00\x00\xc7\x00\x00\x00\xc8\x00\x00\x00\xc9\x00\x00\x00\xca\x00\x00\x00\xcb\x00\x00\x00\xcc\x00\x00\x00\xcd\x00\x00\x00\xce\x00\x00\x00\xcf\x00\x00\x00\xd0\x00\x00\x00\xd1\x00\x00\x00\xd2\x00\x00\x00\xd3\x00\x00\x00\xd4\x00\x00\x00\xd5\x00\x00\x00\xd6\x00\x00\x00\xd7\x00\x00\x00\xd8\x00\x00\x00\xd9\x00\x00\x00\xda\x00\x00\x00\xdb\x00\x00\x00\xdc\x00\x00\x00\xdd\x00\x00\x00\xde\x00\x00\x00\xdf\x00\x00\x00\xe0\x00\x00\x00\xe1\x00\x00\x00\xe2\x00\x00\x00\xe3\x00\x00\x00\xe4\x00\x00\x00\xe5\x00\x00\x00\xe6\x00\x00\x00\xe7\x00\x00\x00\xe8\x00\x00\x00\xe9\x00\x00\x00\xea\x00\x00\x00'
p4385
tp4386
bsS'maxprint'
p4387
I50
sS'_shape'
p4388
(I234
I234
tp4389
sg12
g4366
(g4367
(I0
tp4390
g4369
tp4391
Rp4392
(I1
(I234
tp4393
g3396
(S'f8'
p4394
I0
I1
tp4395
Rp4396
(I3
S'<'
p4397
NNNI-1
I-1
I0
tp4398
bI00
S'\xf5WJ\x00W\xeb\x1e@#\xfb\x82C\x14\xdc\x16@T;\x0c\xe9\x8a?\x13@\x9d\x08\x9d\xb4\x82\xe8\x19@\xb7\x10k\xa0\x8e%\x1c@\x8d\x03j\x84\xad\x19\x18@\xf5WJ\x00W\xeb\x1e@\x86\t\xe1;\xb8\xf4\x13@^\xfeG\xfd;$\x13@\xf5WJ\x00W\xeb\x1e@\xee\x1e\xb1b\xed)\x10@\xe1\xbb\xab\x83\xe8#\x0b@\x11u\xab\xc4\x1c\x8e\x12@;\x82\xac\xe0\xfd\x99\x16@\x9d\x08\x9d\xb4\x82\xe8\x19@\xf5WJ\x00W\xeb\x1e@p^~\xc1$L\x1d@\xa8\xf4N\x82F{\x18@\xf5WJ\x00W\xeb\x1e@p^~\xc1$L\x1d@p^~\xc1$L\x1d@\xf5WJ\x00W\xeb\x1e@\xf5WJ\x00W\xeb\x1e@#\xa0B\xfa\x029\x14@\xb7\x10k\xa0\x8e%\x1c@2\x17\x9fa\\\x86\x1a@\xf5WJ\x00W\xeb\x1e@\xaf\xaf\xd4\xaaJ\x00\x0e@\xa8\x8f\xe7\x02\x98p\n@\xf5WJ\x00W\xeb\x1e@\xf5WJ\x00W\xeb\x1e@\x87\xca^\xc2\xb8\x05\x07@\xf5WJ\x00W\xeb\x1e@\xb6\x88\xe0\xa1\xcb\xfa\x14@O\xbc\x8a$\xe5S\x15@\xae\x1d\xd3"*\xe7\x18@\xae\x1d\xd3"*\xe7\x18@\xe6;.\xe2\x0eA\x1b@\xf5WJ\x00W\xeb\x1e@\xe42\xff\x94)\x97\x11@F\xe6\xf0\x89\xa2b\x0f@T;\x0c\xe9\x8a?\x13@Lo\x07-\xb1\x87\x10@\xf5WJ\x00W\xeb\x1e@8\x18M\x1f!\x96\x13@\xf5WJ\x00W\xeb\x1e@\xf5WJ\x00W\xeb\x1e@p^~\xc1$L\x1d@p^~\xc1$L\x1d@\x8d\x03j\x84\xad\x19\x18@\xf5WJ\x00W\xeb\x1e@\xf5WJ\x00W\xeb\x1e@\x0b\x03\xadz\xea\x93\t@\xf5WJ\x00W\xeb\x1e@\xf5WJ\x00W\xeb\x1e@!\xb7h\x9ds^\x10@#\xfb\x82C\x14\xdc\x16@T;\x0c\xe9\x8a?\x13@p^~\xc1$L\x1d@\xf5WJ\x00W\xeb\x1e@p^~\xc1$L\x1d@p^~\xc1$L\x1d@\xf5WJ\x00W\xeb\x1e@\xady\x8e\xf8\xe4\x91\x0b@\xfb\xbe\x86\xcfD\x89\n@\xe6;.\xe2\x0eA\x1b@\xf5WJ\x00W\xeb\x1e@\xf5WJ\x00W\xeb\x1e@\xf5WJ\x00W\xeb\x1e@\xf5WJ\x00W\xeb\x1e@\xda\xc7\xf1\x15\x88\x83\x15@\n\xd9\x90J\x9dn\x17@\xae\x1d\xd3"*\xe7\x18@\xde\x9c\xd2\x88=\xed\r@\xda\xc7\xf1\x15\x88\x83\x15@\x86\t\xe1;\xb8\xf4\x13@\xae\x1d\xd3"*\xe7\x18@\xe5\xb3\xa3\xe3K\x16\x14@\xf5WJ\x00W\xeb\x1e@\xb7\x10k\xa0\x8e%\x1c@!\xb7h\x9ds^\x10@\xf5WJ\x00W\xeb\x1e@\xa8\xf4N\x82F{\x18@#\xf5\xc1\x94 \xb5\r@\x99\xd82d\xfe\xd0\x14@\xe6;.\xe2\x0eA\x1b@\xb7\x10k\xa0\x8e%\x1c@\x8eJ\xd2\x8a\x0c\xe3\x11@\xf5WJ\x00W\xeb\x1e@p^~\xc1$L\x1d@\xf5WJ\x00W\xeb\x1e@p^~\xc1$L\x1d@Y\xa3#\x8d\x8e\t\t@p\xd6\xf3\xc2a!\x16@p^~\xc1$L\x1d@y\xc9\x8b@\xc6_\x19@\xae\x1d\xd3"*\xe7\x18@\n\xd9\x90J\x9dn\x17@\x07r\x10\t\xe6\x1f\x12@\xf5WJ\x00W\xeb\x1e@\xc6\xdf\x12{V1\x0b@\xb1\xba\xc6\xd2:\x04\x10@\xf5WJ\x00W\xeb\x1e@\xe6;.\xe2\x0eA\x1b@\xb7\x10k\xa0\x8e%\x1c@\xf5WJ\x00W\xeb\x1e@X\x02K\x18\xb6\xbc\x0b@\xf5WJ\x00W\xeb\x1e@\xe9\x84\x08>\x01L\x0f@\xcc\x91\xb1\xea\xd4\xa8\x14@\n\xd9\x90J\x9dn\x17@2\x17\x9fa\\\x86\x1a@\xf5WJ\x00W\xeb\x1e@\x86\t\xe1;\xb8\xf4\x13@\xcc\x91\xb1\xea\xd4\xa8\x14@2\x17\x9fa\\\x86\x1a@\x9d\x08\x9d\xb4\x82\xe8\x19@K\xd7?j\xc2\xa2\r@\xd8&aH\x92J\x12@\xf5WJ\x00W\xeb\x1e@\x0cIb\xbdl\xd6\x12@\xf5WJ\x00W\xeb\x1e@\xe5\xb3\xa3\xe3K\x16\x14@\xe5\xb3\xa3\xe3K\x16\x14@p^~\xc1$L\x1d@\xe6;.\xe2\x0eA\x1b@~\xcb\xcd~\xb8\xcc\x08@p^~\xc1$L\x1d@]5\xc1*-4\n@Lo\x07-\xb1\x87\x10@j\xado"~\xb5\x15@T;\x0c\xe9\x8a?\x13@p^~\xc1$L\x1d@\xf5WJ\x00W\xeb\x1e@\xae\x1d\xd3"*\xe7\x18@p^~\xc1$L\x1d@H\x98\xe5\xab\xa2\t\x13@p^~\xc1$L\x1d@5\xcb\xdc\x92c\xdc\x05@\x0f\x04\'\x8ep\x9f\x0e@p^~\xc1$L\x1d@\xf5WJ\x00W\xeb\x1e@\xf5WJ\x00W\xeb\x1e@v_,\x7f\xe9[\x16@_\xc1\xbdT\xba"\x17@p^~\xc1$L\x1d@\xca\xfa\xd8=\xb0\xb7\x00@p^~\xc1$L\x1d@p^~\xc1$L\x1d@\xf5WJ\x00W\xeb\x1e@\x9d\x08\x9d\xb4\x82\xe8\x19@\xf5WJ\x00W\xeb\x1e@\xf5WJ\x00W\xeb\x1e@\xe6;.\xe2\x0eA\x1b@\xe6;.\xe2\x0eA\x1b@\xf5WJ\x00W\xeb\x1e@p^~\xc1$L\x1d@\xf5WJ\x00W\xeb\x1e@p^~\xc1$L\x1d@\xae\x1d\xd3"*\xe7\x18@\xae\x1d\xd3"*\xe7\x18@\x8d\x03j\x84\xad\x19\x18@;\x82\xac\xe0\xfd\x99\x16@\xf5WJ\x00W\xeb\x1e@\xf5WJ\x00W\xeb\x1e@\xa8\xf4N\x82F{\x18@2\x17\x9fa\\\x86\x1a@\xf5WJ\x00W\xeb\x1e@\xf5WJ\x00W\xeb\x1e@\xe5\xb3\xa3\xe3K\x16\x14@T;\x0c\xe9\x8a?\x13@#\xfb\x82C\x14\xdc\x16@O\xbc\x8a$\xe5S\x15@\xb7\x10k\xa0\x8e%\x1c@2\x17\x9fa\\\x86\x1a@\xb7\x10k\xa0\x8e%\x1c@\xf5WJ\x00W\xeb\x1e@T;\x0c\xe9\x8a?\x13@v_,\x7f\xe9[\x16@\xf5WJ\x00W\xeb\x1e@2\x17\x9fa\\\x86\x1a@p^~\xc1$L\x1d@\xae\x1d\xd3"*\xe7\x18@p^~\xc1$L\x1d@2\x8f\x14c\x99[\x13@\xda\xc7\xf1\x15\x88\x83\x15@\xe42\xff\x94)\x97\x11@\xf5WJ\x00W\xeb\x1e@\xcc\x91\xb1\xea\xd4\xa8\x14@\xf5WJ\x00W\xeb\x1e@\xf4\xcf\xbf\x01\x94\xc0\x17@\xe5\xb3\xa3\xe3K\x16\x14@p^~\xc1$L\x1d@\xf5WJ\x00W\xeb\x1e@\xf4\xcf\xbf\x01\x94\xc0\x17@\xda\xc7\xf1\x15\x88\x83\x15@!;:\\\xf5\xbe\x06@\xbeu\x95\xcc\x8c\xfe\x10@\xf5WJ\x00W\xeb\x1e@K\xd7?j\xc2\xa2\r@\xe5\xb3\xa3\xe3K\x16\x14@\x9c\x80\x12\xb6\xbf\xbd\x12@\x89b\xca\xd4\xd6u\x0b@\xaf\xaf\xd4\xaaJ\x00\x0e@\xe6;.\xe2\x0eA\x1b@\xfe:\xcd\x805\xd4\x13@\xf5WJ\x00W\xeb\x1e@\xf5WJ\x00W\xeb\x1e@\xe5\xb3\xa3\xe3K\x16\x14@\x9d\x08\x9d\xb4\x82\xe8\x19@p^~\xc1$L\x1d@\x9d\x08\x9d\xb4\x82\xe8\x19@\x16\xf4,\x89\xc2y\x10@\xe6;.\xe2\x0eA\x1b@^\xfeG\xfd;$\x13@\xf5WJ\x00W\xeb\x1e@\xcc\x91\xb1\xea\xd4\xa8\x14@\x9d\x08\x9d\xb4\x82\xe8\x19@\xf5WJ\x00W\xeb\x1e@\xda\xc7\xf1\x15\x88\x83\x15@\xe5\xb3\xa3\xe3K\x16\x14@\xb1\xba\xc6\xd2:\x04\x10@!\xdaA\x8c\xb3\xc6\x06@p^~\xc1$L\x1d@p^~\xc1$L\x1d@@\xa0n\x06\x9d\xa9\x11@\x9c\x80\x12\xb6\xbf\xbd\x12@p^~\xc1$L\x1d@*)\x1fU\xa7\xa5\x12@p^~\xc1$L\x1d@\xa5\x8b\xa6\xcd\x0e\x8b\x04@\x9d\x08\x9d\xb4\x82\xe8\x19@\xe6;.\xe2\x0eA\x1b@\xe6;.\xe2\x0eA\x1b@'
p4399
tp4400
bsbsS'use_idf'
p4401
I01
sS'sublinear_tf'
p4402
I00
sS'norm'
p4403
Vl2
p4404
sbtp4405
a(S'clsfr'
p4406
g3363
(csklearn.linear_model.stochastic_gradient
SGDClassifier
p4407
g3365
Ntp4408
Rp4409
(dp4410
S't_'
p4411
F8366.0
sS'n_jobs'
p4412
I1
sS'shuffle'
p4413
I01
sS'verbose'
p4414
I0
sS'classes_'
p4415
g4366
(g4367
(I0
tp4416
g4369
tp4417
Rp4418
(I1
(I2
tp4419
g3396
(S'S5'
p4420
I0
I1
tp4421
Rp4422
(I3
S'|'
p4423
NNNI5
I1
I0
tp4424
bI00
S'FalseTrue\x00'
p4425
tp4426
bsS'class_weight'
p4427
NsS'fit_intercept'
p4428
I01
sg8
g9
sS'random_state'
p4429
I42
sg3369
g3370
sS'loss_function'
p4430
csklearn.linear_model.sgd_fast
Hinge
p4431
(F1.0
tp4432
Rp4433
sS'C'
p4434
F1.0
sg7
I5
sS'epsilon'
p4435
F0.1
sS'learning_rate'
p4436
S'optimal'
p4437
sS'coef_'
p4438
g4366
(g4367
(I0
tp4439
g4369
tp4440
Rp4441
(I1
(I1
I234
tp4442
g4396
I00
S'\xca0\x08\xa9\xafv\xf2\xbf\x00\x00\x00\x00\x00\x00\x00\x00G\xc4\xee\x06\x85\xee\x08\xc0\x00\x00\x00\x00\x00\x00\x00\x00\xa7\xf2?L\xdf\xa6\x08\xc0\x08\xe7\xdeEP#\n\xc0\x00\x00\x00\x00\x00\x00\x00\x00\x83f*\xcc>\xc3\x04@\x96\xb3T\xd2\x19\xe6\xcc\xbf65\x8a\xd2\x11W\xd7\xbf\xe4\x9b\x9a\x05\xb5\xed\xf9?:\x96AJ\xe6\x10\xf5?\x03\x13\xfb\xca\x12\xe2\x02@V\xf76\xf1}\xb7\x00@\x00\x00\x00\x00\x00\x00\x00\x00\xca0\x08\xa9\xafv\xf2\xbfX\x10\x88\xca\xd5V\xe2\xbf\x00\x00\x00\x00\x00\x00\x00\x00\x00\x00\x00\x00\x00\x00\x00\x00\x00\x00\x00\x00\x00\x00\x00\x00\x00\x00\x00\x00\x00\x00\x00\x00\x00\x00\x00\x00\x00\x00\x00\x00E{\x9c\xef_C\xf1\xbf\x00\x00\x00\x00\x00\x00\x00\x00:I\xf4\xcc\x15\x83\xfb\xbfC\x88V\xcaa\x14\xf4\xbf\xbb\xb4I\x98\xfah\x15\xc0t^>\xcc\xf2\xb6\x10@\xe2\x9b\xf3/\xde\x86\xf6\xbf\x00\x00\x00\x00\x00\x00\x00\x00\x00\x00\x00\x00\x00\x00\x00\x00p\x89\xaf\x81\xf3\xc4\x00@\x00\x00\x00\x00\x00\x00\x00\x00\xe7]\x93!*\xc4\xf0\xbf\x8b.\r\x02\xda+\x02\xc0\x00\x00\x00\x00\x00\x00\x00\x00\x00\x00\x00\x00\x00\x00\x00\x00\x00\x00\x00\x00\x00\x00\x00\x00y\x15wg\n\x80\xf6\xbfd\xeb!I\x84\t\x01\xc0\xa1K\n@\x87S\x04\xc0\x00\x00\x00\x00\x00\x00\x00\x00\'<\xccB\x8a\x15\x0c\xc0\x00\x00\x00\x00\x00\x00\x00\x00<xc\xc3\xd4`\x04@\x00\x00\x00\x00\x00\x00\x00\x00\x00\x00\x00\x00\x00\x00\x00\x00\x00\x00\x00\x00\x00\x00\x00\x00\x00\x00\x00\x00\x00\x00\x00\x00\x00\x00\x00\x00\x00\x00\x00\x00\xca0\x08\xa9\xafv\xf2\xbf65\x8a\xd2\x11W\xd7\xbf\xfaAe\xa2}\x91\x11@\x98\xc4]J\x01\xfb\xe2\xbf\xed\xe2X\xa9\x96\xa0\xdc\xbfiZ\x04\xb1@U\x03@J\xe0\xc6\\\xe0\xdc\xf5\xbfj\x9ciO5\xb4\xd6\xbf\x08\x8a\xdd\xd2\xae\x11\xdb\xbf65\x8a\xd2\x11W\xd7\xbf\x00\x00\x00\x00\x00\x00\x00\x00\x00\x00\x00\x00\x00\x00\x00\x00\x00\x00\x00\x00\x00\x00\x00\x00(\x10kq\xf4\xda\x01\xc0\xd6D \x9f5\xcb\xff?\xbe\x9c\x0c&\x1a?\xf0\xbf\x00\x00\x00\x00\x00\x00\x00\x00\x00\x00\x00\x00\x00\x00\x00\x00\x00\x00\x00\x00\x00\x00\x00\x00\x00\x00\x00\x00\x00\x00\x00\x00t\x9e\xbc\xa9\xe8\x1b\x08\xc0\xc0\xbe\xd4\x8f\xe1\xf3\xfc\xbf\x00\x00\x00\x00\x00\x00\x00\x00x2\xea\xf0\xbb\x1e\xfa?\x14\x001\xa4WI\xf2\xbf\x83f*\xcc>\xc3\x04@\x00\x00\x00\x00\x00\x00\x00\x00a@\x97\xfa\xe5\xab\xdf?\x00\x00\x00\x00\x00\x00\x00\x00\xd6E\x8bhj\xe8\xf0\xbfA\xa7\x17\xf2\\_\t\xc0\x00\x00\x00\x00\x00\x00\x00\x00\x1bT\xbf\xce\x06x\n\xc0/\xdc}\x08\xce\x18\x08\xc0R\xec\x05\'\x9a\xe8\xf3\xbfm\x18\n\xb7(\xb9\xea\xbf\xf0\t\xbdZ\x08{\xdc\xbf\x0b\xba&\x11\xa5\x93\xf8\xbf\x00\x00\x00\x00\x00\x00\x00\x00\x00\x00\x00\x00\x00\x00\x00\x00\xca0\x08\xa9\xafv\xf2\xbf\x00\x00\x00\x00\x00\x00\x00\x00e\xda\xbc\xfb\xc8V\x0e@\xb6\x93\xac\x8e\xeaj\n\xc0\x00\x00\x00\x00\x00\x00\x00\x00\x00\x00\x00\x00\x00\x00\x00\x00\x00\x00\x00\x00\x00\x00\x00\x00\x00\x00\x00\x00\x00\x00\x00\x00\x00\x00\x00\x00\x00\x00\x00\x00\xea(\x8etwR\xd7\xbf\xf6Q\xfb|\xefS\xda\xbf9!`\xef\x15+\x05\xc0\x00\x00\x00\x00\x00\x00\x00\x00=\xde\x0e\xb6\'_\xf0\xbf\x10#g\x99x2\xf0\xbf\xd6\x1d}\xf3\xfd\xba\xe3\xbf\x8c\x06\xec*\xf8)\xfb\xbfy\x15wg\n\x80\xf6\xbf\x1e\xd2kUk\xb6\x04\xc0\x00\x00\x00\x00\x00\x00\x00\x00\xcd\xd2\x0e\x9e)s\x05\xc0\xa9\xce\x9f\xd3W\xca\xea\xbf\xed\xe2X\xa9\x96\xa0\xdc\xbf\x00\x00\x00\x00\x00\x00\x00\x00\x9b\xa9`\x97W\xb4\xf0\xbf\x00\x00\x00\x00\x00\x00\x00\x00\x00\x00\x00\x00\x00\x00\x00\x00J\xde\xf30\x875\x02\xc0\x00\x00\x00\x00\x00\x00\x00\x00\x00\x00\x00\x00\x00\x00\x00\x00\x9c\x11\xf2\x95\xe3]\x04\xc0\x00\x00\x00\x00\x00\x00\x00\x00\x00\x00\x00\x00\x00\x00\x00\x00\xf6q\x89\x13\xe8\xf4\x08@?\xb1 "WG\xe1\xbf\xc6\x96\x8a\x03x\xcb\x0c\xc0\xc6\xccl\x99\x10\x07\xfa\xbf\x00\x00\x00\x00\x00\x00\x00\x003\xdbp\xab5\xfb\x02\xc0\x83\xc2\xdc\xf9)\x86\x02\xc0\xd4\x81\xfe;*\xd3\x10\xc0*\xcf\x87O\xb04\xe4\xbf\x0f`O\x14\x1d\xa5\xdd\xbf\x00\x00\x00\x00\x00\x00\x00\x00\x1ez\x15\xbc(\x0e\x00\xc0\xc9>Q\xb8I\x19\xd6\xbf\x10\x9c\xfc,Vp\x02\xc0\x8d\x82J\x8f\xe1\xa8\t\xc0\x15B\xc3z\xbcx\x16@o\xe3e\x93\x83<\x04\xc0A<9\x10\x12\x05\xfc\xbf\x00\x00\x00\x00\x00\x00\x00\x00\x98\xc4]J\x01\xfb\xe2\xbf\x00\x00\x00\x00\x00\x00\x00\x00\xfe\xe3\xec\x13\xb2-\x05\xc0I\x98#t\xa1\xdd\xf8\xbf\x86[&\xdb\xa7t\x1e\xc0\xc9>Q\xb8I\x19\xd6\xbf\xda\xff\xf4\xb0 \xfc\xe1\xbf\x00\x00\x00\x00\x00\x00\x00\x00\x00\x00\x00\x00\x00\x00\x00\x00\x00\x00\x00\x00\x00\x00\x00\x00\xea(\x8etwR\xd7\xbf\x00\x00\x00\x00\x00\x00\x00\x00\x00\x00\x00\x00\x00\x00\x00\x0065\x8a\xd2\x11W\xd7\xbfX\x10\x88\xca\xd5V\xe2\xbf\x00\x00\x00\x00\x00\x00\x00\x00\x00\x00\x00\x00\x00\x00\x00\x00\x00\x00\x00\x00\x00\x00\x00\x00\x00\x00\x00\x00\x00\x00\x00\x002\x0f\xbc!\xee\x01\x0b\xc0\x00\x00\x00\x00\x00\x00\x00\x00\x00\x00\x00\x00\x00\x00\x00\x00\xd6\x1d}\xf3\xfd\xba\xe3\xbf\x00\x00\x00\x00\x00\x00\x00\x00\x80\xe2\x97\x90\xd7\x19\x01\xc0\xea(\x8etwR\xd7\xbf\x00\x00\x00\x00\x00\x00\x00\x00Fp$\x141\xaf\x00@\x00\x00\x00\x00\x00\x00\x00\x00\x00\x00\x00\x00\x00\x00\x00\x00\xb0;\xf8\xee\x05g\x04\xc0.\xb7%^\xd0\x8d\xdc\xbf\x00\x00\x00\x00\x00\x00\x00\x00\xd4\x00V\xeb\x98\xf9\xee\xbf\x00\x00\x00\x00\x00\x00\x00\x00\x0c\xa4\xffT\x8c\xa4\x02\xc0_\xc5g\x06\xd7N\xee\xbf\xea(\x8etwR\xd7\xbf\x1bS@AV\\\xf4\xbf\x00\x00\x00\x00\x00\x00\x00\x00\x00\x00\x00\x00\x00\x00\x00\x00\x00\x00\x00\x00\x00\x00\x00\x00M\xb8&\x8ba\xb8\x01\xc0\x00\x00\x00\x00\x00\x00\x00\x00\xe7\xcc\xd3\xd57\x1a\x00\xc0\x00\x00\x00\x00\x00\x00\x00\x00\x13\xf4\x1a\x0e\x941\xf4\xbf\xea(\x8etwR\xd7\xbf\xbe\x9cM\xe8\xcb(\xf4\xbf\xa2U\x10q\xdb\xcf\x03@\x08\x8a\xdd\xd2\xae\x11\xdb\xbf\x00\x00\x00\x00\x00\x00\x00\x00\x00\x00\x00\x00\x00\x00\x00\x00\x1c_\xa8W\xa2\x83\xe8\xbf[\xb0\xaf\xe20\xa3\x11\xc0\xd7\x93\xf6)\x14\x13\x02@65\x8a\xd2\x11W\xd7\xbf\x8d\xa8\xd2\x89\x11k\xe3\xbf\x00\x00\x00\x00\x00\x00\x00\x00>\xe7\t\x8cm\x7f\xed\xbf\xc6 &\xdb\x86\x9b\xf9?\xd9}\xf7\xe72 \xf3\xbf\x00\x00\x00\x00\x00\x00\x00\x00\x00\x00\x00\x00\x00\x00\x00\x00\x00\x00\x00\x00\x00\x00\x00\x00\x00\x00\x00\x00\x00\x00\x00\x00\x00\x00\x00\x00\x00\x00\x00\x00\x00\x00\x00\x00\x00\x00\x00\x00\x00\x00\x00\x00\x00\x00\x00\x00\x00\x00\x00\x00\x00\x00\x00\x00k\xf1\x98\x95\xb4\xce\x05\xc0\xb4a\x9d5\xbb\xf7\xf8\xbfR\xc8\x14\x8f\nV\t\xc0\x00\x00\x00\x00\x00\x00\x00\x00o\x12\xab\xc0E\xbc\xe6\xbfP\xf1?\x03\xb5U\x00\xc0\xea(\x8etwR\xd7\xbf\x03\x05\xd8\x86 u\x05\xc0\xac\xf6\x08\xa0\xca\xb6\xfd?N\xad\xbc\xcbZE\xf1?\xe0\xd5\xb4\x0f\'\xd2\xea\xbf\x00\x00\x00\x00\x00\x00\x00\x00\x00\x00\x00\x00\x00\x00\x00\x00\x91F.R\x02X\x07\xc0/\x8cb\xa4f\xef\xff\xbf\x00\x00\x00\x00\x00\x00\x00\x00\x00\x00\x00\x00\x00\x00\x00\x00\x04 \xe6\xa8\xa9\xb8\xdd\xbfM\x9b\xa66\xd4\xd0\x11\xc0P\xf1?\x03\xb5U\x00\xc0\x00\x00\x00\x00\x00\x00\x00\x00\x00\x00\x00\x00\x00\x00\x00\x00'
p4443
tp4444
bsg11
F0.001
sS'intercept_'
p4445
g4366
(g4367
(I0
tp4446
g4369
tp4447
Rp4448
(I1
(I1
tp4449
g4396
I00
S'_c\x9a{\xe52\xed\xbf'
p4450
tp4451
bsS'_expanded_class_weight'
p4452
g4366
(g4367
(I0
tp4453
g4369
tp4454
Rp4455
(I1
(I2
tp4456
g4396
I00
S'\x00\x00\x00\x00\x00\x00\xf0?\x00\x00\x00\x00\x00\x00\xf0?'
p4457
tp4458
bsS'warm_start'
p4459
I00
sg2
g3
sS'eta0'
p4460
F0.0
sS'l1_ratio'
p4461
F0.15
sS'average'
p4462
I00
sS'power_t'
p4463
F0.5
sbtp4464
asbsb.