(ialicized_models
CommandMatchingModel
p0
(dp1
S'loss'
p2
S'hinge'
p3
sS'grammar'
p4
NsS'name'
p5
S'OPEN_WEB_BROWSER.model'
p6
sS'n_iter'
p7
I5
sS'penalty'
p8
S'none'
p9
sS'trained'
p10
I01
sS'alpha'
p11
F0.001
sS'data'
p12
(lp13
(S'check mail please'
p14
S'False'
p15
tp16
a(S'live news feed'
p17
g15
tp18
a(S'exit please'
p19
g15
tp20
a(S'check calendar for this week'
p21
g15
tp22
a(S"don't i have to do anything tomorrow"
p23
g15
tp24
a(S"if it's rainy today"
p25
g15
tp26
a(S'turn the sound down please'
p27
g15
tp28
a(S'any events in a month'
p29
g15
tp30
a(S'what do i have on next'
p31
g15
tp32
a(S"today's news"
p33
g15
tp34
a(S'check calendar on monday'
p35
g15
tp36
a(S'am i free for'
p37
g15
tp38
a(S'will you check new mail'
p39
g15
tp40
a(S'is there anything to do'
p41
g15
tp42
a(S'do i have to do anything tomorrow'
p43
g15
tp44
a(S'do i have anything on next'
p45
g15
tp46
a(S'please schedule event'
p47
g15
tp48
a(S'can you please shutdown the computer'
p49
g15
tp50
a(S'what do i have to do in a month'
p51
g15
tp52
a(S'check calendar for sunday'
p53
g15
tp54
a(S"don't i have any events on today"
p55
g15
tp56
a(S'is it raining this week'
p57
g15
tp58
a(S'anything in my inbox'
p59
g15
tp60
a(S'am i free for monday'
p61
g15
tp62
a(S'check my calendar on thursday'
p63
g15
tp64
a(S"get today's forecast"
p65
g15
tp66
a(S'lower the volume'
p67
g15
tp68
a(S'please open a browser'
p69
S'True'
p70
tp71
a(S'could you add a new event please'
p72
g15
tp73
a(S'gimme the news'
p74
g15
tp75
a(S'open dot gov'
p76
g70
tp77
a(S'turn off the sound please'
p78
g15
tp79
a(S'stop the song'
p80
g15
tp81
a(S'please read me the clock'
p82
g15
tp83
a(S'can you get information on the current events'
p84
g15
tp85
a(S'check google calendar for tomorrow'
p86
g15
tp87
a(S"don't i have anything to do on wednesday"
p88
g15
tp89
a(S'check calendar for tomorrow'
p90
g15
tp91
a(S'check events on'
p92
g15
tp93
a(S'please check inbox'
p94
g15
tp95
a(S'turn up the tunez'
p96
g15
tp97
a(S'please get time'
p98
g15
tp99
a(S'please schedule new event'
p100
g15
tp101
a(S'what is live news feed'
p102
g15
tp103
a(S'can you check new gmail'
p104
g15
tp105
a(S'get current events'
p106
g15
tp107
a(S'can you put me on the lock screen'
p108
g15
tp109
a(S'will you get the headlines'
p110
g15
tp111
a(S'what is new in my inbox'
p112
g15
tp113
a(S'find news'
p114
g15
tp115
a(S'please could you open mail'
p116
g15
tp117
a(S'bye'
p118
g15
tp119
a(S'search google please'
p120
g15
tp121
a(S'anything in my mail'
p122
g15
tp123
a(S'bye alice'
p124
g15
tp125
a(S'close the active window'
p126
g15
tp127
a(S'what time is it now'
p128
g15
tp129
a(S"don't i have any events on thursday"
p130
g15
tp131
a(S'what do i have in a month'
p132
g15
tp133
a(S'please spotify previous song'
p134
g15
tp135
a(S'pause spotify'
p136
g15
tp137
a(S'good night'
p138
g15
tp139
a(S'schedule new event'
p140
g15
tp141
a(S'is it cloudy this week'
p142
g15
tp143
a(S'alice'
p144
g15
tp145
a(S'could you check my inbox'
p146
g15
tp147
a(S'open default browser please'
p148
g70
tp149
a(S'would you open my gmail please'
p150
g15
tp151
a(S"what's the headlines"
p152
g15
tp153
a(S'what is in mail please'
p154
g15
tp155
a(S'get current news'
p156
g15
tp157
a(S'stop song please'
p158
g15
tp159
a(S"don't i have to do anything on friday"
p160
g15
tp161
a(S'can you send me to the lock screen please'
p162
g15
tp163
a(S'do i have anything today'
p164
g15
tp165
a(S'check events for this day'
p166
g15
tp167
a(S'please what is in inbox'
p168
g15
tp169
a(S'are there any events on monday'
p170
g15
tp171
a(S'alice go ahead please'
p172
g15
tp173
a(S'get live news'
p174
g15
tp175
a(S'spotify skip ahead please'
p176
g15
tp177
a(S'i like dogs'
p178
g15
tp179
a(S'please would you open gmail'
p180
g15
tp181
a(S"this week's weather"
p182
g15
tp183
a(S"today's live news feed"
p184
g15
tp185
a(S'turn off the beats'
p186
g15
tp187
a(S'what is in inbox'
p188
g15
tp189
a(S'current news'
p190
g15
tp191
a(S'what do i have to do on tomorrow'
p192
g15
tp193
a(S'give me intel on current events'
p194
g15
tp195
a(S'get the current events'
p196
g15
tp197
a(S"please what's in my gmail"
p198
g15
tp199
a(S'can you check new mail please'
p200
g15
tp201
a(S'read time'
p202
g15
tp203
a(S'please will you open mail'
p204
g15
tp205
a(S'what events do i have on monday'
p206
g15
tp207
a(S'please get the current time'
p208
g15
tp209
a(S'shutdown my computer'
p210
g15
tp211
a(S'what is live newsfeed'
p212
g15
tp213
a(S'go to dot edu'
p214
g70
tp215
a(S'is there anything to do on sunday'
p216
g15
tp217
a(S'could you make new event'
p218
g15
tp219
a(S"what's in my inbox"
p220
g15
tp221
a(S'do i have anything on wednesday'
p222
g15
tp223
a(S'check new mail please'
p224
g15
tp225
a(S'do i have any events on today'
p226
g15
tp227
a(S"how's the weather today"
p228
g15
tp229
a(S'clock'
p230
g15
tp231
a(S'please spotify pause'
p232
g15
tp233
a(S'check google calendar for saturday'
p234
g15
tp235
a(S'could you make a new event please'
p236
g15
tp237
a(S'check calendar on friday'
p238
g15
tp239
a(S'could you check inbox'
p240
g15
tp241
a(S'are there any events on saturday'
p242
g15
tp243
a(S'check calendar on saturday'
p244
g15
tp245
a(S'please could you check my mail'
p246
g15
tp247
a(S"don't i have to do anything on next"
p248
g15
tp249
a(S'check calendar on tuesday'
p250
g15
tp251
a(S'can you please create a new event'
p252
g15
tp253
a(S'can you close the active window'
p254
g15
tp255
a(S'is there anything to do on'
p256
g15
tp257
a(S"don't i have to do anything"
p258
g15
tp259
a(S'turn the volume to zero'
p260
g15
tp261
a(S"what's the forecast"
p262
g15
tp263
a(S'could you make an event'
p264
g15
tp265
a(S'please lock my computer'
p266
g15
tp267
a(S"don't i have to do anything on monday"
p268
g15
tp269
a(S'what is the news'
p270
g15
tp271
a(S"please don't start a default browser"
p272
g15
tp273
a(S'what is new in mail'
p274
g15
tp275
a(S'add new event please'
p276
g15
tp277
a(S"what's today's weather"
p278
g15
tp279
a(S"what's new in my inbox please"
p280
g15
tp281
a(S'search please'
p282
g15
tp283
a(S'do i have any events'
p284
g15
tp285
a(S'shut off please'
p286
g15
tp287
a(S'be quiet'
p288
g15
tp289
a(S'can you check my mail please'
p290
g15
tp291
a(S'are there any events on sunday'
p292
g15
tp293
a(S'can you put me on the lock screen please'
p294
g15
tp295
a(S'will you open my inbox please'
p296
g15
tp297
a(S'check events on sunday'
p298
g15
tp299
a(S'what events do i have on friday'
p300
g15
tp301
a(S'is it raining today'
p302
g15
tp303
a(S'what is new in my mail please'
p304
g15
tp305
a(S'will it hail this week'
p306
g15
tp307
a(S'please will you check new mail'
p308
g15
tp309
a(S'please send me to the lock screen'
p310
g15
tp311
a(S'what do i have to do on friday'
p312
g15
tp313
a(S'can you please kill the current window'
p314
g15
tp315
a(S'schedule event please'
p316
g15
tp317
a(S"please don't start a default browser"
p318
g15
tp319
a(S'any new mail'
p320
g15
tp321
a(S'will you open a browser'
p322
g70
tp323
a(S'please open mail'
p324
g15
tp325
a(S'is there anything to do on this day'
p326
g15
tp327
a(S'shut off my computer'
p328
g15
tp329
a(S"aren't there any events on tuesday"
p330
g15
tp331
a(S'todays headlines'
p332
g15
tp333
a(S'could you please create a new event'
p334
g15
tp335
a(S'start spotify please'
p336
g15
tp337
a(S'we stick to simple problems in this post for the sake of illustration'
p338
g15
tp339
a(S'check events on this week'
p340
g15
tp341
a(S'please find out the latest headlines'
p342
g15
tp343
a(S'can you please shut down my computer'
p344
g15
tp345
a(S'any events on saturday'
p346
g15
tp347
a(S'will you check my mail please'
p348
g15
tp349
a(S'current forecast'
p350
g15
tp351
a(S'anything new in my inbox'
p352
g15
tp353
a(S'please spotify previous'
p354
g15
tp355
a(S'tell me live news feed'
p356
g15
tp357
a(S'can you create new event please'
p358
g15
tp359
a(S'what events are'
p360
g15
tp361
a(S'please what is in mail'
p362
g15
tp363
a(S"what's if it's raining today"
p364
g15
tp365
a(S'anything new in mail'
p366
g15
tp367
a(S"what's this week's weather"
p368
g15
tp369
a(S'what do i have'
p370
g15
tp371
a(S'am i free on'
p372
g15
tp373
a(S'kill the noise'
p374
g15
tp375
a(S'please open my gmail'
p376
g15
tp377
a(S'am i free for tuesday'
p378
g15
tp379
a(S'check my calendar for friday'
p380
g15
tp381
a(S'add event'
p382
g15
tp383
a(S'can you shutdown my computer'
p384
g15
tp385
a(S'the news today'
p386
g15
tp387
a(S'any events on tomorrow'
p388
g15
tp389
a(S'please spotify start the song'
p390
g15
tp391
a(S'would you open my mail please'
p392
g15
tp393
a(S'what is on my calendar for next'
p394
g15
tp395
a(S'can you check my inbox please'
p396
g15
tp397
a(S"don't i have to do anything in a week"
p398
g15
tp399
a(S'check the current time'
p400
g15
tp401
a(S'could you open my gmail'
p402
g15
tp403
a(S'what do i have in a week'
p404
g15
tp405
a(S'search google'
p406
g15
tp407
a(S"today's temperature"
p408
g15
tp409
a(S'please what is new in new gmail'
p410
g15
tp411
a(S'please turn off the computer'
p412
g15
tp413
a(S'get news'
p414
g15
tp415
a(S'please will you check new gmail'
p416
g15
tp417
a(S"what's new in mail"
p418
g15
tp419
a(S'set the volume zero'
p420
g15
tp421
a(S'headlines'
p422
g15
tp423
a(S'please pause spotify'
p424
g15
tp425
a(S'can you add a new event please'
p426
g15
tp427
a(S'louder please'
p428
g15
tp429
a(S'could you open my mail'
p430
g15
tp431
a(S'please schedule an event'
p432
g15
tp433
a(S'am i free on sunday'
p434
g15
tp435
a(S'volume up'
p436
g15
tp437
a(S'google'
p438
g15
tp439
a(S"don't start a default browser"
p440
g15
tp441
a(S'please spotify pause the song'
p442
g15
tp443
a(S'please create an event'
p444
g15
tp445
a(S'schedule event'
p446
g15
tp447
a(S'please pause song'
p448
g15
tp449
a(S'news feed'
p450
g15
tp451
a(S'what do i have to do on sunday'
p452
g15
tp453
a(S'get the information'
p454
g15
tp455
a(S"what's if it's snowing this week"
p456
g15
tp457
a(S'is there anything i have to do on next'
p458
g15
tp459
a(S"how's the temperature"
p460
g15
tp461
a(S'please check the clock'
p462
g15
tp463
a(S'can you shut up'
p464
g15
tp465
a(S'check google calendar on thursday'
p466
g15
tp467
a(S"don't i have to do anything"
p468
g15
tp469
a(S'please get the clock'
p470
g15
tp471
a(S'can you shut down the computer'
p472
g15
tp473
a(S"don't i have to do anything tomorrow"
p474
g15
tp475
a(S'could you check my mail please'
p476
g15
tp477
a(S'is it snowing this week'
p478
g15
tp479
a(S'open inbox'
p480
g15
tp481
a(S'what do i have to do'
p482
g15
tp483
a(S"what's new in inbox please"
p484
g15
tp485
a(S'can you schedule an event'
p486
g15
tp487
a(S'tell me the news'
p488
g15
tp489
a(S'open my inbox'
p490
g15
tp491
a(S"if it's hot today"
p492
g15
tp493
a(S'check events on tomorrow'
p494
g15
tp495
a(S'do i have anything in my inbox'
p496
g15
tp497
a(S'am i free for sunday'
p498
g15
tp499
a(S'check my inbox please'
p500
g15
tp501
a(S'please can you turn the volume higher'
p502
g15
tp503
a(S'do i have anything on thursday'
p504
g15
tp505
a(S'shutdown please'
p506
g15
tp507
a(S'am i free in a month'
p508
g15
tp509
a(S'please check your watch'
p510
g15
tp511
a(S'could you make event'
p512
g15
tp513
a(S'predict the outcome on a new document'
p514
g15
tp515
a(S'could you schedule new event please'
p516
g15
tp517
a(S'what do i have on tuesday'
p518
g15
tp519
a(S'am i free for friday'
p520
g15
tp521
a(S'what is in new mail'
p522
g15
tp523
a(S'could you please add an event'
p524
g15
tp525
a(S'check calendar on this day'
p526
g15
tp527
a(S'live news'
p528
g15
tp529
a(S'live newsfeed today'
p530
g15
tp531
a(S'close the current window'
p532
g15
tp533
a(S'please get me the clock'
p534
g15
tp535
a(S'what is new in new gmail'
p536
g15
tp537
a(S'spotify stop playing'
p538
g15
tp539
a(S'check calendar on today'
p540
g15
tp541
a(S'check google calendar for monday'
p542
g15
tp543
a(S'what do i have to do on this day'
p544
g15
tp545
a(S"what's the forecast this week"
p546
g15
tp547
a(S'what are the current events'
p548
g15
tp549
a(S"please what's in my inbox"
p550
g15
tp551
a(S'please create event'
p552
g15
tp553
a(S'please make a new event'
p554
g15
tp555
a(S'create an event'
p556
g15
tp557
a(S'please spotify pause'
p558
g15
tp559
a(S'please what is new in inbox'
p560
g15
tp561
a(S'please start'
p562
g70
tp563
a(S'play '
p564
g15
tp565
a(S'send me to the lock screen please'
p566
g15
tp567
a(S'check google calendar for today'
p568
g15
tp569
a(S'could you please add a new event'
p570
g15
tp571
a(S'google search'
p572
g15
tp573
a(S'can you check mail'
p574
g15
tp575
a(S'any gmail'
p576
g15
tp577
a(S'check events for tuesday'
p578
g15
tp579
a(S'what events do i have on sunday'
p580
g15
tp581
a(S"don't i have anything to do on friday"
p582
g15
tp583
a(S'please could you check gmail'
p584
g15
tp585
a(S'check my calendar on this month'
p586
g15
tp587
a(S'could you schedule a new event please'
p588
g15
tp589
a(S'could you schedule event please'
p590
g15
tp591
a(S'can you create an event please'
p592
g15
tp593
a(S"don't i have anything to do today"
p594
g15
tp595
a(S"get if it's snowing this week"
p596
g15
tp597
a(S"today's forecast"
p598
g15
tp599
a(S'am i free for tomorrow'
p600
g15
tp601
a(S'would you open inbox'
p602
g15
tp603
a(S'check my calendar for monday'
p604
g15
tp605
a(S'check events for'
p606
g15
tp607
a(S'can you turn up the sound'
p608
g15
tp609
a(S'do i have anything to do on tuesday'
p610
g15
tp611
a(S'please will you check my inbox'
p612
g15
tp613
a(S'can you please turn off the computer'
p614
g15
tp615
a(S"how's the weather this week"
p616
g15
tp617
a(S'see you'
p618
g15
tp619
a(S"if it's cloudy today"
p620
g15
tp621
a(S'what is in inbox please'
p622
g15
tp623
a(S'check google calendar for this month'
p624
g15
tp625
a(S"what's the time"
p626
g15
tp627
a(S'check my calendar for today'
p628
g15
tp629
a(S'is there anything i have to do on friday'
p630
g15
tp631
a(S'please stop song'
p632
g15
tp633
a(S'next spotify please'
p634
g15
tp635
a(S'could you check inbox please'
p636
g15
tp637
a(S'could you make event please'
p638
g15
tp639
a(S'search for'
p640
g15
tp641
a(S'close this window'
p642
g15
tp643
a(S'google search for'
p644
g15
tp645
a(S"i think i didn't answer an earlier question"
p646
g15
tp647
a(S'could you open my inbox'
p648
g15
tp649
a(S'google search please for'
p650
g15
tp651
a(S'spotify pause please'
p652
g15
tp653
a(S'is it snowing today'
p654
g15
tp655
a(S'could you please create an event'
p656
g15
tp657
a(S'give me the news please'
p658
g15
tp659
a(S"what're the current events"
p660
g15
tp661
a(S'check my calendar on today'
p662
g15
tp663
a(S'shut up'
p664
g15
tp665
a(S'can you turn up the tunez'
p666
g15
tp667
a(S'what are the newsfeed'
p668
g15
tp669
a(S'can you please kill the active window'
p670
g15
tp671
a(S'could you please schedule new event'
p672
g15
tp673
a(S'any events on friday'
p674
g15
tp675
a(S'see ya alice'
p676
g15
tp677
a(S"don't i have any events on friday"
p678
g15
tp679
a(S'create event'
p680
g15
tp681
a(S'add a new event please'
p682
g15
tp683
a(S'make the sound softer'
p684
g15
tp685
a(S'spotify next song '
p686
g15
tp687
a(S'tell me newsfeed'
p688
g15
tp689
a(S"don't i have anything on wednesday"
p690
g15
tp691
a(S'please do no open browser'
p692
g15
tp693
a(S"don't i have to do anything on sunday"
p694
g15
tp695
a(S'open'
p696
g70
tp697
a(S'do not start a default browser'
p698
g15
tp699
a(S'get forecast'
p700
g15
tp701
a(S'check google calendar on month'
p702
g15
tp703
a(S'open dot net'
p704
g70
tp705
a(S'get time'
p706
g15
tp707
a(S'can you please close the active window'
p708
g15
tp709
a(S"please what's new in inbox"
p710
g15
tp711
a(S'do i have any events on saturday'
p712
g15
tp713
a(S'what is new in new gmail please'
p714
g15
tp715
a(S'please search for'
p716
g15
tp717
a(S'can you shut my computer down'
p718
g15
tp719
a(S"please what's in my mail"
p720
g15
tp721
a(S'make event please'
p722
g15
tp723
a(S'can you add a new event'
p724
g15
tp725
a(S'what is in my inbox'
p726
g15
tp727
a(S"what's the current news"
p728
g15
tp729
a(S'make new event'
p730
g15
tp731
a(S'get current weather'
p732
g15
tp733
a(S'check calendar for monday'
p734
g15
tp735
a(S'please kill this window'
p736
g15
tp737
a(S'please can you turn up the volume'
p738
g15
tp739
a(S'could you schedule event'
p740
g15
tp741
a(S'check the current time please'
p742
g15
tp743
a(S'please create a new event'
p744
g15
tp745
a(S'any events on this day'
p746
g15
tp747
a(S'find current events'
p748
g15
tp749
a(S'open dot com'
p750
g70
tp751
a(S'could you open gmail'
p752
g15
tp753
a(S'tell me headlines'
p754
g15
tp755
a(S'can you open a browser please'
p756
g70
tp757
a(S'lower the sound'
p758
g15
tp759
a(S'please kill the active window'
p760
g15
tp761
a(S'is there anything i have to do on tomorrow'
p762
g15
tp763
a(S"don't i have anything"
p764
g15
tp765
a(S'turn up the volume'
p766
g15
tp767
a(S'make an event please'
p768
g15
tp769
a(S'could you please schedule a new event'
p770
g15
tp771
a(S'start browser'
p772
g70
tp773
a(S'what events are on'
p774
g15
tp775
a(S'please can you check my gmail'
p776
g15
tp777
a(S'go to dot com'
p778
g70
tp779
a(S'can you schedule event please'
p780
g15
tp781
a(S'will you open my inbox'
p782
g15
tp783
a(S'would you check my inbox please'
p784
g15
tp785
a(S'get the the latest headlines'
p786
g15
tp787
a(S'can you create an event'
p788
g15
tp789
a(S'check my calendar for thursday'
p790
g15
tp791
a(S'go ahead spotify please'
p792
g15
tp793
a(S'am i free on tomorrow'
p794
g15
tp795
a(S'close current window'
p796
g15
tp797
a(S'would you open gmail please'
p798
g15
tp799
a(S'check google calendar on this day'
p800
g15
tp801
a(S'please can you make it louder'
p802
g15
tp803
a(S'is it cold this week'
p804
g15
tp805
a(S'okay alice'
p806
g15
tp807
a(S'can you please create new event'
p808
g15
tp809
a(S'shut down'
p810
g15
tp811
a(S"aren't there any events on thursday"
p812
g15
tp813
a(S'open browser'
p814
g70
tp815
a(S'please read your watch'
p816
g15
tp817
a(S'can you make new event please'
p818
g15
tp819
a(S'what do i have on tomorrow'
p820
g15
tp821
a(S'could you create a new event'
p822
g15
tp823
a(S'make a new event please'
p824
g15
tp825
a(S'do i have any events on friday'
p826
g15
tp827
a(S'please check new gmail'
p828
g15
tp829
a(S'will you get the current events for me'
p830
g15
tp831
a(S"what're the live news"
p832
g15
tp833
a(S'please what is new in my inbox'
p834
g15
tp835
a(S'please spotify go '
p836
g15
tp837
a(S'please check my inbox'
p838
g15
tp839
a(S'check google calendar for this day'
p840
g15
tp841
a(S'is there anything i have to do on tuesday'
p842
g15
tp843
a(S'please shutdown'
p844
g15
tp845
a(S'can you check inbox'
p846
g15
tp847
a(S"if it's freezing today"
p848
g15
tp849
a(S'what is news feed'
p850
g15
tp851
a(S'stop'
p852
g15
tp853
a(S'the tale pretends'
p854
g15
tp855
a(S'do i have to do anything'
p856
g15
tp857
a(S'what is new in gmail'
p858
g15
tp859
a(S"what's the live news"
p860
g15
tp861
a(S'please close active window'
p862
g15
tp863
a(S'train a classifier to try to predict the category of a post'
p864
g15
tp865
a(S'can you add an event'
p866
g15
tp867
a(S'will you open my mail'
p868
g15
tp869
a(S"get if it's hot this week"
p870
g15
tp871
a(S"what's forecast"
p872
g15
tp873
a(S'retrieve the time'
p874
g15
tp875
a(S'please could you open my mail'
p876
g15
tp877
a(S'can you check new gmail please'
p878
g15
tp879
a(S'can you create new event'
p880
g15
tp881
a(S'would you open my inbox'
p882
g15
tp883
a(S'am i free for next'
p884
g15
tp885
a(S"what's in my inbox please"
p886
g15
tp887
a(S"don't i have any events on this day"
p888
g15
tp889
a(S'can you please shut down the computer'
p890
g15
tp891
a(S'please will you open inbox'
p892
g15
tp893
a(S'can you please add an event'
p894
g15
tp895
a(S'anything new in gmail'
p896
g15
tp897
a(S"get if it's cold this week"
p898
g15
tp899
a(S"what's in my mail please"
p900
g15
tp901
a(S'hey alex'
p902
g15
tp903
a(S'what events are on this day'
p904
g15
tp905
a(S'gather the latest headlines please'
p906
g15
tp907
a(S'please schedule a new event'
p908
g15
tp909
a(S'tell me news'
p910
g15
tp911
a(S"don't i have anything to do on saturday"
p912
g15
tp913
a(S'what is in my mail please'
p914
g15
tp915
a(S'could you schedule an event'
p916
g15
tp917
a(S'please get the news'
p918
g15
tp919
a(S'do i have any events on monday'
p920
g15
tp921
a(S'what are the the news'
p922
g15
tp923
a(S'add event please'
p924
g15
tp925
a(S'will you check my inbox please'
p926
g15
tp927
a(S'can you lock computer'
p928
g15
tp929
a(S'do not open browser'
p930
g15
tp931
a(S'please can you check my inbox'
p932
g15
tp933
a(S'am i free'
p934
g15
tp935
a(S'what is on my calendar for sunday'
p936
g15
tp937
a(S'schedule a new event please'
p938
g15
tp939
a(S'please check what time it is'
p940
g15
tp941
a(S'are there any events in a week'
p942
g15
tp943
a(S'kill current window'
p944
g15
tp945
a(S'could you schedule a new event'
p946
g15
tp947
a(S"this week's forecast"
p948
g15
tp949
a(S'can you schedule new event please'
p950
g15
tp951
a(S'google for please'
p952
g15
tp953
a(S'create event please'
p954
g15
tp955
a(S'can you turn the volume higher please'
p956
g15
tp957
a(S'open my inbox please'
p958
g15
tp959
a(S"don't start browser"
p960
g15
tp961
a(S"today's live news"
p962
g15
tp963
a(S'are there any events on next'
p964
g15
tp965
a(S'what is current events'
p966
g15
tp967
a(S"what's new in new gmail please"
p968
g15
tp969
a(S'any new gmail'
p970
g15
tp971
a(S'what is on my calendar for wednesday'
p972
g15
tp973
a(S'any events on thursday'
p974
g15
tp975
a(S'check mail'
p976
g15
tp977
a(S'check calendar for today'
p978
g15
tp979
a(S'do i have anything on monday'
p980
g15
tp981
a(S'please spotify start'
p982
g15
tp983
a(S'is there anything to do today'
p984
g15
tp985
a(S'do i have anything to do'
p986
g15
tp987
a(S'do i have any events on tomorrow'
p988
g15
tp989
a(S'what are the live newsfeed'
p990
g15
tp991
a(S'search google please for'
p992
g15
tp993
a(S'please check my gmail'
p994
g15
tp995
a(S'check calendar for'
p996
g15
tp997
a(S"get if it's hot today"
p998
g15
tp999
a(S'get news feed'
p1000
g15
tp1001
a(S'please do not start a browser'
p1002
g15
tp1003
a(S'turn up the beat'
p1004
g15
tp1005
a(S'check calendar on thursday'
p1006
g15
tp1007
a(S'check calendar for this day'
p1008
g15
tp1009
a(S'what do i have to do on thursday'
p1010
g15
tp1011
a(S'are there any events on tomorrow'
p1012
g15
tp1013
a(S'please could you open my gmail'
p1014
g15
tp1015
a(S'can you turn yourself off'
p1016
g15
tp1017
a(S"what's if it's cloudy today"
p1018
g15
tp1019
a(S'can you lock computer please'
p1020
g15
tp1021
a(S"what's the current events"
p1022
g15
tp1023
a(S'can you make an event please'
p1024
g15
tp1025
a(S'open mail please'
p1026
g15
tp1027
a(S'is there anything to do in a month'
p1028
g15
tp1029
a(S'please add an event'
p1030
g15
tp1031
a(S"please what's in new gmail"
p1032
g15
tp1033
a(S"don't i have to do anything on next"
p1034
g15
tp1035
a(S'can you please close active window'
p1036
g15
tp1037
a(S'is there anything to do on thursday'
p1038
g15
tp1039
a(S'check my calendar'
p1040
g15
tp1041
a(S'do i have anything to do on friday'
p1042
g15
tp1043
a(S'turn off my computer'
p1044
g15
tp1045
a(S'is there anything i have to do'
p1046
g15
tp1047
a(S'shut down the computer'
p1048
g15
tp1049
a(S'please could you check inbox'
p1050
g15
tp1051
a(S'anything in inbox'
p1052
g15
tp1053
a(S"what's in mail please"
p1054
g15
tp1055
a(S'can you check new mail'
p1056
g15
tp1057
a(S"don't i have anything in a week"
p1058
g15
tp1059
a(S'what events are on saturday'
p1060
g15
tp1061
a(S'are there any events on'
p1062
g15
tp1063
a(S'volume higher please'
p1064
g15
tp1065
a(S'please open my mail'
p1066
g15
tp1067
a(S'turn the tune down'
p1068
g15
tp1069
a(S'what do i have to do on today'
p1070
g15
tp1071
a(S"what's in new gmail"
p1072
g15
tp1073
a(S"don't i have anything to do on"
p1074
g15
tp1075
a(S'please spotify last'
p1076
g15
tp1077
a(S"please don't open a browser"
p1078
g15
tp1079
a(S"what're the the news"
p1080
g15
tp1081
a(S'check google calendar for sunday'
p1082
g15
tp1083
a(S"what's new in my inbox"
p1084
g15
tp1085
a(S'what is newsfeed'
p1086
g15
tp1087
a(S'current weather'
p1088
g15
tp1089
a(S"if it's snowing this week"
p1090
g15
tp1091
a(S'get current forecast'
p1092
g15
tp1093
a(S'find live newsfeed'
p1094
g15
tp1095
a(S"get if it's freezing this week"
p1096
g15
tp1097
a(S'news now please'
p1098
g15
tp1099
a(S'do i have to do anything next'
p1100
g15
tp1101
a(S'would you check my inbox'
p1102
g15
tp1103
a(S'make event'
p1104
g15
tp1105
a(S'will you open mail'
p1106
g15
tp1107
a(S'anything in gmail'
p1108
g15
tp1109
a(S'is there anything to do on saturday'
p1110
g15
tp1111
a(S'what events are on wednesday'
p1112
g15
tp1113
a(S'will you check inbox please'
p1114
g15
tp1115
a(S'current events'
p1116
g15
tp1117
a(S'would you open inbox please'
p1118
g15
tp1119
a(S"don't i have anything to do on this day"
p1120
g15
tp1121
a(S'can you lock the screen'
p1122
g15
tp1123
a(S'what events do i have on thursday'
p1124
g15
tp1125
a(S'please close the active window'
p1126
g15
tp1127
a(S'spotify previous song please'
p1128
g15
tp1129
a(S'please sound higher'
p1130
g15
tp1131
a(S'check google calendar for this week'
p1132
g15
tp1133
a(S'is there anything i have to do on saturday'
p1134
g15
tp1135
a(S'google for'
p1136
g15
tp1137
a(S'please will you open my mail'
p1138
g15
tp1139
a(S'what do i have to do on monday'
p1140
g15
tp1141
a(S'any events on'
p1142
g15
tp1143
a(S'are there any events on friday'
p1144
g15
tp1145
a(S'start browser please'
p1146
g70
tp1147
a(S'can you please shut up'
p1148
g15
tp1149
a(S"what's in inbox"
p1150
g15
tp1151
a(S"get if it's snowing today"
p1152
g15
tp1153
a(S'check my calendar on monday'
p1154
g15
tp1155
a(S'schedule an event'
p1156
g15
tp1157
a(S'increase the volume'
p1158
g15
tp1159
a(S'check events for saturday'
p1160
g15
tp1161
a(S'get weather'
p1162
g15
tp1163
a(S'find the current events'
p1164
g15
tp1165
a(S'check google calendar on friday'
p1166
g15
tp1167
a(S'how is the forecast'
p1168
g15
tp1169
a(S'please shut off'
p1170
g15
tp1171
a(S"aren't there any events on"
p1172
g15
tp1173
a(S'read the time'
p1174
g15
tp1175
a(S"what's new in mail please"
p1176
g15
tp1177
a(S'any events'
p1178
g15
tp1179
a(S'what is on my calendar for thursday'
p1180
g15
tp1181
a(S"don't i have to do anything in a week"
p1182
g15
tp1183
a(S'spotify go back'
p1184
g15
tp1185
a(S'kill the active program'
p1186
g15
tp1187
a(S'start default browser'
p1188
g70
tp1189
a(S'could you create an event please'
p1190
g15
tp1191
a(S'any events on next'
p1192
g15
tp1193
a(S'check my calendar on saturday'
p1194
g15
tp1195
a(S"please don't open"
p1196
g15
tp1197
a(S'can you make an event'
p1198
g15
tp1199
a(S'is it freezing today'
p1200
g15
tp1201
a(S'can you schedule new event'
p1202
g15
tp1203
a(S'please search google for'
p1204
g15
tp1205
a(S'please shutdown my computer'
p1206
g15
tp1207
a(S'open dot ee dee you'
p1208
g70
tp1209
a(S'a backbone dictates above my grief'
p1210
g15
tp1211
a(S"don't i have any events in a week"
p1212
g15
tp1213
a(S'please kill the window'
p1214
g15
tp1215
a(S"get this week's temperature"
p1216
g15
tp1217
a(S'spotify pause'
p1218
g15
tp1219
a(S'open a browser'
p1220
g70
tp1221
a(S'open browser please'
p1222
g70
tp1223
a(S'please what is in my inbox'
p1224
g15
tp1225
a(S'please what is new in mail'
p1226
g15
tp1227
a(S"what's if it's freezing today"
p1228
g15
tp1229
a(S'make the sound louder'
p1230
g15
tp1231
a(S'set the volume to zero'
p1232
g15
tp1233
a(S'what is in the news today'
p1234
g15
tp1235
a(S'what is on my calendar for'
p1236
g15
tp1237
a(S'please close this window'
p1238
g15
tp1239
a(S'would you open gmail'
p1240
g15
tp1241
a(S"what're the live newsfeed"
p1242
g15
tp1243
a(S'read time please'
p1244
g15
tp1245
a(S"aren't there any events on tomorrow"
p1246
g15
tp1247
a(S'turn my computer off please'
p1248
g15
tp1249
a(S'please could you open my inbox'
p1250
g15
tp1251
a(S"aren't there any events on saturday"
p1252
g15
tp1253
a(S'what is on my calendar for this week'
p1254
g15
tp1255
a(S'check my calendar on sunday'
p1256
g15
tp1257
a(S'can you schedule an event please'
p1258
g15
tp1259
a(S'could you add new event'
p1260
g15
tp1261
a(S'is there anything i have to do on today'
p1262
g15
tp1263
a(S'do i have to do anything in a month'
p1264
g15
tp1265
a(S'make the sound quieter'
p1266
g15
tp1267
a(S'what events do i have on'
p1268
g15
tp1269
a(S'can you turn up the beat'
p1270
g15
tp1271
a(S'can you schedule a new event'
p1272
g15
tp1273
a(S'fake news'
p1274
g15
tp1275
a(S'open my mail please'
p1276
g15
tp1277
a(S'intelligence report'
p1278
g15
tp1279
a(S'turn up the sound please'
p1280
g15
tp1281
a(S'please close the window'
p1282
g15
tp1283
a(S'make the volume softer'
p1284
g15
tp1285
a(S'spotify skip ahead'
p1286
g15
tp1287
a(S'check my calendar on friday'
p1288
g15
tp1289
a(S'spotify go ahead'
p1290
g15
tp1291
a(S'am i free for this day'
p1292
g15
tp1293
a(S'can you make event please'
p1294
g15
tp1295
a(S'am i free for thursday'
p1296
g15
tp1297
a(S'could you check new gmail'
p1298
g15
tp1299
a(S'can you open this program'
p1300
g15
tp1301
a(S'would you check new mail please'
p1302
g15
tp1303
a(S'please be quiet'
p1304
g15
tp1305
a(S"get if it's foggy this week"
p1306
g15
tp1307
a(S'get news now'
p1308
g15
tp1309
a(S'turn it down'
p1310
g15
tp1311
a(S'close browser'
p1312
g15
tp1313
a(S'brief me'
p1314
g15
tp1315
a(S'will you open gmail'
p1316
g15
tp1317
a(S'get the current time'
p1318
g15
tp1319
a(S'what is in new mail please'
p1320
g15
tp1321
a(S'are there any events on wednesday'
p1322
g15
tp1323
a(S"please what's in new mail"
p1324
g15
tp1325
a(S"don't i have any events on monday"
p1326
g15
tp1327
a(S'start a browser'
p1328
g70
tp1329
a(S"don't i have anything to do on sunday"
p1330
g15
tp1331
a(S'create new event please'
p1332
g15
tp1333
a(S'next song'
p1334
g15
tp1335
a(S"don't i have anything to do"
p1336
g15
tp1337
a(S'can you make new event'
p1338
g15
tp1339
a(S'please spotify play previous song'
p1340
g15
tp1341
a(S'google search for please'
p1342
g15
tp1343
a(S'google please'
p1344
g15
tp1345
a(S'do i have any events on wednesday'
p1346
g15
tp1347
a(S'check google calendar for tuesday'
p1348
g15
tp1349
a(S'will you open gmail please'
p1350
g15
tp1351
a(S'current news today'
p1352
g15
tp1353
a(S'please search google'
p1354
g15
tp1355
a(S'check my calendar for saturday'
p1356
g15
tp1357
a(S'extract the features using almost the same feature'
p1358
g15
tp1359
a(S'can you shut down'
p1360
g15
tp1361
a(S'spotify last song please'
p1362
g15
tp1363
a(S'close current program'
p1364
g15
tp1365
a(S'can you please make a new event'
p1366
g15
tp1367
a(S"how's the temperature this week"
p1368
g15
tp1369
a(S'please do not go to'
p1370
g15
tp1371
a(S"aren't there any events on next"
p1372
g15
tp1373
a(S'am i free on saturday'
p1374
g15
tp1375
a(S'will you check my gmail please'
p1376
g15
tp1377
a(S'do i have to do anything on wednesday'
p1378
g15
tp1379
a(S'news today'
p1380
g15
tp1381
a(S'shut down my computer please'
p1382
g15
tp1383
a(S'issue commands'
p1384
g15
tp1385
a(S'what is current news'
p1386
g15
tp1387
a(S'spotify pause please'
p1388
g15
tp1389
a(S'start a browser please'
p1390
g70
tp1391
a(S'shut my computer down please'
p1392
g15
tp1393
a(S'would you check inbox please'
p1394
g15
tp1395
a(S"please what's in mail"
p1396
g15
tp1397
a(S"what're the headlines"
p1398
g15
tp1399
a(S'get time please'
p1400
g15
tp1401
a(S'search google for please'
p1402
g15
tp1403
a(S'could you check my mail'
p1404
g15
tp1405
a(S'can you please add a new event'
p1406
g15
tp1407
a(S'bye bye alice'
p1408
g15
tp1409
a(S"don't i have to do anything on saturday"
p1410
g15
tp1411
a(S"what're the newsfeed"
p1412
g15
tp1413
a(S'could you open my inbox please'
p1414
g15
tp1415
a(S'check events'
p1416
g15
tp1417
a(S'start a default browser please'
p1418
g70
tp1419
a(S'is there anything i have to do on'
p1420
g15
tp1421
a(S'check events on tuesday'
p1422
g15
tp1423
a(S'can you exit'
p1424
g15
tp1425
a(S"don't i have anything on friday"
p1426
g15
tp1427
a(S'lock my computer'
p1428
g15
tp1429
a(S'turn up the volume please'
p1430
g15
tp1431
a(S'current time'
p1432
g15
tp1433
a(S"please don't start browsing"
p1434
g15
tp1435
a(S"don't open default browser"
p1436
g15
tp1437
a(S'could you create event please'
p1438
g15
tp1439
a(S'what events do i have in a month'
p1440
g15
tp1441
a(S'music down'
p1442
g15
tp1443
a(S'how is the temperature'
p1444
g15
tp1445
a(S'shut down my computer'
p1446
g15
tp1447
a(S'are there any events on tuesday'
p1448
g15
tp1449
a(S'please sound up'
p1450
g15
tp1451
a(S'turn up the tunez please'
p1452
g15
tp1453
a(S'check calendar'
p1454
g15
tp1455
a(S'check calendar on'
p1456
g15
tp1457
a(S'could you please make an event'
p1458
g15
tp1459
a(S'mute'
p1460
g15
tp1461
a(S'give me the current events'
p1462
g15
tp1463
a(S'what is new in mail please'
p1464
g15
tp1465
a(S'tell me live news'
p1466
g15
tp1467
a(S'close a broswer'
p1468
g15
tp1469
a(S'please start a default browser'
p1470
g70
tp1471
a(S'please pause the song'
p1472
g15
tp1473
a(S"don't i have any events on wednesday"
p1474
g15
tp1475
a(S'stop spotify'
p1476
g15
tp1477
a(S'alice next please'
p1478
g15
tp1479
a(S'please tell me whats going on in the news please'
p1480
g15
tp1481
a(S'please start a browser'
p1482
g70
tp1483
a(S"don't i have any events on sunday"
p1484
g15
tp1485
a(S'do i have anything to do in a month'
p1486
g15
tp1487
a(S'please spotify play last song'
p1488
g15
tp1489
a(S"aren't there any events in a week"
p1490
g15
tp1491
a(S'can you please kill the window'
p1492
g15
tp1493
a(S'do i have anything to do on next'
p1494
g15
tp1495
a(S'find current news'
p1496
g15
tp1497
a(S'please google'
p1498
g15
tp1499
a(S'please search'
p1500
g15
tp1501
a(S'please read the clock'
p1502
g15
tp1503
a(S"what's temperature"
p1504
g15
tp1505
a(S'will you check gmail please'
p1506
g15
tp1507
a(S"what's the temperature this week"
p1508
g15
tp1509
a(S'pause song please'
p1510
g15
tp1511
a(S'please could you open gmail'
p1512
g15
tp1513
a(S"please what's in inbox"
p1514
g15
tp1515
a(S"don't start browsing"
p1516
g15
tp1517
a(S'am i free on tuesday'
p1518
g15
tp1519
a(S'do not start browser'
p1520
g15
tp1521
a(S'do i have anything to do on thursday'
p1522
g15
tp1523
a(S'pause the song please'
p1524
g15
tp1525
a(S"aren't there any events on today"
p1526
g15
tp1527
a(S'please shut my computer down'
p1528
g15
tp1529
a(S'read your watch'
p1530
g15
tp1531
a(S'please would you open my inbox'
p1532
g15
tp1533
a(S'search'
p1534
g15
tp1535
a(S"don't open a default browser"
p1536
g15
tp1537
a(S'check calendar for friday'
p1538
g15
tp1539
a(S'news'
p1540
g15
tp1541
a(S'check events for this day'
p1542
g15
tp1543
a(S'start browsing'
p1544
g70
tp1545
a(S"don't i have any events in a month"
p1546
g15
tp1547
a(S'anything in mail'
p1548
g15
tp1549
a(S'search google for'
p1550
g15
tp1551
a(S"today's news feed"
p1552
g15
tp1553
a(S'please what is in new gmail'
p1554
g15
tp1555
a(S'please get the current events'
p1556
g15
tp1557
a(S'am i free on thursday'
p1558
g15
tp1559
a(S'check google calendar for wednesday'
p1560
g15
tp1561
a(S'retrieve the current time'
p1562
g15
tp1563
a(S"this week's forecast"
p1564
g15
tp1565
a(S'can you please make new event'
p1566
g15
tp1567
a(S'please volume higher'
p1568
g15
tp1569
a(S'can you please turn my computer off'
p1570
g15
tp1571
a(S'please can you check new gmail'
p1572
g15
tp1573
a(S'please would you open mail'
p1574
g15
tp1575
a(S'good bye'
p1576
g15
tp1577
a(S'what events are on next'
p1578
g15
tp1579
a(S'what events do i have on saturday'
p1580
g15
tp1581
a(S'current events please'
p1582
g15
tp1583
a(S"what's the clock"
p1584
g15
tp1585
a(S'open a browser please'
p1586
g70
tp1587
a(S'shut off'
p1588
g15
tp1589
a(S'check my calendar on tomorrow'
p1590
g15
tp1591
a(S"don't i have anything to do on monday"
p1592
g15
tp1593
a(S'open dot org'
p1594
g70
tp1595
a(S'am i free for saturday'
p1596
g15
tp1597
a(S'what is new in my gmail'
p1598
g15
tp1599
a(S'please open a browser'
p1600
g70
tp1601
a(S'please add a new event'
p1602
g15
tp1603
a(S"please what's new in my inbox"
p1604
g15
tp1605
a(S'do i have to do anything on friday'
p1606
g15
tp1607
a(S'what are the news feed'
p1608
g15
tp1609
a(S'is there anything i have to do on sunday'
p1610
g15
tp1611
a(S"what's the newsfeed"
p1612
g15
tp1613
a(S'can you get the current events'
p1614
g15
tp1615
a(S"don't open"
p1616
g15
tp1617
a(S'turn up the beat please'
p1618
g15
tp1619
a(S'can you create a new event please'
p1620
g15
tp1621
a(S'do i have anything to do on this day'
p1622
g15
tp1623
a(S'please turn it up'
p1624
g15
tp1625
a(S'do i have anything to do on saturday'
p1626
g15
tp1627
a(S'search please for'
p1628
g15
tp1629
a(S'can you turn off my computer'
p1630
g15
tp1631
a(S'please can you check gmail'
p1632
g15
tp1633
a(S'check my inbox'
p1634
g15
tp1635
a(S"what's this week's forecast"
p1636
g15
tp1637
a(S'do i have any events on'
p1638
g15
tp1639
a(S'can you check my gmail'
p1640
g15
tp1641
a(S'what is in my gmail please'
p1642
g15
tp1643
a(S'what is on my calendar for monday'
p1644
g15
tp1645
a(S'please open gmail'
p1646
g15
tp1647
a(S'get the clock please'
p1648
g15
tp1649
a(S"what're the news"
p1650
g15
tp1651
a(S'can you please kill current window'
p1652
g15
tp1653
a(S"don't i have to do anything on wednesday"
p1654
g15
tp1655
a(S'stop the tunez'
p1656
g15
tp1657
a(S'whats going on in the world todays please'
p1658
g15
tp1659
a(S'decrease the volume'
p1660
g15
tp1661
a(S'turn up the tune'
p1662
g15
tp1663
a(S'will it hail today'
p1664
g15
tp1665
a(S'go spotify please'
p1666
g15
tp1667
a(S'can you schedule event'
p1668
g15
tp1669
a(S"how's the temperature today"
p1670
g15
tp1671
a(S'read the clock'
p1672
g15
tp1673
a(S'can you shut off'
p1674
g15
tp1675
a(S'check inbox'
p1676
g15
tp1677
a(S"don't i have to do anything on"
p1678
g15
tp1679
a(S'lock my computer please'
p1680
g15
tp1681
a(S'schedule a new event'
p1682
g15
tp1683
a(S'will you check new gmail'
p1684
g15
tp1685
a(S"what's the live news feed"
p1686
g15
tp1687
a(S'please kill active window'
p1688
g15
tp1689
a(S"what's the weather"
p1690
g15
tp1691
a(S"don't i have any events on tomorrow"
p1692
g15
tp1693
a(S'can you please shut my computer down'
p1694
g15
tp1695
a(S'please will you check my mail'
p1696
g15
tp1697
a(S'are there any events on today'
p1698
g15
tp1699
a(S'check my calendar for this day'
p1700
g15
tp1701
a(S'play song'
p1702
g15
tp1703
a(S'could you make new event please'
p1704
g15
tp1705
a(S'check events for monday'
p1706
g15
tp1707
a(S"what's new in my mail please"
p1708
g15
tp1709
a(S'anything new in my mail'
p1710
g15
tp1711
a(S'turn off the computer'
p1712
g15
tp1713
a(S"don't i have anything to do tomorrow"
p1714
g15
tp1715
a(S'will you check gmail'
p1716
g15
tp1717
a(S'google please for'
p1718
g15
tp1719
a(S'check google calendar on this week'
p1720
g15
tp1721
a(S'is there anything i have to do tomorrow'
p1722
g15
tp1723
a(S'what is new in my inbox please'
p1724
g15
tp1725
a(S'is it hot this week'
p1726
g15
tp1727
a(S'please would you check my inbox'
p1728
g15
tp1729
a(S"don't i have to do anything on this day"
p1730
g15
tp1731
a(S'kill the program'
p1732
g15
tp1733
a(S'get me the news todays'
p1734
g15
tp1735
a(S'please will you check mail'
p1736
g15
tp1737
a(S"this week's temperature"
p1738
g15
tp1739
a(S'would you check mail please'
p1740
g15
tp1741
a(S"what's in my gmail please"
p1742
g15
tp1743
a(S'turn the beat down'
p1744
g15
tp1745
a(S'please will you open gmail'
p1746
g15
tp1747
a(S"get this week's forecast"
p1748
g15
tp1749
a(S'will it snow today'
p1750
g15
tp1751
a(S'is there anything i have to do on this day'
p1752
g15
tp1753
a(S'check events on thursday'
p1754
g15
tp1755
a(S'could you schedule new event'
p1756
g15
tp1757
a(S"please what's new in my gmail"
p1758
g15
tp1759
a(S'get headlines'
p1760
g15
tp1761
a(S'turn yourself off please'
p1762
g15
tp1763
a(S'make new event please'
p1764
g15
tp1765
a(S'can you please turn up the tunez'
p1766
g15
tp1767
a(S'check calendar for this day'
p1768
g15
tp1769
a(S'would you check new gmail'
p1770
g15
tp1771
a(S'do i have anything tomorrow'
p1772
g15
tp1773
a(S'check new gmail'
p1774
g15
tp1775
a(S'am i free for a month'
p1776
g15
tp1777
a(S'check events on today'
p1778
g15
tp1779
a(S'please could you check new gmail'
p1780
g15
tp1781
a(S'can you unmute please'
p1782
g15
tp1783
a(S'spotify previous please'
p1784
g15
tp1785
a(S'please do not start browsing'
p1786
g15
tp1787
a(S'pause spotify please'
p1788
g15
tp1789
a(S'please make new event'
p1790
g15
tp1791
a(S'can you check my inbox'
p1792
g15
tp1793
a(S'please do not open'
p1794
g15
tp1795
a(S'can you please open a browser'
p1796
g70
tp1797
a(S'shut up please'
p1798
g15
tp1799
a(S'check google calendar on today'
p1800
g15
tp1801
a(S'get me the clock'
p1802
g15
tp1803
a(S'please get the time'
p1804
g15
tp1805
a(S'emergency shutdown'
p1806
g15
tp1807
a(S'what is news'
p1808
g15
tp1809
a(S'create a new event'
p1810
g15
tp1811
a(S'what do i have on wednesday'
p1812
g15
tp1813
a(S'please open my inbox'
p1814
g15
tp1815
a(S"please what's new in mail"
p1816
g15
tp1817
a(S'please turn off'
p1818
g15
tp1819
a(S"don't i have anything on sunday"
p1820
g15
tp1821
a(S'what is new in new mail'
p1822
g15
tp1823
a(S'could you check my gmail'
p1824
g15
tp1825
a(S'what do i have on monday'
p1826
g15
tp1827
a(S"if it's cold this week"
p1828
g15
tp1829
a(S'am i free today'
p1830
g15
tp1831
a(S'can you please close current window'
p1832
g15
tp1833
a(S'would you check gmail please'
p1834
g15
tp1835
a(S"don't i have any events on next"
p1836
g15
tp1837
a(S"don't i have to do anything on thursday"
p1838
g15
tp1839
a(S'would you check my mail please'
p1840
g15
tp1841
a(S'would you check inbox'
p1842
g15
tp1843
a(S"how's the forecast today"
p1844
g15
tp1845
a(S'get the current events'
p1846
g15
tp1847
a(S'sweet dreams'
p1848
g15
tp1849
a(S'start'
p1850
g70
tp1851
a(S'can you turn up the tune'
p1852
g15
tp1853
a(S"don't i have to do anything on thursday"
p1854
g15
tp1855
a(S"please don't start default browser"
p1856
g15
tp1857
a(S'can you please exit'
p1858
g15
tp1859
a(S'google search please'
p1860
g15
tp1861
a(S"today's weather"
p1862
g15
tp1863
a(S'do i have anything'
p1864
g15
tp1865
a(S"today's live newsfeed"
p1866
g15
tp1867
a(S'could you open my gmail please'
p1868
g15
tp1869
a(S'please turn my computer off'
p1870
g15
tp1871
a(S'check calendar on sunday'
p1872
g15
tp1873
a(S'get me the clock please'
p1874
g15
tp1875
a(S'please will you open my inbox'
p1876
g15
tp1877
a(S"what's the news"
p1878
g15
tp1879
a(S'would you check mail'
p1880
g15
tp1881
a(S'could you add event please'
p1882
g15
tp1883
a(S'turn the beat down please'
p1884
g15
tp1885
a(S'is it rainy today'
p1886
g15
tp1887
a(S"please what's new in new mail"
p1888
g15
tp1889
a(S'please what is in gmail'
p1890
g15
tp1891
a(S'check my calendar on next'
p1892
g15
tp1893
a(S'can you check my gmail please'
p1894
g15
tp1895
a(S'could you add an event please'
p1896
g15
tp1897
a(S'retrieve the current time please'
p1898
g15
tp1899
a(S'get current time please'
p1900
g15
tp1901
a(S'can you please make an event'
p1902
g15
tp1903
a(S"what's the temperature"
p1904
g15
tp1905
a(S'please could you open inbox'
p1906
g15
tp1907
a(S'check events on saturday'
p1908
g15
tp1909
a(S'turn up the volume'
p1910
g15
tp1911
a(S'sound higher please'
p1912
g15
tp1913
a(S'turn off please'
p1914
g15
tp1915
a(S"get if it's raining this week"
p1916
g15
tp1917
a(S'turn yourself off'
p1918
g15
tp1919
a(S"don't open a broswer"
p1920
g15
tp1921
a(S'can you please close this window'
p1922
g15
tp1923
a(S'is there anything i have to do on thursday'
p1924
g15
tp1925
a(S'please will you check my gmail'
p1926
g15
tp1927
a(S'will you check new mail please'
p1928
g15
tp1929
a(S'check calendar on this week'
p1930
g15
tp1931
a(S"what's new in my gmail"
p1932
g15
tp1933
a(S'what events do i have on today'
p1934
g15
tp1935
a(S'spotify start the song please'
p1936
g15
tp1937
a(S'check google calendar for this day'
p1938
g15
tp1939
a(S'what do i have on saturday'
p1940
g15
tp1941
a(S'when is it please'
p1942
g15
tp1943
a(S"what's new in new gmail"
p1944
g15
tp1945
a(S'anything new in inbox'
p1946
g15
tp1947
a(S'lock the screen'
p1948
g15
tp1949
a(S'put me on the lock screen please'
p1950
g15
tp1951
a(S"don't i have any events on saturday"
p1952
g15
tp1953
a(S'would you open my gmail'
p1954
g15
tp1955
a(S'schedule an event please'
p1956
g15
tp1957
a(S'mute please'
p1958
g15
tp1959
a(S"what's new in my mail"
p1960
g15
tp1961
a(S'check calendar'
p1962
g15
tp1963
a(S'turn it up please'
p1964
g15
tp1965
a(S'what is on my calendar for tuesday'
p1966
g15
tp1967
a(S'the news'
p1968
g15
tp1969
a(S'check my calendar on'
p1970
g15
tp1971
a(S"what're the live news feed"
p1972
g15
tp1973
a(S'please go to dot com'
p1974
g70
tp1975
a(S'check events for tomorrow'
p1976
g15
tp1977
a(S"get if it's cold today"
p1978
g15
tp1979
a(S'check google calendar on next'
p1980
g15
tp1981
a(S'any events on tuesday'
p1982
g15
tp1983
a(S"aren't there any events on monday"
p1984
g15
tp1985
a(S'what is on my calendar for tomorrow'
p1986
g15
tp1987
a(S'make the volume zero'
p1988
g15
tp1989
a(S'do i have any events on thursday'
p1990
g15
tp1991
a(S'lower the volume'
p1992
g15
tp1993
a(S'check google calendar'
p1994
g15
tp1995
a(S'find newsfeed'
p1996
g15
tp1997
a(S'live news feed today'
p1998
g15
tp1999
a(S'can you make a new event please'
p2000
g15
tp2001
a(S"what's new in my gmail please"
p2002
g15
tp2003
a(S'spotify stop the song '
p2004
g15
tp2005
a(S"don't i have anything tomorrow"
p2006
g15
tp2007
a(S'what is on my calendar for today'
p2008
g15
tp2009
a(S'what do i have to do on next'
p2010
g15
tp2011
a(S"what's new in new mail"
p2012
g15
tp2013
a(S'quit'
p2014
g15
tp2015
a(S"today's forecast"
p2016
g15
tp2017
a(S'can you check my mail'
p2018
g15
tp2019
a(S'add a new event'
p2020
g15
tp2021
a(S'please when is it'
p2022
g15
tp2023
a(S'will you open my mail please'
p2024
g15
tp2025
a(S'lock computer'
p2026
g15
tp2027
a(S'what is new in inbox please'
p2028
g15
tp2029
a(S"don't i have to do anything on wednesday"
p2030
g15
tp2031
a(S'please start default browser'
p2032
g70
tp2033
a(S'check google calendar for'
p2034
g15
tp2035
a(S'could you add a new event'
p2036
g15
tp2037
a(S'spotify next'
p2038
g15
tp2039
a(S'good night alice'
p2040
g15
tp2041
a(S'can you create event'
p2042
g15
tp2043
a(S'do i have any events on sunday'
p2044
g15
tp2045
a(S'any events on sunday'
p2046
g15
tp2047
a(S'read your watch please'
p2048
g15
tp2049
a(S'please retrieve what time it is'
p2050
g15
tp2051
a(S'any events on today'
p2052
g15
tp2053
a(S'what is in gmail'
p2054
g15
tp2055
a(S'what is new in my mail'
p2056
g15
tp2057
a(S'last song please'
p2058
g15
tp2059
a(S'please google search for'
p2060
g15
tp2061
a(S'what events do i have on this day'
p2062
g15
tp2063
a(S'do i have to do anything today'
p2064
g15
tp2065
a(S"if it's foggy this week"
p2066
g15
tp2067
a(S'check your watch'
p2068
g15
tp2069
a(S'spotify shut up'
p2070
g15
tp2071
a(S'what are the current events today'
p2072
g15
tp2073
a(S"what's new in inbox"
p2074
g15
tp2075
a(S'read me the clock'
p2076
g15
tp2077
a(S"get this week's weather"
p2078
g15
tp2079
a(S'go to dot gov'
p2080
g70
tp2081
a(S'could you please add event'
p2082
g15
tp2083
a(S'could you create an event'
p2084
g15
tp2085
a(S'check my gmail'
p2086
g15
tp2087
a(S'unmute'
p2088
g15
tp2089
a(S'check calendar on next'
p2090
g15
tp2091
a(S'do i have to do anything on thursday'
p2092
g15
tp2093
a(S"don't i have anything on monday"
p2094
g15
tp2095
a(S'please what is new in my gmail'
p2096
g15
tp2097
a(S'kill window'
p2098
g15
tp2099
a(S'find news feed'
p2100
g15
tp2101
a(S'would you check new gmail please'
p2102
g15
tp2103
a(S'check if i have anything in my inbox'
p2104
g15
tp2105
a(S'get clock'
p2106
g15
tp2107
a(S'are there any events on thursday'
p2108
g15
tp2109
a(S'is there anything i have to do in a month'
p2110
g15
tp2111
a(S'check google calendar for thursday'
p2112
g15
tp2113
a(S'will it rain today'
p2114
g15
tp2115
a(S'any mail'
p2116
g15
tp2117
a(S'do not open a default browser'
p2118
g15
tp2119
a(S'please make event'
p2120
g15
tp2121
a(S'could you create a new event please'
p2122
g15
tp2123
a(S'shutdown my computer please'
p2124
g15
tp2125
a(S'would you check gmail'
p2126
g15
tp2127
a(S'would you open my inbox please'
p2128
g15
tp2129
a(S'is there anything to do in a week'
p2130
g15
tp2131
a(S'gather information on'
p2132
g15
tp2133
a(S'get newsfeed'
p2134
g15
tp2135
a(S'could you open inbox'
p2136
g15
tp2137
a(S'is there anything i have to do in a week'
p2138
g15
tp2139
a(S'check events for this week'
p2140
g15
tp2141
a(S'a decent problem gossips beside the shoulder'
p2142
g15
tp2143
a(S"don't i have anything on next"
p2144
g15
tp2145
a(S'check my calendar for sunday'
p2146
g15
tp2147
a(S'please make an event'
p2148
g15
tp2149
a(S'what is in new gmail'
p2150
g15
tp2151
a(S"aren't there any events on this day"
p2152
g15
tp2153
a(S'will you check new gmail please'
p2154
g15
tp2155
a(S'what events are going on right now'
p2156
g15
tp2157
a(S'open default browser'
p2158
g70
tp2159
a(S'can you lock the screen please'
p2160
g15
tp2161
a(S'please google for'
p2162
g15
tp2163
a(S'please get clock'
p2164
g15
tp2165
a(S'open mail'
p2166
g15
tp2167
a(S'please would you check my mail'
p2168
g15
tp2169
a(S'am i free on friday'
p2170
g15
tp2171
a(S'turn up'
p2172
g15
tp2173
a(S"don't i have to do anything on tuesday"
p2174
g15
tp2175
a(S'please could you check new mail'
p2176
g15
tp2177
a(S'could you open mail please'
p2178
g15
tp2179
a(S'please get current time'
p2180
g15
tp2181
a(S"don't i have to do anything on monday"
p2182
g15
tp2183
a(S'please shutdown the computer'
p2184
g15
tp2185
a(S'is it cloudy today'
p2186
g15
tp2187
a(S'search for please'
p2188
g15
tp2189
a(S'can you please create event'
p2190
g15
tp2191
a(S'can you make event'
p2192
g15
tp2193
a(S"what's weather"
p2194
g15
tp2195
a(S'can you turn yourself off please'
p2196
g15
tp2197
a(S'spotify play previous song please'
p2198
g15
tp2199
a(S'is there anything to do on tomorrow'
p2200
g15
tp2201
a(S'can you please schedule event'
p2202
g15
tp2203
a(S'will you get the current events'
p2204
g15
tp2205
a(S'turn off'
p2206
g15
tp2207
a(S'kill the current window'
p2208
g15
tp2209
a(S'what is in gmail please'
p2210
g15
tp2211
a(S'sweet dreams alice'
p2212
g15
tp2213
a(S"get today's temperature"
p2214
g15
tp2215
a(S'would you open my mail'
p2216
g15
tp2217
a(S'check events for this month'
p2218
g15
tp2219
a(S'open dot edu'
p2220
g70
tp2221
a(S'please read time'
p2222
g15
tp2223
a(S"don't i have any events on"
p2224
g15
tp2225
a(S'open a default browser'
p2226
g70
tp2227
a(S"today's current news "
p2228
g15
tp2229
a(S'is there anything to do on today'
p2230
g15
tp2231
a(S'open my gmail please'
p2232
g15
tp2233
a(S'turn up the the beat'
p2234
g15
tp2235
a(S"get if it's cloudy this week"
p2236
g15
tp2237
a(S'are there any events in a month'
p2238
g15
tp2239
a(S'is there anything to do on monday'
p2240
g15
tp2241
a(S'could you check new mail'
p2242
g15
tp2243
a(S"if it's raining this week"
p2244
g15
tp2245
a(S'spotify play last song please'
p2246
g15
tp2247
a(S'please will you check gmail'
p2248
g15
tp2249
a(S"what's new in gmail please"
p2250
g15
tp2251
a(S'could you open my mail please'
p2252
g15
tp2253
a(S'please start spotify'
p2254
g15
tp2255
a(S'what are the current news'
p2256
g15
tp2257
a(S'please would you open my gmail'
p2258
g15
tp2259
a(S'do not open'
p2260
g15
tp2261
a(S'is there anything to do on tuesday'
p2262
g15
tp2263
a(S'can you shutdown the computer'
p2264
g15
tp2265
a(S'check your watch please'
p2266
g15
tp2267
a(S'please would you open inbox'
p2268
g15
tp2269
a(S'check new gmail please'
p2270
g15
tp2271
a(S"don't start default browser"
p2272
g15
tp2273
a(S'go to dot org'
p2274
g70
tp2275
a(S'will it snow this week'
p2276
g15
tp2277
a(S'please play spotify '
p2278
g15
tp2279
a(S'turn up the tunes'
p2280
g15
tp2281
a(S"please don't open browser"
p2282
g15
tp2283
a(S'please would you check gmail'
p2284
g15
tp2285
a(S'can you shut off my computer'
p2286
g15
tp2287
a(S'spotify stop'
p2288
g15
tp2289
a(S'start song'
p2290
g15
tp2291
a(S'can you kill this window'
p2292
g15
tp2293
a(S'is there anything to do tomorrow'
p2294
g15
tp2295
a(S'do i have anything to do on wednesday'
p2296
g15
tp2297
a(S'can you add new event'
p2298
g15
tp2299
a(S'byebye'
p2300
g15
tp2301
a(S'tell me current events'
p2302
g15
tp2303
a(S'can you please make event'
p2304
g15
tp2305
a(S'spotify play the last song'
p2306
g15
tp2307
a(S'is it foggy this week'
p2308
g15
tp2309
a(S'is there anything to do on next'
p2310
g15
tp2311
a(S'can you please turn the beat down'
p2312
g15
tp2313
a(S'play the song before'
p2314
g15
tp2315
a(S'find headlines'
p2316
g15
tp2317
a(S'open gmail'
p2318
g15
tp2319
a(S'could you please make new event'
p2320
g15
tp2321
a(S'what events do i have on tuesday'
p2322
g15
tp2323
a(S"what's if it's foggy today"
p2324
g15
tp2325
a(S'what is the news today'
p2326
g15
tp2327
a(S'check my calendar on wednesday'
p2328
g15
tp2329
a(S'add an event'
p2330
g15
tp2331
a(S'what time is it right now'
p2332
g15
tp2333
a(S'spotify play the song'
p2334
g15
tp2335
a(S'am i free for a week'
p2336
g15
tp2337
a(S'check my calendar for wednesday'
p2338
g15
tp2339
a(S'check my calendar for tomorrow'
p2340
g15
tp2341
a(S'start default browser please'
p2342
g70
tp2343
a(S'can you turn the beat down'
p2344
g15
tp2345
a(S'what events are on tuesday'
p2346
g15
tp2347
a(S'could you please create event'
p2348
g15
tp2349
a(S'give me the news'
p2350
g15
tp2351
a(S'do i have to do anything on next'
p2352
g15
tp2353
a(S'what are the latest events '
p2354
g15
tp2355
a(S'can you close the current window'
p2356
g15
tp2357
a(S'turn it off'
p2358
g15
tp2359
a(S'check calendar for thursday'
p2360
g15
tp2361
a(S'can you shutdown'
p2362
g15
tp2363
a(S'can you please turn the sound down'
p2364
g15
tp2365
a(S'turn up the sound'
p2366
g15
tp2367
a(S'what do i have on today'
p2368
g15
tp2369
a(S"what's if it's hot today"
p2370
g15
tp2371
a(S"what's in gmail"
p2372
g15
tp2373
a(S'unmute please'
p2374
g15
tp2375
a(S'check google calendar on tuesday'
p2376
g15
tp2377
a(S'check my mail please'
p2378
g15
tp2379
a(S"this week's temperature"
p2380
g15
tp2381
a(S'please shut off my computer'
p2382
g15
tp2383
a(S"don't open broswer"
p2384
g15
tp2385
a(S'do not start browsing'
p2386
g15
tp2387
a(S'can you please kill this window'
p2388
g15
tp2389
a(S'do i have anything to do next'
p2390
g15
tp2391
a(S'kill the music'
p2392
g15
tp2393
a(S'go back'
p2394
g15
tp2395
a(S"don't i have to do anything on friday"
p2396
g15
tp2397
a(S'go back to the last song '
p2398
g15
tp2399
a(S'is it rainy this week'
p2400
g15
tp2401
a(S'what events are on monday'
p2402
g15
tp2403
a(S'could you add new event please'
p2404
g15
tp2405
a(S'get temperature'
p2406
g15
tp2407
a(S'create a new event please'
p2408
g15
tp2409
a(S'do i have anything to do in a week'
p2410
g15
tp2411
a(S'would you check my gmail please'
p2412
g15
tp2413
a(S'can you turn the tune down'
p2414
g15
tp2415
a(S'do i have anything on this day'
p2416
g15
tp2417
a(S'could you open gmail please'
p2418
g15
tp2419
a(S"if it's rainy this week"
p2420
g15
tp2421
a(S'check google calendar on saturday'
p2422
g15
tp2423
a(S'would you check my mail'
p2424
g15
tp2425
a(S'please do not start browser'
p2426
g15
tp2427
a(S'do i have anything to do on sunday'
p2428
g15
tp2429
a(S'please would you check new mail'
p2430
g15
tp2431
a(S'get clock please'
p2432
g15
tp2433
a(S'can you make it louder please'
p2434
g15
tp2435
a(S'do i have to do anything to do'
p2436
g15
tp2437
a(S'please check my mail'
p2438
g15
tp2439
a(S"what's if it's raining this week"
p2440
g15
tp2441
a(S'would you check my gmail'
p2442
g15
tp2443
a(S"if it's raining today"
p2444
g15
tp2445
a(S'do i have to do anything on tuesday'
p2446
g15
tp2447
a(S'can you check if i have anything in my inbox'
p2448
g15
tp2449
a(S"get if it's cloudy today"
p2450
g15
tp2451
a(S"what's if it's hot this week"
p2452
g15
tp2453
a(S"don't i have anything in a month"
p2454
g15
tp2455
a(S'current events'
p2456
g15
tp2457
a(S'get the time'
p2458
g15
tp2459
a(S'do i have any events on tuesday'
p2460
g15
tp2461
a(S'could you check new gmail please'
p2462
g15
tp2463
a(S'do i have anything to do tomorrow'
p2464
g15
tp2465
a(S'can you turn off the computer'
p2466
g15
tp2467
a(S'could you open mail'
p2468
g15
tp2469
a(S'shutdown'
p2470
g15
tp2471
a(S"what's new in gmail"
p2472
g15
tp2473
a(S'could you make an event please'
p2474
g15
tp2475
a(S'can you lock my computer please'
p2476
g15
tp2477
a(S'what is live news'
p2478
g15
tp2479
a(S'do i have anything on tuesday'
p2480
g15
tp2481
a(S'retrieve the time please'
p2482
g15
tp2483
a(S'can you shut down my computer'
p2484
g15
tp2485
a(S'can you quit'
p2486
g15
tp2487
a(S'am i free on next'
p2488
g15
tp2489
a(S"what's today's temperature"
p2490
g15
tp2491
a(S"what's the weather this week"
p2492
g15
tp2493
a(S"what's if it's cold today"
p2494
g15
tp2495
a(S"aren't there any events in a month"
p2496
g15
tp2497
a(S"get today's weather"
p2498
g15
tp2499
a(S"don't go to"
p2500
g15
tp2501
a(S'please would you check mail'
p2502
g15
tp2503
a(S'give me intel'
p2504
g15
tp2505
a(S'check calendar on wednesday'
p2506
g15
tp2507
a(S'open my gmail'
p2508
g15
tp2509
a(S'pause please'
p2510
g15
tp2511
a(S'please will you open my gmail'
p2512
g15
tp2513
a(S'check my gmail please'
p2514
g15
tp2515
a(S'could you create new event'
p2516
g15
tp2517
a(S'am i free for today'
p2518
g15
tp2519
a(S"what's if it's cold this week"
p2520
g15
tp2521
a(S'please open browser'
p2522
g70
tp2523
a(S'what do i have to do on saturday'
p2524
g15
tp2525
a(S'check the clock please'
p2526
g15
tp2527
a(S'would you open mail please'
p2528
g15
tp2529
a(S'what are the headlines'
p2530
g15
tp2531
a(S'get the news'
p2532
g15
tp2533
a(S'make the volume 0'
p2534
g15
tp2535
a(S'is it hot today'
p2536
g15
tp2537
a(S"how's the forecast"
p2538
g15
tp2539
a(S'anything in my gmail'
p2540
g15
tp2541
a(S'please add event'
p2542
g15
tp2543
a(S'tell me current news'
p2544
g15
tp2545
a(S"today's current events"
p2546
g15
tp2547
a(S"don't i have to do anything today"
p2548
g15
tp2549
a(S'will you check my gmail'
p2550
g15
tp2551
a(S'add an event please'
p2552
g15
tp2553
a(S'get the clock'
p2554
g15
tp2555
a(S"what's the the news"
p2556
g15
tp2557
a(S'do i have anything on saturday'
p2558
g15
tp2559
a(S'a releasing moderate stalls beside the material cell'
p2560
g15
tp2561
a(S"what's in mail"
p2562
g15
tp2563
a(S'please louder'
p2564
g15
tp2565
a(S'please would you check inbox'
p2566
g15
tp2567
a(S'can you get the latest headlines'
p2568
g15
tp2569
a(S'could you check my gmail please'
p2570
g15
tp2571
a(S'any events on monday'
p2572
g15
tp2573
a(S'please will you check inbox'
p2574
g15
tp2575
a(S'check gmail'
p2576
g15
tp2577
a(S'kill the active window'
p2578
g15
tp2579
a(S'can you close this window'
p2580
g15
tp2581
a(S'will you check inbox'
p2582
g15
tp2583
a(S'go to dot net'
p2584
g70
tp2585
a(S'what is on my calendar'
p2586
g15
tp2587
a(S'see ya'
p2588
g15
tp2589
a(S'what events do i have in a week'
p2590
g15
tp2591
a(S'skip'
p2592
g15
tp2593
a(S'start the song'
p2594
g15
tp2595
a(S'do i have any events on this day'
p2596
g15
tp2597
a(S"what's the news feed"
p2598
g15
tp2599
a(S'please would you check my gmail'
p2600
g15
tp2601
a(S'turn down the volume'
p2602
g15
tp2603
a(S'what do i have to do on wednesday'
p2604
g15
tp2605
a(S'check events on this day'
p2606
g15
tp2607
a(S'please create new event'
p2608
g15
tp2609
a(S'check my calendar for'
p2610
g15
tp2611
a(S'can you check gmail'
p2612
g15
tp2613
a(S'any events in a week'
p2614
g15
tp2615
a(S'can you send me to the lock screen'
p2616
g15
tp2617
a(S'can you turn up the volume please'
p2618
g15
tp2619
a(S'read me the clock please'
p2620
g15
tp2621
a(S'can you open browser please'
p2622
g70
tp2623
a(S'do i have any events in a week'
p2624
g15
tp2625
a(S'forecast'
p2626
g15
tp2627
a(S'please read the time'
p2628
g15
tp2629
a(S'can you please shutdown my computer'
p2630
g15
tp2631
a(S"don't i have anything on saturday"
p2632
g15
tp2633
a(S'do i have anything to do on monday'
p2634
g15
tp2635
a(S'can you please turn up the volume'
p2636
g15
tp2637
a(S'check my calendar on this week'
p2638
g15
tp2639
a(S'check calendar on tomorrow'
p2640
g15
tp2641
a(S'please give me the news'
p2642
g15
tp2643
a(S'make an event'
p2644
g15
tp2645
a(S'get current temperature'
p2646
g15
tp2647
a(S'check google calendar for friday'
p2648
g15
tp2649
a(S"if it's snowing today"
p2650
g15
tp2651
a(S'would you open mail'
p2652
g15
tp2653
a(S'go back please'
p2654
g15
tp2655
a(S'close active window'
p2656
g15
tp2657
a(S'check google calendar on tomorrow'
p2658
g15
tp2659
a(S'briefing'
p2660
g15
tp2661
a(S'shut down please'
p2662
g15
tp2663
a(S"today's temperature"
p2664
g15
tp2665
a(S"aren't there any events on wednesday"
p2666
g15
tp2667
a(S'is it freezing this week'
p2668
g15
tp2669
a(S'open inbox please'
p2670
g15
tp2671
a(S"don't i have anything to do in a week"
p2672
g15
tp2673
a(S'what is headlines'
p2674
g15
tp2675
a(S'please open inbox'
p2676
g15
tp2677
a(S"don't i have to do anything on saturday"
p2678
g15
tp2679
a(S'do not open a browser'
p2680
g15
tp2681
a(S"get if it's rainy this week"
p2682
g15
tp2683
a(S'find live news feed'
p2684
g15
tp2685
a(S"what's in new mail"
p2686
g15
tp2687
a(S'check events for friday'
p2688
g15
tp2689
a(S'can you create event please'
p2690
g15
tp2691
a(S'please open dot com'
p2692
g70
tp2693
a(S'check my calendar for this month'
p2694
g15
tp2695
a(S"don't i have to do anything today"
p2696
g15
tp2697
a(S'please what is in my mail'
p2698
g15
tp2699
a(S'please what is new in new mail'
p2700
g15
tp2701
a(S"don't i have anything on this day"
p2702
g15
tp2703
a(S'please google search'
p2704
g15
tp2705
a(S'what do i have on friday'
p2706
g15
tp2707
a(S'can you please create an event'
p2708
g15
tp2709
a(S'are there any events on this day'
p2710
g15
tp2711
a(S'do i have anything on'
p2712
g15
tp2713
a(S'what is in new gmail please'
p2714
g15
tp2715
a(S'do i have any events on next'
p2716
g15
tp2717
a(S'could you check mail'
p2718
g15
tp2719
a(S'can you please add new event'
p2720
g15
tp2721
a(S'what events do i have'
p2722
g15
tp2723
a(S'please retrieve the current time'
p2724
g15
tp2725
a(S'check inbox please'
p2726
g15
tp2727
a(S'spotify play'
p2728
g15
tp2729
a(S'turn off my computer please'
p2730
g15
tp2731
a(S"don't i have any events on tuesday"
p2732
g15
tp2733
a(S'please give me the current events please'
p2734
g15
tp2735
a(S'could you open inbox please'
p2736
g15
tp2737
a(S"what's in my gmail"
p2738
g15
tp2739
a(S'shut down the computer please'
p2740
g15
tp2741
a(S'could you please create new event'
p2742
g15
tp2743
a(S'can you please shut down'
p2744
g15
tp2745
a(S'tell me news feed'
p2746
g15
tp2747
a(S'please pause'
p2748
g15
tp2749
a(S'check my calendar for next'
p2750
g15
tp2751
a(S"don't i have to do anything on sunday"
p2752
g15
tp2753
a(S'anything new in my gmail'
p2754
g15
tp2755
a(S'shut the fuck up'
p2756
g15
tp2757
a(S'make the sound higher'
p2758
g15
tp2759
a(S'go to dot ee dee you'
p2760
g70
tp2761
a(S'please lock computer'
p2762
g15
tp2763
a(S'check google calendar on sunday'
p2764
g15
tp2765
a(S"what's if it's foggy this week"
p2766
g15
tp2767
a(S'newsfeed'
p2768
g15
tp2769
a(S'what is on my calendar for friday'
p2770
g15
tp2771
a(S'do i have to do anything on saturday'
p2772
g15
tp2773
a(S"don't i have anything on thursday"
p2774
g15
tp2775
a(S'retrieve what time it is'
p2776
g15
tp2777
a(S'what is in my mail'
p2778
g15
tp2779
a(S'am i free on this day'
p2780
g15
tp2781
a(S"what's this week's temperature"
p2782
g15
tp2783
a(S'check google calendar on'
p2784
g15
tp2785
a(S'please do not start default browser'
p2786
g15
tp2787
a(S'current temperature'
p2788
g15
tp2789
a(S'check calendar for wednesday'
p2790
g15
tp2791
a(S'could you make a new event'
p2792
g15
tp2793
a(S'please could you check my gmail'
p2794
g15
tp2795
a(S'what events do i have on wednesday'
p2796
g15
tp2797
a(S'will you check my inbox'
p2798
g15
tp2799
a(S'what do i have on'
p2800
g15
tp2801
a(S'please add new event'
p2802
g15
tp2803
a(S'start browsing please'
p2804
g70
tp2805
a(S'can you check gmail please'
p2806
g15
tp2807
a(S'check events for sunday'
p2808
g15
tp2809
a(S'spotify pause the song please'
p2810
g15
tp2811
a(S'could you create event'
p2812
g15
tp2813
a(S"get if it's raining today"
p2814
g15
tp2815
a(S'can you please shut off my computer'
p2816
g15
tp2817
a(S'will you check my mail'
p2818
g15
tp2819
a(S"don't i have to do anything on tuesday"
p2820
g15
tp2821
a(S'please what is new in my mail'
p2822
g15
tp2823
a(S'find live news'
p2824
g15
tp2825
a(S'turn my computer off'
p2826
g15
tp2827
a(S"if it's hot this week"
p2828
g15
tp2829
a(S'what is in my gmail'
p2830
g15
tp2831
a(S'how is the weather'
p2832
g15
tp2833
a(S'weather'
p2834
g15
tp2835
a(S'what do i have on this day'
p2836
g15
tp2837
a(S'shutdown the computer'
p2838
g15
tp2839
a(S'please would you check new gmail'
p2840
g15
tp2841
a(S'please check mail'
p2842
g15
tp2843
a(S'what are the live news feed'
p2844
g15
tp2845
a(S'check calendar for saturday'
p2846
g15
tp2847
a(S"how's the forecast this week"
p2848
g15
tp2849
a(S'check events for next'
p2850
g15
tp2851
a(S'give me the current events please'
p2852
g15
tp2853
a(S'do i have to do anything on monday'
p2854
g15
tp2855
a(S'check events on month'
p2856
g15
tp2857
a(S"don't i have anything to do on thursday"
p2858
g15
tp2859
a(S'please what is in my gmail'
p2860
g15
tp2861
a(S'what events are in a week'
p2862
g15
tp2863
a(S'what events are on today'
p2864
g15
tp2865
a(S'can you turn off'
p2866
g15
tp2867
a(S'debrief me'
p2868
g15
tp2869
a(S'could you create new event please'
p2870
g15
tp2871
a(S'read the clock please'
p2872
g15
tp2873
a(S'lock computer please'
p2874
g15
tp2875
a(S'stop playing'
p2876
g15
tp2877
a(S"don't i have to do anything on this day"
p2878
g15
tp2879
a(S'could you check my inbox please'
p2880
g15
tp2881
a(S'can you please turn off my computer'
p2882
g15
tp2883
a(S'spotify last please'
p2884
g15
tp2885
a(S'current events today'
p2886
g15
tp2887
a(S'check events on friday'
p2888
g15
tp2889
a(S'get current time'
p2890
g15
tp2891
a(S'please do not start a default browser'
p2892
g15
tp2893
a(S'check events on wednesday'
p2894
g15
tp2895
a(S"don't i have anything today"
p2896
g15
tp2897
a(S"don't i have to do anything in a month"
p2898
g15
tp2899
a(S'go ahead'
p2900
g15
tp2901
a(S'am i free for wednesday'
p2902
g15
tp2903
a(S"please what's new in new gmail"
p2904
g15
tp2905
a(S'could you add event'
p2906
g15
tp2907
a(S'what is new in my gmail please'
p2908
g15
tp2909
a(S'check what time it is please'
p2910
g15
tp2911
a(S'can you kill the window'
p2912
g15
tp2913
a(S'please give me current events'
p2914
g15
tp2915
a(S'check events for wednesday'
p2916
g15
tp2917
a(S'make a new event'
p2918
g15
tp2919
a(S'check my calendar for this day'
p2920
g15
tp2921
a(S'check the clock'
p2922
g15
tp2923
a(S"what's the temperature today"
p2924
g15
tp2925
a(S'do i have anything on friday'
p2926
g15
tp2927
a(S'make the volume lower'
p2928
g15
tp2929
a(S'could you please add new event'
p2930
g15
tp2931
a(S'will you get the current headlines'
p2932
g15
tp2933
a(S'check my calendar for tuesday'
p2934
g15
tp2935
a(S'please spotify last song'
p2936
g15
tp2937
a(S'check my mail'
p2938
g15
tp2939
a(S'can you please schedule new event'
p2940
g15
tp2941
a(S"get if it's rainy today"
p2942
g15
tp2943
a(S'will you open my gmail'
p2944
g15
tp2945
a(S'shut off my computer please'
p2946
g15
tp2947
a(S'do not open default browser'
p2948
g15
tp2949
a(S"what's in my mail"
p2950
g15
tp2951
a(S'can you make a new event'
p2952
g15
tp2953
a(S'turn it down'
p2954
g15
tp2955
a(S'spotify skip'
p2956
g15
tp2957
a(S'check gmail please'
p2958
g15
tp2959
a(S'check calendar for this month'
p2960
g15
tp2961
a(S"what're the current news"
p2962
g15
tp2963
a(S'will it rain this week'
p2964
g15
tp2965
a(S"if it's cloudy this week"
p2966
g15
tp2967
a(S'what is new in inbox'
p2968
g15
tp2969
a(S'lower the tunez please'
p2970
g15
tp2971
a(S'can you please kill active window'
p2972
g15
tp2973
a(S'please shut down'
p2974
g15
tp2975
a(S"don't i have to do anything in a month"
p2976
g15
tp2977
a(S'can you please shut off'
p2978
g15
tp2979
a(S'check calendar for tuesday'
p2980
g15
tp2981
a(S'what is going on in the world today'
p2982
g15
tp2983
a(S"what's if it's cloudy this week"
p2984
g15
tp2985
a(S'create an event please'
p2986
g15
tp2987
a(S'find the news'
p2988
g15
tp2989
a(S'will you open mail please'
p2990
g15
tp2991
a(S'turn up the sound'
p2992
g15
tp2993
a(S'am i free on monday'
p2994
g15
tp2995
a(S'shut my computer down'
p2996
g15
tp2997
a(S'will you open my gmail please'
p2998
g15
tp2999
a(S'what time is it'
p3000
g15
tp3001
a(S"if it's freezing this week"
p3002
g15
tp3003
a(S'what is new in gmail please'
p3004
g15
tp3005
a(S'can you please turn up the sound'
p3006
g15
tp3007
a(S'can you open a browser'
p3008
g70
tp3009
a(S'is it foggy today'
p3010
g15
tp3011
a(S'will you open inbox'
p3012
g15
tp3013
a(S'do i have anything on sunday'
p3014
g15
tp3015
a(S"get if it's foggy today"
p3016
g15
tp3017
a(S'what is in mail'
p3018
g15
tp3019
a(S'can you please turn up the tune'
p3020
g15
tp3021
a(S"this week's weather"
p3022
g15
tp3023
a(S'check google calendar on wednesday'
p3024
g15
tp3025
a(S'can you please turn up the beat'
p3026
g15
tp3027
a(S'please would you open my mail'
p3028
g15
tp3029
a(S"don't i have any events"
p3030
g15
tp3031
a(S'please kill current window'
p3032
g15
tp3033
a(S'could you please schedule an event'
p3034
g15
tp3035
a(S'what time is it currently'
p3036
g15
tp3037
a(S'time please'
p3038
g15
tp3039
a(S'live news today'
p3040
g15
tp3041
a(S'send me to the lock screen'
p3042
g15
tp3043
a(S'create new event'
p3044
g15
tp3045
a(S'time'
p3046
g15
tp3047
a(S'set volume 0'
p3048
g15
tp3049
a(S'what is in my inbox please'
p3050
g15
tp3051
a(S'could you add an event'
p3052
g15
tp3053
a(S'lock the screen please'
p3054
g15
tp3055
a(S'can you please shutdown'
p3056
g15
tp3057
a(S'what do i have to do on'
p3058
g15
tp3059
a(S'please turn it down'
p3060
g15
tp3061
a(S'open my mail'
p3062
g15
tp3063
a(S'what do i have to do in a week'
p3064
g15
tp3065
a(S'please kill the current window'
p3066
g15
tp3067
a(S'check my calendar for this week'
p3068
g15
tp3069
a(S'could you please make event'
p3070
g15
tp3071
a(S'can you lock my computer please'
p3072
g15
tp3073
a(S"what's in new gmail please"
p3074
g15
tp3075
a(S'is there anything i have to do on wednesday'
p3076
g15
tp3077
a(S"please don't start a browser"
p3078
g15
tp3079
a(S'can you unmute'
p3080
g15
tp3081
a(S'what events are on thursday'
p3082
g15
tp3083
a(S'please check new mail'
p3084
g15
tp3085
a(S'do i have anything in a month'
p3086
g15
tp3087
a(S'can you schedule a new event please'
p3088
g15
tp3089
a(S'could you check mail please'
p3090
g15
tp3091
a(S"today's weather"
p3092
g15
tp3093
a(S'add new event'
p3094
g15
tp3095
a(S'check calendar for next'
p3096
g15
tp3097
a(S'check my calendar on tuesday'
p3098
g15
tp3099
a(S'what are the news'
p3100
g15
tp3101
a(S'is there anything to do on wednesday'
p3102
g15
tp3103
a(S'check what time it is'
p3104
g15
tp3105
a(S'sound up please'
p3106
g15
tp3107
a(S'put me on the lock screen'
p3108
g15
tp3109
a(S'could you check new mail please'
p3110
g15
tp3111
a(S"how's the weather"
p3112
g15
tp3113
a(S'kill this window'
p3114
g15
tp3115
a(S'do i have any events in a month'
p3116
g15
tp3117
a(S'what events do i have on tomorrow'
p3118
g15
tp3119
a(S'what is on my calendar for this day'
p3120
g15
tp3121
a(S'can you add new event please'
p3122
g15
tp3123
a(S'can you mute'
p3124
g15
tp3125
a(S'temperature'
p3126
g15
tp3127
a(S"don't i have to do anything on"
p3128
g15
tp3129
a(S'is there anything to do on friday'
p3130
g15
tp3131
a(S"what're the news feed"
p3132
g15
tp3133
a(S'please go spotify '
p3134
g15
tp3135
a(S'get the time please'
p3136
g15
tp3137
a(S'check the clock right now please'
p3138
g15
tp3139
a(S'check events on monday'
p3140
g15
tp3141
a(S"if it's foggy today"
p3142
g15
tp3143
a(S'can you add an event please'
p3144
g15
tp3145
a(S"please what's in gmail"
p3146
g15
tp3147
a(S'please turn off my computer'
p3148
g15
tp3149
a(S"aren't there any events"
p3150
g15
tp3151
a(S"what's in inbox please"
p3152
g15
tp3153
a(S'check google calendar on monday'
p3154
g15
tp3155
a(S'please can you check my mail'
p3156
g15
tp3157
a(S'any events on wednesday'
p3158
g15
tp3159
a(S'would you check new mail'
p3160
g15
tp3161
a(S'please start browser'
p3162
g70
tp3163
a(S"what's if it's rainy this week"
p3164
g15
tp3165
a(S'intel'
p3166
g15
tp3167
a(S'please can you check new mail'
p3168
g15
tp3169
a(S'what do i have on sunday'
p3170
g15
tp3171
a(S'can you please schedule an event'
p3172
g15
tp3173
a(S'please could you check mail'
p3174
g15
tp3175
a(S'am i free on wednesday'
p3176
g15
tp3177
a(S'please close the current window'
p3178
g15
tp3179
a(S'could you please schedule event'
p3180
g15
tp3181
a(S'please go back'
p3182
g15
tp3183
a(S'news feed today'
p3184
g15
tp3185
a(S'please open'
p3186
g70
tp3187
a(S'please shut down the computer'
p3188
g15
tp3189
a(S'turn down the sound'
p3190
g15
tp3191
a(S'is there anything i have to do on monday'
p3192
g15
tp3193
a(S'spotify go to the last song'
p3194
g15
tp3195
a(S'can you turn my computer off'
p3196
g15
tp3197
a(S'will you check mail'
p3198
g15
tp3199
a(S'get live news feed'
p3200
g15
tp3201
a(S'song stop'
p3202
g15
tp3203
a(S'do i have to do anything on this day'
p3204
g15
tp3205
a(S'check new mail'
p3206
g15
tp3207
a(S'do not go to'
p3208
g15
tp3209
a(S"what's in gmail please"
p3210
g15
tp3211
a(S'open a default browser please'
p3212
g70
tp3213
a(S'please can you check inbox'
p3214
g15
tp3215
a(S'could you schedule an event please'
p3216
g15
tp3217
a(S'do not start default browser'
p3218
g15
tp3219
a(S"what's if it's rainy today"
p3220
g15
tp3221
a(S"today's headlines"
p3222
g15
tp3223
a(S'what is on my calendar for saturday'
p3224
g15
tp3225
a(S'do i have anything in a week'
p3226
g15
tp3227
a(S'can you add event'
p3228
g15
tp3229
a(S'what do i have on thursday'
p3230
g15
tp3231
a(S'live newsfeed'
p3232
g15
tp3233
a(S"if it's cold today"
p3234
g15
tp3235
a(S'play spotify please'
p3236
g15
tp3237
a(S"please what's new in gmail"
p3238
g15
tp3239
a(S'hey alice'
p3240
g15
tp3241
a(S'please close current window'
p3242
g15
tp3243
a(S'can you please close the current window'
p3244
g15
tp3245
a(S"what's new in new mail please"
p3246
g15
tp3247
a(S'schedule new event please'
p3248
g15
tp3249
a(S'shutdown the computer please'
p3250
g15
tp3251
a(S'please what is in new mail'
p3252
g15
tp3253
a(S"what's the weather today"
p3254
g15
tp3255
a(S'what is new in new mail please'
p3256
g15
tp3257
a(S'please check the clock right now'
p3258
g15
tp3259
a(S'please shut down my computer'
p3260
g15
tp3261
a(S'what events are on friday'
p3262
g15
tp3263
a(S'check events for thursday'
p3264
g15
tp3265
a(S'can you check mail please'
p3266
g15
tp3267
a(S'please do not open a browser'
p3268
g15
tp3269
a(S'please retrieve the time'
p3270
g15
tp3271
a(S'what events are in a month'
p3272
g15
tp3273
a(S'exit'
p3274
g15
tp3275
a(S'tell me live newsfeed'
p3276
g15
tp3277
a(S'am i free in a week'
p3278
g15
tp3279
a(S'are there any events'
p3280
g15
tp3281
a(S"what's the live newsfeed"
p3282
g15
tp3283
a(S'do not start a browser'
p3284
g15
tp3285
a(S'can you add event please'
p3286
g15
tp3287
a(S'will you check mail please'
p3288
g15
tp3289
a(S'can you please turn off'
p3290
g15
tp3291
a(S"get if it's freezing today"
p3292
g15
tp3293
a(S'spotify go back to the last song '
p3294
g15
tp3295
a(S'can you kill the current window'
p3296
g15
tp3297
a(S'please could you check my inbox'
p3298
g15
tp3299
a(S'will you get the news for me'
p3300
g15
tp3301
a(S'alex'
p3302
g15
tp3303
a(S'am i free'
p3304
g15
tp3305
a(S'please what is new in gmail'
p3306
g15
tp3307
a(S'check events for today'
p3308
g15
tp3309
a(S'please start browsing'
p3310
g70
tp3311
a(S"what's the forecast today"
p3312
g15
tp3313
a(S"please don't go to"
p3314
g15
tp3315
a(S'lower the tunes please'
p3316
g15
tp3317
a(S'kill active window'
p3318
g15
tp3319
a(S"don't i have anything to do on tuesday"
p3320
g15
tp3321
a(S'read the time please'
p3322
g15
tp3323
a(S"don't start a browser"
p3324
g15
tp3325
a(S'is it cold today'
p3326
g15
tp3327
a(S"don't i have anything to do on next"
p3328
g15
tp3329
a(S"what's in new mail please"
p3330
g15
tp3331
a(S'could you please make a new event'
p3332
g15
tp3333
a(S'spotify play the song before'
p3334
g15
tp3335
a(S"today's newsfeed"
p3336
g15
tp3337
a(S'do i have anything to do today'
p3338
g15
tp3339
a(S'can you please mute'
p3340
g15
tp3341
a(S"don't i have anything to do in a month"
p3342
g15
tp3343
a(S'check my calendar on this day'
p3344
g15
tp3345
a(S'what do i have to do on tuesday'
p3346
g15
tp3347
a(S'check calendar on month'
p3348
g15
tp3349
a(S'turn off the computer please'
p3350
g15
tp3351
a(S'lock'
p3352
g15
tp3353
a(S"what's today's forecast"
p3354
g15
tp3355
a(S'what events do i have on next'
p3356
g15
tp3357
a(S'okay alex'
p3358
g15
tp3359
a(S'will you open inbox please'
p3360
g15
tp3361
a(S'what are the live news'
p3362
g15
tp3363
a(S'please check the current time'
p3364
g15
tp3365
a(S'get live newsfeed'
p3366
g15
tp3367
a(S'go to'
p3368
g70
tp3369
a(S"don't i have anything on"
p3370
g15
tp3371
a(S"please what's new in my mail"
p3372
g15
tp3373
a(S'check the clock right now'
p3374
g15
tp3375
a(S"aren't there any events on sunday"
p3376
g15
tp3377
a(S'gather information on todays current events please'
p3378
g15
tp3379
a(S'can you turn up the volume'
p3380
g15
tp3381
a(S'can you create a new event'
p3382
g15
tp3383
a(S'skip spotify please'
p3384
g15
tp3385
a(S'can you decrease the sound'
p3386
g15
tp3387
a(S'spotify go please'
p3388
g15
tp3389
a(S"what's if it's snowing today"
p3390
g15
tp3391
a(S'next'
p3392
g15
tp3393
a(S'what events are on tomorrow'
p3394
g15
tp3395
a(S'check events on'
p3396
g15
tp3397
a(S'open gmail please'
p3398
g15
tp3399
a(S'please lock the screen'
p3400
g15
tp3401
a(S'please last song'
p3402
g15
tp3403
a(S'what is on my calendar for this month'
p3404
g15
tp3405
a(S'get the current time please'
p3406
g15
tp3407
a(S"don't i have anything on tuesday"
p3408
g15
tp3409
a(S'retrieve what time it is please'
p3410
g15
tp3411
a(S'do i have to do anything in a week'
p3412
g15
tp3413
a(S'start a default browser'
p3414
g70
tp3415
a(S'can you turn the sound down'
p3416
g15
tp3417
a(S'check google calendar for next'
p3418
g15
tp3419
a(S"what's if it's freezing this week"
p3420
g15
tp3421
a(S'close window'
p3422
g15
tp3423
a(S'can you please schedule a new event'
p3424
g15
tp3425
a(S'please check gmail'
p3426
g15
tp3427
a(S'could you check gmail please'
p3428
g15
tp3429
a(S'can you check inbox please'
p3430
g15
tp3431
a(S'bye bye'
p3432
g15
tp3433
a(S'headlines today'
p3434
g15
tp3435
a(S'can you please add event'
p3436
g15
tp3437
a(S'please do not start browser'
p3438
g15
tp3439
a(S'can you please turn the tune down'
p3440
g15
tp3441
a(S"aren't there any events on friday"
p3442
g15
tp3443
a(S'please go to'
p3444
g70
tp3445
a(S'spotify start please'
p3446
g15
tp3447
a(S'what events are on sunday'
p3448
g15
tp3449
a(S'is there anything i have to do today'
p3450
g15
tp3451
a(S'please can you check mail'
p3452
g15
tp3453
a(S'do i have to do anything on sunday'
p3454
g15
tp3455
asS'classifier'
p3456
ccopy_reg
_reconstructor
p3457
(csklearn.pipeline
Pipeline
p3458
c__builtin__
object
p3459
Ntp3460
Rp3461
(dp3462
S'_sklearn_version'
p3463
S'0.18.1'
p3464
sS'steps'
p3465
(lp3466
(S'vect'
p3467
g3457
(csklearn.feature_extraction.text
CountVectorizer
p3468
g3459
Ntp3469
Rp3470
(dp3471
S'decode_error'
p3472
Vstrict
p3473
sS'lowercase'
p3474
I01
sS'stop_words'
p3475
NsS'vocabulary'
p3476
NsS'tokenizer'
p3477
NsS'encoding'
p3478
Vutf-8
p3479
sS'token_pattern'
p3480
V(?u)\u005cb\u005cw\u005cw+\u005cb
p3481
sS'input'
p3482
Vcontent
p3483
sS'analyzer'
p3484
Vword
p3485
sS'vocabulary_'
p3486
(dp3487
Vevent
p3488
cnumpy.core.multiarray
scalar
p3489
(cnumpy
dtype
p3490
(S'i8'
p3491
I0
I1
tp3492
Rp3493
(I3
S'<'
p3494
NNNI-1
I-1
I0
tp3495
bS'@\x00\x00\x00\x00\x00\x00\x00'
p3496
tp3497
Rp3498
sVraining
p3499
g3489
(g3493
S'\xa3\x00\x00\x00\x00\x00\x00\x00'
p3500
tp3501
Rp3502
sVtodays
p3503
g3489
(g3493
S'\xd0\x00\x00\x00\x00\x00\x00\x00'
p3504
tp3505
Rp3506
sVmute
p3507
g3489
(g3493
S'~\x00\x00\x00\x00\x00\x00\x00'
p3508
tp3509
Rp3510
sVskip
p3511
g3489
(g3493
S'\xb8\x00\x00\x00\x00\x00\x00\x00'
p3512
tp3513
Rp3514
sVmonth
p3515
g3489
(g3493
S'|\x00\x00\x00\x00\x00\x00\x00'
p3516
tp3517
Rp3518
sVnot
p3519
g3489
(g3493
S'\x88\x00\x00\x00\x00\x00\x00\x00'
p3520
tp3521
Rp3522
sVsofter
p3523
g3489
(g3493
S'\xbb\x00\x00\x00\x00\x00\x00\x00'
p3524
tp3525
Rp3526
sVkill
p3527
g3489
(g3493
S'n\x00\x00\x00\x00\x00\x00\x00'
p3528
tp3529
Rp3530
sVedu
p3531
g3489
(g3493
S'=\x00\x00\x00\x00\x00\x00\x00'
p3532
tp3533
Rp3534
sVgo
p3535
g3489
(g3493
S'U\x00\x00\x00\x00\x00\x00\x00'
p3536
tp3537
Rp3538
sVheadlines
p3539
g3489
(g3493
S'^\x00\x00\x00\x00\x00\x00\x00'
p3540
tp3541
Rp3542
sVfind
p3543
g3489
(g3493
S'H\x00\x00\x00\x00\x00\x00\x00'
p3544
tp3545
Rp3546
sVprevious
p3547
g3489
(g3493
S'\x99\x00\x00\x00\x00\x00\x00\x00'
p3548
tp3549
Rp3550
sVspotify
p3551
g3489
(g3493
S'\xbe\x00\x00\x00\x00\x00\x00\x00'
p3552
tp3553
Rp3554
sVpause
p3555
g3489
(g3493
S'\x92\x00\x00\x00\x00\x00\x00\x00'
p3556
tp3557
Rp3558
sVsnowing
p3559
g3489
(g3493
S'\xba\x00\x00\x00\x00\x00\x00\x00'
p3560
tp3561
Rp3562
sVsunday
p3563
g3489
(g3493
S'\xc3\x00\x00\x00\x00\x00\x00\x00'
p3564
tp3565
Rp3566
sVsend
p3567
g3489
(g3493
S'\xb2\x00\x00\x00\x00\x00\x00\x00'
p3568
tp3569
Rp3570
sVaren
p3571
g3489
(g3493
S'\r\x00\x00\x00\x00\x00\x00\x00'
p3572
tp3573
Rp3574
sVto
p3575
g3489
(g3493
S'\xce\x00\x00\x00\x00\x00\x00\x00'
p3576
tp3577
Rp3578
sVwindow
p3579
g3489
(g3493
S'\xe6\x00\x00\x00\x00\x00\x00\x00'
p3580
tp3581
Rp3582
sVprogram
p3583
g3489
(g3493
S'\x9c\x00\x00\x00\x00\x00\x00\x00'
p3584
tp3585
Rp3586
sVmail
p3587
g3489
(g3493
S'v\x00\x00\x00\x00\x00\x00\x00'
p3588
tp3589
Rp3590
sVbye
p3591
g3489
(g3493
S'\x1a\x00\x00\x00\x00\x00\x00\x00'
p3592
tp3593
Rp3594
sVdo
p3595
g3489
(g3493
S'5\x00\x00\x00\x00\x00\x00\x00'
p3596
tp3597
Rp3598
sVpredict
p3599
g3489
(g3493
S'\x97\x00\x00\x00\x00\x00\x00\x00'
p3600
tp3601
Rp3602
sVgood
p3603
g3489
(g3493
S'W\x00\x00\x00\x00\x00\x00\x00'
p3604
tp3605
Rp3606
sVemergency
p3607
g3489
(g3493
S'?\x00\x00\x00\x00\x00\x00\x00'
p3608
tp3609
Rp3610
sVget
p3611
g3489
(g3493
S'Q\x00\x00\x00\x00\x00\x00\x00'
p3612
tp3613
Rp3614
sVya
p3615
g3489
(g3493
S'\xe9\x00\x00\x00\x00\x00\x00\x00'
p3616
tp3617
Rp3618
sVmaterial
p3619
g3489
(g3493
S'x\x00\x00\x00\x00\x00\x00\x00'
p3620
tp3621
Rp3622
sVstop
p3623
g3489
(g3493
S'\xc2\x00\x00\x00\x00\x00\x00\x00'
p3624
tp3625
Rp3626
sVanswer
p3627
g3489
(g3493
S'\t\x00\x00\x00\x00\x00\x00\x00'
p3628
tp3629
Rp3630
sVreport
p3631
g3489
(g3493
S'\xa8\x00\x00\x00\x00\x00\x00\x00'
p3632
tp3633
Rp3634
sVworld
p3635
g3489
(g3493
S'\xe7\x00\x00\x00\x00\x00\x00\x00'
p3636
tp3637
Rp3638
sVnow
p3639
g3489
(g3493
S'\x89\x00\x00\x00\x00\x00\x00\x00'
p3640
tp3641
Rp3642
sVday
p3643
g3489
(g3493
S'-\x00\x00\x00\x00\x00\x00\x00'
p3644
tp3645
Rp3646
sVdreams
p3647
g3489
(g3493
S';\x00\x00\x00\x00\x00\x00\x00'
p3648
tp3649
Rp3650
sVlike
p3651
g3489
(g3493
S'q\x00\x00\x00\x00\x00\x00\x00'
p3652
tp3653
Rp3654
sVshoulder
p3655
g3489
(g3493
S'\xb4\x00\x00\x00\x00\x00\x00\x00'
p3656
tp3657
Rp3658
sVgov
p3659
g3489
(g3493
S'Z\x00\x00\x00\x00\x00\x00\x00'
p3660
tp3661
Rp3662
sValex
p3663
g3489
(g3493
S'\x04\x00\x00\x00\x00\x00\x00\x00'
p3664
tp3665
Rp3666
sVintel
p3667
g3489
(g3493
S'i\x00\x00\x00\x00\x00\x00\x00'
p3668
tp3669
Rp3670
sVgossips
p3671
g3489
(g3493
S'Y\x00\x00\x00\x00\x00\x00\x00'
p3672
tp3673
Rp3674
sVdidn
p3675
g3489
(g3493
S'4\x00\x00\x00\x00\x00\x00\x00'
p3676
tp3677
Rp3678
sVwednesday
p3679
g3489
(g3493
S'\xe0\x00\x00\x00\x00\x00\x00\x00'
p3680
tp3681
Rp3682
sVcloudy
p3683
g3489
(g3493
S'$\x00\x00\x00\x00\x00\x00\x00'
p3684
tp3685
Rp3686
sVtry
p3687
g3489
(g3493
S'\xd3\x00\x00\x00\x00\x00\x00\x00'
p3688
tp3689
Rp3690
sVtunez
p3691
g3489
(g3493
S'\xd7\x00\x00\x00\x00\x00\x00\x00'
p3692
tp3693
Rp3694
sVgimme
p3695
g3489
(g3493
S'R\x00\x00\x00\x00\x00\x00\x00'
p3696
tp3697
Rp3698
sVweather
p3699
g3489
(g3493
S'\xdf\x00\x00\x00\x00\x00\x00\x00'
p3700
tp3701
Rp3702
sVnight
p3703
g3489
(g3493
S'\x85\x00\x00\x00\x00\x00\x00\x00'
p3704
tp3705
Rp3706
sVtunes
p3707
g3489
(g3493
S'\xd6\x00\x00\x00\x00\x00\x00\x00'
p3708
tp3709
Rp3710
sVout
p3711
g3489
(g3493
S'\x90\x00\x00\x00\x00\x00\x00\x00'
p3712
tp3713
Rp3714
sVclassifier
p3715
g3489
(g3493
S'!\x00\x00\x00\x00\x00\x00\x00'
p3716
tp3717
Rp3718
sVinbox
p3719
g3489
(g3493
S'f\x00\x00\x00\x00\x00\x00\x00'
p3720
tp3721
Rp3722
sVset
p3723
g3489
(g3493
S'\xb3\x00\x00\x00\x00\x00\x00\x00'
p3724
tp3725
Rp3726
sVretrieve
p3727
g3489
(g3493
S'\xa9\x00\x00\x00\x00\x00\x00\x00'
p3728
tp3729
Rp3730
sVee
p3731
g3489
(g3493
S'>\x00\x00\x00\x00\x00\x00\x00'
p3732
tp3733
Rp3734
sVintelligence
p3735
g3489
(g3493
S'j\x00\x00\x00\x00\x00\x00\x00'
p3736
tp3737
Rp3738
sVshut
p3739
g3489
(g3493
S'\xb5\x00\x00\x00\x00\x00\x00\x00'
p3740
tp3741
Rp3742
sVhail
p3743
g3489
(g3493
S'\\\x00\x00\x00\x00\x00\x00\x00'
p3744
tp3745
Rp3746
sValice
p3747
g3489
(g3493
S'\x05\x00\x00\x00\x00\x00\x00\x00'
p3748
tp3749
Rp3750
sVzero
p3751
g3489
(g3493
S'\xed\x00\x00\x00\x00\x00\x00\x00'
p3752
tp3753
Rp3754
sVcomputer
p3755
g3489
(g3493
S'(\x00\x00\x00\x00\x00\x00\x00'
p3756
tp3757
Rp3758
sVare
p3759
g3489
(g3493
S'\x0c\x00\x00\x00\x00\x00\x00\x00'
p3760
tp3761
Rp3762
sVclose
p3763
g3489
(g3493
S'#\x00\x00\x00\x00\x00\x00\x00'
p3764
tp3765
Rp3766
sVcalendar
p3767
g3489
(g3493
S'\x1c\x00\x00\x00\x00\x00\x00\x00'
p3768
tp3769
Rp3770
sVextract
p3771
g3489
(g3493
S'C\x00\x00\x00\x00\x00\x00\x00'
p3772
tp3773
Rp3774
sVcold
p3775
g3489
(g3493
S'%\x00\x00\x00\x00\x00\x00\x00'
p3776
tp3777
Rp3778
sVgmail
p3779
g3489
(g3493
S'T\x00\x00\x00\x00\x00\x00\x00'
p3780
tp3781
Rp3782
sVcategory
p3783
g3489
(g3493
S'\x1e\x00\x00\x00\x00\x00\x00\x00'
p3784
tp3785
Rp3786
sVwhat
p3787
g3489
(g3493
S'\xe2\x00\x00\x00\x00\x00\x00\x00'
p3788
tp3789
Rp3790
sVgive
p3791
g3489
(g3493
S'S\x00\x00\x00\x00\x00\x00\x00'
p3792
tp3793
Rp3794
sVfor
p3795
g3489
(g3493
S'J\x00\x00\x00\x00\x00\x00\x00'
p3796
tp3797
Rp3798
sVclock
p3799
g3489
(g3493
S'"\x00\x00\x00\x00\x00\x00\x00'
p3800
tp3801
Rp3802
sVdebrief
p3803
g3489
(g3493
S'.\x00\x00\x00\x00\x00\x00\x00'
p3804
tp3805
Rp3806
sVcurrently
p3807
g3489
(g3493
S',\x00\x00\x00\x00\x00\x00\x00'
p3808
tp3809
Rp3810
sVplease
p3811
g3489
(g3493
S'\x95\x00\x00\x00\x00\x00\x00\x00'
p3812
tp3813
Rp3814
sVbrief
p3815
g3489
(g3493
S'\x15\x00\x00\x00\x00\x00\x00\x00'
p3816
tp3817
Rp3818
sVforecast
p3819
g3489
(g3493
S'K\x00\x00\x00\x00\x00\x00\x00'
p3820
tp3821
Rp3822
sVcurrent
p3823
g3489
(g3493
S'+\x00\x00\x00\x00\x00\x00\x00'
p3824
tp3825
Rp3826
sVre
p3827
g3489
(g3493
S'\xa5\x00\x00\x00\x00\x00\x00\x00'
p3828
tp3829
Rp3830
sVexit
p3831
g3489
(g3493
S'B\x00\x00\x00\x00\x00\x00\x00'
p3832
tp3833
Rp3834
sVabove
p3835
g3489
(g3493
S'\x00\x00\x00\x00\x00\x00\x00\x00'
p3836
tp3837
Rp3838
sVit
p3839
g3489
(g3493
S'm\x00\x00\x00\x00\x00\x00\x00'
p3840
tp3841
Rp3842
sVnew
p3843
g3489
(g3493
S'\x81\x00\x00\x00\x00\x00\x00\x00'
p3844
tp3845
Rp3846
sVnet
p3847
g3489
(g3493
S'\x80\x00\x00\x00\x00\x00\x00\x00'
p3848
tp3849
Rp3850
sVmoderate
p3851
g3489
(g3493
S'z\x00\x00\x00\x00\x00\x00\x00'
p3852
tp3853
Rp3854
sVissue
p3855
g3489
(g3493
S'l\x00\x00\x00\x00\x00\x00\x00'
p3856
tp3857
Rp3858
sVbe
p3859
g3489
(g3493
S'\x10\x00\x00\x00\x00\x00\x00\x00'
p3860
tp3861
Rp3862
sVwe
p3863
g3489
(g3493
S'\xde\x00\x00\x00\x00\x00\x00\x00'
p3864
tp3865
Rp3866
sVnoise
p3867
g3489
(g3493
S'\x87\x00\x00\x00\x00\x00\x00\x00'
p3868
tp3869
Rp3870
sVtomorrow
p3871
g3489
(g3493
S'\xd1\x00\x00\x00\x00\x00\x00\x00'
p3872
tp3873
Rp3874
sVschedule
p3875
g3489
(g3493
S'\xae\x00\x00\x00\x00\x00\x00\x00'
p3876
tp3877
Rp3878
sVscreen
p3879
g3489
(g3493
S'\xaf\x00\x00\x00\x00\x00\x00\x00'
p3880
tp3881
Rp3882
sVdictates
p3883
g3489
(g3493
S'3\x00\x00\x00\x00\x00\x00\x00'
p3884
tp3885
Rp3886
sVfree
p3887
g3489
(g3493
S'L\x00\x00\x00\x00\x00\x00\x00'
p3888
tp3889
Rp3890
sVadd
p3891
g3489
(g3493
S'\x02\x00\x00\x00\x00\x00\x00\x00'
p3892
tp3893
Rp3894
sVillustration
p3895
g3489
(g3493
S'd\x00\x00\x00\x00\x00\x00\x00'
p3896
tp3897
Rp3898
sVactive
p3899
g3489
(g3493
S'\x01\x00\x00\x00\x00\x00\x00\x00'
p3900
tp3901
Rp3902
sVnews
p3903
g3489
(g3493
S'\x82\x00\x00\x00\x00\x00\x00\x00'
p3904
tp3905
Rp3906
sVpost
p3907
g3489
(g3493
S'\x96\x00\x00\x00\x00\x00\x00\x00'
p3908
tp3909
Rp3910
sVdon
p3911
g3489
(g3493
S'8\x00\x00\x00\x00\x00\x00\x00'
p3912
tp3913
Rp3914
sVearlier
p3915
g3489
(g3493
S'<\x00\x00\x00\x00\x00\x00\x00'
p3916
tp3917
Rp3918
sVon
p3919
g3489
(g3493
S'\x8d\x00\x00\x00\x00\x00\x00\x00'
p3920
tp3921
Rp3922
sVsearch
p3923
g3489
(g3493
S'\xb0\x00\x00\x00\x00\x00\x00\x00'
p3924
tp3925
Rp3926
sVlast
p3927
g3489
(g3493
S'o\x00\x00\x00\x00\x00\x00\x00'
p3928
tp3929
Rp3930
sVanything
p3931
g3489
(g3493
S'\x0b\x00\x00\x00\x00\x00\x00\x00'
p3932
tp3933
Rp3934
sVof
p3935
g3489
(g3493
S'\x8a\x00\x00\x00\x00\x00\x00\x00'
p3936
tp3937
Rp3938
sVcould
p3939
g3489
(g3493
S')\x00\x00\x00\x00\x00\x00\x00'
p3940
tp3941
Rp3942
sVquiet
p3943
g3489
(g3493
S'\x9f\x00\x00\x00\x00\x00\x00\x00'
p3944
tp3945
Rp3946
sVturn
p3947
g3489
(g3493
S'\xd8\x00\x00\x00\x00\x00\x00\x00'
p3948
tp3949
Rp3950
sVbrowsing
p3951
g3489
(g3493
S'\x19\x00\x00\x00\x00\x00\x00\x00'
p3952
tp3953
Rp3954
sVcom
p3955
g3489
(g3493
S'&\x00\x00\x00\x00\x00\x00\x00'
p3956
tp3957
Rp3958
sVthink
p3959
g3489
(g3493
S'\xca\x00\x00\x00\x00\x00\x00\x00'
p3960
tp3961
Rp3962
sVfeed
p3963
g3489
(g3493
S'G\x00\x00\x00\x00\x00\x00\x00'
p3964
tp3965
Rp3966
sVthis
p3967
g3489
(g3493
S'\xcb\x00\x00\x00\x00\x00\x00\x00'
p3968
tp3969
Rp3970
sVwhats
p3971
g3489
(g3493
S'\xe3\x00\x00\x00\x00\x00\x00\x00'
p3972
tp3973
Rp3974
sVfeatures
p3975
g3489
(g3493
S'F\x00\x00\x00\x00\x00\x00\x00'
p3976
tp3977
Rp3978
sVsimple
p3979
g3489
(g3493
S'\xb7\x00\x00\x00\x00\x00\x00\x00'
p3980
tp3981
Rp3982
sVsweet
p3983
g3489
(g3493
S'\xc4\x00\x00\x00\x00\x00\x00\x00'
p3984
tp3985
Rp3986
sVtuesday
p3987
g3489
(g3493
S'\xd4\x00\x00\x00\x00\x00\x00\x00'
p3988
tp3989
Rp3990
sVyourself
p3991
g3489
(g3493
S'\xec\x00\x00\x00\x00\x00\x00\x00'
p3992
tp3993
Rp3994
sVdown
p3995
g3489
(g3493
S':\x00\x00\x00\x00\x00\x00\x00'
p3996
tp3997
Rp3998
sVput
p3999
g3489
(g3493
S'\x9d\x00\x00\x00\x00\x00\x00\x00'
p4000
tp4001
Rp4002
sVgoogle
p4003
g3489
(g3493
S'X\x00\x00\x00\x00\x00\x00\x00'
p4004
tp4005
Rp4006
sVdecrease
p4007
g3489
(g3493
S'0\x00\x00\x00\x00\x00\x00\x00'
p4008
tp4009
Rp4010
sVthursday
p4011
g3489
(g3493
S'\xcc\x00\x00\x00\x00\x00\x00\x00'
p4012
tp4013
Rp4014
sVshutdown
p4015
g3489
(g3493
S'\xb6\x00\x00\x00\x00\x00\x00\x00'
p4016
tp4017
Rp4018
sVfake
p4019
g3489
(g3493
S'D\x00\x00\x00\x00\x00\x00\x00'
p4020
tp4021
Rp4022
sVopen
p4023
g3489
(g3493
S'\x8e\x00\x00\x00\x00\x00\x00\x00'
p4024
tp4025
Rp4026
sVyour
p4027
g3489
(g3493
S'\xeb\x00\x00\x00\x00\x00\x00\x00'
p4028
tp4029
Rp4030
sVquit
p4031
g3489
(g3493
S'\xa1\x00\x00\x00\x00\x00\x00\x00'
p4032
tp4033
Rp4034
sVtemperature
p4035
g3489
(g3493
S'\xc7\x00\x00\x00\x00\x00\x00\x00'
p4036
tp4037
Rp4038
sVwould
p4039
g3489
(g3493
S'\xe8\x00\x00\x00\x00\x00\x00\x00'
p4040
tp4041
Rp4042
sVsake
p4043
g3489
(g3493
S'\xab\x00\x00\x00\x00\x00\x00\x00'
p4044
tp4045
Rp4046
sVdecent
p4047
g3489
(g3493
S'/\x00\x00\x00\x00\x00\x00\x00'
p4048
tp4049
Rp4050
sVcreate
p4051
g3489
(g3493
S'*\x00\x00\x00\x00\x00\x00\x00'
p4052
tp4053
Rp4054
sVthere
p4055
g3489
(g3493
S'\xc9\x00\x00\x00\x00\x00\x00\x00'
p4056
tp4057
Rp4058
sVquestion
p4059
g3489
(g3493
S'\x9e\x00\x00\x00\x00\x00\x00\x00'
p4060
tp4061
Rp4062
sVhey
p4063
g3489
(g3493
S'_\x00\x00\x00\x00\x00\x00\x00'
p4064
tp4065
Rp4066
sVnext
p4067
g3489
(g3493
S'\x84\x00\x00\x00\x00\x00\x00\x00'
p4068
tp4069
Rp4070
sVstart
p4071
g3489
(g3493
S'\xc0\x00\x00\x00\x00\x00\x00\x00'
p4072
tp4073
Rp4074
sVlive
p4075
g3489
(g3493
S'r\x00\x00\x00\x00\x00\x00\x00'
p4076
tp4077
Rp4078
sVgoing
p4079
g3489
(g3493
S'V\x00\x00\x00\x00\x00\x00\x00'
p4080
tp4081
Rp4082
sVmusic
p4083
g3489
(g3493
S'}\x00\x00\x00\x00\x00\x00\x00'
p4084
tp4085
Rp4086
sVdogs
p4087
g3489
(g3493
S'7\x00\x00\x00\x00\x00\x00\x00'
p4088
tp4089
Rp4090
sVtoday
p4091
g3489
(g3493
S'\xcf\x00\x00\x00\x00\x00\x00\x00'
p4092
tp4093
Rp4094
sVpretends
p4095
g3489
(g3493
S'\x98\x00\x00\x00\x00\x00\x00\x00'
p4096
tp4097
Rp4098
sVsound
p4099
g3489
(g3493
S'\xbd\x00\x00\x00\x00\x00\x00\x00'
p4100
tp4101
Rp4102
sVreleasing
p4103
g3489
(g3493
S'\xa7\x00\x00\x00\x00\x00\x00\x00'
p4104
tp4105
Rp4106
sVcommands
p4107
g3489
(g3493
S"'\x00\x00\x00\x00\x00\x00\x00"
p4108
tp4109
Rp4110
sVback
p4111
g3489
(g3493
S'\x0e\x00\x00\x00\x00\x00\x00\x00'
p4112
tp4113
Rp4114
sVvolume
p4115
g3489
(g3493
S'\xdc\x00\x00\x00\x00\x00\x00\x00'
p4116
tp4117
Rp4118
sVtrain
p4119
g3489
(g3493
S'\xd2\x00\x00\x00\x00\x00\x00\x00'
p4120
tp4121
Rp4122
sVstick
p4123
g3489
(g3493
S'\xc1\x00\x00\x00\x00\x00\x00\x00'
p4124
tp4125
Rp4126
sVbeat
p4127
g3489
(g3493
S'\x11\x00\x00\x00\x00\x00\x00\x00'
p4128
tp4129
Rp4130
sVfoggy
p4131
g3489
(g3493
S'I\x00\x00\x00\x00\x00\x00\x00'
p4132
tp4133
Rp4134
sVme
p4135
g3489
(g3493
S'y\x00\x00\x00\x00\x00\x00\x00'
p4136
tp4137
Rp4138
sVahead
p4139
g3489
(g3493
S'\x03\x00\x00\x00\x00\x00\x00\x00'
p4140
tp4141
Rp4142
sVfriday
p4143
g3489
(g3493
S'N\x00\x00\x00\x00\x00\x00\x00'
p4144
tp4145
Rp4146
sVunmute
p4147
g3489
(g3493
S'\xd9\x00\x00\x00\x00\x00\x00\x00'
p4148
tp4149
Rp4150
sVsee
p4151
g3489
(g3493
S'\xb1\x00\x00\x00\x00\x00\x00\x00'
p4152
tp4153
Rp4154
sVtell
p4155
g3489
(g3493
S'\xc6\x00\x00\x00\x00\x00\x00\x00'
p4156
tp4157
Rp4158
sVwill
p4159
g3489
(g3493
S'\xe5\x00\x00\x00\x00\x00\x00\x00'
p4160
tp4161
Rp4162
sVlouder
p4163
g3489
(g3493
S't\x00\x00\x00\x00\x00\x00\x00'
p4164
tp4165
Rp4166
sVcan
p4167
g3489
(g3493
S'\x1d\x00\x00\x00\x00\x00\x00\x00'
p4168
tp4169
Rp4170
sVbriefing
p4171
g3489
(g3493
S'\x16\x00\x00\x00\x00\x00\x00\x00'
p4172
tp4173
Rp4174
sVproblem
p4175
g3489
(g3493
S'\x9a\x00\x00\x00\x00\x00\x00\x00'
p4176
tp4177
Rp4178
sVoutcome
p4179
g3489
(g3493
S'\x91\x00\x00\x00\x00\x00\x00\x00'
p4180
tp4181
Rp4182
sVmy
p4183
g3489
(g3493
S'\x7f\x00\x00\x00\x00\x00\x00\x00'
p4184
tp4185
Rp4186
sVdee
p4187
g3489
(g3493
S'1\x00\x00\x00\x00\x00\x00\x00'
p4188
tp4189
Rp4190
sVfeature
p4191
g3489
(g3493
S'E\x00\x00\x00\x00\x00\x00\x00'
p4192
tp4193
Rp4194
sVbrowser
p4195
g3489
(g3493
S'\x18\x00\x00\x00\x00\x00\x00\x00'
p4196
tp4197
Rp4198
sVsaturday
p4199
g3489
(g3493
S'\xad\x00\x00\x00\x00\x00\x00\x00'
p4200
tp4201
Rp4202
sVcell
p4203
g3489
(g3493
S'\x1f\x00\x00\x00\x00\x00\x00\x00'
p4204
tp4205
Rp4206
sVup
p4207
g3489
(g3493
S'\xda\x00\x00\x00\x00\x00\x00\x00'
p4208
tp4209
Rp4210
sValmost
p4211
g3489
(g3493
S'\x06\x00\x00\x00\x00\x00\x00\x00'
p4212
tp4213
Rp4214
sVlock
p4215
g3489
(g3493
S's\x00\x00\x00\x00\x00\x00\x00'
p4216
tp4217
Rp4218
sVis
p4219
g3489
(g3493
S'k\x00\x00\x00\x00\x00\x00\x00'
p4220
tp4221
Rp4222
sVin
p4223
g3489
(g3493
S'e\x00\x00\x00\x00\x00\x00\x00'
p4224
tp4225
Rp4226
sVam
p4227
g3489
(g3493
S'\x07\x00\x00\x00\x00\x00\x00\x00'
p4228
tp4229
Rp4230
sVfuck
p4231
g3489
(g3493
S'O\x00\x00\x00\x00\x00\x00\x00'
p4232
tp4233
Rp4234
sVan
p4235
g3489
(g3493
S'\x08\x00\x00\x00\x00\x00\x00\x00'
p4236
tp4237
Rp4238
sVbeats
p4239
g3489
(g3493
S'\x12\x00\x00\x00\x00\x00\x00\x00'
p4240
tp4241
Rp4242
sVright
p4243
g3489
(g3493
S'\xaa\x00\x00\x00\x00\x00\x00\x00'
p4244
tp4245
Rp4246
sVhave
p4247
g3489
(g3493
S']\x00\x00\x00\x00\x00\x00\x00'
p4248
tp4249
Rp4250
sVstalls
p4251
g3489
(g3493
S'\xbf\x00\x00\x00\x00\x00\x00\x00'
p4252
tp4253
Rp4254
sVcheck
p4255
g3489
(g3493
S' \x00\x00\x00\x00\x00\x00\x00'
p4256
tp4257
Rp4258
sVif
p4259
g3489
(g3493
S'c\x00\x00\x00\x00\x00\x00\x00'
p4260
tp4261
Rp4262
sVinformation
p4263
g3489
(g3493
S'h\x00\x00\x00\x00\x00\x00\x00'
p4264
tp4265
Rp4266
sVrainy
p4267
g3489
(g3493
S'\xa4\x00\x00\x00\x00\x00\x00\x00'
p4268
tp4269
Rp4270
sVno
p4271
g3489
(g3493
S'\x86\x00\x00\x00\x00\x00\x00\x00'
p4272
tp4273
Rp4274
sVmake
p4275
g3489
(g3493
S'w\x00\x00\x00\x00\x00\x00\x00'
p4276
tp4277
Rp4278
sVsong
p4279
g3489
(g3493
S'\xbc\x00\x00\x00\x00\x00\x00\x00'
p4280
tp4281
Rp4282
sVwhen
p4283
g3489
(g3493
S'\xe4\x00\x00\x00\x00\x00\x00\x00'
p4284
tp4285
Rp4286
sVsnow
p4287
g3489
(g3493
S'\xb9\x00\x00\x00\x00\x00\x00\x00'
p4288
tp4289
Rp4290
sVsame
p4291
g3489
(g3493
S'\xac\x00\x00\x00\x00\x00\x00\x00'
p4292
tp4293
Rp4294
sVbroswer
p4295
g3489
(g3493
S'\x17\x00\x00\x00\x00\x00\x00\x00'
p4296
tp4297
Rp4298
sVbeside
p4299
g3489
(g3493
S'\x14\x00\x00\x00\x00\x00\x00\x00'
p4300
tp4301
Rp4302
sVhow
p4303
g3489
(g3493
S'b\x00\x00\x00\x00\x00\x00\x00'
p4304
tp4305
Rp4306
sVhot
p4307
g3489
(g3493
S'a\x00\x00\x00\x00\x00\x00\x00'
p4308
tp4309
Rp4310
sVbefore
p4311
g3489
(g3493
S'\x13\x00\x00\x00\x00\x00\x00\x00'
p4312
tp4313
Rp4314
sVyou
p4315
g3489
(g3493
S'\xea\x00\x00\x00\x00\x00\x00\x00'
p4316
tp4317
Rp4318
sVdocument
p4319
g3489
(g3493
S'6\x00\x00\x00\x00\x00\x00\x00'
p4320
tp4321
Rp4322
sVevents
p4323
g3489
(g3493
S'A\x00\x00\x00\x00\x00\x00\x00'
p4324
tp4325
Rp4326
sVhigher
p4327
g3489
(g3493
S'`\x00\x00\x00\x00\x00\x00\x00'
p4328
tp4329
Rp4330
sVweek
p4331
g3489
(g3493
S'\xe1\x00\x00\x00\x00\x00\x00\x00'
p4332
tp4333
Rp4334
sVplay
p4335
g3489
(g3493
S'\x93\x00\x00\x00\x00\x00\x00\x00'
p4336
tp4337
Rp4338
sVokay
p4339
g3489
(g3493
S'\x8c\x00\x00\x00\x00\x00\x00\x00'
p4340
tp4341
Rp4342
sVmonday
p4343
g3489
(g3493
S'{\x00\x00\x00\x00\x00\x00\x00'
p4344
tp4345
Rp4346
sVdefault
p4347
g3489
(g3493
S'2\x00\x00\x00\x00\x00\x00\x00'
p4348
tp4349
Rp4350
sVany
p4351
g3489
(g3493
S'\n\x00\x00\x00\x00\x00\x00\x00'
p4352
tp4353
Rp4354
sVwatch
p4355
g3489
(g3493
S'\xdd\x00\x00\x00\x00\x00\x00\x00'
p4356
tp4357
Rp4358
sVorg
p4359
g3489
(g3493
S'\x8f\x00\x00\x00\x00\x00\x00\x00'
p4360
tp4361
Rp4362
sVbackbone
p4363
g3489
(g3493
S'\x0f\x00\x00\x00\x00\x00\x00\x00'
p4364
tp4365
Rp4366
sVproblems
p4367
g3489
(g3493
S'\x9b\x00\x00\x00\x00\x00\x00\x00'
p4368
tp4369
Rp4370
sVquieter
p4371
g3489
(g3493
S'\xa0\x00\x00\x00\x00\x00\x00\x00'
p4372
tp4373
Rp4374
sVrain
p4375
g3489
(g3493
S'\xa2\x00\x00\x00\x00\x00\x00\x00'
p4376
tp4377
Rp4378
sVfreezing
p4379
g3489
(g3493
S'M\x00\x00\x00\x00\x00\x00\x00'
p4380
tp4381
Rp4382
sVbyebye
p4383
g3489
(g3493
S'\x1b\x00\x00\x00\x00\x00\x00\x00'
p4384
tp4385
Rp4386
sVtune
p4387
g3489
(g3493
S'\xd5\x00\x00\x00\x00\x00\x00\x00'
p4388
tp4389
Rp4390
sVgrief
p4391
g3489
(g3493
S'[\x00\x00\x00\x00\x00\x00\x00'
p4392
tp4393
Rp4394
sVlower
p4395
g3489
(g3493
S'u\x00\x00\x00\x00\x00\x00\x00'
p4396
tp4397
Rp4398
sVoff
p4399
g3489
(g3493
S'\x8b\x00\x00\x00\x00\x00\x00\x00'
p4400
tp4401
Rp4402
sVusing
p4403
g3489
(g3493
S'\xdb\x00\x00\x00\x00\x00\x00\x00'
p4404
tp4405
Rp4406
sVread
p4407
g3489
(g3493
S'\xa6\x00\x00\x00\x00\x00\x00\x00'
p4408
tp4409
Rp4410
sVgather
p4411
g3489
(g3493
S'P\x00\x00\x00\x00\x00\x00\x00'
p4412
tp4413
Rp4414
sVtale
p4415
g3489
(g3493
S'\xc5\x00\x00\x00\x00\x00\x00\x00'
p4416
tp4417
Rp4418
sVtime
p4419
g3489
(g3493
S'\xcd\x00\x00\x00\x00\x00\x00\x00'
p4420
tp4421
Rp4422
sVnewsfeed
p4423
g3489
(g3493
S'\x83\x00\x00\x00\x00\x00\x00\x00'
p4424
tp4425
Rp4426
sVthe
p4427
g3489
(g3493
S'\xc8\x00\x00\x00\x00\x00\x00\x00'
p4428
tp4429
Rp4430
sVincrease
p4431
g3489
(g3493
S'g\x00\x00\x00\x00\x00\x00\x00'
p4432
tp4433
Rp4434
sVplaying
p4435
g3489
(g3493
S'\x94\x00\x00\x00\x00\x00\x00\x00'
p4436
tp4437
Rp4438
sVdot
p4439
g3489
(g3493
S'9\x00\x00\x00\x00\x00\x00\x00'
p4440
tp4441
Rp4442
sVlatest
p4443
g3489
(g3493
S'p\x00\x00\x00\x00\x00\x00\x00'
p4444
tp4445
Rp4446
ssS'binary'
p4447
I00
sS'ngram_range'
p4448
(I1
I1
tp4449
sg3463
g3464
sS'max_df'
p4450
F1.0
sS'min_df'
p4451
I1
sS'max_features'
p4452
NsS'fixed_vocabulary_'
p4453
I00
sS'strip_accents'
p4454
NsS'dtype'
p4455
cnumpy
int64
p4456
sS'stop_words_'
p4457
c__builtin__
set
p4458
((lp4459
tp4460
Rp4461
sS'preprocessor'
p4462
Nsbtp4463
a(S'tfidf'
p4464
g3457
(csklearn.feature_extraction.text
TfidfTransformer
p4465
g3459
Ntp4466
Rp4467
(dp4468
S'smooth_idf'
p4469
I01
sg3463
g3464
sS'_idf_diag'
p4470
g3457
(cscipy.sparse.csr
csr_matrix
p4471
g3459
Ntp4472
Rp4473
(dp4474
S'indices'
p4475
cnumpy.core.multiarray
_reconstruct
p4476
(cnumpy
ndarray
p4477
(I0
tp4478
S'b'
p4479
tp4480
Rp4481
(I1
(I238
tp4482
g3490
(S'i4'
p4483
I0
I1
tp4484
Rp4485
(I3
S'<'
p4486
NNNI-1
I-1
I0
tp4487
bI00
S'\x00\x00\x00\x00\x01\x00\x00\x00\x02\x00\x00\x00\x03\x00\x00\x00\x04\x00\x00\x00\x05\x00\x00\x00\x06\x00\x00\x00\x07\x00\x00\x00\x08\x00\x00\x00\t\x00\x00\x00\n\x00\x00\x00\x0b\x00\x00\x00\x0c\x00\x00\x00\r\x00\x00\x00\x0e\x00\x00\x00\x0f\x00\x00\x00\x10\x00\x00\x00\x11\x00\x00\x00\x12\x00\x00\x00\x13\x00\x00\x00\x14\x00\x00\x00\x15\x00\x00\x00\x16\x00\x00\x00\x17\x00\x00\x00\x18\x00\x00\x00\x19\x00\x00\x00\x1a\x00\x00\x00\x1b\x00\x00\x00\x1c\x00\x00\x00\x1d\x00\x00\x00\x1e\x00\x00\x00\x1f\x00\x00\x00 \x00\x00\x00!\x00\x00\x00"\x00\x00\x00#\x00\x00\x00$\x00\x00\x00%\x00\x00\x00&\x00\x00\x00\'\x00\x00\x00(\x00\x00\x00)\x00\x00\x00*\x00\x00\x00+\x00\x00\x00,\x00\x00\x00-\x00\x00\x00.\x00\x00\x00/\x00\x00\x000\x00\x00\x001\x00\x00\x002\x00\x00\x003\x00\x00\x004\x00\x00\x005\x00\x00\x006\x00\x00\x007\x00\x00\x008\x00\x00\x009\x00\x00\x00:\x00\x00\x00;\x00\x00\x00<\x00\x00\x00=\x00\x00\x00>\x00\x00\x00?\x00\x00\x00@\x00\x00\x00A\x00\x00\x00B\x00\x00\x00C\x00\x00\x00D\x00\x00\x00E\x00\x00\x00F\x00\x00\x00G\x00\x00\x00H\x00\x00\x00I\x00\x00\x00J\x00\x00\x00K\x00\x00\x00L\x00\x00\x00M\x00\x00\x00N\x00\x00\x00O\x00\x00\x00P\x00\x00\x00Q\x00\x00\x00R\x00\x00\x00S\x00\x00\x00T\x00\x00\x00U\x00\x00\x00V\x00\x00\x00W\x00\x00\x00X\x00\x00\x00Y\x00\x00\x00Z\x00\x00\x00[\x00\x00\x00\\\x00\x00\x00]\x00\x00\x00^\x00\x00\x00_\x00\x00\x00`\x00\x00\x00a\x00\x00\x00b\x00\x00\x00c\x00\x00\x00d\x00\x00\x00e\x00\x00\x00f\x00\x00\x00g\x00\x00\x00h\x00\x00\x00i\x00\x00\x00j\x00\x00\x00k\x00\x00\x00l\x00\x00\x00m\x00\x00\x00n\x00\x00\x00o\x00\x00\x00p\x00\x00\x00q\x00\x00\x00r\x00\x00\x00s\x00\x00\x00t\x00\x00\x00u\x00\x00\x00v\x00\x00\x00w\x00\x00\x00x\x00\x00\x00y\x00\x00\x00z\x00\x00\x00{\x00\x00\x00|\x00\x00\x00}\x00\x00\x00~\x00\x00\x00\x7f\x00\x00\x00\x80\x00\x00\x00\x81\x00\x00\x00\x82\x00\x00\x00\x83\x00\x00\x00\x84\x00\x00\x00\x85\x00\x00\x00\x86\x00\x00\x00\x87\x00\x00\x00\x88\x00\x00\x00\x89\x00\x00\x00\x8a\x00\x00\x00\x8b\x00\x00\x00\x8c\x00\x00\x00\x8d\x00\x00\x00\x8e\x00\x00\x00\x8f\x00\x00\x00\x90\x00\x00\x00\x91\x00\x00\x00\x92\x00\x00\x00\x93\x00\x00\x00\x94\x00\x00\x00\x95\x00\x00\x00\x96\x00\x00\x00\x97\x00\x00\x00\x98\x00\x00\x00\x99\x00\x00\x00\x9a\x00\x00\x00\x9b\x00\x00\x00\x9c\x00\x00\x00\x9d\x00\x00\x00\x9e\x00\x00\x00\x9f\x00\x00\x00\xa0\x00\x00\x00\xa1\x00\x00\x00\xa2\x00\x00\x00\xa3\x00\x00\x00\xa4\x00\x00\x00\xa5\x00\x00\x00\xa6\x00\x00\x00\xa7\x00\x00\x00\xa8\x00\x00\x00\xa9\x00\x00\x00\xaa\x00\x00\x00\xab\x00\x00\x00\xac\x00\x00\x00\xad\x00\x00\x00\xae\x00\x00\x00\xaf\x00\x00\x00\xb0\x00\x00\x00\xb1\x00\x00\x00\xb2\x00\x00\x00\xb3\x00\x00\x00\xb4\x00\x00\x00\xb5\x00\x00\x00\xb6\x00\x00\x00\xb7\x00\x00\x00\xb8\x00\x00\x00\xb9\x00\x00\x00\xba\x00\x00\x00\xbb\x00\x00\x00\xbc\x00\x00\x00\xbd\x00\x00\x00\xbe\x00\x00\x00\xbf\x00\x00\x00\xc0\x00\x00\x00\xc1\x00\x00\x00\xc2\x00\x00\x00\xc3\x00\x00\x00\xc4\x00\x00\x00\xc5\x00\x00\x00\xc6\x00\x00\x00\xc7\x00\x00\x00\xc8\x00\x00\x00\xc9\x00\x00\x00\xca\x00\x00\x00\xcb\x00\x00\x00\xcc\x00\x00\x00\xcd\x00\x00\x00\xce\x00\x00\x00\xcf\x00\x00\x00\xd0\x00\x00\x00\xd1\x00\x00\x00\xd2\x00\x00\x00\xd3\x00\x00\x00\xd4\x00\x00\x00\xd5\x00\x00\x00\xd6\x00\x00\x00\xd7\x00\x00\x00\xd8\x00\x00\x00\xd9\x00\x00\x00\xda\x00\x00\x00\xdb\x00\x00\x00\xdc\x00\x00\x00\xdd\x00\x00\x00\xde\x00\x00\x00\xdf\x00\x00\x00\xe0\x00\x00\x00\xe1\x00\x00\x00\xe2\x00\x00\x00\xe3\x00\x00\x00\xe4\x00\x00\x00\xe5\x00\x00\x00\xe6\x00\x00\x00\xe7\x00\x00\x00\xe8\x00\x00\x00\xe9\x00\x00\x00\xea\x00\x00\x00\xeb\x00\x00\x00\xec\x00\x00\x00\xed\x00\x00\x00'
p4488
tp4489
bsS'indptr'
p4490
g4476
(g4477
(I0
tp4491
g4479
tp4492
Rp4493
(I1
(I239
tp4494
g4485
I00
S'\x00\x00\x00\x00\x01\x00\x00\x00\x02\x00\x00\x00\x03\x00\x00\x00\x04\x00\x00\x00\x05\x00\x00\x00\x06\x00\x00\x00\x07\x00\x00\x00\x08\x00\x00\x00\t\x00\x00\x00\n\x00\x00\x00\x0b\x00\x00\x00\x0c\x00\x00\x00\r\x00\x00\x00\x0e\x00\x00\x00\x0f\x00\x00\x00\x10\x00\x00\x00\x11\x00\x00\x00\x12\x00\x00\x00\x13\x00\x00\x00\x14\x00\x00\x00\x15\x00\x00\x00\x16\x00\x00\x00\x17\x00\x00\x00\x18\x00\x00\x00\x19\x00\x00\x00\x1a\x00\x00\x00\x1b\x00\x00\x00\x1c\x00\x00\x00\x1d\x00\x00\x00\x1e\x00\x00\x00\x1f\x00\x00\x00 \x00\x00\x00!\x00\x00\x00"\x00\x00\x00#\x00\x00\x00$\x00\x00\x00%\x00\x00\x00&\x00\x00\x00\'\x00\x00\x00(\x00\x00\x00)\x00\x00\x00*\x00\x00\x00+\x00\x00\x00,\x00\x00\x00-\x00\x00\x00.\x00\x00\x00/\x00\x00\x000\x00\x00\x001\x00\x00\x002\x00\x00\x003\x00\x00\x004\x00\x00\x005\x00\x00\x006\x00\x00\x007\x00\x00\x008\x00\x00\x009\x00\x00\x00:\x00\x00\x00;\x00\x00\x00<\x00\x00\x00=\x00\x00\x00>\x00\x00\x00?\x00\x00\x00@\x00\x00\x00A\x00\x00\x00B\x00\x00\x00C\x00\x00\x00D\x00\x00\x00E\x00\x00\x00F\x00\x00\x00G\x00\x00\x00H\x00\x00\x00I\x00\x00\x00J\x00\x00\x00K\x00\x00\x00L\x00\x00\x00M\x00\x00\x00N\x00\x00\x00O\x00\x00\x00P\x00\x00\x00Q\x00\x00\x00R\x00\x00\x00S\x00\x00\x00T\x00\x00\x00U\x00\x00\x00V\x00\x00\x00W\x00\x00\x00X\x00\x00\x00Y\x00\x00\x00Z\x00\x00\x00[\x00\x00\x00\\\x00\x00\x00]\x00\x00\x00^\x00\x00\x00_\x00\x00\x00`\x00\x00\x00a\x00\x00\x00b\x00\x00\x00c\x00\x00\x00d\x00\x00\x00e\x00\x00\x00f\x00\x00\x00g\x00\x00\x00h\x00\x00\x00i\x00\x00\x00j\x00\x00\x00k\x00\x00\x00l\x00\x00\x00m\x00\x00\x00n\x00\x00\x00o\x00\x00\x00p\x00\x00\x00q\x00\x00\x00r\x00\x00\x00s\x00\x00\x00t\x00\x00\x00u\x00\x00\x00v\x00\x00\x00w\x00\x00\x00x\x00\x00\x00y\x00\x00\x00z\x00\x00\x00{\x00\x00\x00|\x00\x00\x00}\x00\x00\x00~\x00\x00\x00\x7f\x00\x00\x00\x80\x00\x00\x00\x81\x00\x00\x00\x82\x00\x00\x00\x83\x00\x00\x00\x84\x00\x00\x00\x85\x00\x00\x00\x86\x00\x00\x00\x87\x00\x00\x00\x88\x00\x00\x00\x89\x00\x00\x00\x8a\x00\x00\x00\x8b\x00\x00\x00\x8c\x00\x00\x00\x8d\x00\x00\x00\x8e\x00\x00\x00\x8f\x00\x00\x00\x90\x00\x00\x00\x91\x00\x00\x00\x92\x00\x00\x00\x93\x00\x00\x00\x94\x00\x00\x00\x95\x00\x00\x00\x96\x00\x00\x00\x97\x00\x00\x00\x98\x00\x00\x00\x99\x00\x00\x00\x9a\x00\x00\x00\x9b\x00\x00\x00\x9c\x00\x00\x00\x9d\x00\x00\x00\x9e\x00\x00\x00\x9f\x00\x00\x00\xa0\x00\x00\x00\xa1\x00\x00\x00\xa2\x00\x00\x00\xa3\x00\x00\x00\xa4\x00\x00\x00\xa5\x00\x00\x00\xa6\x00\x00\x00\xa7\x00\x00\x00\xa8\x00\x00\x00\xa9\x00\x00\x00\xaa\x00\x00\x00\xab\x00\x00\x00\xac\x00\x00\x00\xad\x00\x00\x00\xae\x00\x00\x00\xaf\x00\x00\x00\xb0\x00\x00\x00\xb1\x00\x00\x00\xb2\x00\x00\x00\xb3\x00\x00\x00\xb4\x00\x00\x00\xb5\x00\x00\x00\xb6\x00\x00\x00\xb7\x00\x00\x00\xb8\x00\x00\x00\xb9\x00\x00\x00\xba\x00\x00\x00\xbb\x00\x00\x00\xbc\x00\x00\x00\xbd\x00\x00\x00\xbe\x00\x00\x00\xbf\x00\x00\x00\xc0\x00\x00\x00\xc1\x00\x00\x00\xc2\x00\x00\x00\xc3\x00\x00\x00\xc4\x00\x00\x00\xc5\x00\x00\x00\xc6\x00\x00\x00\xc7\x00\x00\x00\xc8\x00\x00\x00\xc9\x00\x00\x00\xca\x00\x00\x00\xcb\x00\x00\x00\xcc\x00\x00\x00\xcd\x00\x00\x00\xce\x00\x00\x00\xcf\x00\x00\x00\xd0\x00\x00\x00\xd1\x00\x00\x00\xd2\x00\x00\x00\xd3\x00\x00\x00\xd4\x00\x00\x00\xd5\x00\x00\x00\xd6\x00\x00\x00\xd7\x00\x00\x00\xd8\x00\x00\x00\xd9\x00\x00\x00\xda\x00\x00\x00\xdb\x00\x00\x00\xdc\x00\x00\x00\xdd\x00\x00\x00\xde\x00\x00\x00\xdf\x00\x00\x00\xe0\x00\x00\x00\xe1\x00\x00\x00\xe2\x00\x00\x00\xe3\x00\x00\x00\xe4\x00\x00\x00\xe5\x00\x00\x00\xe6\x00\x00\x00\xe7\x00\x00\x00\xe8\x00\x00\x00\xe9\x00\x00\x00\xea\x00\x00\x00\xeb\x00\x00\x00\xec\x00\x00\x00\xed\x00\x00\x00\xee\x00\x00\x00'
p4495
tp4496
bsS'maxprint'
p4497
I50
sS'_shape'
p4498
(I238
I238
tp4499
sg12
g4476
(g4477
(I0
tp4500
g4479
tp4501
Rp4502
(I1
(I238
tp4503
g3490
(S'f8'
p4504
I0
I1
tp4505
Rp4506
(I3
S'<'
p4507
NNNI-1
I-1
I0
tp4508
bI00
S'E\xfe5\xa6\xb1\x07\x1f@s\xa1n\xe9n\xf8\x16@\xa4\xe1\xf7\x8e\xe5[\x13@\xed\xae\x88Z\xdd\x04\x1a@\x07\xb7VF\xe9A\x1c@\xdd\xa9U*\x086\x18@E\xfe5\xa6\xb1\x07\x1f@\xd6\xaf\xcc\xe1\x12\x11\x14@\xaf\xa43\xa3\x96@\x13@E\xfe5\xa6\xb1\x07\x1f@>\xc5\x9c\x08HF\x10@8`%$\xd94\x0b@b\x1b\x97jw\xaa\x12@\x8b(\x98\x86X\xb6\x16@\xed\xae\x88Z\xdd\x04\x1a@E\xfe5\xa6\xb1\x07\x1f@\xc0\x04jg\x7fh\x1d@\xf8\x9a:(\xa1\x97\x18@E\xfe5\xa6\xb1\x07\x1f@\xc0\x04jg\x7fh\x1d@\xc0\x04jg\x7fh\x1d@E\xfe5\xa6\xb1\x07\x1f@E\xfe5\xa6\xb1\x07\x1f@\x07\xb7VF\xe9A\x1c@*\xabgdd\xa1\x11@\xc9ow\xe6 |\x19@\x82\xbd\x8a\x07\xb7\xa2\x1a@E\xfe5\xa6\xb1\x07\x1f@O\xfc\xab\xf6\xff8\x0e@dr\xc7\xb5\xeb\x90\n@E\xfe5\xa6\xb1\x07\x1f@E\xfe5\xa6\xb1\x07\x1f@\xf4\x8e\x00\xf9}.\x07@E\xfe5\xa6\xb1\x07\x1f@\x07/\xccG&\x17\x15@\x07/\xccG&\x17\x15@\xfe\xc3\xbe\xc8\x84\x03\x19@\xfe\xc3\xbe\xc8\x84\x03\x19@6\xe2\x19\x88i]\x1b@E\xfe5\xa6\xb1\x07\x1f@4\xd9\xea:\x84\xb3\x11@\xe62\xc8\xd5W\x9b\x0f@\xa4\xe1\xf7\x8e\xe5[\x13@\x9d\x15\xf3\xd2\x0b\xa4\x10@E\xfe5\xa6\xb1\x07\x1f@\x88\xbe8\xc5{\xb2\x13@E\xfe5\xa6\xb1\x07\x1f@E\xfe5\xa6\xb1\x07\x1f@\xc0\x04jg\x7fh\x1d@\xc0\x04jg\x7fh\x1d@\x07/\xccG&\x17\x15@E\xfe5\xa6\xb1\x07\x1f@E\xfe5\xa6\xb1\x07\x1f@\xc6\xc4\xfe\xe1\xac\xe7\x08@E\xfe5\xa6\xb1\x07\x1f@E\xfe5\xa6\xb1\x07\x1f@\x16A\x1b\x10+\x17\x0f@s\xa1n\xe9n\xf8\x16@\xa4\xe1\xf7\x8e\xe5[\x13@\xc0\x04jg\x7fh\x1d@E\xfe5\xa6\xb1\x07\x1f@\xc0\x04jg\x7fh\x1d@\xc0\x04jg\x7fh\x1d@E\xfe5\xa6\xb1\x07\x1f@N\xc6eD\x9a\xca\x0b@\x9b\x0b^\x1b\xfa\xc1\n@6\xe2\x19\x88i]\x1b@E\xfe5\xa6\xb1\x07\x1f@E\xfe5\xa6\xb1\x07\x1f@E\xfe5\xa6\xb1\x07\x1f@E\xfe5\xa6\xb1\x07\x1f@*n\xdd\xbb\xe2\x9f\x15@[\x7f|\xf0\xf7\x8a\x17@\xfe\xc3\xbe\xc8\x84\x03\x19@~\xe9\xa9\xd4\xf2%\x0e@*n\xdd\xbb\xe2\x9f\x15@\xd6\xaf\xcc\xe1\x12\x11\x14@\xfe\xc3\xbe\xc8\x84\x03\x19@6Z\x8f\x89\xa62\x14@E\xfe5\xa6\xb1\x07\x1f@\x07\xb7VF\xe9A\x1c@q]TC\xcez\x10@E\xfe5\xa6\xb1\x07\x1f@\xf8\x9a:(\xa1\x97\x18@\xc3A\x99\xe0\xd5\xed\r@tF.\xa0]U\x14@6\xe2\x19\x88i]\x1b@\x07\xb7VF\xe9A\x1c@\xde\xf0\xbd0g\xff\x11@E\xfe5\xa6\xb1\x07\x1f@\xc0\x04jg\x7fh\x1d@E\xfe5\xa6\xb1\x07\x1f@\xc0\x04jg\x7fh\x1d@)\x884\xfe\x9e#\t@\xc0|\xdfh\xbc=\x16@\xc0\x04jg\x7fh\x1d@\xc9ow\xe6 |\x19@\xfe\xc3\xbe\xc8\x84\x03\x19@[\x7f|\xf0\xf7\x8a\x17@\x04\xc5l\x86I\x13\x12@E\xfe5\xa6\xb1\x07\x1f@\x12\x99\xa2\xc7\x04B\x0b@y\x10W6s\xf8\x0f@E\xfe5\xa6\xb1\x07\x1f@6\xe2\x19\x88i]\x1b@\x07\xb7VF\xe9A\x1c@E\xfe5\xa6\xb1\x07\x1f@\xf8N"dk\xf5\x0b@E\xfe5\xa6\xb1\x07\x1f@\x89\xd1\xdf\x89\xb6\x84\x0f@\x1d8\x9d\x90/\xc5\x14@[\x7f|\xf0\xf7\x8a\x17@\x82\xbd\x8a\x07\xb7\xa2\x1a@E\xfe5\xa6\xb1\x07\x1f@\xd6\xaf\xcc\xe1\x12\x11\x14@\x1d8\x9d\x90/\xc5\x14@\x82\xbd\x8a\x07\xb7\xa2\x1a@\xed\xae\x88Z\xdd\x04\x1a@\xeb#\x17\xb6w\xdb\r@(\xcdL\xee\xecf\x12@E\xfe5\xa6\xb1\x07\x1f@\\\xefMc\xc7\xf2\x12@E\xfe5\xa6\xb1\x07\x1f@6Z\x8f\x89\xa62\x14@6Z\x8f\x89\xa62\x14@\xc0\x04jg\x7fh\x1d@6\xe2\x19\x88i]\x1b@\xc6\xc4\xfe\xe1\xac\xe7\x08@\xc0\x04jg\x7fh\x1d@\xfd\x81\x98v\xe2l\n@\x9d\x15\xf3\xd2\x0b\xa4\x10@\xbaS[\xc8\xd8\xd1\x15@\xa4\xe1\xf7\x8e\xe5[\x13@\xc0\x04jg\x7fh\x1d@E\xfe5\xa6\xb1\x07\x1f@E\xfe5\xa6\xb1\x07\x1f@*n\xdd\xbb\xe2\x9f\x15@\xfe\xc3\xbe\xc8\x84\x03\x19@\xc0\x04jg\x7fh\x1d@\xaf\xa43\xa3\x96@\x13@\xc0\x04jg\x7fh\x1d@\xd6\x17\xb4\xde\x18\x15\x06@|\x10b\x12U\xa5\r@\xc0\x04jg\x7fh\x1d@E\xfe5\xa6\xb1\x07\x1f@E\xfe5\xa6\xb1\x07\x1f@\xc6\x05\x18%Dx\x16@\xafg\xa9\xfa\x14?\x17@\xc0\x04jg\x7fh\x1d@\x15\xe3J\xfdk\xac\x00@\xc0\x04jg\x7fh\x1d@\xc0\x04jg\x7fh\x1d@E\xfe5\xa6\xb1\x07\x1f@\xed\xae\x88Z\xdd\x04\x1a@E\xfe5\xa6\xb1\x07\x1f@E\xfe5\xa6\xb1\x07\x1f@6\xe2\x19\x88i]\x1b@6\xe2\x19\x88i]\x1b@E\xfe5\xa6\xb1\x07\x1f@\xc0\x04jg\x7fh\x1d@E\xfe5\xa6\xb1\x07\x1f@\xc0\x04jg\x7fh\x1d@\xc0\x04jg\x7fh\x1d@\xfe\xc3\xbe\xc8\x84\x03\x19@\xfe\xc3\xbe\xc8\x84\x03\x19@\xdd\xa9U*\x086\x18@\x8b(\x98\x86X\xb6\x16@E\xfe5\xa6\xb1\x07\x1f@E\xfe5\xa6\xb1\x07\x1f@\xf8\x9a:(\xa1\x97\x18@\x82\xbd\x8a\x07\xb7\xa2\x1a@E\xfe5\xa6\xb1\x07\x1f@E\xfe5\xa6\xb1\x07\x1f@6Z\x8f\x89\xa62\x14@\xa4\xe1\xf7\x8e\xe5[\x13@s\xa1n\xe9n\xf8\x16@\x9fbv\xca?p\x15@\x07\xb7VF\xe9A\x1c@\x82\xbd\x8a\x07\xb7\xa2\x1a@\x07\xb7VF\xe9A\x1c@E\xfe5\xa6\xb1\x07\x1f@\xa4\xe1\xf7\x8e\xe5[\x13@\xc6\x05\x18%Dx\x16@E\xfe5\xa6\xb1\x07\x1f@\x82\xbd\x8a\x07\xb7\xa2\x1a@\xc0\x04jg\x7fh\x1d@\xfe\xc3\xbe\xc8\x84\x03\x19@\xc0\x04jg\x7fh\x1d@\x825\x00\t\xf4w\x13@*n\xdd\xbb\xe2\x9f\x15@4\xd9\xea:\x84\xb3\x11@E\xfe5\xa6\xb1\x07\x1f@(\xcdL\xee\xecf\x12@E\xfe5\xa6\xb1\x07\x1f@Dv\xab\xa7\xee\xdc\x17@6Z\x8f\x89\xa62\x14@\xc0\x04jg\x7fh\x1d@E\xfe5\xa6\xb1\x07\x1f@Dv\xab\xa7\xee\xdc\x17@*n\xdd\xbb\xe2\x9f\x15@\xc2\x87\x11\xa8\xaa\xf7\x06@\x0e\x1c\x81r\xe7\x1a\x11@E\xfe5\xa6\xb1\x07\x1f@\xeb#\x17\xb6w\xdb\r@6Z\x8f\x89\xa62\x14@\xec&\xfe[\x1a\xda\x12@`\x8a\xbao\x90w\x0b@O\xfc\xab\xf6\xff8\x0e@6\xe2\x19\x88i]\x1b@N\xe1\xb8&\x90\xf0\x13@E\xfe5\xa6\xb1\x07\x1f@E\xfe5\xa6\xb1\x07\x1f@6Z\x8f\x89\xa62\x14@\xed\xae\x88Z\xdd\x04\x1a@\xc0\x04jg\x7fh\x1d@\xed\xae\x88Z\xdd\x04\x1a@f\x9a\x18/\x1d\x96\x10@6\xe2\x19\x88i]\x1b@\xaf\xa43\xa3\x96@\x13@E\xfe5\xa6\xb1\x07\x1f@\x1d8\x9d\x90/\xc5\x14@\xed\xae\x88Z\xdd\x04\x1a@E\xfe5\xa6\xb1\x07\x1f@*n\xdd\xbb\xe2\x9f\x15@6Z\x8f\x89\xa62\x14@\x02a\xb2x\x95 \x10@\xc2&\x19\xd8h\xff\x06@\xc0\x04jg\x7fh\x1d@\xc0\x04jg\x7fh\x1d@\x90FZ\xac\xf7\xc5\x11@\xec&\xfe[\x1a\xda\x12@\xc0\x04jg\x7fh\x1d@z\xcf\n\xfb\x01\xc2\x12@\xc0\x04jg\x7fh\x1d@%z\xf5(\x10\xb8\x04@\xed\xae\x88Z\xdd\x04\x1a@6\xe2\x19\x88i]\x1b@6\xe2\x19\x88i]\x1b@'
p4509
tp4510
bsbsS'use_idf'
p4511
I01
sS'sublinear_tf'
p4512
I00
sS'norm'
p4513
Vl2
p4514
sbtp4515
a(S'clsfr'
p4516
g3457
(csklearn.linear_model.stochastic_gradient
SGDClassifier
p4517
g3459
Ntp4518
Rp4519
(dp4520
S't_'
p4521
F8601.0
sS'n_jobs'
p4522
I1
sS'shuffle'
p4523
I01
sS'verbose'
p4524
I0
sS'classes_'
p4525
g4476
(g4477
(I0
tp4526
g4479
tp4527
Rp4528
(I1
(I2
tp4529
g3490
(S'S5'
p4530
I0
I1
tp4531
Rp4532
(I3
S'|'
p4533
NNNI5
I1
I0
tp4534
bI00
S'FalseTrue\x00'
p4535
tp4536
bsS'class_weight'
p4537
NsS'fit_intercept'
p4538
I01
sg8
g9
sS'random_state'
p4539
I257
sg3463
g3464
sS'loss_function'
p4540
csklearn.linear_model.sgd_fast
Hinge
p4541
(F1.0
tp4542
Rp4543
sS'C'
p4544
F1.0
sg7
I5
sS'epsilon'
p4545
F0.1
sS'learning_rate'
p4546
S'optimal'
p4547
sS'coef_'
p4548
g4476
(g4477
(I0
tp4549
g4479
tp4550
Rp4551
(I1
(I1
I238
tp4552
g4506
I00
S'\x00\x00\x00\x00\x00\x00\x00\x00\x00\x00\x00\x00\x00\x00\x00\x00\x00\x00\x00\x00\x00\x00\x00\x00\xa5\xb37\x81\x0f\xee\xf7\xbf\x1d\x1a&z\xe4\x9f\xf0\xbfhy\x1d\xd3XP\xff\xbf\x00\x00\x00\x00\x00\x00\x00\x00g\xf0\xfd>\xb5\xd2\xf7\xbf\xa8\x81/O\xb6(\xd4\xbf\xce\xc4h \xe9>\xe0\xbfZ\x02]\xb0Ni\x04\xc0\xbeu0=\'\xbc\xfb\xbf\x00\x00\x00\x00\x00\x00\x00\x00\x00\x00\x00\x00\x00\x00\x00\x00]\xf7Hy7\xef\xf7\xbf\x00\x00\x00\x00\x00\x00\x00\x00\x00\x00\x00\x00\x00\x00\x00\x00\x00\x00\x00\x00\x00\x00\x00\x00\x00\x00\x00\x00\x00\x00\x00\x00\x00\x00\x00\x00\x00\x00\x00\x00\xfc\xd3\xd8\x88\xba\xbc\xf9\xbf\x00\x00\x00\x00\x00\x00\x00\x00\x00\x00\x00\x00\x00\x00\x00\x00\x00\x00\x00\x00\x00\x00\x00\x00mE\x9dBh\xde\x06@L\xd8Hy\xcc\xb7\xf2?\x00\x00\x00\x00\x00\x00\x00\x00\xc9\x8f\x0cwA\xc2\r\xc0\'\x15Q#C\xe3\xfa\xbf H\xf7\xfe\xcdh\xc0?C\x97\xe3c>\xea\xa8\xbf*\xb3\xc5\xc1\x18(\xfb\xbfWv|\xdd\xa6\x9f\xf4\xbfC\x97\xe3c>\xea\xa8\xbf\x00\x00\x00\x00\x00\x00\x00\x00\xa40Z\xed\xb0\xc5\x0e\xc0\x00\x00\x00\x00\x00\x00\x00\x00\x00\x00\x00\x00\x00\x00\x00\x00+q\x03\xf1HL\x04@\x00\x00\x00\x00\x00\x00\x00\x00\xec"Am\xe5\xe8\xf2\xbf\x00\x00\x00\x00\x00\x00\x00\x00\x00\x00\x00\x00\x00\x00\x00\x00<*`\xd7\xbe\x02\x0b\xc0\x00\x00\x00\x00\x00\x00\x00\x00\x00\x00\x00\x00\x00\x00\x00\x00\x00\x00\x00\x00\x00\x00\x00\x00\x00\x00\x00\x00\x00\x00\x00\x00\x00\x00\x00\x00\x00\x00\x00\x00\x84/\xa1\xa4Xn\xd2?z\x8c\xa6\xe2\xe6.\xdd\xbf\x00\x00\x00\x00\x00\x00\x00\x00\xce\xc4h \xe9>\xe0\xbf\x9db5&\x0bv\x17\xc0\x00\x00\x00\x00\x00\x00\x00\x00\x8c\xe0\x1e\xdb\xa6\x99\xeb\xbf\xcd@^\xdc\x19\xa1\x18\xc0k\x87\x84][\xca\x10@\x00\x00\x00\x00\x00\x00\x00\x00\xc5\x83P\r\xc1@\xe6\xbf\xce\xc4h \xe9>\xe0\xbf\xe0\xd8\xdf\\le\xe5?\x84/\xa1\xa4Xn\xd2?\x00\x00\x00\x00\x00\x00\x00\x00\xf4\xed\xd5K\x1d\x93\x05\xc0-\xd0\xe6\xbcO\xb7\x05\xc0\x00\x00\x00\x00\x00\x00\x00\x00\x00\x00\x00\x00\x00\x00\x00\x00\x00\x00\x00\x00\x00\x00\x00\x00\x00\x00\x00\x00\x00\x00\x00\x00\x00\x00\x00\x00\x00\x00\x00\x00\x1ca\xfb\xfc\xc1;\x05\xc0\x00\x00\x00\x00\x00\x00\x00\x00\x00\x00\x00\x00\x00\x00\x00\x00\xf0\x0b\xda+P\xd2\xfa\xbfN4T\xba|\xa1\x04\xc0g\xf0\xfd>\xb5\xd2\xf7\xbf\x00\x00\x00\x00\x00\x00\x00\x00\x1a{\xef\xf6\x91\xfa\xf7\xbf\x00\x00\x00\x00\x00\x00\x00\x00\x00\x00\x00\x00\x00\x00\x00\x00\xba:\xc9\x9f!Q\x05\xc0\x00\x00\x00\x00\x00\x00\x00\x00\x00\x00\x00\x00\x00\x00\x00\x00Z\x1a9\xfe\x11\x9d\x11\xc0\x86$\x0c\x1c\xa07\xfd?\x00\x00\x00\x00\x00\x00\x00\x00Y\xe2\x9f\x9c\x0fF\x02\xc0\x00\x00\x00\x00\x00\x00\x00\x00\x00\x00\x00\x00\x00\x00\x00\x00\xb2\t\xf72\x10\x10\xe0?\x00\x00\x00\x00\x00\x00\x00\x00\x00\x00\x00\x00\x00\x00\x00\x00\x14\xa6j\x19\xa5\xa0\xf9\xbf\x99\'hD;\x18\x0e\xc0\xf3k\x16\x834M\xf1\xbf\x00\x00\x00\x00\x00\x00\x00\x00\x00\x00\x00\x00\x00\x00\x00\x00\x00\x00\x00\x00\x00\x00\x00\x00\x00\x00\x00\x00\x00\x00\x00\x00\x00\x00\x00\x00\x00\x00\x00\x00\x07\xc7\xc2`\x94\xc9\xfb\xbf\xad\x03k\xd2\xb7\xcf\x0e\xc0\x00\x00\x00\x00\x00\x00\x00\x00\x00\x00\x00\x00\x00\x00\x00\x009T\x05\x88\x93\xe6\xd0\xbf<\xda\x92\x0e\xce\x19\xe6\xbf\x00\x00\x00\x00\x00\x00\x00\x00\x00\x00\x00\x00\x00\x00\x00\x00\x03\xaccc!T\x06\xc0\x00\x00\x00\x00\x00\x00\x00\x00\x00\x00\x00\x00\x00\x00\x00\x00\x00\x00\x00\x00\x00\x00\x00\x00\x8c\xe0\x1e\xdb\xa6\x99\xeb\xbf\xde\x11 \xc0(\xb4\x03\xc0\xce4\x9b\x9340\xf6\xbf\x00\x00\x00\x00\x00\x00\x00\x00\x00\x00\x00\x00\x00\x00\x00\x00\\\xa82\xf0|\xde\x05\xc0\x00\x00\x00\x00\x00\x00\x00\x00*\xb3\xc5\xc1\x18(\xfb\xbf$*]\xe2\n\x9b\x02\xc0*\xb3\xc5\xc1\x18(\xfb\xbf\xdej\xe8\xa0\x18\xf8\x01\xc0\r_E\x99\x19\x97\x04\xc0\x00\x00\x00\x00\x00\x00\x00\x00\x1d\x8f\xbcf\xe7\xa2\xf6\xbf\x1c\xee,\x1d\'(\xf6\xbf\xb5Z\x92\xc3O1\xdc?g\xe7\xa7@\xa0\x83\x04\xc0\xfe03\x95\xfeV\x00\xc0\xd5\xcf\xf8/\xee\x08\xfb\xbf\x97\xd2~\xde\x18\xe6\x0c\xc0\x87 \xe0\xc9\x90\x04\x03\xc0\xf6\xdb9\x86\x98$\xdf\xbf\x00\x00\x00\x00\x00\x00\x00\x00\xf4)\xbe"3W\x11\xc0\x00\x00\x00\x00\x00\x00\x00\x00\xcex\x1a\x95\xde\x9c\xa7\xbfW\x83bo"G\x0b\xc0\x00\x00\x00\x00\x00\x00\x00\x00\xff\x14\xe6\x0eT7\xea\xbfU+\\\x18V\xdd\x03@\xa8\x1f\x87\x10\xbe\xf1\xe7?\x00\x00\x00\x00\x00\x00\x00\x00\x00\x00\x00\x00\x00\x00\x00\x00\x88\xd2\x1f\xe6\xa8\xdd\t\xc0\xd6\xb9\xafZ\x0fU\x00\xc0{ff\xb1b\x9c\xf8\xbf\xee\xb7\xaew\xc2\xe6\xb4\xbf\xcex\x1a\x95\xde\x9c\xa7\xbf\xcex\x1a\x95\xde\x9c\xa7\xbf\x00\x00\x00\x00\x00\x00\x00\x00\x00\x00\x00\x00\x00\x00\x00\x00\x00\x00\x00\x00\x00\x00\x00\x00\x00\x00\x00\x00\x00\x00\x00\x00^N\x7f!\xf7\xbf\xd9\xbf\x00\x00\x00\x00\x00\x00\x00\x00\xce\xc4h \xe9>\xe0\xbf\x00\x00\x00\x00\x00\x00\x00\x00\x00\x00\x00\x00\x00\x00\x00\x00\xb5Y\x9d{\xcc\xe3\xfc\xbf\x00\x00\x00\x00\x00\x00\x00\x00\x00\x00\x00\x00\x00\x00\x00\x00\x00\x00\x00\x00\x00\x00\x00\x00\x00\x00\x00\x00\x00\x00\x00\x00\x00\x00\x00\x00\x00\x00\x00\x00*\xb3\xc5\xc1\x18(\xfb\xbf<\xda\x92\x0e\xce\x19\xe6\xbf\x00\x00\x00\x00\x00\x00\x00\x00\x00\x00\x00\x00\x00\x00\x00\x00\x00\x00\x00\x00\x00\x00\x00\x00\x00\x00\x00\x00\x00\x00\x00\x00\x00\x00\x00\x00\x00\x00\x00\x00\xa5[!\xbc\x97\x0e\x0e\xc0\x00\x00\x00\x00\x00\x00\x00\x00c\xe1OUy\xf3\x11\xc0\x00\x00\x00\x00\x00\x00\x00\x00\x00\x00\x00\x00\x00\x00\x00\x00H\xb0_\xc4\xc6&\x01\xc0\x00\x00\x00\x00\x00\x00\x00\x00$\xfa\xfe\x13\xb2\xb2\xc7\xbf\x95ri\xb0&\xaf\x10\xc0\x00\x00\x00\x00\x00\x00\x00\x00\x00\x00\x00\x00\x00\x00\x00\x00\x00\x00\x00\x00\x00\x00\x00\x00\x00\x00\x00\x00\x00\x00\x00\x00\x00\x00\x00\x00\x00\x00\x00\x00\xf1\xae\xa9{9i\x06\xc0\x00\x00\x00\x00\x00\x00\x00\x00\xcb\xbe\xab\xfe\xbfe\x06\xc0*\xb3\xc5\xc1\x18(\xfb\xbfk\x14\x9b\xff\xd9\xea\x02@\x00\x00\x00\x00\x00\x00\x00\x00\x05I\xee?d\xf8\xf3\xbf\x00\x00\x00\x00\x00\x00\x00\x00\xc5\x83P\r\xc1@\xe6\xbf\x00\x00\x00\x00\x00\x00\x00\x00\xd6\xe6\xe2\x89pn\x07\xc0\x00\x00\x00\x00\x00\x00\x00\x00\xab\xffuHxc\x02\xc0\x00\x00\x00\x00\x00\x00\x00\x00\xce\xc4h \xe9>\xe0\xbf\xc7\xdb8\rC\xff\xff\xbf\x00\x00\x00\x00\x00\x00\x00\x00Ho\xe3)*B\xf6\xbf\xee60\xf8\xdbN\xf0?n8\xcd\x82\x00\x8c\x03\xc0\x00\x00\x00\x00\x00\x00\x00\x00\x00\x00\x00\x00\x00\x00\x00\x00C\x97\xe3c>\xea\xa8\xbfC\x97\xe3c>\xea\xa8\xbf\x00\x00\x00\x00\x00\x00\x00\x00\x00\x00\x00\x00\x00\x00\x00\x00\x00\x00\x00\x00\x00\x00\x00\x00\x00\x00\x00\x00\x00\x00\x00\x00\xe0Y\xe7h)\x80\x07\xc0\x00\x00\x00\x00\x00\x00\x00\x00\xfb\xd0\x00<D\x91\xc7\xbf\x00\x00\x00\x00\x00\x00\x00\x00n\x9b\xe7\x1c\xc26\xf9\xbf\x00\x00\x00\x00\x00\x00\x00\x00\x00\x00\x00\x00\x00\x00\x00\x00\xc0\r\xf3\xb2\xce\xf8\x0b\xc0\x00\x00\x00\x00\x00\x00\x00\x00\xf3L\xe9\xdd\xb6\xc5\xfe\xbf\x01\xea\xe1d\xdb\xf0\xf5\xbf\x00\x00\x00\x00\x00\x00\x00\x00\x00\x00\x00\x00\x00\x00\x00\x00\xe2\x80\x06\xab\xb3\xd6\xf2\xbfZ@\x08\xb9\x94\x81\x0b\xc0\x00\x00\x00\x00\x00\x00\x00\x00\x00\x00\x00\x00\x00\x00\x00\x00\x00\x00\x00\x00\x00\x00\x00\x00\n\x7fL\xa3\xc6\x07\xdf\xbf\x00\x00\x00\x00\x00\x00\x00\x00\x00\x00\x00\x00\x00\x00\x00\x00\x00\x00\x00\x00\x00\x00\x00\x00'
p4553
tp4554
bsg11
F0.001
sS'intercept_'
p4555
g4476
(g4477
(I0
tp4556
g4479
tp4557
Rp4558
(I1
(I1
tp4559
g4506
I00
S'\xba\x1b\x19t`\x16\xf0\xbf'
p4560
tp4561
bsS'_expanded_class_weight'
p4562
g4476
(g4477
(I0
tp4563
g4479
tp4564
Rp4565
(I1
(I2
tp4566
g4506
I00
S'\x00\x00\x00\x00\x00\x00\xf0?\x00\x00\x00\x00\x00\x00\xf0?'
p4567
tp4568
bsS'warm_start'
p4569
I00
sg2
g3
sS'eta0'
p4570
F0.0
sS'l1_ratio'
p4571
F0.15
sS'average'
p4572
I00
sS'power_t'
p4573
F0.5
sbtp4574
asbsb.