(ialicized_models
CommandMatchingModel
p0
(dp1
S'loss'
p2
S'hinge'
p3
sS'grammar'
p4
NsS'name'
p5
S'OPEN_WEB_BROWSER.model'
p6
sS'n_iter'
p7
I5
sS'penalty'
p8
S'none'
p9
sS'trained'
p10
I01
sS'alpha'
p11
F0.001
sS'data'
p12
(lp13
(S'check calendar'
p14
S'False'
p15
tp16
a(S'please do not open a browser'
p17
g15
tp18
a(S'is it cold today'
p19
g15
tp20
a(S'can you schedule event please'
p21
g15
tp22
a(S'can you kill this window'
p23
g15
tp24
a(S'what is new in my inbox'
p25
g15
tp26
a(S'open browser please'
p27
S'True'
p28
tp29
a(S'could you check inbox'
p30
g15
tp31
a(S'can you please turn off the computer'
p32
g15
tp33
a(S'get news'
p34
g15
tp35
a(S'could you schedule new event'
p36
g15
tp37
a(S"if it's freezing today"
p38
g15
tp39
a(S'get current time'
p40
g15
tp41
a(S'is there anything to do in a month'
p42
g15
tp43
a(S'check calendar for this day'
p44
g15
tp45
a(S'go back'
p46
g15
tp47
a(S"don't i have to do anything in a month"
p48
g15
tp49
a(S'check events for thursday'
p50
g15
tp51
a(S'what is on my calendar for this month'
p52
g15
tp53
a(S'please start'
p54
g28
tp55
a(S'pause please'
p56
g15
tp57
a(S'do i have anything to do on thursday'
p58
g15
tp59
a(S"aren't there any events on saturday"
p60
g15
tp61
a(S'what events do i have in a week'
p62
g15
tp63
a(S'can you please shutdown my computer'
p64
g15
tp65
a(S'shutdown the computer'
p66
g15
tp67
a(S"get if it's rainy today"
p68
g15
tp69
a(S"what's in mail"
p70
g15
tp71
a(S'whats going on in the world todays please'
p72
g15
tp73
a(S'turn up the beat'
p74
g15
tp75
a(S"don't i have anything on friday"
p76
g15
tp77
a(S'what do i have to do on wednesday'
p78
g15
tp79
a(S'could you check my inbox please'
p80
g15
tp81
a(S'could you please add an event'
p82
g15
tp83
a(S"don't open a broswer"
p84
g15
tp85
a(S'what are the latest events '
p86
g15
tp87
a(S"what's new in gmail"
p88
g15
tp89
a(S'turn it down'
p90
g15
tp91
a(S"don't i have any events in a month"
p92
g15
tp93
a(S"don't i have anything in a week"
p94
g15
tp95
a(S'will you open mail'
p96
g15
tp97
a(S'what do i have on monday'
p98
g15
tp99
a(S'please shutdown the computer'
p100
g15
tp101
a(S'check calendar for tomorrow'
p102
g15
tp103
a(S'check events for monday'
p104
g15
tp105
a(S'what are the the news'
p106
g15
tp107
a(S'please get the current time'
p108
g15
tp109
a(S'could you check new gmail please'
p110
g15
tp111
a(S'check google calendar for monday'
p112
g15
tp113
a(S'will it rain this week'
p114
g15
tp115
a(S'make the sound softer'
p116
g15
tp117
a(S"if it's foggy this week"
p118
g15
tp119
a(S'can you check new gmail please'
p120
g15
tp121
a(S'read your watch'
p122
g15
tp123
a(S'what events are on this day'
p124
g15
tp125
a(S'see ya'
p126
g15
tp127
a(S'can you get the current events'
p128
g15
tp129
a(S"what's if it's snowing this week"
p130
g15
tp131
a(S'what is new in my inbox please'
p132
g15
tp133
a(S'spotify last song please'
p134
g15
tp135
a(S'turn off the computer please'
p136
g15
tp137
a(S"if it's freezing this week"
p138
g15
tp139
a(S"this week's weather"
p140
g15
tp141
a(S'pause spotify please'
p142
g15
tp143
a(S'please google for'
p144
g15
tp145
a(S'go to dot edu'
p146
g28
tp147
a(S'what do i have on wednesday'
p148
g15
tp149
a(S'please turn it up'
p150
g15
tp151
a(S"get if it's hot this week"
p152
g15
tp153
a(S'are there any events in a month'
p154
g15
tp155
a(S'lock computer please'
p156
g15
tp157
a(S'please spotify go '
p158
g15
tp159
a(S'check google calendar for thursday'
p160
g15
tp161
a(S'spotify pause please'
p162
g15
tp163
a(S"if it's snowing this week"
p164
g15
tp165
a(S'bye'
p166
g15
tp167
a(S'shut off'
p168
g15
tp169
a(S"please what's in my mail"
p170
g15
tp171
a(S'any new mail'
p172
g15
tp173
a(S'please can you check my inbox'
p174
g15
tp175
a(S"what's if it's freezing today"
p176
g15
tp177
a(S'can you add new event'
p178
g15
tp179
a(S'what is on my calendar for thursday'
p180
g15
tp181
a(S"what's the weather"
p182
g15
tp183
a(S'can you turn my computer off'
p184
g15
tp185
a(S'could you please create an event'
p186
g15
tp187
a(S'can you please create new event'
p188
g15
tp189
a(S'check my calendar for this month'
p190
g15
tp191
a(S'what do i have to do on next'
p192
g15
tp193
a(S'lower the tunes please'
p194
g15
tp195
a(S'what is current news'
p196
g15
tp197
a(S'would you open mail'
p198
g15
tp199
a(S"aren't there any events in a week"
p200
g15
tp201
a(S'can you please shutdown the computer'
p202
g15
tp203
a(S'shutdown'
p204
g15
tp205
a(S"today's weather"
p206
g15
tp207
a(S'could you add event'
p208
g15
tp209
a(S'what events do i have on sunday'
p210
g15
tp211
a(S'please turn it down'
p212
g15
tp213
a(S'can you please add an event'
p214
g15
tp215
a(S'please start browser'
p216
g28
tp217
a(S'what time is it now'
p218
g15
tp219
a(S'what do i have to do on friday'
p220
g15
tp221
a(S'spotify next'
p222
g15
tp223
a(S'please spotify pause'
p224
g15
tp225
a(S'any events in a month'
p226
g15
tp227
a(S'any events on monday'
p228
g15
tp229
a(S'open my gmail please'
p230
g15
tp231
a(S'check google calendar on this day'
p232
g15
tp233
a(S"please what's in my gmail"
p234
g15
tp235
a(S'can you open a browser please'
p236
g28
tp237
a(S'are there any events on tuesday'
p238
g15
tp239
a(S'start browser please'
p240
g28
tp241
a(S'is it freezing this week'
p242
g15
tp243
a(S'please search for'
p244
g15
tp245
a(S'check calendar for sunday'
p246
g15
tp247
a(S'can you create an event please'
p248
g15
tp249
a(S'lower the tunez please'
p250
g15
tp251
a(S'make event please'
p252
g15
tp253
a(S'could you open mail'
p254
g15
tp255
a(S'do i have anything in a month'
p256
g15
tp257
a(S'how is the forecast'
p258
g15
tp259
a(S'please do not start default browser'
p260
g15
tp261
a(S'check google calendar on next'
p262
g15
tp263
a(S"get if it's raining this week"
p264
g15
tp265
a(S'please check mail'
p266
g15
tp267
a(S'get time'
p268
g15
tp269
a(S'what do i have to do on saturday'
p270
g15
tp271
a(S'get the time'
p272
g15
tp273
a(S'please open my mail'
p274
g15
tp275
a(S'will you open inbox'
p276
g15
tp277
a(S"this week's forecast"
p278
g15
tp279
a(S'when is it please'
p280
g15
tp281
a(S'please what is new in my gmail'
p282
g15
tp283
a(S'get current time please'
p284
g15
tp285
a(S'find news'
p286
g15
tp287
a(S'do i have anything to do on wednesday'
p288
g15
tp289
a(S'am i free for friday'
p290
g15
tp291
a(S'please start a default browser'
p292
g28
tp293
a(S'spotify play the last song'
p294
g15
tp295
a(S'check my calendar on this month'
p296
g15
tp297
a(S'are there any events on today'
p298
g15
tp299
a(S"what's in my inbox"
p300
g15
tp301
a(S'can you shut off my computer'
p302
g15
tp303
a(S'check my calendar on'
p304
g15
tp305
a(S'decrease the volume'
p306
g15
tp307
a(S'turn off my computer please'
p308
g15
tp309
a(S'check google calendar for this day'
p310
g15
tp311
a(S'check google calendar for saturday'
p312
g15
tp313
a(S'turn up'
p314
g15
tp315
a(S"get today's forecast"
p316
g15
tp317
a(S'search google'
p318
g15
tp319
a(S'can you please add new event'
p320
g15
tp321
a(S'is there anything i have to do'
p322
g15
tp323
a(S'what events do i have in a month'
p324
g15
tp325
a(S'please read the time'
p326
g15
tp327
a(S'get news feed'
p328
g15
tp329
a(S'check my gmail'
p330
g15
tp331
a(S'check calendar for saturday'
p332
g15
tp333
a(S'do i have any events on'
p334
g15
tp335
a(S'turn my computer off'
p336
g15
tp337
a(S'please last song'
p338
g15
tp339
a(S'give me the current events'
p340
g15
tp341
a(S'please kill the window'
p342
g15
tp343
a(S'is it foggy today'
p344
g15
tp345
a(S"what's in inbox"
p346
g15
tp347
a(S'check google calendar on tuesday'
p348
g15
tp349
a(S'the news today'
p350
g15
tp351
a(S'search google for please'
p352
g15
tp353
a(S'is there anything i have to do in a week'
p354
g15
tp355
a(S'emergency shutdown'
p356
g15
tp357
a(S'please open a browser'
p358
g28
tp359
a(S'could you open my mail please'
p360
g15
tp361
a(S'search google for'
p362
g15
tp363
a(S'will you check my inbox please'
p364
g15
tp365
a(S'go to dot ee dee you'
p366
g28
tp367
a(S'current time'
p368
g15
tp369
a(S'am i free for today'
p370
g15
tp371
a(S'what do i have on today'
p372
g15
tp373
a(S'is there anything i have to do on wednesday'
p374
g15
tp375
a(S'what time is it currently'
p376
g15
tp377
a(S'shutdown my computer'
p378
g15
tp379
a(S'turn it down'
p380
g15
tp381
a(S'exit please'
p382
g15
tp383
a(S'what time is it'
p384
g15
tp385
a(S"this week's forecast"
p386
g15
tp387
a(S'can you lock computer'
p388
g15
tp389
a(S"don't i have anything on monday"
p390
g15
tp391
a(S'can you shut down'
p392
g15
tp393
a(S"what's new in new mail please"
p394
g15
tp395
a(S'please could you open inbox'
p396
g15
tp397
a(S'any events in a week'
p398
g15
tp399
a(S"get this week's forecast"
p400
g15
tp401
a(S"don't i have anything today"
p402
g15
tp403
a(S"don't i have any events on this day"
p404
g15
tp405
a(S'what events do i have on monday'
p406
g15
tp407
a(S'anything new in mail'
p408
g15
tp409
a(S'could you open mail please'
p410
g15
tp411
a(S'open a default browser'
p412
g28
tp413
a(S'please can you make it louder'
p414
g15
tp415
a(S'get me the news todays'
p416
g15
tp417
a(S"what's in my mail please"
p418
g15
tp419
a(S"please what's new in inbox"
p420
g15
tp421
a(S'do i have anything in a week'
p422
g15
tp423
a(S"please don't start browsing"
p424
g15
tp425
a(S'turn the beat down'
p426
g15
tp427
a(S'please read the clock'
p428
g15
tp429
a(S'shut off please'
p430
g15
tp431
a(S'please would you open gmail'
p432
g15
tp433
a(S'please retrieve what time it is'
p434
g15
tp435
a(S'play '
p436
g15
tp437
a(S'please close current window'
p438
g15
tp439
a(S'please get the current events'
p440
g15
tp441
a(S'is there anything i have to do on friday'
p442
g15
tp443
a(S'check the clock right now please'
p444
g15
tp445
a(S'check google calendar on saturday'
p446
g15
tp447
a(S'go to dot gov'
p448
g28
tp449
a(S'shut my computer down'
p450
g15
tp451
a(S"don't start a browser"
p452
g15
tp453
a(S"how's the weather this week"
p454
g15
tp455
a(S'create new event please'
p456
g15
tp457
a(S'please spotify pause the song'
p458
g15
tp459
a(S'please get the clock'
p460
g15
tp461
a(S"please what's new in mail"
p462
g15
tp463
a(S'shut off my computer please'
p464
g15
tp465
a(S'what do i have to do on'
p466
g15
tp467
a(S'what is in mail'
p468
g15
tp469
a(S'search google please'
p470
g15
tp471
a(S'what do i have on saturday'
p472
g15
tp473
a(S'check events for'
p474
g15
tp475
a(S"this week's weather"
p476
g15
tp477
a(S'check my calendar for next'
p478
g15
tp479
a(S'close current window'
p480
g15
tp481
a(S'is there anything to do on this day'
p482
g15
tp483
a(S"what's new in my inbox please"
p484
g15
tp485
a(S'check my calendar on tuesday'
p486
g15
tp487
a(S'can you schedule new event please'
p488
g15
tp489
a(S'is it raining this week'
p490
g15
tp491
a(S'please will you check my inbox'
p492
g15
tp493
a(S'can you turn off the computer'
p494
g15
tp495
a(S"today's current events"
p496
g15
tp497
a(S'check events on today'
p498
g15
tp499
a(S'add new event please'
p500
g15
tp501
a(S'is there anything i have to do on tuesday'
p502
g15
tp503
a(S'can you turn yourself off please'
p504
g15
tp505
a(S'turn down the sound'
p506
g15
tp507
a(S'add a new event please'
p508
g15
tp509
a(S'add event'
p510
g15
tp511
a(S"if it's rainy this week"
p512
g15
tp513
a(S'would you check new mail'
p514
g15
tp515
a(S'anything new in my inbox'
p516
g15
tp517
a(S'could you check inbox please'
p518
g15
tp519
a(S'can you schedule new event'
p520
g15
tp521
a(S"what's if it's hot today"
p522
g15
tp523
a(S'open my mail please'
p524
g15
tp525
a(S'can you make event please'
p526
g15
tp527
a(S'please google search'
p528
g15
tp529
a(S'check my calendar on next'
p530
g15
tp531
a(S"don't i have to do anything on sunday"
p532
g15
tp533
a(S"today's live newsfeed"
p534
g15
tp535
a(S"if it's raining this week"
p536
g15
tp537
a(S'anything new in my gmail'
p538
g15
tp539
a(S"what's if it's freezing this week"
p540
g15
tp541
a(S'search for please'
p542
g15
tp543
a(S'open a browser please'
p544
g28
tp545
a(S'what is on my calendar for wednesday'
p546
g15
tp547
a(S'sound higher please'
p548
g15
tp549
a(S'please what is in my mail'
p550
g15
tp551
a(S'could you please make a new event'
p552
g15
tp553
a(S'is there anything i have to do on monday'
p554
g15
tp555
a(S"what's this week's temperature"
p556
g15
tp557
a(S"what's new in new gmail please"
p558
g15
tp559
a(S"what's the temperature"
p560
g15
tp561
a(S'turn off please'
p562
g15
tp563
a(S'will it hail this week'
p564
g15
tp565
a(S'what is in the news today'
p566
g15
tp567
a(S'please sound higher'
p568
g15
tp569
a(S'can you turn up the volume'
p570
g15
tp571
a(S'how is the weather'
p572
g15
tp573
a(S'would you open mail please'
p574
g15
tp575
a(S'spotify start the song please'
p576
g15
tp577
a(S'am i free for thursday'
p578
g15
tp579
a(S'get the news'
p580
g15
tp581
a(S'do i have anything on friday'
p582
g15
tp583
a(S'google search please'
p584
g15
tp585
a(S'can you mute'
p586
g15
tp587
a(S'are there any events on tomorrow'
p588
g15
tp589
a(S'will you open my mail please'
p590
g15
tp591
a(S'can you turn up the volume please'
p592
g15
tp593
a(S"don't i have anything to do on saturday"
p594
g15
tp595
a(S'check events on tomorrow'
p596
g15
tp597
a(S"get this week's weather"
p598
g15
tp599
a(S"what's weather"
p600
g15
tp601
a(S'what are the news feed'
p602
g15
tp603
a(S'please will you check gmail'
p604
g15
tp605
a(S'am i free on tomorrow'
p606
g15
tp607
a(S'what do i have on next'
p608
g15
tp609
a(S'please what is new in my mail'
p610
g15
tp611
a(S'check events on friday'
p612
g15
tp613
a(S'am i free today'
p614
g15
tp615
a(S'please give me the news'
p616
g15
tp617
a(S'anything new in my mail'
p618
g15
tp619
a(S'current events'
p620
g15
tp621
a(S'what do i have to do on sunday'
p622
g15
tp623
a(S'please read your watch'
p624
g15
tp625
a(S'would you check new gmail please'
p626
g15
tp627
a(S'do i have anything to do'
p628
g15
tp629
a(S'can you put me on the lock screen please'
p630
g15
tp631
a(S'please pause song'
p632
g15
tp633
a(S'what do i have'
p634
g15
tp635
a(S'can you please kill the window'
p636
g15
tp637
a(S'what are the newsfeed'
p638
g15
tp639
a(S'would you check new gmail'
p640
g15
tp641
a(S'can you please shut my computer down'
p642
g15
tp643
a(S'what is on my calendar for this week'
p644
g15
tp645
a(S'please will you check my mail'
p646
g15
tp647
a(S"don't i have anything to do today"
p648
g15
tp649
a(S'do i have any events on saturday'
p650
g15
tp651
a(S'will you get the headlines'
p652
g15
tp653
a(S"don't i have to do anything tomorrow"
p654
g15
tp655
a(S'would you open inbox please'
p656
g15
tp657
a(S"please what's in gmail"
p658
g15
tp659
a(S'get clock please'
p660
g15
tp661
a(S'add new event'
p662
g15
tp663
a(S'find news feed'
p664
g15
tp665
a(S'please turn off the computer'
p666
g15
tp667
a(S'please when is it'
p668
g15
tp669
a(S'can you make a new event please'
p670
g15
tp671
a(S'will you open my gmail'
p672
g15
tp673
a(S'news feed'
p674
g15
tp675
a(S"what's new in inbox please"
p676
g15
tp677
a(S"don't i have to do anything"
p678
g15
tp679
a(S'see ya alice'
p680
g15
tp681
a(S'please add an event'
p682
g15
tp683
a(S'please could you open my gmail'
p684
g15
tp685
a(S'read your watch please'
p686
g15
tp687
a(S'what is new in my mail'
p688
g15
tp689
a(S'read the clock'
p690
g15
tp691
a(S'can you add a new event please'
p692
g15
tp693
a(S'do i have anything on wednesday'
p694
g15
tp695
a(S'can you close this window'
p696
g15
tp697
a(S'check events on sunday'
p698
g15
tp699
a(S'what is new in new gmail'
p700
g15
tp701
a(S'lock my computer'
p702
g15
tp703
a(S'will you check mail please'
p704
g15
tp705
a(S'check events on month'
p706
g15
tp707
a(S'can you make an event'
p708
g15
tp709
a(S'can you unmute please'
p710
g15
tp711
a(S'would you check gmail please'
p712
g15
tp713
a(S'please would you check my gmail'
p714
g15
tp715
a(S'what is new in new mail please'
p716
g15
tp717
a(S'do i have anything to do next'
p718
g15
tp719
a(S'please make new event'
p720
g15
tp721
a(S'please can you check inbox'
p722
g15
tp723
a(S'is it raining today'
p724
g15
tp725
a(S"don't i have anything to do on monday"
p726
g15
tp727
a(S'please close active window'
p728
g15
tp729
a(S'do i have anything to do on saturday'
p730
g15
tp731
a(S'what events are on thursday'
p732
g15
tp733
a(S'weather'
p734
g15
tp735
a(S'can you please create an event'
p736
g15
tp737
a(S'is there anything to do on sunday'
p738
g15
tp739
a(S"today's temperature"
p740
g15
tp741
a(S'current news today'
p742
g15
tp743
a(S'extract the features using almost the same feature'
p744
g15
tp745
a(S"get if it's snowing today"
p746
g15
tp747
a(S'please spotify last song'
p748
g15
tp749
a(S'start song'
p750
g15
tp751
a(S'please add a new event'
p752
g15
tp753
a(S'please do not start a default browser'
p754
g15
tp755
a(S'can you please open a browser'
p756
g28
tp757
a(S"don't i have anything to do on friday"
p758
g15
tp759
a(S'do i have anything on next'
p760
g15
tp761
a(S'spotify go please'
p762
g15
tp763
a(S'get temperature'
p764
g15
tp765
a(S'do i have anything on monday'
p766
g15
tp767
a(S"don't i have anything on sunday"
p768
g15
tp769
a(S'time'
p770
g15
tp771
a(S'could you schedule new event please'
p772
g15
tp773
a(S'get newsfeed'
p774
g15
tp775
a(S'turn up the sound'
p776
g15
tp777
a(S'please can you check mail'
p778
g15
tp779
a(S'make event'
p780
g15
tp781
a(S'can you schedule event'
p782
g15
tp783
a(S'sweet dreams alice'
p784
g15
tp785
a(S'could you open gmail please'
p786
g15
tp787
a(S'would you open my mail please'
p788
g15
tp789
a(S'do i have to do anything on friday'
p790
g15
tp791
a(S'tell me current news'
p792
g15
tp793
a(S"don't i have any events on wednesday"
p794
g15
tp795
a(S'schedule a new event'
p796
g15
tp797
a(S"don't i have anything in a month"
p798
g15
tp799
a(S'google for please'
p800
g15
tp801
a(S'do i have anything on sunday'
p802
g15
tp803
a(S"please what's new in gmail"
p804
g15
tp805
a(S'can you please turn the beat down'
p806
g15
tp807
a(S'what are the current events today'
p808
g15
tp809
a(S'get the the latest headlines'
p810
g15
tp811
a(S'please start browsing'
p812
g28
tp813
a(S'what events are on'
p814
g15
tp815
a(S'please open browser'
p816
g28
tp817
a(S'check events for wednesday'
p818
g15
tp819
a(S'can you please make an event'
p820
g15
tp821
a(S'google search'
p822
g15
tp823
a(S'do i have any events in a month'
p824
g15
tp825
a(S"what's if it's foggy this week"
p826
g15
tp827
a(S'can you create event please'
p828
g15
tp829
a(S'can you turn off'
p830
g15
tp831
a(S'lower the volume'
p832
g15
tp833
a(S'schedule a new event please'
p834
g15
tp835
a(S'check events'
p836
g15
tp837
a(S'do i have to do anything in a month'
p838
g15
tp839
a(S"don't i have to do anything in a month"
p840
g15
tp841
a(S"please don't start a browser"
p842
g15
tp843
a(S'check events for this month'
p844
g15
tp845
a(S'am i free on thursday'
p846
g15
tp847
a(S'turn off the beats'
p848
g15
tp849
a(S"what's if it's rainy this week"
p850
g15
tp851
a(S'check my calendar for this day'
p852
g15
tp853
a(S'check my calendar for thursday'
p854
g15
tp855
a(S'schedule event'
p856
g15
tp857
a(S'what is on my calendar'
p858
g15
tp859
a(S'what are the current events'
p860
g15
tp861
a(S'what is live newsfeed'
p862
g15
tp863
a(S'is there anything i have to do in a month'
p864
g15
tp865
a(S'please open my gmail'
p866
g15
tp867
a(S'check the current time'
p868
g15
tp869
a(S'turn up the sound'
p870
g15
tp871
a(S'check google calendar on friday'
p872
g15
tp873
a(S"today's forecast"
p874
g15
tp875
a(S'what do i have on tuesday'
p876
g15
tp877
a(S'what events do i have on thursday'
p878
g15
tp879
a(S'start a default browser please'
p880
g28
tp881
a(S'turn yourself off'
p882
g15
tp883
a(S'please can you turn the volume higher'
p884
g15
tp885
a(S'check calendar for thursday'
p886
g15
tp887
a(S'can you close the current window'
p888
g15
tp889
a(S'please check your watch'
p890
g15
tp891
a(S'do i have to do anything on tuesday'
p892
g15
tp893
a(S"please what's in mail"
p894
g15
tp895
a(S"how's the temperature"
p896
g15
tp897
a(S"don't go to"
p898
g15
tp899
a(S'open default browser'
p900
g28
tp901
a(S'is there anything i have to do today'
p902
g15
tp903
a(S'read the time'
p904
g15
tp905
a(S'could you make a new event'
p906
g15
tp907
a(S'please close the window'
p908
g15
tp909
a(S'make a new event'
p910
g15
tp911
a(S'can you please shut off'
p912
g15
tp913
a(S'what do i have on tomorrow'
p914
g15
tp915
a(S'what is in inbox'
p916
g15
tp917
a(S'can you add event please'
p918
g15
tp919
a(S"today's forecast"
p920
g15
tp921
a(S"don't i have to do anything on"
p922
g15
tp923
a(S"don't i have to do anything on monday"
p924
g15
tp925
a(S'do i have to do anything tomorrow'
p926
g15
tp927
a(S'turn down the volume'
p928
g15
tp929
a(S'am i free on saturday'
p930
g15
tp931
a(S'check calendar on sunday'
p932
g15
tp933
a(S'check new gmail please'
p934
g15
tp935
a(S"what's the headlines"
p936
g15
tp937
a(S'can you please shut down my computer'
p938
g15
tp939
a(S'what are the news'
p940
g15
tp941
a(S'schedule an event'
p942
g15
tp943
a(S'please turn off'
p944
g15
tp945
a(S'open inbox please'
p946
g15
tp947
a(S'please search'
p948
g15
tp949
a(S'what is in my gmail please'
p950
g15
tp951
a(S"what's in new mail"
p952
g15
tp953
a(S'song stop'
p954
g15
tp955
a(S'check google calendar on wednesday'
p956
g15
tp957
a(S'am i free for'
p958
g15
tp959
a(S'please turn my computer off'
p960
g15
tp961
a(S"please what's new in my mail"
p962
g15
tp963
a(S'what is in my mail please'
p964
g15
tp965
a(S'retrieve what time it is'
p966
g15
tp967
a(S'can you lock the screen please'
p968
g15
tp969
a(S'please pause spotify'
p970
g15
tp971
a(S"what's in new gmail"
p972
g15
tp973
a(S'is there anything i have to do tomorrow'
p974
g15
tp975
a(S'tell me live news'
p976
g15
tp977
a(S'what events are on next'
p978
g15
tp979
a(S'will you open gmail please'
p980
g15
tp981
a(S'can you please shut off my computer'
p982
g15
tp983
a(S'am i free in a week'
p984
g15
tp985
a(S'am i free on tuesday'
p986
g15
tp987
a(S'would you open inbox'
p988
g15
tp989
a(S'can you get information on the current events'
p990
g15
tp991
a(S'send me to the lock screen please'
p992
g15
tp993
a(S'is it snowing today'
p994
g15
tp995
a(S'please could you open gmail'
p996
g15
tp997
a(S"how's the forecast this week"
p998
g15
tp999
a(S'search for'
p1000
g15
tp1001
a(S'shut down the computer'
p1002
g15
tp1003
a(S'shut up please'
p1004
g15
tp1005
a(S'could you open my gmail'
p1006
g15
tp1007
a(S'get the clock'
p1008
g15
tp1009
a(S'stop'
p1010
g15
tp1011
a(S'stop spotify'
p1012
g15
tp1013
a(S'check calendar on next'
p1014
g15
tp1015
a(S'please what is in new gmail'
p1016
g15
tp1017
a(S'could you check my mail please'
p1018
g15
tp1019
a(S'is there anything to do on monday'
p1020
g15
tp1021
a(S'turn off the computer'
p1022
g15
tp1023
a(S'please go spotify '
p1024
g15
tp1025
a(S'what do i have on sunday'
p1026
g15
tp1027
a(S'check events for tuesday'
p1028
g15
tp1029
a(S'what is on my calendar for'
p1030
g15
tp1031
a(S'put me on the lock screen please'
p1032
g15
tp1033
a(S"don't i have anything to do on wednesday"
p1034
g15
tp1035
a(S'can you please kill the active window'
p1036
g15
tp1037
a(S'check my calendar for'
p1038
g15
tp1039
a(S"please don't go to"
p1040
g15
tp1041
a(S'do i have any events on this day'
p1042
g15
tp1043
a(S"don't i have to do anything"
p1044
g15
tp1045
a(S'do i have any events on wednesday'
p1046
g15
tp1047
a(S"please don't start a default browser"
p1048
g15
tp1049
a(S'can you please turn up the volume'
p1050
g15
tp1051
a(S'check my calendar on thursday'
p1052
g15
tp1053
a(S'is it foggy this week'
p1054
g15
tp1055
a(S'can you shutdown'
p1056
g15
tp1057
a(S'could you create event'
p1058
g15
tp1059
a(S'anything in inbox'
p1060
g15
tp1061
a(S'what do i have on'
p1062
g15
tp1063
a(S'can you make an event please'
p1064
g15
tp1065
a(S'check events for this day'
p1066
g15
tp1067
a(S'add a new event'
p1068
g15
tp1069
a(S"don't i have to do anything in a week"
p1070
g15
tp1071
a(S'please schedule new event'
p1072
g15
tp1073
a(S'spotify next song '
p1074
g15
tp1075
a(S'current events today'
p1076
g15
tp1077
a(S'lock'
p1078
g15
tp1079
a(S'would you open my inbox please'
p1080
g15
tp1081
a(S'spotify skip'
p1082
g15
tp1083
a(S'spotify skip ahead please'
p1084
g15
tp1085
a(S"don't i have any events on saturday"
p1086
g15
tp1087
a(S"don't i have anything on"
p1088
g15
tp1089
a(S'can you turn the beat down'
p1090
g15
tp1091
a(S"what's if it's hot this week"
p1092
g15
tp1093
a(S'do i have any events on monday'
p1094
g15
tp1095
a(S"please don't open a browser"
p1096
g15
tp1097
a(S'please will you check new mail'
p1098
g15
tp1099
a(S"what're the live news"
p1100
g15
tp1101
a(S'check events on'
p1102
g15
tp1103
a(S'can you please make new event'
p1104
g15
tp1105
a(S'any events on wednesday'
p1106
g15
tp1107
a(S'get the clock please'
p1108
g15
tp1109
a(S'gather information on'
p1110
g15
tp1111
a(S'would you check my mail please'
p1112
g15
tp1113
a(S'what are the live newsfeed'
p1114
g15
tp1115
a(S'get current news'
p1116
g15
tp1117
a(S'check my calendar for saturday'
p1118
g15
tp1119
a(S'can you please make event'
p1120
g15
tp1121
a(S'find current news'
p1122
g15
tp1123
a(S'is there anything i have to do on next'
p1124
g15
tp1125
a(S'open'
p1126
g28
tp1127
a(S'check my calendar'
p1128
g15
tp1129
a(S'please would you open mail'
p1130
g15
tp1131
a(S"don't i have any events in a week"
p1132
g15
tp1133
a(S'a releasing moderate stalls beside the material cell'
p1134
g15
tp1135
a(S'what do i have on friday'
p1136
g15
tp1137
a(S'create new event'
p1138
g15
tp1139
a(S'make the volume zero'
p1140
g15
tp1141
a(S"what's if it's cold this week"
p1142
g15
tp1143
a(S'can you decrease the sound'
p1144
g15
tp1145
a(S'is there anything to do today'
p1146
g15
tp1147
a(S'can you add a new event'
p1148
g15
tp1149
a(S'is there anything to do'
p1150
g15
tp1151
a(S'go ahead spotify please'
p1152
g15
tp1153
a(S'can you please turn off'
p1154
g15
tp1155
a(S'please play spotify '
p1156
g15
tp1157
a(S'will you open my mail'
p1158
g15
tp1159
a(S'open my inbox please'
p1160
g15
tp1161
a(S'check google calendar for sunday'
p1162
g15
tp1163
a(S'what do i have to do on thursday'
p1164
g15
tp1165
a(S'will you open my inbox'
p1166
g15
tp1167
a(S"what's new in my inbox"
p1168
g15
tp1169
a(S'could you create new event please'
p1170
g15
tp1171
a(S'get news now'
p1172
g15
tp1173
a(S'check what time it is please'
p1174
g15
tp1175
a(S'check calendar for friday'
p1176
g15
tp1177
a(S'check my calendar on sunday'
p1178
g15
tp1179
a(S"what's the the news"
p1180
g15
tp1181
a(S'will you check new mail'
p1182
g15
tp1183
a(S'start'
p1184
g28
tp1185
a(S"get if it's rainy this week"
p1186
g15
tp1187
a(S"what's the news feed"
p1188
g15
tp1189
a(S'start browsing'
p1190
g28
tp1191
a(S'please give me the current events please'
p1192
g15
tp1193
a(S"how's the weather today"
p1194
g15
tp1195
a(S'check new mail'
p1196
g15
tp1197
a(S'turn off my computer'
p1198
g15
tp1199
a(S'kill this window'
p1200
g15
tp1201
a(S'spotify skip ahead'
p1202
g15
tp1203
a(S'anything in gmail'
p1204
g15
tp1205
a(S'google search for please'
p1206
g15
tp1207
a(S"please what's new in my gmail"
p1208
g15
tp1209
a(S'are there any events on monday'
p1210
g15
tp1211
a(S"what's in my inbox please"
p1212
g15
tp1213
a(S'please kill the current window'
p1214
g15
tp1215
a(S'please would you check my inbox'
p1216
g15
tp1217
a(S"don't open default browser"
p1218
g15
tp1219
a(S'please get current time'
p1220
g15
tp1221
a(S'am i free on'
p1222
g15
tp1223
a(S'see you'
p1224
g15
tp1225
a(S'am i free'
p1226
g15
tp1227
a(S'okay alex'
p1228
g15
tp1229
a(S'check my calendar on monday'
p1230
g15
tp1231
a(S'check google calendar on'
p1232
g15
tp1233
a(S'please spotify previous song'
p1234
g15
tp1235
a(S'close the active window'
p1236
g15
tp1237
a(S'can you check my gmail'
p1238
g15
tp1239
a(S'do i have to do anything in a week'
p1240
g15
tp1241
a(S'what do i have in a week'
p1242
g15
tp1243
a(S'what do i have to do in a month'
p1244
g15
tp1245
a(S'search google please for'
p1246
g15
tp1247
a(S'can you shutdown the computer'
p1248
g15
tp1249
a(S'byebye'
p1250
g15
tp1251
a(S'get the information'
p1252
g15
tp1253
a(S'alex'
p1254
g15
tp1255
a(S'skip spotify please'
p1256
g15
tp1257
a(S'kill window'
p1258
g15
tp1259
a(S'can you check my inbox'
p1260
g15
tp1261
a(S'train a classifier to try to predict the category of a post'
p1262
g15
tp1263
a(S'will you open mail please'
p1264
g15
tp1265
a(S'am i free on friday'
p1266
g15
tp1267
a(S'check events for next'
p1268
g15
tp1269
a(S'please what is in inbox'
p1270
g15
tp1271
a(S'read the clock please'
p1272
g15
tp1273
a(S"aren't there any events on sunday"
p1274
g15
tp1275
a(S'what is new in my gmail please'
p1276
g15
tp1277
a(S'please get me the clock'
p1278
g15
tp1279
a(S'am i free for this day'
p1280
g15
tp1281
a(S'please do not open'
p1282
g15
tp1283
a(S'what is the news today'
p1284
g15
tp1285
a(S'please will you open my inbox'
p1286
g15
tp1287
a(S'check events on wednesday'
p1288
g15
tp1289
a(S'shut down please'
p1290
g15
tp1291
a(S'what do i have to do on this day'
p1292
g15
tp1293
a(S'will it hail today'
p1294
g15
tp1295
a(S'please send me to the lock screen'
p1296
g15
tp1297
a(S'what events do i have on this day'
p1298
g15
tp1299
a(S'please kill the active window'
p1300
g15
tp1301
a(S'make the sound higher'
p1302
g15
tp1303
a(S'will you get the current events'
p1304
g15
tp1305
a(S'open dot gov'
p1306
g28
tp1307
a(S'will you check my inbox'
p1308
g15
tp1309
a(S'would you check new mail please'
p1310
g15
tp1311
a(S'spotify previous song please'
p1312
g15
tp1313
a(S'please search google for'
p1314
g15
tp1315
a(S'open dot net'
p1316
g28
tp1317
a(S"how's the temperature today"
p1318
g15
tp1319
a(S'please could you open my mail'
p1320
g15
tp1321
a(S'retrieve the time'
p1322
g15
tp1323
a(S'check events on saturday'
p1324
g15
tp1325
a(S'check calendar for wednesday'
p1326
g15
tp1327
a(S'any events on'
p1328
g15
tp1329
a(S'close current program'
p1330
g15
tp1331
a(S'turn the tune down'
p1332
g15
tp1333
a(S'could you check new mail please'
p1334
g15
tp1335
a(S"aren't there any events on this day"
p1336
g15
tp1337
a(S'what are the current news'
p1338
g15
tp1339
a(S'could you check my gmail please'
p1340
g15
tp1341
a(S"don't i have any events on sunday"
p1342
g15
tp1343
a(S"what's if it's cold today"
p1344
g15
tp1345
a(S"what's in new gmail please"
p1346
g15
tp1347
a(S'could you open gmail'
p1348
g15
tp1349
a(S'check google calendar for next'
p1350
g15
tp1351
a(S'make a new event please'
p1352
g15
tp1353
a(S'could you make new event please'
p1354
g15
tp1355
a(S"don't i have to do anything on saturday"
p1356
g15
tp1357
a(S'anything in my mail'
p1358
g15
tp1359
a(S'can you please schedule an event'
p1360
g15
tp1361
a(S'next'
p1362
g15
tp1363
a(S"how's the weather"
p1364
g15
tp1365
a(S'check google calendar on tomorrow'
p1366
g15
tp1367
a(S'please spotify previous'
p1368
g15
tp1369
a(S'anything new in inbox'
p1370
g15
tp1371
a(S"get if it's cloudy today"
p1372
g15
tp1373
a(S'what is in new gmail please'
p1374
g15
tp1375
a(S'check events for this day'
p1376
g15
tp1377
a(S'do i have any events on next'
p1378
g15
tp1379
a(S"what's the news"
p1380
g15
tp1381
a(S'google search for'
p1382
g15
tp1383
a(S'please what is in my inbox'
p1384
g15
tp1385
a(S'can you please exit'
p1386
g15
tp1387
a(S'can you please turn up the tunez'
p1388
g15
tp1389
a(S'can you please close the current window'
p1390
g15
tp1391
a(S'can you get the latest headlines'
p1392
g15
tp1393
a(S'could you please schedule new event'
p1394
g15
tp1395
a(S'please check the clock'
p1396
g15
tp1397
a(S'spotify pause please'
p1398
g15
tp1399
a(S'make new event please'
p1400
g15
tp1401
a(S"what's new in gmail please"
p1402
g15
tp1403
a(S'are there any events on wednesday'
p1404
g15
tp1405
a(S'set volume 0'
p1406
g15
tp1407
a(S'shut off my computer'
p1408
g15
tp1409
a(S'can you shut up'
p1410
g15
tp1411
a(S'what do i have to do on tomorrow'
p1412
g15
tp1413
a(S'can you please shut up'
p1414
g15
tp1415
a(S'please what is in my gmail'
p1416
g15
tp1417
a(S"if it's hot this week"
p1418
g15
tp1419
a(S'what are the live news feed'
p1420
g15
tp1421
a(S"today's weather"
p1422
g15
tp1423
a(S'will you check my gmail please'
p1424
g15
tp1425
a(S'am i free for monday'
p1426
g15
tp1427
a(S'make an event please'
p1428
g15
tp1429
a(S'can you check new mail'
p1430
g15
tp1431
a(S"please don't open browser"
p1432
g15
tp1433
a(S'shut down the computer please'
p1434
g15
tp1435
a(S'will you open gmail'
p1436
g15
tp1437
a(S'anything in mail'
p1438
g15
tp1439
a(S'give me intel'
p1440
g15
tp1441
a(S"today's newsfeed"
p1442
g15
tp1443
a(S'issue commands'
p1444
g15
tp1445
a(S'is there anything i have to do on tomorrow'
p1446
g15
tp1447
a(S'please create an event'
p1448
g15
tp1449
a(S'do i have anything to do in a month'
p1450
g15
tp1451
a(S'what is in my inbox please'
p1452
g15
tp1453
a(S'check google calendar on today'
p1454
g15
tp1455
a(S'please lock the screen'
p1456
g15
tp1457
a(S'current weather'
p1458
g15
tp1459
a(S'do i have anything to do in a week'
p1460
g15
tp1461
a(S'can you shut down my computer'
p1462
g15
tp1463
a(S'can you turn up the sound'
p1464
g15
tp1465
a(S'can you please make a new event'
p1466
g15
tp1467
a(S'check calendar on month'
p1468
g15
tp1469
a(S'get weather'
p1470
g15
tp1471
a(S'schedule new event'
p1472
g15
tp1473
a(S'please what is new in mail'
p1474
g15
tp1475
a(S'check calendar for this day'
p1476
g15
tp1477
a(S'could you check new mail'
p1478
g15
tp1479
a(S'kill the current window'
p1480
g15
tp1481
a(S'check my calendar on this day'
p1482
g15
tp1483
a(S'check events for sunday'
p1484
g15
tp1485
a(S'could you create new event'
p1486
g15
tp1487
a(S'please will you check inbox'
p1488
g15
tp1489
a(S"aren't there any events in a month"
p1490
g15
tp1491
a(S'tell me live newsfeed'
p1492
g15
tp1493
a(S'kill the active window'
p1494
g15
tp1495
a(S'start browser'
p1496
g28
tp1497
a(S'shut down'
p1498
g15
tp1499
a(S'please would you open my mail'
p1500
g15
tp1501
a(S'do i have to do anything on wednesday'
p1502
g15
tp1503
a(S'any events on next'
p1504
g15
tp1505
a(S'please can you check my mail'
p1506
g15
tp1507
a(S'get live newsfeed'
p1508
g15
tp1509
a(S'give me the news'
p1510
g15
tp1511
a(S'check your watch'
p1512
g15
tp1513
a(S'are there any events on'
p1514
g15
tp1515
a(S"don't i have any events on thursday"
p1516
g15
tp1517
a(S'headlines today'
p1518
g15
tp1519
a(S"what're the news feed"
p1520
g15
tp1521
a(S'please shut my computer down'
p1522
g15
tp1523
a(S'please will you check my gmail'
p1524
g15
tp1525
a(S'any events'
p1526
g15
tp1527
a(S'could you please create event'
p1528
g15
tp1529
a(S'sound up please'
p1530
g15
tp1531
a(S'could you add new event'
p1532
g15
tp1533
a(S'can you check new gmail'
p1534
g15
tp1535
a(S'is it snowing this week'
p1536
g15
tp1537
a(S'what is new in new mail'
p1538
g15
tp1539
a(S'exit'
p1540
g15
tp1541
a(S"if it's cloudy this week"
p1542
g15
tp1543
a(S'predict the outcome on a new document'
p1544
g15
tp1545
a(S'can you schedule an event please'
p1546
g15
tp1547
a(S"get if it's cloudy this week"
p1548
g15
tp1549
a(S'do i have anything on'
p1550
g15
tp1551
a(S'anything in my gmail'
p1552
g15
tp1553
a(S'find current events'
p1554
g15
tp1555
a(S'please give me current events'
p1556
g15
tp1557
a(S'lock computer'
p1558
g15
tp1559
a(S'could you create an event please'
p1560
g15
tp1561
a(S'retrieve the time please'
p1562
g15
tp1563
a(S'turn up the sound please'
p1564
g15
tp1565
a(S"don't i have to do anything on"
p1566
g15
tp1567
a(S'could you open inbox please'
p1568
g15
tp1569
a(S"what's the clock"
p1570
g15
tp1571
a(S'what is going on in the world today'
p1572
g15
tp1573
a(S'lower the sound'
p1574
g15
tp1575
a(S"aren't there any events on"
p1576
g15
tp1577
a(S'gimme the news'
p1578
g15
tp1579
a(S'check calendar on'
p1580
g15
tp1581
a(S"what's the time"
p1582
g15
tp1583
a(S'could you add an event please'
p1584
g15
tp1585
a(S'please shutdown my computer'
p1586
g15
tp1587
a(S'can you shut my computer down'
p1588
g15
tp1589
a(S'do not start a default browser'
p1590
g15
tp1591
a(S'can you make a new event'
p1592
g15
tp1593
a(S"please what's new in new mail"
p1594
g15
tp1595
a(S'please shut off my computer'
p1596
g15
tp1597
a(S'what is live news'
p1598
g15
tp1599
a(S'go to dot com'
p1600
g28
tp1601
a(S'please open gmail'
p1602
g15
tp1603
a(S'check gmail please'
p1604
g15
tp1605
a(S'is there anything to do on saturday'
p1606
g15
tp1607
a(S'please get clock'
p1608
g15
tp1609
a(S'will you check my mail'
p1610
g15
tp1611
a(S"don't i have anything to do in a week"
p1612
g15
tp1613
a(S"what's in my gmail"
p1614
g15
tp1615
a(S'please open mail'
p1616
g15
tp1617
a(S'am i free on sunday'
p1618
g15
tp1619
a(S'what events are on wednesday'
p1620
g15
tp1621
a(S'could you make event'
p1622
g15
tp1623
a(S'could you please make event'
p1624
g15
tp1625
a(S"what're the news"
p1626
g15
tp1627
a(S'make new event'
p1628
g15
tp1629
a(S'is there anything to do on tomorrow'
p1630
g15
tp1631
a(S'spotify play the song'
p1632
g15
tp1633
a(S"don't i have anything to do tomorrow"
p1634
g15
tp1635
a(S'check events for today'
p1636
g15
tp1637
a(S'can you please add event'
p1638
g15
tp1639
a(S'am i free on next'
p1640
g15
tp1641
a(S'any events on today'
p1642
g15
tp1643
a(S'google please'
p1644
g15
tp1645
a(S'can you create a new event'
p1646
g15
tp1647
a(S"don't i have anything to do on this day"
p1648
g15
tp1649
a(S'what is new in my mail please'
p1650
g15
tp1651
a(S'what do i have on this day'
p1652
g15
tp1653
a(S'will you open inbox please'
p1654
g15
tp1655
a(S"aren't there any events on tomorrow"
p1656
g15
tp1657
a(S"don't i have anything to do on sunday"
p1658
g15
tp1659
a(S"what're the current news"
p1660
g15
tp1661
a(S"what's new in my gmail"
p1662
g15
tp1663
a(S'spotify stop playing'
p1664
g15
tp1665
a(S'check events for friday'
p1666
g15
tp1667
a(S'am i free on monday'
p1668
g15
tp1669
a(S'check calendar on thursday'
p1670
g15
tp1671
a(S'get current events'
p1672
g15
tp1673
a(S'shut down my computer please'
p1674
g15
tp1675
a(S"don't i have to do anything on tuesday"
p1676
g15
tp1677
a(S'would you open my mail'
p1678
g15
tp1679
a(S'any events on friday'
p1680
g15
tp1681
a(S"don't open a default browser"
p1682
g15
tp1683
a(S'read the time please'
p1684
g15
tp1685
a(S'please shut down my computer'
p1686
g15
tp1687
a(S'what events are on tomorrow'
p1688
g15
tp1689
a(S'good bye'
p1690
g15
tp1691
a(S'spotify start please'
p1692
g15
tp1693
a(S'can you turn off my computer'
p1694
g15
tp1695
a(S'please get time'
p1696
g15
tp1697
a(S"don't i have any events"
p1698
g15
tp1699
a(S'what is on my calendar for tomorrow'
p1700
g15
tp1701
a(S'find headlines'
p1702
g15
tp1703
a(S'check calendar for this month'
p1704
g15
tp1705
a(S'get time please'
p1706
g15
tp1707
a(S'is it rainy this week'
p1708
g15
tp1709
a(S'turn the sound down please'
p1710
g15
tp1711
a(S'please would you open inbox'
p1712
g15
tp1713
a(S'check calendar for this week'
p1714
g15
tp1715
a(S'get me the clock please'
p1716
g15
tp1717
a(S'am i free on this day'
p1718
g15
tp1719
a(S"don't i have any events on tuesday"
p1720
g15
tp1721
a(S'what events do i have on friday'
p1722
g15
tp1723
a(S'check calendar on today'
p1724
g15
tp1725
a(S"don't open"
p1726
g15
tp1727
a(S'anything new in gmail'
p1728
g15
tp1729
a(S'check google calendar for today'
p1730
g15
tp1731
a(S'check google calendar for this day'
p1732
g15
tp1733
a(S'is there anything to do in a week'
p1734
g15
tp1735
a(S'google search please for'
p1736
g15
tp1737
a(S'news now please'
p1738
g15
tp1739
a(S'please check new gmail'
p1740
g15
tp1741
a(S'will you check new gmail'
p1742
g15
tp1743
a(S'last song please'
p1744
g15
tp1745
a(S'is it cloudy this week'
p1746
g15
tp1747
a(S'google please for'
p1748
g15
tp1749
a(S'will you check my mail please'
p1750
g15
tp1751
a(S'check events on thursday'
p1752
g15
tp1753
a(S'any events on thursday'
p1754
g15
tp1755
a(S'what is on my calendar for saturday'
p1756
g15
tp1757
a(S'could you check my gmail'
p1758
g15
tp1759
a(S"what's if it's cloudy today"
p1760
g15
tp1761
a(S'unmute'
p1762
g15
tp1763
a(S'what do i have in a month'
p1764
g15
tp1765
a(S'are there any events on sunday'
p1766
g15
tp1767
a(S'check calendar on tomorrow'
p1768
g15
tp1769
a(S'do i have anything to do on friday'
p1770
g15
tp1771
a(S'would you check gmail'
p1772
g15
tp1773
a(S'headlines'
p1774
g15
tp1775
a(S'give me the current events please'
p1776
g15
tp1777
a(S'check the clock right now'
p1778
g15
tp1779
a(S'the tale pretends'
p1780
g15
tp1781
a(S"what's in my mail"
p1782
g15
tp1783
a(S'check mail'
p1784
g15
tp1785
a(S'please close the active window'
p1786
g15
tp1787
a(S'what is live news feed'
p1788
g15
tp1789
a(S'turn up the volume'
p1790
g15
tp1791
a(S'please tell me whats going on in the news please'
p1792
g15
tp1793
a(S"today's live news"
p1794
g15
tp1795
a(S'do i have to do anything today'
p1796
g15
tp1797
a(S'will you check gmail'
p1798
g15
tp1799
a(S'forecast'
p1800
g15
tp1801
a(S'please what is in new mail'
p1802
g15
tp1803
a(S'get current temperature'
p1804
g15
tp1805
a(S'open default browser please'
p1806
g28
tp1807
a(S'what is new in new gmail please'
p1808
g15
tp1809
a(S'open gmail'
p1810
g15
tp1811
a(S'would you check mail please'
p1812
g15
tp1813
a(S'can you turn up the tune'
p1814
g15
tp1815
a(S'please open a browser'
p1816
g28
tp1817
a(S"don't i have to do anything on next"
p1818
g15
tp1819
a(S'could you create event please'
p1820
g15
tp1821
a(S'open dot com'
p1822
g28
tp1823
a(S'what is in new gmail'
p1824
g15
tp1825
a(S'could you make an event please'
p1826
g15
tp1827
a(S'please open inbox'
p1828
g15
tp1829
a(S"don't i have anything to do"
p1830
g15
tp1831
a(S'kill current window'
p1832
g15
tp1833
a(S'can you please create event'
p1834
g15
tp1835
a(S'good night'
p1836
g15
tp1837
a(S'please shut down the computer'
p1838
g15
tp1839
a(S'start default browser'
p1840
g28
tp1841
a(S'what is in new mail'
p1842
g15
tp1843
a(S'what is new in mail please'
p1844
g15
tp1845
a(S'am i free for tuesday'
p1846
g15
tp1847
a(S'what do i have to do on tuesday'
p1848
g15
tp1849
a(S'please start spotify'
p1850
g15
tp1851
a(S'would you check inbox'
p1852
g15
tp1853
a(S'will it rain today'
p1854
g15
tp1855
a(S'lock my computer please'
p1856
g15
tp1857
a(S'play the song before'
p1858
g15
tp1859
a(S'any events on this day'
p1860
g15
tp1861
a(S'tell me current events'
p1862
g15
tp1863
a(S'do i have any events on friday'
p1864
g15
tp1865
a(S'add event please'
p1866
g15
tp1867
a(S'please go back'
p1868
g15
tp1869
a(S'can you lock my computer please'
p1870
g15
tp1871
a(S"don't i have to do anything on wednesday"
p1872
g15
tp1873
a(S'am i free for a month'
p1874
g15
tp1875
a(S'todays headlines'
p1876
g15
tp1877
a(S'will you open my gmail please'
p1878
g15
tp1879
a(S'turn it up please'
p1880
g15
tp1881
a(S'can you please shutdown'
p1882
g15
tp1883
a(S'please retrieve the current time'
p1884
g15
tp1885
a(S'current forecast'
p1886
g15
tp1887
a(S'search please for'
p1888
g15
tp1889
a(S"what're the the news"
p1890
g15
tp1891
a(S"please what's in new gmail"
p1892
g15
tp1893
a(S"what's the temperature today"
p1894
g15
tp1895
a(S'can you check my inbox please'
p1896
g15
tp1897
a(S'can you please turn my computer off'
p1898
g15
tp1899
a(S'find newsfeed'
p1900
g15
tp1901
a(S'please pause the song'
p1902
g15
tp1903
a(S"get if it's cold today"
p1904
g15
tp1905
a(S'check my calendar for today'
p1906
g15
tp1907
a(S'please will you open my mail'
p1908
g15
tp1909
a(S'go to'
p1910
g28
tp1911
a(S'a decent problem gossips beside the shoulder'
p1912
g15
tp1913
a(S'alice'
p1914
g15
tp1915
a(S'please go to dot com'
p1916
g28
tp1917
a(S'briefing'
p1918
g15
tp1919
a(S'could you please add event'
p1920
g15
tp1921
a(S'please can you turn up the volume'
p1922
g15
tp1923
a(S'check calendar'
p1924
g15
tp1925
a(S'is there anything to do on today'
p1926
g15
tp1927
a(S'what events are'
p1928
g15
tp1929
a(S'do i have anything'
p1930
g15
tp1931
a(S'please get the news'
p1932
g15
tp1933
a(S"don't i have anything on wednesday"
p1934
g15
tp1935
a(S'can you exit'
p1936
g15
tp1937
a(S'please kill active window'
p1938
g15
tp1939
a(S'create event please'
p1940
g15
tp1941
a(S'increase the volume'
p1942
g15
tp1943
a(S'will you check new mail please'
p1944
g15
tp1945
a(S'bye bye alice'
p1946
g15
tp1947
a(S'turn up the tunes'
p1948
g15
tp1949
a(S'can you please kill this window'
p1950
g15
tp1951
a(S'alice next please'
p1952
g15
tp1953
a(S'we stick to simple problems in this post for the sake of illustration'
p1954
g15
tp1955
a(S'check my calendar for sunday'
p1956
g15
tp1957
a(S"don't i have to do anything on thursday"
p1958
g15
tp1959
a(S'will you get the current events for me'
p1960
g15
tp1961
a(S'please could you open my inbox'
p1962
g15
tp1963
a(S'check my calendar for monday'
p1964
g15
tp1965
a(S'could you please make new event'
p1966
g15
tp1967
a(S'shutdown my computer please'
p1968
g15
tp1969
a(S'turn up the tunez'
p1970
g15
tp1971
a(S'please check what time it is'
p1972
g15
tp1973
a(S'will you check gmail please'
p1974
g15
tp1975
a(S'close browser'
p1976
g15
tp1977
a(S'can you close the active window'
p1978
g15
tp1979
a(S'check my calendar for this day'
p1980
g15
tp1981
a(S'could you check mail please'
p1982
g15
tp1983
a(S'please do not go to'
p1984
g15
tp1985
a(S"don't start browsing"
p1986
g15
tp1987
a(S"don't i have anything to do in a month"
p1988
g15
tp1989
a(S'will you get the current headlines'
p1990
g15
tp1991
a(S'am i free on wednesday'
p1992
g15
tp1993
a(S'please do not start browser'
p1994
g15
tp1995
a(S'check my calendar for this week'
p1996
g15
tp1997
a(S"what's new in mail please"
p1998
g15
tp1999
a(S'give me the news please'
p2000
g15
tp2001
a(S'please do no open browser'
p2002
g15
tp2003
a(S"what's temperature"
p2004
g15
tp2005
a(S'do i have to do anything to do'
p2006
g15
tp2007
a(S"get if it's freezing this week"
p2008
g15
tp2009
a(S'do not start browsing'
p2010
g15
tp2011
a(S'please could you check my inbox'
p2012
g15
tp2013
a(S"don't open broswer"
p2014
g15
tp2015
a(S'get the current time please'
p2016
g15
tp2017
a(S'what is in gmail please'
p2018
g15
tp2019
a(S'please would you check my mail'
p2020
g15
tp2021
a(S'can you check new mail please'
p2022
g15
tp2023
a(S'schedule an event please'
p2024
g15
tp2025
a(S'create event'
p2026
g15
tp2027
a(S'am i free in a month'
p2028
g15
tp2029
a(S'spotify previous please'
p2030
g15
tp2031
a(S'stop playing'
p2032
g15
tp2033
a(S'please spotify start the song'
p2034
g15
tp2035
a(S'open mail please'
p2036
g15
tp2037
a(S'next spotify please'
p2038
g15
tp2039
a(S"what's the current news"
p2040
g15
tp2041
a(S'could you check gmail please'
p2042
g15
tp2043
a(S'could you please add a new event'
p2044
g15
tp2045
a(S'would you open gmail'
p2046
g15
tp2047
a(S'can you schedule a new event please'
p2048
g15
tp2049
a(S'current events'
p2050
g15
tp2051
a(S"what's the forecast today"
p2052
g15
tp2053
a(S'check calendar on wednesday'
p2054
g15
tp2055
a(S'please do not start a browser'
p2056
g15
tp2057
a(S'next song'
p2058
g15
tp2059
a(S'i like dogs'
p2060
g15
tp2061
a(S'please shut down'
p2062
g15
tp2063
a(S'turn up the tune'
p2064
g15
tp2065
a(S'can you check my mail'
p2066
g15
tp2067
a(S'get forecast'
p2068
g15
tp2069
a(S'do i have to do anything on monday'
p2070
g15
tp2071
a(S'check my calendar on friday'
p2072
g15
tp2073
a(S'spotify last please'
p2074
g15
tp2075
a(S'can you please schedule event'
p2076
g15
tp2077
a(S'please can you check new mail'
p2078
g15
tp2079
a(S'is there anything i have to do on this day'
p2080
g15
tp2081
a(S'what events are on today'
p2082
g15
tp2083
a(S'do i have anything to do on sunday'
p2084
g15
tp2085
a(S'open dot org'
p2086
g28
tp2087
a(S'play spotify please'
p2088
g15
tp2089
a(S'please could you check my mail'
p2090
g15
tp2091
a(S'shutdown the computer please'
p2092
g15
tp2093
a(S'can you open a browser'
p2094
g28
tp2095
a(S"what's if it's rainy today"
p2096
g15
tp2097
a(S'could you please add new event'
p2098
g15
tp2099
a(S'turn up the volume please'
p2100
g15
tp2101
a(S"don't i have anything on tuesday"
p2102
g15
tp2103
a(S'please make event'
p2104
g15
tp2105
a(S'please can you check gmail'
p2106
g15
tp2107
a(S"aren't there any events on tuesday"
p2108
g15
tp2109
a(S'please check the current time'
p2110
g15
tp2111
a(S'am i free for wednesday'
p2112
g15
tp2113
a(S'please spotify play last song'
p2114
g15
tp2115
a(S'can you turn up the tunez'
p2116
g15
tp2117
a(S'what time is it right now'
p2118
g15
tp2119
a(S'please will you open gmail'
p2120
g15
tp2121
a(S'could you schedule event please'
p2122
g15
tp2123
a(S'please kill current window'
p2124
g15
tp2125
a(S"this week's temperature"
p2126
g15
tp2127
a(S'open mail'
p2128
g15
tp2129
a(S'can you put me on the lock screen'
p2130
g15
tp2131
a(S'can you lock my computer please'
p2132
g15
tp2133
a(S'please what is new in inbox'
p2134
g15
tp2135
a(S'is there anything i have to do on'
p2136
g15
tp2137
a(S'open browser'
p2138
g28
tp2139
a(S'can you create a new event please'
p2140
g15
tp2141
a(S"don't i have to do anything today"
p2142
g15
tp2143
a(S"what's the forecast"
p2144
g15
tp2145
a(S'please what is new in new mail'
p2146
g15
tp2147
a(S'check gmail'
p2148
g15
tp2149
a(S'could you schedule a new event'
p2150
g15
tp2151
a(S"if it's rainy today"
p2152
g15
tp2153
a(S'could you open my inbox'
p2154
g15
tp2155
a(S'can you add an event'
p2156
g15
tp2157
a(S'please can you check my gmail'
p2158
g15
tp2159
a(S'check events for this week'
p2160
g15
tp2161
a(S"don't i have anything to do on"
p2162
g15
tp2163
a(S'give me intel on current events'
p2164
g15
tp2165
a(S'do not open a browser'
p2166
g15
tp2167
a(S'please add event'
p2168
g15
tp2169
a(S'please schedule event'
p2170
g15
tp2171
a(S'can you please add a new event'
p2172
g15
tp2173
a(S'unmute please'
p2174
g15
tp2175
a(S"get if it's hot today"
p2176
g15
tp2177
a(S'can you please kill current window'
p2178
g15
tp2179
a(S'could you please create a new event'
p2180
g15
tp2181
a(S'can you check mail please'
p2182
g15
tp2183
a(S'please check gmail'
p2184
g15
tp2185
a(S'do i have to do anything on next'
p2186
g15
tp2187
a(S'okay alice'
p2188
g15
tp2189
a(S'please could you open mail'
p2190
g15
tp2191
a(S'is there anything i have to do on sunday'
p2192
g15
tp2193
a(S"get if it's raining today"
p2194
g15
tp2195
a(S'open my inbox'
p2196
g15
tp2197
a(S'check events on monday'
p2198
g15
tp2199
a(S'check google calendar on sunday'
p2200
g15
tp2201
a(S'hey alice'
p2202
g15
tp2203
a(S'can you please kill active window'
p2204
g15
tp2205
a(S"aren't there any events on thursday"
p2206
g15
tp2207
a(S'check inbox'
p2208
g15
tp2209
a(S"what's the current events"
p2210
g15
tp2211
a(S'check my calendar for tomorrow'
p2212
g15
tp2213
a(S'am i free for a week'
p2214
g15
tp2215
a(S'check the clock please'
p2216
g15
tp2217
a(S'what is on my calendar for next'
p2218
g15
tp2219
a(S'close the current window'
p2220
g15
tp2221
a(S'what do i have to do'
p2222
g15
tp2223
a(S'can you please turn up the tune'
p2224
g15
tp2225
a(S'could you make new event'
p2226
g15
tp2227
a(S'could you add new event please'
p2228
g15
tp2229
a(S'search please'
p2230
g15
tp2231
a(S'could you check my mail'
p2232
g15
tp2233
a(S'what events are on friday'
p2234
g15
tp2235
a(S'can you please shut down'
p2236
g15
tp2237
a(S'check the current time please'
p2238
g15
tp2239
a(S'kill the program'
p2240
g15
tp2241
a(S"please what's in new mail"
p2242
g15
tp2243
a(S'what is new in inbox please'
p2244
g15
tp2245
a(S'would you open my gmail'
p2246
g15
tp2247
a(S'do not start browser'
p2248
g15
tp2249
a(S'please read time'
p2250
g15
tp2251
a(S'temperature'
p2252
g15
tp2253
a(S'shut up'
p2254
g15
tp2255
a(S'would you check my inbox'
p2256
g15
tp2257
a(S'can you please close the active window'
p2258
g15
tp2259
a(S'please go to'
p2260
g28
tp2261
a(S'are there any events on next'
p2262
g15
tp2263
a(S'spotify go back to the last song '
p2264
g15
tp2265
a(S'debrief me'
p2266
g15
tp2267
a(S"don't i have to do anything on friday"
p2268
g15
tp2269
a(S"get if it's foggy this week"
p2270
g15
tp2271
a(S"please what's new in new gmail"
p2272
g15
tp2273
a(S"what're the live news feed"
p2274
g15
tp2275
a(S'intel'
p2276
g15
tp2277
a(S"don't i have any events on tomorrow"
p2278
g15
tp2279
a(S'please make a new event'
p2280
g15
tp2281
a(S'can you check inbox please'
p2282
g15
tp2283
a(S'can you check mail'
p2284
g15
tp2285
a(S'any mail'
p2286
g15
tp2287
a(S'check calendar on tuesday'
p2288
g15
tp2289
a(S'skip'
p2290
g15
tp2291
a(S'check calendar for'
p2292
g15
tp2293
a(S'please pause'
p2294
g15
tp2295
a(S'do i have anything to do tomorrow'
p2296
g15
tp2297
a(S'any gmail'
p2298
g15
tp2299
a(S'check google calendar for this month'
p2300
g15
tp2301
a(S'could you open my gmail please'
p2302
g15
tp2303
a(S'tell me news feed'
p2304
g15
tp2305
a(S'schedule event please'
p2306
g15
tp2307
a(S'a backbone dictates above my grief'
p2308
g15
tp2309
a(S'turn off the sound please'
p2310
g15
tp2311
a(S"don't i have anything"
p2312
g15
tp2313
a(S'check google calendar for friday'
p2314
g15
tp2315
a(S'the news'
p2316
g15
tp2317
a(S'check calendar on this day'
p2318
g15
tp2319
a(S'shut the fuck up'
p2320
g15
tp2321
a(S'check calendar on friday'
p2322
g15
tp2323
a(S'is there anything to do on'
p2324
g15
tp2325
a(S'alice go ahead please'
p2326
g15
tp2327
a(S'please check my mail'
p2328
g15
tp2329
a(S'could you check new gmail'
p2330
g15
tp2331
a(S'what events do i have on'
p2332
g15
tp2333
a(S"don't i have any events on next"
p2334
g15
tp2335
a(S'what is on my calendar for tuesday'
p2336
g15
tp2337
a(S'please start default browser'
p2338
g28
tp2339
a(S'check new gmail'
p2340
g15
tp2341
a(S'can you check my gmail please'
p2342
g15
tp2343
a(S'open dot ee dee you'
p2344
g28
tp2345
a(S'open dot edu'
p2346
g28
tp2347
a(S'what is new in gmail'
p2348
g15
tp2349
a(S'can you add an event please'
p2350
g15
tp2351
a(S"what's in gmail please"
p2352
g15
tp2353
a(S'what is in mail please'
p2354
g15
tp2355
a(S'check my mail please'
p2356
g15
tp2357
a(S'spotify stop'
p2358
g15
tp2359
a(S'check google calendar on this week'
p2360
g15
tp2361
a(S'get clock'
p2362
g15
tp2363
a(S'please be quiet'
p2364
g15
tp2365
a(S'what is on my calendar for monday'
p2366
g15
tp2367
a(S'louder please'
p2368
g15
tp2369
a(S'do i have any events on tuesday'
p2370
g15
tp2371
a(S'do i have to do anything on saturday'
p2372
g15
tp2373
a(S'read time'
p2374
g15
tp2375
a(S'do i have anything on tuesday'
p2376
g15
tp2377
a(S'set the volume zero'
p2378
g15
tp2379
a(S'volume up'
p2380
g15
tp2381
a(S'brief me'
p2382
g15
tp2383
a(S'close window'
p2384
g15
tp2385
a(S'tell me headlines'
p2386
g15
tp2387
a(S'please would you check new gmail'
p2388
g15
tp2389
a(S'retrieve what time it is please'
p2390
g15
tp2391
a(S'could you create a new event please'
p2392
g15
tp2393
a(S'spotify stop the song '
p2394
g15
tp2395
a(S'sweet dreams'
p2396
g15
tp2397
a(S'will you get the news for me'
p2398
g15
tp2399
a(S'make the volume softer'
p2400
g15
tp2401
a(S'what events are in a week'
p2402
g15
tp2403
a(S'can you kill the current window'
p2404
g15
tp2405
a(S'what events are going on right now'
p2406
g15
tp2407
a(S'kill the active program'
p2408
g15
tp2409
a(S'what events do i have on saturday'
p2410
g15
tp2411
a(S"what's if it's raining today"
p2412
g15
tp2413
a(S'can you please close this window'
p2414
g15
tp2415
a(S'set the volume to zero'
p2416
g15
tp2417
a(S'can you turn the volume higher please'
p2418
g15
tp2419
a(S'can you schedule an event'
p2420
g15
tp2421
a(S'please lock computer'
p2422
g15
tp2423
a(S'check my calendar for wednesday'
p2424
g15
tp2425
a(S"what's the live news feed"
p2426
g15
tp2427
a(S'spotify go to the last song'
p2428
g15
tp2429
a(S'please retrieve the time'
p2430
g15
tp2431
a(S'check calendar for next'
p2432
g15
tp2433
a(S'what are the headlines'
p2434
g15
tp2435
a(S'live news feed'
p2436
g15
tp2437
a(S"if it's raining today"
p2438
g15
tp2439
a(S'do i have anything on this day'
p2440
g15
tp2441
a(S'stop the song'
p2442
g15
tp2443
a(S'send me to the lock screen'
p2444
g15
tp2445
a(S'are there any events on this day'
p2446
g15
tp2447
a(S'what do i have to do in a week'
p2448
g15
tp2449
a(S"if it's foggy today"
p2450
g15
tp2451
a(S"don't i have to do anything on sunday"
p2452
g15
tp2453
a(S'kill the noise'
p2454
g15
tp2455
a(S'bye bye'
p2456
g15
tp2457
a(S'any new gmail'
p2458
g15
tp2459
a(S"what're the live newsfeed"
p2460
g15
tp2461
a(S'check calendar for tuesday'
p2462
g15
tp2463
a(S'can you shut off'
p2464
g15
tp2465
a(S'could you schedule event'
p2466
g15
tp2467
a(S'please open'
p2468
g28
tp2469
a(S'do i have anything to do today'
p2470
g15
tp2471
a(S'bye alice'
p2472
g15
tp2473
a(S'turn up the tunez please'
p2474
g15
tp2475
a(S"what's today's forecast"
p2476
g15
tp2477
a(S'could you make a new event please'
p2478
g15
tp2479
a(S'read time please'
p2480
g15
tp2481
a(S"if it's cold today"
p2482
g15
tp2483
a(S'kill active window'
p2484
g15
tp2485
a(S'get the current time'
p2486
g15
tp2487
a(S'what is on my calendar for friday'
p2488
g15
tp2489
a(S'will you check inbox please'
p2490
g15
tp2491
a(S'start the song'
p2492
g15
tp2493
a(S'check google calendar on month'
p2494
g15
tp2495
a(S'is it hot today'
p2496
g15
tp2497
a(S'tell me news'
p2498
g15
tp2499
a(S"don't i have anything to do on tuesday"
p2500
g15
tp2501
a(S'could you add a new event please'
p2502
g15
tp2503
a(S'can you turn the tune down'
p2504
g15
tp2505
a(S'gather the latest headlines please'
p2506
g15
tp2507
a(S'anything in my inbox'
p2508
g15
tp2509
a(S"what's forecast"
p2510
g15
tp2511
a(S"please what's in inbox"
p2512
g15
tp2513
a(S'check google calendar for'
p2514
g15
tp2515
a(S'fake news'
p2516
g15
tp2517
a(S'please turn off my computer'
p2518
g15
tp2519
a(S'can you please turn up the sound'
p2520
g15
tp2521
a(S'please would you open my inbox'
p2522
g15
tp2523
a(S'could you schedule an event please'
p2524
g15
tp2525
a(S'can you please schedule new event'
p2526
g15
tp2527
a(S'can you please close current window'
p2528
g15
tp2529
a(S'make an event'
p2530
g15
tp2531
a(S'can you schedule a new event'
p2532
g15
tp2533
a(S'what is in my gmail'
p2534
g15
tp2535
a(S'check events on this week'
p2536
g15
tp2537
a(S'can you please turn the sound down'
p2538
g15
tp2539
a(S'what is new in gmail please'
p2540
g15
tp2541
a(S"if it's cloudy today"
p2542
g15
tp2543
a(S'can you check gmail please'
p2544
g15
tp2545
a(S'check google calendar on monday'
p2546
g15
tp2547
a(S'turn the beat down please'
p2548
g15
tp2549
a(S'check google calendar on thursday'
p2550
g15
tp2551
a(S'could you please schedule event'
p2552
g15
tp2553
a(S'could you schedule a new event please'
p2554
g15
tp2555
a(S'will you check inbox'
p2556
g15
tp2557
a(S"what's new in my mail"
p2558
g15
tp2559
a(S'spotify pause'
p2560
g15
tp2561
a(S'what is on my calendar for today'
p2562
g15
tp2563
a(S"what's new in mail"
p2564
g15
tp2565
a(S'any events on tuesday'
p2566
g15
tp2567
a(S"don't i have anything on saturday"
p2568
g15
tp2569
a(S"please what's new in my inbox"
p2570
g15
tp2571
a(S'please what is new in new gmail'
p2572
g15
tp2573
a(S'can you shutdown my computer'
p2574
g15
tp2575
a(S'can you make new event'
p2576
g15
tp2577
a(S'make the sound louder'
p2578
g15
tp2579
a(S'do i have to do anything on sunday'
p2580
g15
tp2581
a(S'what events do i have on wednesday'
p2582
g15
tp2583
a(S"don't start browser"
p2584
g15
tp2585
a(S'what events do i have on tomorrow'
p2586
g15
tp2587
a(S'can you please mute'
p2588
g15
tp2589
a(S'get live news feed'
p2590
g15
tp2591
a(S'please do not start browser'
p2592
g15
tp2593
a(S'current temperature'
p2594
g15
tp2595
a(S'live news'
p2596
g15
tp2597
a(S'can you turn yourself off'
p2598
g15
tp2599
a(S'check my mail'
p2600
g15
tp2601
a(S'what is on my calendar for this day'
p2602
g15
tp2603
a(S'what are the live news'
p2604
g15
tp2605
a(S'how is the temperature'
p2606
g15
tp2607
a(S'start a default browser'
p2608
g28
tp2609
a(S'check events for tomorrow'
p2610
g15
tp2611
a(S'add an event'
p2612
g15
tp2613
a(S'is it freezing today'
p2614
g15
tp2615
a(S'start a browser'
p2616
g28
tp2617
a(S'please check my inbox'
p2618
g15
tp2619
a(S'go to dot net'
p2620
g28
tp2621
a(S'make the sound quieter'
p2622
g15
tp2623
a(S'what is in new mail please'
p2624
g15
tp2625
a(S'do i have to do anything'
p2626
g15
tp2627
a(S'check the clock'
p2628
g15
tp2629
a(S'current news'
p2630
g15
tp2631
a(S'close this window'
p2632
g15
tp2633
a(S'volume higher please'
p2634
g15
tp2635
a(S'please get the time'
p2636
g15
tp2637
a(S'pause the song please'
p2638
g15
tp2639
a(S"what's the temperature this week"
p2640
g15
tp2641
a(S'will you check mail'
p2642
g15
tp2643
a(S'can you please shut down the computer'
p2644
g15
tp2645
a(S'any events on sunday'
p2646
g15
tp2647
a(S"please don't start default browser"
p2648
g15
tp2649
a(S'create an event please'
p2650
g15
tp2651
a(S'do i have any events on today'
p2652
g15
tp2653
a(S'turn off'
p2654
g15
tp2655
a(S'could you check mail'
p2656
g15
tp2657
a(S"what's the weather today"
p2658
g15
tp2659
a(S'get the time please'
p2660
g15
tp2661
a(S'will you check new gmail please'
p2662
g15
tp2663
a(S'live newsfeed today'
p2664
g15
tp2665
a(S'any events on saturday'
p2666
g15
tp2667
a(S"what's new in my gmail please"
p2668
g15
tp2669
a(S'check mail please'
p2670
g15
tp2671
a(S"don't i have to do anything on wednesday"
p2672
g15
tp2673
a(S'do i have to do anything next'
p2674
g15
tp2675
a(S'please stop song'
p2676
g15
tp2677
a(S'create a new event please'
p2678
g15
tp2679
a(S'please open dot com'
p2680
g28
tp2681
a(S'do i have any events on sunday'
p2682
g15
tp2683
a(S"get today's temperature"
p2684
g15
tp2685
a(S'news feed today'
p2686
g15
tp2687
a(S'what events do i have on next'
p2688
g15
tp2689
a(S'check inbox please'
p2690
g15
tp2691
a(S'close active window'
p2692
g15
tp2693
a(S'will it snow today'
p2694
g15
tp2695
a(S'can you add event'
p2696
g15
tp2697
a(S'please would you check new mail'
p2698
g15
tp2699
a(S'could you create an event'
p2700
g15
tp2701
a(S'newsfeed'
p2702
g15
tp2703
a(S'what is in gmail'
p2704
g15
tp2705
a(S'am i free for saturday'
p2706
g15
tp2707
a(S"if it's cold this week"
p2708
g15
tp2709
a(S'check google calendar for tuesday'
p2710
g15
tp2711
a(S"today's current news "
p2712
g15
tp2713
a(S'good night alice'
p2714
g15
tp2715
a(S'will you open my inbox please'
p2716
g15
tp2717
a(S'please schedule an event'
p2718
g15
tp2719
a(S"what's today's weather"
p2720
g15
tp2721
a(S'please could you check mail'
p2722
g15
tp2723
a(S'be quiet'
p2724
g15
tp2725
a(S"what's the forecast this week"
p2726
g15
tp2727
a(S'make the volume 0'
p2728
g15
tp2729
a(S"don't start a default browser"
p2730
g15
tp2731
a(S'please shutdown'
p2732
g15
tp2733
a(S'what events are on monday'
p2734
g15
tp2735
a(S'please create event'
p2736
g15
tp2737
a(S"what's if it's snowing today"
p2738
g15
tp2739
a(S'lock the screen please'
p2740
g15
tp2741
a(S'mute please'
p2742
g15
tp2743
a(S'are there any events'
p2744
g15
tp2745
a(S"don't i have anything to do on next"
p2746
g15
tp2747
a(S'open a default browser please'
p2748
g28
tp2749
a(S'could you add a new event'
p2750
g15
tp2751
a(S'go ahead'
p2752
g15
tp2753
a(S"don't i have to do anything tomorrow"
p2754
g15
tp2755
a(S'what is the news'
p2756
g15
tp2757
a(S'are there any events in a week'
p2758
g15
tp2759
a(S'do not open'
p2760
g15
tp2761
a(S'please google'
p2762
g15
tp2763
a(S'please schedule a new event'
p2764
g15
tp2765
a(S'can you open this program'
p2766
g15
tp2767
a(S'please would you check inbox'
p2768
g15
tp2769
a(S"what's the newsfeed"
p2770
g15
tp2771
a(S'can you send me to the lock screen'
p2772
g15
tp2773
a(S'get the current events'
p2774
g15
tp2775
a(S"what's new in inbox"
p2776
g15
tp2777
a(S"what're the headlines"
p2778
g15
tp2779
a(S'check events on this day'
p2780
g15
tp2781
a(S'turn up the volume'
p2782
g15
tp2783
a(S'get live news'
p2784
g15
tp2785
a(S'check events on tuesday'
p2786
g15
tp2787
a(S'what do i have to do on monday'
p2788
g15
tp2789
a(S'please would you check gmail'
p2790
g15
tp2791
a(S'add an event please'
p2792
g15
tp2793
a(S'what is headlines'
p2794
g15
tp2795
a(S'check google calendar for tomorrow'
p2796
g15
tp2797
a(S"don't i have to do anything on tuesday"
p2798
g15
tp2799
a(S'any events on tomorrow'
p2800
g15
tp2801
a(S'could you schedule an event'
p2802
g15
tp2803
a(S'turn yourself off please'
p2804
g15
tp2805
a(S'find live news feed'
p2806
g15
tp2807
a(S"aren't there any events on today"
p2808
g15
tp2809
a(S'can you please schedule a new event'
p2810
g15
tp2811
a(S'do not go to'
p2812
g15
tp2813
a(S'is there anything to do on friday'
p2814
g15
tp2815
a(S'please can you check new gmail'
p2816
g15
tp2817
a(S'can you add new event please'
p2818
g15
tp2819
a(S'would you check my mail'
p2820
g15
tp2821
a(S'do i have any events on tomorrow'
p2822
g15
tp2823
a(S'put me on the lock screen'
p2824
g15
tp2825
a(S'please will you open mail'
p2826
g15
tp2827
a(S'please could you check inbox'
p2828
g15
tp2829
a(S'get headlines'
p2830
g15
tp2831
a(S'can you please turn up the beat'
p2832
g15
tp2833
a(S"don't i have anything to do on thursday"
p2834
g15
tp2835
a(S'could you open my mail'
p2836
g15
tp2837
a(S"how's the forecast"
p2838
g15
tp2839
a(S"don't start default browser"
p2840
g15
tp2841
a(S"don't i have any events on monday"
p2842
g15
tp2843
a(S'check events for saturday'
p2844
g15
tp2845
a(S'open my gmail'
p2846
g15
tp2847
a(S'please could you check new mail'
p2848
g15
tp2849
a(S'check my calendar on this week'
p2850
g15
tp2851
a(S'play song'
p2852
g15
tp2853
a(S"don't i have to do anything on this day"
p2854
g15
tp2855
a(S'can you lock the screen'
p2856
g15
tp2857
a(S'please will you check mail'
p2858
g15
tp2859
a(S'news today'
p2860
g15
tp2861
a(S'turn it off'
p2862
g15
tp2863
a(S'can you open browser please'
p2864
g28
tp2865
a(S'retrieve the current time'
p2866
g15
tp2867
a(S'do i have anything to do on tuesday'
p2868
g15
tp2869
a(S'could you please schedule a new event'
p2870
g15
tp2871
a(S'check google calendar'
p2872
g15
tp2873
a(S'check my calendar on tomorrow'
p2874
g15
tp2875
a(S'what is current events'
p2876
g15
tp2877
a(S'is there anything to do on wednesday'
p2878
g15
tp2879
a(S'can you please close active window'
p2880
g15
tp2881
a(S"don't i have to do anything on saturday"
p2882
g15
tp2883
a(S'are there any events on saturday'
p2884
g15
tp2885
a(S'what events are on saturday'
p2886
g15
tp2887
a(S'turn my computer off please'
p2888
g15
tp2889
a(S'do i have any events in a week'
p2890
g15
tp2891
a(S'please spotify last'
p2892
g15
tp2893
a(S'lower the volume'
p2894
g15
tp2895
a(S'please make an event'
p2896
g15
tp2897
a(S'get current forecast'
p2898
g15
tp2899
a(S'check my gmail please'
p2900
g15
tp2901
a(S'can you make new event please'
p2902
g15
tp2903
a(S"what's in inbox please"
p2904
g15
tp2905
a(S'check my calendar for friday'
p2906
g15
tp2907
a(S'please sound up'
p2908
g15
tp2909
a(S'please google search for'
p2910
g15
tp2911
a(S'intelligence report'
p2912
g15
tp2913
a(S'can you check my mail please'
p2914
g15
tp2915
a(S'could you open my inbox please'
p2916
g15
tp2917
a(S"today's news feed"
p2918
g15
tp2919
a(S'check calendar on saturday'
p2920
g15
tp2921
a(S"please don't open"
p2922
g15
tp2923
a(S'do i have to do anything on thursday'
p2924
g15
tp2925
a(S'make the volume lower'
p2926
g15
tp2927
a(S'please will you check new gmail'
p2928
g15
tp2929
a(S'turn up the beat please'
p2930
g15
tp2931
a(S'check google calendar for this week'
p2932
g15
tp2933
a(S'can you make it louder please'
p2934
g15
tp2935
a(S'do not open a default browser'
p2936
g15
tp2937
a(S'read me the clock'
p2938
g15
tp2939
a(S'do i have any events on thursday'
p2940
g15
tp2941
a(S'please start a browser'
p2942
g28
tp2943
a(S'start a browser please'
p2944
g28
tp2945
a(S'could you please create new event'
p2946
g15
tp2947
a(S'do i have anything on thursday'
p2948
g15
tp2949
a(S'what events do i have on today'
p2950
g15
tp2951
a(S"get today's weather"
p2952
g15
tp2953
a(S'would you open my inbox'
p2954
g15
tp2955
a(S"aren't there any events"
p2956
g15
tp2957
a(S"don't i have to do anything today"
p2958
g15
tp2959
a(S'start default browser please'
p2960
g28
tp2961
a(S"don't i have anything on this day"
p2962
g15
tp2963
a(S'would you check mail'
p2964
g15
tp2965
a(S'am i free for tomorrow'
p2966
g15
tp2967
a(S'what is new in mail'
p2968
g15
tp2969
a(S"i think i didn't answer an earlier question"
p2970
g15
tp2971
a(S'can you please kill the current window'
p2972
g15
tp2973
a(S'spotify pause the song please'
p2974
g15
tp2975
a(S"what's today's temperature"
p2976
g15
tp2977
a(S'are there any events on thursday'
p2978
g15
tp2979
a(S'spotify play last song please'
p2980
g15
tp2981
a(S'what events are in a month'
p2982
g15
tp2983
a(S'check calendar for today'
p2984
g15
tp2985
a(S'spotify play the song before'
p2986
g15
tp2987
a(S"what're the current events"
p2988
g15
tp2989
a(S'live newsfeed'
p2990
g15
tp2991
a(S'pause spotify'
p2992
g15
tp2993
a(S"what's this week's weather"
p2994
g15
tp2995
a(S"get if it's foggy today"
p2996
g15
tp2997
a(S"don't i have anything on thursday"
p2998
g15
tp2999
a(S"aren't there any events on monday"
p3000
g15
tp3001
a(S'retrieve the current time please'
p3002
g15
tp3003
a(S'create an event'
p3004
g15
tp3005
a(S"don't i have anything tomorrow"
p3006
g15
tp3007
a(S'open inbox'
p3008
g15
tp3009
a(S'what is in my mail'
p3010
g15
tp3011
a(S'spotify shut up'
p3012
g15
tp3013
a(S'can you unmute'
p3014
g15
tp3015
a(S"aren't there any events on friday"
p3016
g15
tp3017
a(S'turn the volume to zero'
p3018
g15
tp3019
a(S'can you please create a new event'
p3020
g15
tp3021
a(S'please create new event'
p3022
g15
tp3023
a(S'find live news'
p3024
g15
tp3025
a(S'is it rainy today'
p3026
g15
tp3027
a(S'find the news'
p3028
g15
tp3029
a(S"what's in my gmail please"
p3030
g15
tp3031
a(S'please what is new in my inbox'
p3032
g15
tp3033
a(S"what's the live news"
p3034
g15
tp3035
a(S'shut down my computer'
p3036
g15
tp3037
a(S'what events are on tuesday'
p3038
g15
tp3039
a(S"don't i have to do anything on friday"
p3040
g15
tp3041
a(S'go to dot org'
p3042
g28
tp3043
a(S'please would you open my gmail'
p3044
g15
tp3045
a(S'close a broswer'
p3046
g15
tp3047
a(S'what is news feed'
p3048
g15
tp3049
a(S'can you create new event please'
p3050
g15
tp3051
a(S'can you make event'
p3052
g15
tp3053
a(S'time please'
p3054
g15
tp3055
a(S"what's in new mail please"
p3056
g15
tp3057
a(S'is there anything to do on thursday'
p3058
g15
tp3059
a(S'spotify play'
p3060
g15
tp3061
a(S'could you open inbox'
p3062
g15
tp3063
a(S'do i have anything to do on next'
p3064
g15
tp3065
a(S'go spotify please'
p3066
g15
tp3067
a(S'do i have anything to do on this day'
p3068
g15
tp3069
a(S'can you check inbox'
p3070
g15
tp3071
a(S'please check my gmail'
p3072
g15
tp3073
a(S"don't i have to do anything on monday"
p3074
g15
tp3075
a(S'get me the clock'
p3076
g15
tp3077
a(S'find the current events'
p3078
g15
tp3079
a(S"how's the forecast today"
p3080
g15
tp3081
a(S"what's in gmail"
p3082
g15
tp3083
a(S'what is in my inbox'
p3084
g15
tp3085
a(S'check my calendar on saturday'
p3086
g15
tp3087
a(S'check google calendar for wednesday'
p3088
g15
tp3089
a(S"today's news"
p3090
g15
tp3091
a(S'what is newsfeed'
p3092
g15
tp3093
a(S"aren't there any events on next"
p3094
g15
tp3095
a(S'what is new in my gmail'
p3096
g15
tp3097
a(S'will it snow this week'
p3098
g15
tp3099
a(S'stop the tunez'
p3100
g15
tp3101
a(S"what's if it's raining this week"
p3102
g15
tp3103
a(S'will you check my gmail'
p3104
g15
tp3105
a(S'can you turn up the beat'
p3106
g15
tp3107
a(S'please spotify pause'
p3108
g15
tp3109
a(S"if it's hot today"
p3110
g15
tp3111
a(S'please check the clock right now'
p3112
g15
tp3113
a(S'can you create new event'
p3114
g15
tp3115
a(S'please could you check my gmail'
p3116
g15
tp3117
a(S"get if it's snowing this week"
p3118
g15
tp3119
a(S'please shut off'
p3120
g15
tp3121
a(S'is there anything i have to do on saturday'
p3122
g15
tp3123
a(S'what events do i have on tuesday'
p3124
g15
tp3125
a(S'please check inbox'
p3126
g15
tp3127
a(S"don't i have to do anything in a week"
p3128
g15
tp3129
a(S'could you make an event'
p3130
g15
tp3131
a(S'live news feed today'
p3132
g15
tp3133
a(S"don't i have any events on friday"
p3134
g15
tp3135
a(S'stop song please'
p3136
g15
tp3137
a(S'can you kill the window'
p3138
g15
tp3139
a(S"what's new in new mail"
p3140
g15
tp3141
a(S'open my mail'
p3142
g15
tp3143
a(S'can you lock computer please'
p3144
g15
tp3145
a(S'would you check my gmail please'
p3146
g15
tp3147
a(S'what do i have to do on today'
p3148
g15
tp3149
a(S'can you create event'
p3150
g15
tp3151
a(S'is there anything i have to do on thursday'
p3152
g15
tp3153
a(S'could you add an event'
p3154
g15
tp3155
a(S"don't i have to do anything on thursday"
p3156
g15
tp3157
a(S'could you please make an event'
p3158
g15
tp3159
a(S'would you open my gmail please'
p3160
g15
tp3161
a(S"don't i have to do anything on this day"
p3162
g15
tp3163
a(S'tell me the news'
p3164
g15
tp3165
a(S'tell me live news feed'
p3166
g15
tp3167
a(S'is there anything to do on tuesday'
p3168
g15
tp3169
a(S"what's the live newsfeed"
p3170
g15
tp3171
a(S"if it's snowing today"
p3172
g15
tp3173
a(S'shutdown please'
p3174
g15
tp3175
a(S'can you send me to the lock screen please'
p3176
g15
tp3177
a(S'can you create an event'
p3178
g15
tp3179
a(S'kill the music'
p3180
g15
tp3181
a(S"get if it's freezing today"
p3182
g15
tp3183
a(S'spotify go back'
p3184
g15
tp3185
a(S'get the current events'
p3186
g15
tp3187
a(S'please open my inbox'
p3188
g15
tp3189
a(S"today's headlines"
p3190
g15
tp3191
a(S"don't i have anything on next"
p3192
g15
tp3193
a(S'could you please schedule an event'
p3194
g15
tp3195
a(S'please will you open my gmail'
p3196
g15
tp3197
a(S'would you check inbox please'
p3198
g15
tp3199
a(S'please could you check gmail'
p3200
g15
tp3201
a(S'is there anything to do on next'
p3202
g15
tp3203
a(S'do i have anything to do on monday'
p3204
g15
tp3205
a(S'spotify play previous song please'
p3206
g15
tp3207
a(S'check your watch please'
p3208
g15
tp3209
a(S"this week's temperature"
p3210
g15
tp3211
a(S'start spotify please'
p3212
g15
tp3213
a(S'please lock my computer'
p3214
g15
tp3215
a(S"get if it's cold this week"
p3216
g15
tp3217
a(S'read me the clock please'
p3218
g15
tp3219
a(S'would you check my inbox please'
p3220
g15
tp3221
a(S'do i have anything tomorrow'
p3222
g15
tp3223
a(S'please do not start browsing'
p3224
g15
tp3225
a(S'please find out the latest headlines'
p3226
g15
tp3227
a(S'check my calendar on today'
p3228
g15
tp3229
a(S'what events are on sunday'
p3230
g15
tp3231
a(S'are there any events on friday'
p3232
g15
tp3233
a(S'what is in inbox please'
p3234
g15
tp3235
a(S'open a browser'
p3236
g28
tp3237
a(S'music down'
p3238
g15
tp3239
a(S"don't i have to do anything on next"
p3240
g15
tp3241
a(S'google for'
p3242
g15
tp3243
a(S'could you check my inbox'
p3244
g15
tp3245
a(S'check events on'
p3246
g15
tp3247
a(S'what is on my calendar for sunday'
p3248
g15
tp3249
a(S'tell me newsfeed'
p3250
g15
tp3251
a(S"how's the temperature this week"
p3252
g15
tp3253
a(S'find live newsfeed'
p3254
g15
tp3255
a(S'can you shut down the computer'
p3256
g15
tp3257
a(S'do not open browser'
p3258
g15
tp3259
a(S'gather information on todays current events please'
p3260
g15
tp3261
a(S'please spotify play previous song'
p3262
g15
tp3263
a(S'what do i have on thursday'
p3264
g15
tp3265
a(S'spotify go ahead'
p3266
g15
tp3267
a(S"what's new in my mail please"
p3268
g15
tp3269
a(S'do i have to do anything on this day'
p3270
g15
tp3271
a(S'will you open a browser'
p3272
g28
tp3273
a(S'please what is in gmail'
p3274
g15
tp3275
a(S'please kill this window'
p3276
g15
tp3277
a(S"what's if it's foggy today"
p3278
g15
tp3279
a(S'what is new in inbox'
p3280
g15
tp3281
a(S'go back to the last song '
p3282
g15
tp3283
a(S'mute'
p3284
g15
tp3285
a(S"aren't there any events on wednesday"
p3286
g15
tp3287
a(S'is it hot this week'
p3288
g15
tp3289
a(S'check calendar on monday'
p3290
g15
tp3291
a(S'please volume higher'
p3292
g15
tp3293
a(S"don't i have any events on today"
p3294
g15
tp3295
a(S"today's temperature"
p3296
g15
tp3297
a(S"what's the weather this week"
p3298
g15
tp3299
a(S'am i free for next'
p3300
g15
tp3301
a(S'check my calendar on wednesday'
p3302
g15
tp3303
a(S'is there anything i have to do on today'
p3304
g15
tp3305
a(S'please read me the clock'
p3306
g15
tp3307
a(S'check new mail please'
p3308
g15
tp3309
a(S'check my inbox'
p3310
g15
tp3311
a(S"what're the newsfeed"
p3312
g15
tp3313
a(S'please spotify start'
p3314
g15
tp3315
a(S'check calendar on this week'
p3316
g15
tp3317
a(S'am i free for sunday'
p3318
g15
tp3319
a(S'please check new mail'
p3320
g15
tp3321
a(S'please close the current window'
p3322
g15
tp3323
a(S'google'
p3324
g15
tp3325
a(S'would you check my gmail'
p3326
g15
tp3327
a(S'please will you open inbox'
p3328
g15
tp3329
a(S'please what is in mail'
p3330
g15
tp3331
a(S'could you make event please'
p3332
g15
tp3333
a(S'please search google'
p3334
g15
tp3335
a(S'hey alex'
p3336
g15
tp3337
a(S"what's in mail please"
p3338
g15
tp3339
a(S'can you turn the sound down'
p3340
g15
tp3341
a(S'do not start default browser'
p3342
g15
tp3343
a(S"today's live news feed"
p3344
g15
tp3345
a(S'please would you check mail'
p3346
g15
tp3347
a(S'search'
p3348
g15
tp3349
a(S'do i have anything today'
p3350
g15
tp3351
a(S'is there anything to do tomorrow'
p3352
g15
tp3353
a(S'check calendar for monday'
p3354
g15
tp3355
a(S'is it cold this week'
p3356
g15
tp3357
a(S'please close this window'
p3358
g15
tp3359
a(S'go back please'
p3360
g15
tp3361
a(S'do i have any events'
p3362
g15
tp3363
a(S'am i free'
p3364
g15
tp3365
a(S'please louder'
p3366
g15
tp3367
a(S'could you add event please'
p3368
g15
tp3369
a(S"please don't start a default browser"
p3370
g15
tp3371
a(S'please what is new in gmail'
p3372
g15
tp3373
a(S'check my calendar for tuesday'
p3374
g15
tp3375
a(S'would you open gmail please'
p3376
g15
tp3377
a(S'could you create a new event'
p3378
g15
tp3379
a(S'get current weather'
p3380
g15
tp3381
a(S"what's if it's cloudy this week"
p3382
g15
tp3383
a(S'do not open default browser'
p3384
g15
tp3385
a(S'check my inbox please'
p3386
g15
tp3387
a(S'can you check gmail'
p3388
g15
tp3389
a(S'pause song please'
p3390
g15
tp3391
a(S'create a new event'
p3392
g15
tp3393
a(S'can you please turn the tune down'
p3394
g15
tp3395
a(S'can you please turn off my computer'
p3396
g15
tp3397
a(S'schedule new event please'
p3398
g15
tp3399
a(S"don't i have any events on"
p3400
g15
tp3401
a(S'please create a new event'
p3402
g15
tp3403
a(S'news'
p3404
g15
tp3405
a(S"what's this week's forecast"
p3406
g15
tp3407
a(S'please could you check new gmail'
p3408
g15
tp3409
a(S'check what time it is'
p3410
g15
tp3411
a(S'do not start a browser'
p3412
g15
tp3413
a(S'shut my computer down please'
p3414
g15
tp3415
a(S'do i have anything on saturday'
p3416
g15
tp3417
a(S"get this week's temperature"
p3418
g15
tp3419
a(S"what's new in new gmail"
p3420
g15
tp3421
a(S'lock the screen'
p3422
g15
tp3423
a(S'is it cloudy today'
p3424
g15
tp3425
a(S'what is news'
p3426
g15
tp3427
a(S'current events please'
p3428
g15
tp3429
a(S'please add new event'
p3430
g15
tp3431
a(S'live news today'
p3432
g15
tp3433
a(S'clock'
p3434
g15
tp3435
a(S'turn up the the beat'
p3436
g15
tp3437
a(S'start browsing please'
p3438
g28
tp3439
a(S'open gmail please'
p3440
g15
tp3441
a(S'what events do i have'
p3442
g15
tp3443
a(S"please what's in my inbox"
p3444
g15
tp3445
asS'classifier'
p3446
ccopy_reg
_reconstructor
p3447
(csklearn.pipeline
Pipeline
p3448
c__builtin__
object
p3449
Ntp3450
Rp3451
(dp3452
S'_sklearn_version'
p3453
S'0.18.1'
p3454
sS'steps'
p3455
(lp3456
(S'vect'
p3457
g3447
(csklearn.feature_extraction.text
CountVectorizer
p3458
g3449
Ntp3459
Rp3460
(dp3461
S'decode_error'
p3462
Vstrict
p3463
sS'lowercase'
p3464
I01
sS'stop_words'
p3465
NsS'vocabulary'
p3466
NsS'tokenizer'
p3467
NsS'encoding'
p3468
Vutf-8
p3469
sS'token_pattern'
p3470
V(?u)\u005cb\u005cw\u005cw+\u005cb
p3471
sS'input'
p3472
Vcontent
p3473
sS'analyzer'
p3474
Vword
p3475
sS'vocabulary_'
p3476
(dp3477
Vraining
p3478
cnumpy.core.multiarray
scalar
p3479
(cnumpy
dtype
p3480
(S'i8'
p3481
I0
I1
tp3482
Rp3483
(I3
S'<'
p3484
NNNI-1
I-1
I0
tp3485
bS'\xa2\x00\x00\x00\x00\x00\x00\x00'
p3486
tp3487
Rp3488
sVtodays
p3489
g3479
(g3483
S'\xcf\x00\x00\x00\x00\x00\x00\x00'
p3490
tp3491
Rp3492
sVmute
p3493
g3479
(g3483
S'~\x00\x00\x00\x00\x00\x00\x00'
p3494
tp3495
Rp3496
sVbyebye
p3497
g3479
(g3483
S'\x1b\x00\x00\x00\x00\x00\x00\x00'
p3498
tp3499
Rp3500
sVskip
p3501
g3479
(g3483
S'\xb7\x00\x00\x00\x00\x00\x00\x00'
p3502
tp3503
Rp3504
sVmonth
p3505
g3479
(g3483
S'|\x00\x00\x00\x00\x00\x00\x00'
p3506
tp3507
Rp3508
sVnot
p3509
g3479
(g3483
S'\x88\x00\x00\x00\x00\x00\x00\x00'
p3510
tp3511
Rp3512
sVsofter
p3513
g3479
(g3483
S'\xba\x00\x00\x00\x00\x00\x00\x00'
p3514
tp3515
Rp3516
sVkill
p3517
g3479
(g3483
S'n\x00\x00\x00\x00\x00\x00\x00'
p3518
tp3519
Rp3520
sVedu
p3521
g3479
(g3483
S'=\x00\x00\x00\x00\x00\x00\x00'
p3522
tp3523
Rp3524
sVgo
p3525
g3479
(g3483
S'U\x00\x00\x00\x00\x00\x00\x00'
p3526
tp3527
Rp3528
sVcold
p3529
g3479
(g3483
S'%\x00\x00\x00\x00\x00\x00\x00'
p3530
tp3531
Rp3532
sVbroswer
p3533
g3479
(g3483
S'\x17\x00\x00\x00\x00\x00\x00\x00'
p3534
tp3535
Rp3536
sVfind
p3537
g3479
(g3483
S'H\x00\x00\x00\x00\x00\x00\x00'
p3538
tp3539
Rp3540
sVprevious
p3541
g3479
(g3483
S'\x99\x00\x00\x00\x00\x00\x00\x00'
p3542
tp3543
Rp3544
sVspotify
p3545
g3479
(g3483
S'\xbd\x00\x00\x00\x00\x00\x00\x00'
p3546
tp3547
Rp3548
sVpause
p3549
g3479
(g3483
S'\x92\x00\x00\x00\x00\x00\x00\x00'
p3550
tp3551
Rp3552
sVsnowing
p3553
g3479
(g3483
S'\xb9\x00\x00\x00\x00\x00\x00\x00'
p3554
tp3555
Rp3556
sVhot
p3557
g3479
(g3483
S'a\x00\x00\x00\x00\x00\x00\x00'
p3558
tp3559
Rp3560
sVthursday
p3561
g3479
(g3483
S'\xcb\x00\x00\x00\x00\x00\x00\x00'
p3562
tp3563
Rp3564
sVaren
p3565
g3479
(g3483
S'\r\x00\x00\x00\x00\x00\x00\x00'
p3566
tp3567
Rp3568
sVto
p3569
g3479
(g3483
S'\xcd\x00\x00\x00\x00\x00\x00\x00'
p3570
tp3571
Rp3572
sVadd
p3573
g3479
(g3483
S'\x02\x00\x00\x00\x00\x00\x00\x00'
p3574
tp3575
Rp3576
sVgoing
p3577
g3479
(g3483
S'V\x00\x00\x00\x00\x00\x00\x00'
p3578
tp3579
Rp3580
sVmail
p3581
g3479
(g3483
S'v\x00\x00\x00\x00\x00\x00\x00'
p3582
tp3583
Rp3584
sVbye
p3585
g3479
(g3483
S'\x1a\x00\x00\x00\x00\x00\x00\x00'
p3586
tp3587
Rp3588
sVdo
p3589
g3479
(g3483
S'5\x00\x00\x00\x00\x00\x00\x00'
p3590
tp3591
Rp3592
sVgood
p3593
g3479
(g3483
S'W\x00\x00\x00\x00\x00\x00\x00'
p3594
tp3595
Rp3596
sVemergency
p3597
g3479
(g3483
S'?\x00\x00\x00\x00\x00\x00\x00'
p3598
tp3599
Rp3600
sVget
p3601
g3479
(g3483
S'Q\x00\x00\x00\x00\x00\x00\x00'
p3602
tp3603
Rp3604
sVya
p3605
g3479
(g3483
S'\xe8\x00\x00\x00\x00\x00\x00\x00'
p3606
tp3607
Rp3608
sVmaterial
p3609
g3479
(g3483
S'x\x00\x00\x00\x00\x00\x00\x00'
p3610
tp3611
Rp3612
sVwatch
p3613
g3479
(g3483
S'\xdc\x00\x00\x00\x00\x00\x00\x00'
p3614
tp3615
Rp3616
sVreport
p3617
g3479
(g3483
S'\xa7\x00\x00\x00\x00\x00\x00\x00'
p3618
tp3619
Rp3620
sVworld
p3621
g3479
(g3483
S'\xe6\x00\x00\x00\x00\x00\x00\x00'
p3622
tp3623
Rp3624
sVnow
p3625
g3479
(g3483
S'\x89\x00\x00\x00\x00\x00\x00\x00'
p3626
tp3627
Rp3628
sVday
p3629
g3479
(g3483
S'-\x00\x00\x00\x00\x00\x00\x00'
p3630
tp3631
Rp3632
sVdreams
p3633
g3479
(g3483
S';\x00\x00\x00\x00\x00\x00\x00'
p3634
tp3635
Rp3636
sVintel
p3637
g3479
(g3483
S'i\x00\x00\x00\x00\x00\x00\x00'
p3638
tp3639
Rp3640
sVshoulder
p3641
g3479
(g3483
S'\xb3\x00\x00\x00\x00\x00\x00\x00'
p3642
tp3643
Rp3644
sVgov
p3645
g3479
(g3483
S'Z\x00\x00\x00\x00\x00\x00\x00'
p3646
tp3647
Rp3648
sValex
p3649
g3479
(g3483
S'\x04\x00\x00\x00\x00\x00\x00\x00'
p3650
tp3651
Rp3652
sVlike
p3653
g3479
(g3483
S'q\x00\x00\x00\x00\x00\x00\x00'
p3654
tp3655
Rp3656
sVgossips
p3657
g3479
(g3483
S'Y\x00\x00\x00\x00\x00\x00\x00'
p3658
tp3659
Rp3660
sVdidn
p3661
g3479
(g3483
S'4\x00\x00\x00\x00\x00\x00\x00'
p3662
tp3663
Rp3664
sVwednesday
p3665
g3479
(g3483
S'\xdf\x00\x00\x00\x00\x00\x00\x00'
p3666
tp3667
Rp3668
sVcloudy
p3669
g3479
(g3483
S'$\x00\x00\x00\x00\x00\x00\x00'
p3670
tp3671
Rp3672
sVtry
p3673
g3479
(g3483
S'\xd2\x00\x00\x00\x00\x00\x00\x00'
p3674
tp3675
Rp3676
sVtunez
p3677
g3479
(g3483
S'\xd6\x00\x00\x00\x00\x00\x00\x00'
p3678
tp3679
Rp3680
sVgimme
p3681
g3479
(g3483
S'R\x00\x00\x00\x00\x00\x00\x00'
p3682
tp3683
Rp3684
sVweather
p3685
g3479
(g3483
S'\xde\x00\x00\x00\x00\x00\x00\x00'
p3686
tp3687
Rp3688
sVnight
p3689
g3479
(g3483
S'\x85\x00\x00\x00\x00\x00\x00\x00'
p3690
tp3691
Rp3692
sVtunes
p3693
g3479
(g3483
S'\xd5\x00\x00\x00\x00\x00\x00\x00'
p3694
tp3695
Rp3696
sVclassifier
p3697
g3479
(g3483
S'!\x00\x00\x00\x00\x00\x00\x00'
p3698
tp3699
Rp3700
sVinbox
p3701
g3479
(g3483
S'f\x00\x00\x00\x00\x00\x00\x00'
p3702
tp3703
Rp3704
sVset
p3705
g3479
(g3483
S'\xb2\x00\x00\x00\x00\x00\x00\x00'
p3706
tp3707
Rp3708
sVretrieve
p3709
g3479
(g3483
S'\xa8\x00\x00\x00\x00\x00\x00\x00'
p3710
tp3711
Rp3712
sVee
p3713
g3479
(g3483
S'>\x00\x00\x00\x00\x00\x00\x00'
p3714
tp3715
Rp3716
sVintelligence
p3717
g3479
(g3483
S'j\x00\x00\x00\x00\x00\x00\x00'
p3718
tp3719
Rp3720
sVback
p3721
g3479
(g3483
S'\x0e\x00\x00\x00\x00\x00\x00\x00'
p3722
tp3723
Rp3724
sVhail
p3725
g3479
(g3483
S'\\\x00\x00\x00\x00\x00\x00\x00'
p3726
tp3727
Rp3728
sValice
p3729
g3479
(g3483
S'\x05\x00\x00\x00\x00\x00\x00\x00'
p3730
tp3731
Rp3732
sVsee
p3733
g3479
(g3483
S'\xb0\x00\x00\x00\x00\x00\x00\x00'
p3734
tp3735
Rp3736
sVcomputer
p3737
g3479
(g3483
S'(\x00\x00\x00\x00\x00\x00\x00'
p3738
tp3739
Rp3740
sVare
p3741
g3479
(g3483
S'\x0c\x00\x00\x00\x00\x00\x00\x00'
p3742
tp3743
Rp3744
sVclose
p3745
g3479
(g3483
S'#\x00\x00\x00\x00\x00\x00\x00'
p3746
tp3747
Rp3748
sVcalendar
p3749
g3479
(g3483
S'\x1c\x00\x00\x00\x00\x00\x00\x00'
p3750
tp3751
Rp3752
sVextract
p3753
g3479
(g3483
S'C\x00\x00\x00\x00\x00\x00\x00'
p3754
tp3755
Rp3756
sVevent
p3757
g3479
(g3483
S'@\x00\x00\x00\x00\x00\x00\x00'
p3758
tp3759
Rp3760
sVout
p3761
g3479
(g3483
S'\x90\x00\x00\x00\x00\x00\x00\x00'
p3762
tp3763
Rp3764
sVcategory
p3765
g3479
(g3483
S'\x1e\x00\x00\x00\x00\x00\x00\x00'
p3766
tp3767
Rp3768
sVwhat
p3769
g3479
(g3483
S'\xe1\x00\x00\x00\x00\x00\x00\x00'
p3770
tp3771
Rp3772
sVfor
p3773
g3479
(g3483
S'J\x00\x00\x00\x00\x00\x00\x00'
p3774
tp3775
Rp3776
sVclock
p3777
g3479
(g3483
S'"\x00\x00\x00\x00\x00\x00\x00'
p3778
tp3779
Rp3780
sVdebrief
p3781
g3479
(g3483
S'.\x00\x00\x00\x00\x00\x00\x00'
p3782
tp3783
Rp3784
sVcurrently
p3785
g3479
(g3483
S',\x00\x00\x00\x00\x00\x00\x00'
p3786
tp3787
Rp3788
sVplease
p3789
g3479
(g3483
S'\x95\x00\x00\x00\x00\x00\x00\x00'
p3790
tp3791
Rp3792
sVbrief
p3793
g3479
(g3483
S'\x15\x00\x00\x00\x00\x00\x00\x00'
p3794
tp3795
Rp3796
sVforecast
p3797
g3479
(g3483
S'K\x00\x00\x00\x00\x00\x00\x00'
p3798
tp3799
Rp3800
sVcell
p3801
g3479
(g3483
S'\x1f\x00\x00\x00\x00\x00\x00\x00'
p3802
tp3803
Rp3804
sVre
p3805
g3479
(g3483
S'\xa4\x00\x00\x00\x00\x00\x00\x00'
p3806
tp3807
Rp3808
sVexit
p3809
g3479
(g3483
S'B\x00\x00\x00\x00\x00\x00\x00'
p3810
tp3811
Rp3812
sVabove
p3813
g3479
(g3483
S'\x00\x00\x00\x00\x00\x00\x00\x00'
p3814
tp3815
Rp3816
sVnew
p3817
g3479
(g3483
S'\x81\x00\x00\x00\x00\x00\x00\x00'
p3818
tp3819
Rp3820
sVnet
p3821
g3479
(g3483
S'\x80\x00\x00\x00\x00\x00\x00\x00'
p3822
tp3823
Rp3824
sVmoderate
p3825
g3479
(g3483
S'z\x00\x00\x00\x00\x00\x00\x00'
p3826
tp3827
Rp3828
sVissue
p3829
g3479
(g3483
S'l\x00\x00\x00\x00\x00\x00\x00'
p3830
tp3831
Rp3832
sVbe
p3833
g3479
(g3483
S'\x10\x00\x00\x00\x00\x00\x00\x00'
p3834
tp3835
Rp3836
sVshut
p3837
g3479
(g3483
S'\xb4\x00\x00\x00\x00\x00\x00\x00'
p3838
tp3839
Rp3840
sVfriday
p3841
g3479
(g3483
S'N\x00\x00\x00\x00\x00\x00\x00'
p3842
tp3843
Rp3844
sVtomorrow
p3845
g3479
(g3483
S'\xd0\x00\x00\x00\x00\x00\x00\x00'
p3846
tp3847
Rp3848
sVschedule
p3849
g3479
(g3483
S'\xad\x00\x00\x00\x00\x00\x00\x00'
p3850
tp3851
Rp3852
sVscreen
p3853
g3479
(g3483
S'\xae\x00\x00\x00\x00\x00\x00\x00'
p3854
tp3855
Rp3856
sVdictates
p3857
g3479
(g3483
S'3\x00\x00\x00\x00\x00\x00\x00'
p3858
tp3859
Rp3860
sVfree
p3861
g3479
(g3483
S'L\x00\x00\x00\x00\x00\x00\x00'
p3862
tp3863
Rp3864
sVwe
p3865
g3479
(g3483
S'\xdd\x00\x00\x00\x00\x00\x00\x00'
p3866
tp3867
Rp3868
sVillustration
p3869
g3479
(g3483
S'd\x00\x00\x00\x00\x00\x00\x00'
p3870
tp3871
Rp3872
sVput
p3873
g3479
(g3483
S'\x9d\x00\x00\x00\x00\x00\x00\x00'
p3874
tp3875
Rp3876
sVnews
p3877
g3479
(g3483
S'\x82\x00\x00\x00\x00\x00\x00\x00'
p3878
tp3879
Rp3880
sVpost
p3881
g3479
(g3483
S'\x96\x00\x00\x00\x00\x00\x00\x00'
p3882
tp3883
Rp3884
sVon
p3885
g3479
(g3483
S'\x8d\x00\x00\x00\x00\x00\x00\x00'
p3886
tp3887
Rp3888
sVsearch
p3889
g3479
(g3483
S'\xaf\x00\x00\x00\x00\x00\x00\x00'
p3890
tp3891
Rp3892
sVlast
p3893
g3479
(g3483
S'o\x00\x00\x00\x00\x00\x00\x00'
p3894
tp3895
Rp3896
sVanything
p3897
g3479
(g3483
S'\x0b\x00\x00\x00\x00\x00\x00\x00'
p3898
tp3899
Rp3900
sVof
p3901
g3479
(g3483
S'\x8a\x00\x00\x00\x00\x00\x00\x00'
p3902
tp3903
Rp3904
sVcould
p3905
g3479
(g3483
S')\x00\x00\x00\x00\x00\x00\x00'
p3906
tp3907
Rp3908
sVcurrent
p3909
g3479
(g3483
S'+\x00\x00\x00\x00\x00\x00\x00'
p3910
tp3911
Rp3912
sVquiet
p3913
g3479
(g3483
S'\x9f\x00\x00\x00\x00\x00\x00\x00'
p3914
tp3915
Rp3916
sVturn
p3917
g3479
(g3483
S'\xd7\x00\x00\x00\x00\x00\x00\x00'
p3918
tp3919
Rp3920
sVbrowsing
p3921
g3479
(g3483
S'\x19\x00\x00\x00\x00\x00\x00\x00'
p3922
tp3923
Rp3924
sVcom
p3925
g3479
(g3483
S'&\x00\x00\x00\x00\x00\x00\x00'
p3926
tp3927
Rp3928
sVthink
p3929
g3479
(g3483
S'\xc9\x00\x00\x00\x00\x00\x00\x00'
p3930
tp3931
Rp3932
sVfeed
p3933
g3479
(g3483
S'G\x00\x00\x00\x00\x00\x00\x00'
p3934
tp3935
Rp3936
sVthis
p3937
g3479
(g3483
S'\xca\x00\x00\x00\x00\x00\x00\x00'
p3938
tp3939
Rp3940
sVwhats
p3941
g3479
(g3483
S'\xe2\x00\x00\x00\x00\x00\x00\x00'
p3942
tp3943
Rp3944
sVfeatures
p3945
g3479
(g3483
S'F\x00\x00\x00\x00\x00\x00\x00'
p3946
tp3947
Rp3948
sVsimple
p3949
g3479
(g3483
S'\xb6\x00\x00\x00\x00\x00\x00\x00'
p3950
tp3951
Rp3952
sVsweet
p3953
g3479
(g3483
S'\xc3\x00\x00\x00\x00\x00\x00\x00'
p3954
tp3955
Rp3956
sVtuesday
p3957
g3479
(g3483
S'\xd3\x00\x00\x00\x00\x00\x00\x00'
p3958
tp3959
Rp3960
sVunmute
p3961
g3479
(g3483
S'\xd8\x00\x00\x00\x00\x00\x00\x00'
p3962
tp3963
Rp3964
sVyourself
p3965
g3479
(g3483
S'\xeb\x00\x00\x00\x00\x00\x00\x00'
p3966
tp3967
Rp3968
sVdown
p3969
g3479
(g3483
S':\x00\x00\x00\x00\x00\x00\x00'
p3970
tp3971
Rp3972
sVactive
p3973
g3479
(g3483
S'\x01\x00\x00\x00\x00\x00\x00\x00'
p3974
tp3975
Rp3976
sVgoogle
p3977
g3479
(g3483
S'X\x00\x00\x00\x00\x00\x00\x00'
p3978
tp3979
Rp3980
sVdecrease
p3981
g3479
(g3483
S'0\x00\x00\x00\x00\x00\x00\x00'
p3982
tp3983
Rp3984
sVsend
p3985
g3479
(g3483
S'\xb1\x00\x00\x00\x00\x00\x00\x00'
p3986
tp3987
Rp3988
sVshutdown
p3989
g3479
(g3483
S'\xb5\x00\x00\x00\x00\x00\x00\x00'
p3990
tp3991
Rp3992
sVfake
p3993
g3479
(g3483
S'D\x00\x00\x00\x00\x00\x00\x00'
p3994
tp3995
Rp3996
sVopen
p3997
g3479
(g3483
S'\x8e\x00\x00\x00\x00\x00\x00\x00'
p3998
tp3999
Rp4000
sVyour
p4001
g3479
(g3483
S'\xea\x00\x00\x00\x00\x00\x00\x00'
p4002
tp4003
Rp4004
sVtemperature
p4005
g3479
(g3483
S'\xc6\x00\x00\x00\x00\x00\x00\x00'
p4006
tp4007
Rp4008
sVwould
p4009
g3479
(g3483
S'\xe7\x00\x00\x00\x00\x00\x00\x00'
p4010
tp4011
Rp4012
sVsake
p4013
g3479
(g3483
S'\xaa\x00\x00\x00\x00\x00\x00\x00'
p4014
tp4015
Rp4016
sVdecent
p4017
g3479
(g3483
S'/\x00\x00\x00\x00\x00\x00\x00'
p4018
tp4019
Rp4020
sVcreate
p4021
g3479
(g3483
S'*\x00\x00\x00\x00\x00\x00\x00'
p4022
tp4023
Rp4024
sVthere
p4025
g3479
(g3483
S'\xc8\x00\x00\x00\x00\x00\x00\x00'
p4026
tp4027
Rp4028
sVquestion
p4029
g3479
(g3483
S'\x9e\x00\x00\x00\x00\x00\x00\x00'
p4030
tp4031
Rp4032
sVwindow
p4033
g3479
(g3483
S'\xe5\x00\x00\x00\x00\x00\x00\x00'
p4034
tp4035
Rp4036
sVnext
p4037
g3479
(g3483
S'\x84\x00\x00\x00\x00\x00\x00\x00'
p4038
tp4039
Rp4040
sVstart
p4041
g3479
(g3483
S'\xbf\x00\x00\x00\x00\x00\x00\x00'
p4042
tp4043
Rp4044
sVlive
p4045
g3479
(g3483
S'r\x00\x00\x00\x00\x00\x00\x00'
p4046
tp4047
Rp4048
sVprogram
p4049
g3479
(g3483
S'\x9c\x00\x00\x00\x00\x00\x00\x00'
p4050
tp4051
Rp4052
sVmusic
p4053
g3479
(g3483
S'}\x00\x00\x00\x00\x00\x00\x00'
p4054
tp4055
Rp4056
sVtell
p4057
g3479
(g3483
S'\xc5\x00\x00\x00\x00\x00\x00\x00'
p4058
tp4059
Rp4060
sVtoday
p4061
g3479
(g3483
S'\xce\x00\x00\x00\x00\x00\x00\x00'
p4062
tp4063
Rp4064
sVpretends
p4065
g3479
(g3483
S'\x98\x00\x00\x00\x00\x00\x00\x00'
p4066
tp4067
Rp4068
sValmost
p4069
g3479
(g3483
S'\x06\x00\x00\x00\x00\x00\x00\x00'
p4070
tp4071
Rp4072
sVsound
p4073
g3479
(g3483
S'\xbc\x00\x00\x00\x00\x00\x00\x00'
p4074
tp4075
Rp4076
sVreleasing
p4077
g3479
(g3483
S'\xa6\x00\x00\x00\x00\x00\x00\x00'
p4078
tp4079
Rp4080
sVcommands
p4081
g3479
(g3483
S"'\x00\x00\x00\x00\x00\x00\x00"
p4082
tp4083
Rp4084
sVit
p4085
g3479
(g3483
S'm\x00\x00\x00\x00\x00\x00\x00'
p4086
tp4087
Rp4088
sVvolume
p4089
g3479
(g3483
S'\xdb\x00\x00\x00\x00\x00\x00\x00'
p4090
tp4091
Rp4092
sVtrain
p4093
g3479
(g3483
S'\xd1\x00\x00\x00\x00\x00\x00\x00'
p4094
tp4095
Rp4096
sVstick
p4097
g3479
(g3483
S'\xc0\x00\x00\x00\x00\x00\x00\x00'
p4098
tp4099
Rp4100
sVbeat
p4101
g3479
(g3483
S'\x11\x00\x00\x00\x00\x00\x00\x00'
p4102
tp4103
Rp4104
sVfoggy
p4105
g3479
(g3483
S'I\x00\x00\x00\x00\x00\x00\x00'
p4106
tp4107
Rp4108
sVdocument
p4109
g3479
(g3483
S'6\x00\x00\x00\x00\x00\x00\x00'
p4110
tp4111
Rp4112
sVme
p4113
g3479
(g3483
S'y\x00\x00\x00\x00\x00\x00\x00'
p4114
tp4115
Rp4116
sVahead
p4117
g3479
(g3483
S'\x03\x00\x00\x00\x00\x00\x00\x00'
p4118
tp4119
Rp4120
sVdefault
p4121
g3479
(g3483
S'2\x00\x00\x00\x00\x00\x00\x00'
p4122
tp4123
Rp4124
sVup
p4125
g3479
(g3483
S'\xd9\x00\x00\x00\x00\x00\x00\x00'
p4126
tp4127
Rp4128
sVdogs
p4129
g3479
(g3483
S'7\x00\x00\x00\x00\x00\x00\x00'
p4130
tp4131
Rp4132
sVwill
p4133
g3479
(g3483
S'\xe4\x00\x00\x00\x00\x00\x00\x00'
p4134
tp4135
Rp4136
sVlouder
p4137
g3479
(g3483
S't\x00\x00\x00\x00\x00\x00\x00'
p4138
tp4139
Rp4140
sVcan
p4141
g3479
(g3483
S'\x1d\x00\x00\x00\x00\x00\x00\x00'
p4142
tp4143
Rp4144
sVbriefing
p4145
g3479
(g3483
S'\x16\x00\x00\x00\x00\x00\x00\x00'
p4146
tp4147
Rp4148
sVproblem
p4149
g3479
(g3483
S'\x9a\x00\x00\x00\x00\x00\x00\x00'
p4150
tp4151
Rp4152
sVoutcome
p4153
g3479
(g3483
S'\x91\x00\x00\x00\x00\x00\x00\x00'
p4154
tp4155
Rp4156
sVmy
p4157
g3479
(g3483
S'\x7f\x00\x00\x00\x00\x00\x00\x00'
p4158
tp4159
Rp4160
sVdee
p4161
g3479
(g3483
S'1\x00\x00\x00\x00\x00\x00\x00'
p4162
tp4163
Rp4164
sVfeature
p4165
g3479
(g3483
S'E\x00\x00\x00\x00\x00\x00\x00'
p4166
tp4167
Rp4168
sVbrowser
p4169
g3479
(g3483
S'\x18\x00\x00\x00\x00\x00\x00\x00'
p4170
tp4171
Rp4172
sVbefore
p4173
g3479
(g3483
S'\x13\x00\x00\x00\x00\x00\x00\x00'
p4174
tp4175
Rp4176
sVgive
p4177
g3479
(g3483
S'S\x00\x00\x00\x00\x00\x00\x00'
p4178
tp4179
Rp4180
sVpredict
p4181
g3479
(g3483
S'\x97\x00\x00\x00\x00\x00\x00\x00'
p4182
tp4183
Rp4184
sVlock
p4185
g3479
(g3483
S's\x00\x00\x00\x00\x00\x00\x00'
p4186
tp4187
Rp4188
sVis
p4189
g3479
(g3483
S'k\x00\x00\x00\x00\x00\x00\x00'
p4190
tp4191
Rp4192
sVin
p4193
g3479
(g3483
S'e\x00\x00\x00\x00\x00\x00\x00'
p4194
tp4195
Rp4196
sVam
p4197
g3479
(g3483
S'\x07\x00\x00\x00\x00\x00\x00\x00'
p4198
tp4199
Rp4200
sVfuck
p4201
g3479
(g3483
S'O\x00\x00\x00\x00\x00\x00\x00'
p4202
tp4203
Rp4204
sVbackbone
p4205
g3479
(g3483
S'\x0f\x00\x00\x00\x00\x00\x00\x00'
p4206
tp4207
Rp4208
sVan
p4209
g3479
(g3483
S'\x08\x00\x00\x00\x00\x00\x00\x00'
p4210
tp4211
Rp4212
sVheadlines
p4213
g3479
(g3483
S'^\x00\x00\x00\x00\x00\x00\x00'
p4214
tp4215
Rp4216
sVbeats
p4217
g3479
(g3483
S'\x12\x00\x00\x00\x00\x00\x00\x00'
p4218
tp4219
Rp4220
sVright
p4221
g3479
(g3483
S'\xa9\x00\x00\x00\x00\x00\x00\x00'
p4222
tp4223
Rp4224
sVhave
p4225
g3479
(g3483
S']\x00\x00\x00\x00\x00\x00\x00'
p4226
tp4227
Rp4228
sVstalls
p4229
g3479
(g3483
S'\xbe\x00\x00\x00\x00\x00\x00\x00'
p4230
tp4231
Rp4232
sVcheck
p4233
g3479
(g3483
S' \x00\x00\x00\x00\x00\x00\x00'
p4234
tp4235
Rp4236
sVif
p4237
g3479
(g3483
S'c\x00\x00\x00\x00\x00\x00\x00'
p4238
tp4239
Rp4240
sVinformation
p4241
g3479
(g3483
S'h\x00\x00\x00\x00\x00\x00\x00'
p4242
tp4243
Rp4244
sVrainy
p4245
g3479
(g3483
S'\xa3\x00\x00\x00\x00\x00\x00\x00'
p4246
tp4247
Rp4248
sVzero
p4249
g3479
(g3483
S'\xec\x00\x00\x00\x00\x00\x00\x00'
p4250
tp4251
Rp4252
sVno
p4253
g3479
(g3483
S'\x86\x00\x00\x00\x00\x00\x00\x00'
p4254
tp4255
Rp4256
sVmake
p4257
g3479
(g3483
S'w\x00\x00\x00\x00\x00\x00\x00'
p4258
tp4259
Rp4260
sVsong
p4261
g3479
(g3483
S'\xbb\x00\x00\x00\x00\x00\x00\x00'
p4262
tp4263
Rp4264
sVwhen
p4265
g3479
(g3483
S'\xe3\x00\x00\x00\x00\x00\x00\x00'
p4266
tp4267
Rp4268
sVsnow
p4269
g3479
(g3483
S'\xb8\x00\x00\x00\x00\x00\x00\x00'
p4270
tp4271
Rp4272
sVsame
p4273
g3479
(g3483
S'\xab\x00\x00\x00\x00\x00\x00\x00'
p4274
tp4275
Rp4276
sVsaturday
p4277
g3479
(g3483
S'\xac\x00\x00\x00\x00\x00\x00\x00'
p4278
tp4279
Rp4280
sVbeside
p4281
g3479
(g3483
S'\x14\x00\x00\x00\x00\x00\x00\x00'
p4282
tp4283
Rp4284
sVhow
p4285
g3479
(g3483
S'b\x00\x00\x00\x00\x00\x00\x00'
p4286
tp4287
Rp4288
sVsunday
p4289
g3479
(g3483
S'\xc2\x00\x00\x00\x00\x00\x00\x00'
p4290
tp4291
Rp4292
sVanswer
p4293
g3479
(g3483
S'\t\x00\x00\x00\x00\x00\x00\x00'
p4294
tp4295
Rp4296
sVyou
p4297
g3479
(g3483
S'\xe9\x00\x00\x00\x00\x00\x00\x00'
p4298
tp4299
Rp4300
sVgmail
p4301
g3479
(g3483
S'T\x00\x00\x00\x00\x00\x00\x00'
p4302
tp4303
Rp4304
sVevents
p4305
g3479
(g3483
S'A\x00\x00\x00\x00\x00\x00\x00'
p4306
tp4307
Rp4308
sVhigher
p4309
g3479
(g3483
S'`\x00\x00\x00\x00\x00\x00\x00'
p4310
tp4311
Rp4312
sVweek
p4313
g3479
(g3483
S'\xe0\x00\x00\x00\x00\x00\x00\x00'
p4314
tp4315
Rp4316
sVplay
p4317
g3479
(g3483
S'\x93\x00\x00\x00\x00\x00\x00\x00'
p4318
tp4319
Rp4320
sVokay
p4321
g3479
(g3483
S'\x8c\x00\x00\x00\x00\x00\x00\x00'
p4322
tp4323
Rp4324
sVhey
p4325
g3479
(g3483
S'_\x00\x00\x00\x00\x00\x00\x00'
p4326
tp4327
Rp4328
sVmonday
p4329
g3479
(g3483
S'{\x00\x00\x00\x00\x00\x00\x00'
p4330
tp4331
Rp4332
sVany
p4333
g3479
(g3483
S'\n\x00\x00\x00\x00\x00\x00\x00'
p4334
tp4335
Rp4336
sVstop
p4337
g3479
(g3483
S'\xc1\x00\x00\x00\x00\x00\x00\x00'
p4338
tp4339
Rp4340
sVorg
p4341
g3479
(g3483
S'\x8f\x00\x00\x00\x00\x00\x00\x00'
p4342
tp4343
Rp4344
sVearlier
p4345
g3479
(g3483
S'<\x00\x00\x00\x00\x00\x00\x00'
p4346
tp4347
Rp4348
sVproblems
p4349
g3479
(g3483
S'\x9b\x00\x00\x00\x00\x00\x00\x00'
p4350
tp4351
Rp4352
sVquieter
p4353
g3479
(g3483
S'\xa0\x00\x00\x00\x00\x00\x00\x00'
p4354
tp4355
Rp4356
sVrain
p4357
g3479
(g3483
S'\xa1\x00\x00\x00\x00\x00\x00\x00'
p4358
tp4359
Rp4360
sVfreezing
p4361
g3479
(g3483
S'M\x00\x00\x00\x00\x00\x00\x00'
p4362
tp4363
Rp4364
sVnoise
p4365
g3479
(g3483
S'\x87\x00\x00\x00\x00\x00\x00\x00'
p4366
tp4367
Rp4368
sVtune
p4369
g3479
(g3483
S'\xd4\x00\x00\x00\x00\x00\x00\x00'
p4370
tp4371
Rp4372
sVgrief
p4373
g3479
(g3483
S'[\x00\x00\x00\x00\x00\x00\x00'
p4374
tp4375
Rp4376
sVlower
p4377
g3479
(g3483
S'u\x00\x00\x00\x00\x00\x00\x00'
p4378
tp4379
Rp4380
sVdon
p4381
g3479
(g3483
S'8\x00\x00\x00\x00\x00\x00\x00'
p4382
tp4383
Rp4384
sVusing
p4385
g3479
(g3483
S'\xda\x00\x00\x00\x00\x00\x00\x00'
p4386
tp4387
Rp4388
sVread
p4389
g3479
(g3483
S'\xa5\x00\x00\x00\x00\x00\x00\x00'
p4390
tp4391
Rp4392
sVgather
p4393
g3479
(g3483
S'P\x00\x00\x00\x00\x00\x00\x00'
p4394
tp4395
Rp4396
sVtale
p4397
g3479
(g3483
S'\xc4\x00\x00\x00\x00\x00\x00\x00'
p4398
tp4399
Rp4400
sVoff
p4401
g3479
(g3483
S'\x8b\x00\x00\x00\x00\x00\x00\x00'
p4402
tp4403
Rp4404
sVtime
p4405
g3479
(g3483
S'\xcc\x00\x00\x00\x00\x00\x00\x00'
p4406
tp4407
Rp4408
sVnewsfeed
p4409
g3479
(g3483
S'\x83\x00\x00\x00\x00\x00\x00\x00'
p4410
tp4411
Rp4412
sVthe
p4413
g3479
(g3483
S'\xc7\x00\x00\x00\x00\x00\x00\x00'
p4414
tp4415
Rp4416
sVincrease
p4417
g3479
(g3483
S'g\x00\x00\x00\x00\x00\x00\x00'
p4418
tp4419
Rp4420
sVplaying
p4421
g3479
(g3483
S'\x94\x00\x00\x00\x00\x00\x00\x00'
p4422
tp4423
Rp4424
sVdot
p4425
g3479
(g3483
S'9\x00\x00\x00\x00\x00\x00\x00'
p4426
tp4427
Rp4428
sVlatest
p4429
g3479
(g3483
S'p\x00\x00\x00\x00\x00\x00\x00'
p4430
tp4431
Rp4432
ssS'binary'
p4433
I00
sS'ngram_range'
p4434
(I1
I1
tp4435
sg3453
g3454
sS'max_df'
p4436
F1.0
sS'min_df'
p4437
I1
sS'max_features'
p4438
NsS'fixed_vocabulary_'
p4439
I00
sS'strip_accents'
p4440
NsS'dtype'
p4441
cnumpy
int64
p4442
sS'stop_words_'
p4443
c__builtin__
set
p4444
((lp4445
tp4446
Rp4447
sS'preprocessor'
p4448
Nsbtp4449
a(S'tfidf'
p4450
g3447
(csklearn.feature_extraction.text
TfidfTransformer
p4451
g3449
Ntp4452
Rp4453
(dp4454
S'smooth_idf'
p4455
I01
sg3453
g3454
sS'_idf_diag'
p4456
g3447
(cscipy.sparse.csr
csr_matrix
p4457
g3449
Ntp4458
Rp4459
(dp4460
S'indices'
p4461
cnumpy.core.multiarray
_reconstruct
p4462
(cnumpy
ndarray
p4463
(I0
tp4464
S'b'
p4465
tp4466
Rp4467
(I1
(I237
tp4468
g3480
(S'i4'
p4469
I0
I1
tp4470
Rp4471
(I3
S'<'
p4472
NNNI-1
I-1
I0
tp4473
bI00
S'\x00\x00\x00\x00\x01\x00\x00\x00\x02\x00\x00\x00\x03\x00\x00\x00\x04\x00\x00\x00\x05\x00\x00\x00\x06\x00\x00\x00\x07\x00\x00\x00\x08\x00\x00\x00\t\x00\x00\x00\n\x00\x00\x00\x0b\x00\x00\x00\x0c\x00\x00\x00\r\x00\x00\x00\x0e\x00\x00\x00\x0f\x00\x00\x00\x10\x00\x00\x00\x11\x00\x00\x00\x12\x00\x00\x00\x13\x00\x00\x00\x14\x00\x00\x00\x15\x00\x00\x00\x16\x00\x00\x00\x17\x00\x00\x00\x18\x00\x00\x00\x19\x00\x00\x00\x1a\x00\x00\x00\x1b\x00\x00\x00\x1c\x00\x00\x00\x1d\x00\x00\x00\x1e\x00\x00\x00\x1f\x00\x00\x00 \x00\x00\x00!\x00\x00\x00"\x00\x00\x00#\x00\x00\x00$\x00\x00\x00%\x00\x00\x00&\x00\x00\x00\'\x00\x00\x00(\x00\x00\x00)\x00\x00\x00*\x00\x00\x00+\x00\x00\x00,\x00\x00\x00-\x00\x00\x00.\x00\x00\x00/\x00\x00\x000\x00\x00\x001\x00\x00\x002\x00\x00\x003\x00\x00\x004\x00\x00\x005\x00\x00\x006\x00\x00\x007\x00\x00\x008\x00\x00\x009\x00\x00\x00:\x00\x00\x00;\x00\x00\x00<\x00\x00\x00=\x00\x00\x00>\x00\x00\x00?\x00\x00\x00@\x00\x00\x00A\x00\x00\x00B\x00\x00\x00C\x00\x00\x00D\x00\x00\x00E\x00\x00\x00F\x00\x00\x00G\x00\x00\x00H\x00\x00\x00I\x00\x00\x00J\x00\x00\x00K\x00\x00\x00L\x00\x00\x00M\x00\x00\x00N\x00\x00\x00O\x00\x00\x00P\x00\x00\x00Q\x00\x00\x00R\x00\x00\x00S\x00\x00\x00T\x00\x00\x00U\x00\x00\x00V\x00\x00\x00W\x00\x00\x00X\x00\x00\x00Y\x00\x00\x00Z\x00\x00\x00[\x00\x00\x00\\\x00\x00\x00]\x00\x00\x00^\x00\x00\x00_\x00\x00\x00`\x00\x00\x00a\x00\x00\x00b\x00\x00\x00c\x00\x00\x00d\x00\x00\x00e\x00\x00\x00f\x00\x00\x00g\x00\x00\x00h\x00\x00\x00i\x00\x00\x00j\x00\x00\x00k\x00\x00\x00l\x00\x00\x00m\x00\x00\x00n\x00\x00\x00o\x00\x00\x00p\x00\x00\x00q\x00\x00\x00r\x00\x00\x00s\x00\x00\x00t\x00\x00\x00u\x00\x00\x00v\x00\x00\x00w\x00\x00\x00x\x00\x00\x00y\x00\x00\x00z\x00\x00\x00{\x00\x00\x00|\x00\x00\x00}\x00\x00\x00~\x00\x00\x00\x7f\x00\x00\x00\x80\x00\x00\x00\x81\x00\x00\x00\x82\x00\x00\x00\x83\x00\x00\x00\x84\x00\x00\x00\x85\x00\x00\x00\x86\x00\x00\x00\x87\x00\x00\x00\x88\x00\x00\x00\x89\x00\x00\x00\x8a\x00\x00\x00\x8b\x00\x00\x00\x8c\x00\x00\x00\x8d\x00\x00\x00\x8e\x00\x00\x00\x8f\x00\x00\x00\x90\x00\x00\x00\x91\x00\x00\x00\x92\x00\x00\x00\x93\x00\x00\x00\x94\x00\x00\x00\x95\x00\x00\x00\x96\x00\x00\x00\x97\x00\x00\x00\x98\x00\x00\x00\x99\x00\x00\x00\x9a\x00\x00\x00\x9b\x00\x00\x00\x9c\x00\x00\x00\x9d\x00\x00\x00\x9e\x00\x00\x00\x9f\x00\x00\x00\xa0\x00\x00\x00\xa1\x00\x00\x00\xa2\x00\x00\x00\xa3\x00\x00\x00\xa4\x00\x00\x00\xa5\x00\x00\x00\xa6\x00\x00\x00\xa7\x00\x00\x00\xa8\x00\x00\x00\xa9\x00\x00\x00\xaa\x00\x00\x00\xab\x00\x00\x00\xac\x00\x00\x00\xad\x00\x00\x00\xae\x00\x00\x00\xaf\x00\x00\x00\xb0\x00\x00\x00\xb1\x00\x00\x00\xb2\x00\x00\x00\xb3\x00\x00\x00\xb4\x00\x00\x00\xb5\x00\x00\x00\xb6\x00\x00\x00\xb7\x00\x00\x00\xb8\x00\x00\x00\xb9\x00\x00\x00\xba\x00\x00\x00\xbb\x00\x00\x00\xbc\x00\x00\x00\xbd\x00\x00\x00\xbe\x00\x00\x00\xbf\x00\x00\x00\xc0\x00\x00\x00\xc1\x00\x00\x00\xc2\x00\x00\x00\xc3\x00\x00\x00\xc4\x00\x00\x00\xc5\x00\x00\x00\xc6\x00\x00\x00\xc7\x00\x00\x00\xc8\x00\x00\x00\xc9\x00\x00\x00\xca\x00\x00\x00\xcb\x00\x00\x00\xcc\x00\x00\x00\xcd\x00\x00\x00\xce\x00\x00\x00\xcf\x00\x00\x00\xd0\x00\x00\x00\xd1\x00\x00\x00\xd2\x00\x00\x00\xd3\x00\x00\x00\xd4\x00\x00\x00\xd5\x00\x00\x00\xd6\x00\x00\x00\xd7\x00\x00\x00\xd8\x00\x00\x00\xd9\x00\x00\x00\xda\x00\x00\x00\xdb\x00\x00\x00\xdc\x00\x00\x00\xdd\x00\x00\x00\xde\x00\x00\x00\xdf\x00\x00\x00\xe0\x00\x00\x00\xe1\x00\x00\x00\xe2\x00\x00\x00\xe3\x00\x00\x00\xe4\x00\x00\x00\xe5\x00\x00\x00\xe6\x00\x00\x00\xe7\x00\x00\x00\xe8\x00\x00\x00\xe9\x00\x00\x00\xea\x00\x00\x00\xeb\x00\x00\x00\xec\x00\x00\x00'
p4474
tp4475
bsS'indptr'
p4476
g4462
(g4463
(I0
tp4477
g4465
tp4478
Rp4479
(I1
(I238
tp4480
g4471
I00
S'\x00\x00\x00\x00\x01\x00\x00\x00\x02\x00\x00\x00\x03\x00\x00\x00\x04\x00\x00\x00\x05\x00\x00\x00\x06\x00\x00\x00\x07\x00\x00\x00\x08\x00\x00\x00\t\x00\x00\x00\n\x00\x00\x00\x0b\x00\x00\x00\x0c\x00\x00\x00\r\x00\x00\x00\x0e\x00\x00\x00\x0f\x00\x00\x00\x10\x00\x00\x00\x11\x00\x00\x00\x12\x00\x00\x00\x13\x00\x00\x00\x14\x00\x00\x00\x15\x00\x00\x00\x16\x00\x00\x00\x17\x00\x00\x00\x18\x00\x00\x00\x19\x00\x00\x00\x1a\x00\x00\x00\x1b\x00\x00\x00\x1c\x00\x00\x00\x1d\x00\x00\x00\x1e\x00\x00\x00\x1f\x00\x00\x00 \x00\x00\x00!\x00\x00\x00"\x00\x00\x00#\x00\x00\x00$\x00\x00\x00%\x00\x00\x00&\x00\x00\x00\'\x00\x00\x00(\x00\x00\x00)\x00\x00\x00*\x00\x00\x00+\x00\x00\x00,\x00\x00\x00-\x00\x00\x00.\x00\x00\x00/\x00\x00\x000\x00\x00\x001\x00\x00\x002\x00\x00\x003\x00\x00\x004\x00\x00\x005\x00\x00\x006\x00\x00\x007\x00\x00\x008\x00\x00\x009\x00\x00\x00:\x00\x00\x00;\x00\x00\x00<\x00\x00\x00=\x00\x00\x00>\x00\x00\x00?\x00\x00\x00@\x00\x00\x00A\x00\x00\x00B\x00\x00\x00C\x00\x00\x00D\x00\x00\x00E\x00\x00\x00F\x00\x00\x00G\x00\x00\x00H\x00\x00\x00I\x00\x00\x00J\x00\x00\x00K\x00\x00\x00L\x00\x00\x00M\x00\x00\x00N\x00\x00\x00O\x00\x00\x00P\x00\x00\x00Q\x00\x00\x00R\x00\x00\x00S\x00\x00\x00T\x00\x00\x00U\x00\x00\x00V\x00\x00\x00W\x00\x00\x00X\x00\x00\x00Y\x00\x00\x00Z\x00\x00\x00[\x00\x00\x00\\\x00\x00\x00]\x00\x00\x00^\x00\x00\x00_\x00\x00\x00`\x00\x00\x00a\x00\x00\x00b\x00\x00\x00c\x00\x00\x00d\x00\x00\x00e\x00\x00\x00f\x00\x00\x00g\x00\x00\x00h\x00\x00\x00i\x00\x00\x00j\x00\x00\x00k\x00\x00\x00l\x00\x00\x00m\x00\x00\x00n\x00\x00\x00o\x00\x00\x00p\x00\x00\x00q\x00\x00\x00r\x00\x00\x00s\x00\x00\x00t\x00\x00\x00u\x00\x00\x00v\x00\x00\x00w\x00\x00\x00x\x00\x00\x00y\x00\x00\x00z\x00\x00\x00{\x00\x00\x00|\x00\x00\x00}\x00\x00\x00~\x00\x00\x00\x7f\x00\x00\x00\x80\x00\x00\x00\x81\x00\x00\x00\x82\x00\x00\x00\x83\x00\x00\x00\x84\x00\x00\x00\x85\x00\x00\x00\x86\x00\x00\x00\x87\x00\x00\x00\x88\x00\x00\x00\x89\x00\x00\x00\x8a\x00\x00\x00\x8b\x00\x00\x00\x8c\x00\x00\x00\x8d\x00\x00\x00\x8e\x00\x00\x00\x8f\x00\x00\x00\x90\x00\x00\x00\x91\x00\x00\x00\x92\x00\x00\x00\x93\x00\x00\x00\x94\x00\x00\x00\x95\x00\x00\x00\x96\x00\x00\x00\x97\x00\x00\x00\x98\x00\x00\x00\x99\x00\x00\x00\x9a\x00\x00\x00\x9b\x00\x00\x00\x9c\x00\x00\x00\x9d\x00\x00\x00\x9e\x00\x00\x00\x9f\x00\x00\x00\xa0\x00\x00\x00\xa1\x00\x00\x00\xa2\x00\x00\x00\xa3\x00\x00\x00\xa4\x00\x00\x00\xa5\x00\x00\x00\xa6\x00\x00\x00\xa7\x00\x00\x00\xa8\x00\x00\x00\xa9\x00\x00\x00\xaa\x00\x00\x00\xab\x00\x00\x00\xac\x00\x00\x00\xad\x00\x00\x00\xae\x00\x00\x00\xaf\x00\x00\x00\xb0\x00\x00\x00\xb1\x00\x00\x00\xb2\x00\x00\x00\xb3\x00\x00\x00\xb4\x00\x00\x00\xb5\x00\x00\x00\xb6\x00\x00\x00\xb7\x00\x00\x00\xb8\x00\x00\x00\xb9\x00\x00\x00\xba\x00\x00\x00\xbb\x00\x00\x00\xbc\x00\x00\x00\xbd\x00\x00\x00\xbe\x00\x00\x00\xbf\x00\x00\x00\xc0\x00\x00\x00\xc1\x00\x00\x00\xc2\x00\x00\x00\xc3\x00\x00\x00\xc4\x00\x00\x00\xc5\x00\x00\x00\xc6\x00\x00\x00\xc7\x00\x00\x00\xc8\x00\x00\x00\xc9\x00\x00\x00\xca\x00\x00\x00\xcb\x00\x00\x00\xcc\x00\x00\x00\xcd\x00\x00\x00\xce\x00\x00\x00\xcf\x00\x00\x00\xd0\x00\x00\x00\xd1\x00\x00\x00\xd2\x00\x00\x00\xd3\x00\x00\x00\xd4\x00\x00\x00\xd5\x00\x00\x00\xd6\x00\x00\x00\xd7\x00\x00\x00\xd8\x00\x00\x00\xd9\x00\x00\x00\xda\x00\x00\x00\xdb\x00\x00\x00\xdc\x00\x00\x00\xdd\x00\x00\x00\xde\x00\x00\x00\xdf\x00\x00\x00\xe0\x00\x00\x00\xe1\x00\x00\x00\xe2\x00\x00\x00\xe3\x00\x00\x00\xe4\x00\x00\x00\xe5\x00\x00\x00\xe6\x00\x00\x00\xe7\x00\x00\x00\xe8\x00\x00\x00\xe9\x00\x00\x00\xea\x00\x00\x00\xeb\x00\x00\x00\xec\x00\x00\x00\xed\x00\x00\x00'
p4481
tp4482
bsS'maxprint'
p4483
I50
sS'_shape'
p4484
(I237
I237
tp4485
sg12
g4462
(g4463
(I0
tp4486
g4465
tp4487
Rp4488
(I1
(I237
tp4489
g3480
(S'f8'
p4490
I0
I1
tp4491
Rp4492
(I3
S'<'
p4493
NNNI-1
I-1
I0
tp4494
bI00
S'\xcf\xe9\xe2\xef\xb6\x04\x1f@\xfd\x8c\x1b3t\xf5\x16@.\xcd\xa4\xd8\xeaX\x13@w\x9a5\xa4\xe2\x01\x1a@\x91\xa2\x03\x90\xee>\x1c@g\x95\x02t\r3\x18@\xcf\xe9\xe2\xef\xb6\x04\x1f@`\x9by+\x18\x0e\x14@8\x90\xe0\xec\x9b=\x13@\xcf\xe9\xe2\xef\xb6\x04\x1f@\xc8\xb0IRMC\x10@\x95\xdf\xdcb\xa8V\x0b@\xeb\x06D\xb4|\xa7\x12@\x15\x14E\xd0]\xb3\x16@w\x9a5\xa4\xe2\x01\x1a@\xcf\xe9\xe2\xef\xb6\x04\x1f@J\xf0\x16\xb1\x84e\x1d@\x82\x86\xe7q\xa6\x94\x18@\xcf\xe9\xe2\xef\xb6\x04\x1f@J\xf0\x16\xb1\x84e\x1d@J\xf0\x16\xb1\x84e\x1d@\xcf\xe9\xe2\xef\xb6\x04\x1f@\xcf\xe9\xe2\xef\xb6\x04\x1f@\x91\xa2\x03\x90\xee>\x1c@\xb4\x96\x14\xaei\x9e\x11@S[$0&y\x19@\x0c\xa97Q\xbc\x9f\x1a@\xcf\xe9\xe2\xef\xb6\x04\x1f@c\xd3\x05\x8a\n3\x0e@\\\xb3\x18\xe2W\xa3\n@\xcf\xe9\xe2\xef\xb6\x04\x1f@\xcf\xe9\xe2\xef\xb6\x04\x1f@;\xee\x8f\xa1x8\x07@\xcf\xe9\xe2\xef\xb6\x04\x1f@\x90\x1ay\x91+\x14\x15@\x90\x1ay\x91+\x14\x15@\x87\xafk\x12\x8a\x00\x19@\x87\xafk\x12\x8a\x00\x19@\xc0\xcd\xc6\xd1nZ\x1b@\xcf\xe9\xe2\xef\xb6\x04\x1f@\xbe\xc4\x97\x84\x89\xb0\x11@\xf9\t"ib\x95\x0f@.\xcd\xa4\xd8\xeaX\x13@&\x01\xa0\x1c\x11\xa1\x10@\xcf\xe9\xe2\xef\xb6\x04\x1f@\x12\xaa\xe5\x0e\x81\xaf\x13@\xcf\xe9\xe2\xef\xb6\x04\x1f@\xcf\xe9\xe2\xef\xb6\x04\x1f@J\xf0\x16\xb1\x84e\x1d@J\xf0\x16\xb1\x84e\x1d@\x90\x1ay\x91+\x14\x15@\xcf\xe9\xe2\xef\xb6\x04\x1f@\xcf\xe9\xe2\xef\xb6\x04\x1f@\x1f\xab\x05\'\x96\xeb\x08@\xcf\xe9\xe2\xef\xb6\x04\x1f@\xcf\xe9\xe2\xef\xb6\x04\x1f@)\x18u\xa35\x11\x0f@\xfd\x8c\x1b3t\xf5\x16@.\xcd\xa4\xd8\xeaX\x13@J\xf0\x16\xb1\x84e\x1d@\xcf\xe9\xe2\xef\xb6\x04\x1f@J\xf0\x16\xb1\x84e\x1d@J\xf0\x16\xb1\x84e\x1d@\xcf\xe9\xe2\xef\xb6\x04\x1f@a\x9d\xbf\xd7\xa4\xc4\x0b@\xaf\xe2\xb7\xae\x04\xbc\n@\xc0\xcd\xc6\xd1nZ\x1b@\xcf\xe9\xe2\xef\xb6\x04\x1f@\xcf\xe9\xe2\xef\xb6\x04\x1f@\xcf\xe9\xe2\xef\xb6\x04\x1f@\xcf\xe9\xe2\xef\xb6\x04\x1f@\xb4Y\x8a\x05\xe8\x9c\x15@\xe4j):\xfd\x87\x17@\x87\xafk\x12\x8a\x00\x19@\x92\xc0\x03h\xfd\x1f\x0e@\xb4Y\x8a\x05\xe8\x9c\x15@`\x9by+\x18\x0e\x14@\x87\xafk\x12\x8a\x00\x19@\xbfE<\xd3\xab/\x14@\xcf\xe9\xe2\xef\xb6\x04\x1f@\x91\xa2\x03\x90\xee>\x1c@\xfaH\x01\x8d\xd3w\x10@\xcf\xe9\xe2\xef\xb6\x04\x1f@\x82\x86\xe7q\xa6\x94\x18@\xd7\x18\xf3s\xe0\xe7\r@\xfd1\xdb\xe9bR\x14@\xc0\xcd\xc6\xd1nZ\x1b@\x91\xa2\x03\x90\xee>\x1c@h\xdcjzl\xfc\x11@\xcf\xe9\xe2\xef\xb6\x04\x1f@J\xf0\x16\xb1\x84e\x1d@\xcf\xe9\xe2\xef\xb6\x04\x1f@J\xf0\x16\xb1\x84e\x1d@\r\xc7TlN<\t@Jh\x8c\xb2\xc1:\x16@J\xf0\x16\xb1\x84e\x1d@S[$0&y\x19@\x87\xafk\x12\x8a\x00\x19@\xe4j):\xfd\x87\x17@\xe1\x03\xa9\xf8E9\x12@\xcf\xe9\xe2\xef\xb6\x04\x1f@z\x03DZ\x16d\x0b@\x8cL_\xc2\x9a\x1d\x10@\xcf\xe9\xe2\xef\xb6\x04\x1f@\xc0\xcd\xc6\xd1nZ\x1b@\x91\xa2\x03\x90\xee>\x1c@\xcf\xe9\xe2\xef\xb6\x04\x1f@\x0c&|\xf7u\xef\x0b@\xcf\xe9\xe2\xef\xb6\x04\x1f@\x9d\xa89\x1d\xc1~\x0f@\xa6#J\xda4\xc2\x14@\xe4j):\xfd\x87\x17@\x0c\xa97Q\xbc\x9f\x1a@\xcf\xe9\xe2\xef\xb6\x04\x1f@`\x9by+\x18\x0e\x14@\xa6#J\xda4\xc2\x14@\x0c\xa97Q\xbc\x9f\x1a@w\x9a5\xa4\xe2\x01\x1a@\xff\xfapI\x82\xd5\r@\xb2\xb8\xf97\xf2c\x12@\xcf\xe9\xe2\xef\xb6\x04\x1f@\xe6\xda\xfa\xac\xcc\xef\x12@\xcf\xe9\xe2\xef\xb6\x04\x1f@\xbfE<\xd3\xab/\x14@\xbfE<\xd3\xab/\x14@J\xf0\x16\xb1\x84e\x1d@\xc0\xcd\xc6\xd1nZ\x1b@2\xef\xfe]x\xff\x08@J\xf0\x16\xb1\x84e\x1d@\x11Y\xf2\t\xedf\n@&\x01\xa0\x1c\x11\xa1\x10@D?\x08\x12\xde\xce\x15@.\xcd\xa4\xd8\xeaX\x13@J\xf0\x16\xb1\x84e\x1d@\xcf\xe9\xe2\xef\xb6\x04\x1f@\xcf\xe9\xe2\xef\xb6\x04\x1f@\xb4Y\x8a\x05\xe8\x9c\x15@\x87\xafk\x12\x8a\x00\x19@J\xf0\x16\xb1\x84e\x1d@8\x90\xe0\xec\x9b=\x13@J\xf0\x16\xb1\x84e\x1d@\xe9\xee\rr#\x0f\x06@\x90\xe7\xbb\xa5_\x9f\r@J\xf0\x16\xb1\x84e\x1d@\xcf\xe9\xe2\xef\xb6\x04\x1f@\xcf\xe9\xe2\xef\xb6\x04\x1f@P\xf1\xc4nIu\x16@9SVD\x1a<\x17@J\xf0\x16\xb1\x84e\x1d@(\xba\xa4\x90v\xa6\x00@J\xf0\x16\xb1\x84e\x1d@J\xf0\x16\xb1\x84e\x1d@\xcf\xe9\xe2\xef\xb6\x04\x1f@w\x9a5\xa4\xe2\x01\x1a@\xcf\xe9\xe2\xef\xb6\x04\x1f@\xcf\xe9\xe2\xef\xb6\x04\x1f@\xc0\xcd\xc6\xd1nZ\x1b@\xc0\xcd\xc6\xd1nZ\x1b@\xcf\xe9\xe2\xef\xb6\x04\x1f@J\xf0\x16\xb1\x84e\x1d@\xcf\xe9\xe2\xef\xb6\x04\x1f@J\xf0\x16\xb1\x84e\x1d@\x87\xafk\x12\x8a\x00\x19@\x87\xafk\x12\x8a\x00\x19@g\x95\x02t\r3\x18@\x15\x14E\xd0]\xb3\x16@\xcf\xe9\xe2\xef\xb6\x04\x1f@\xcf\xe9\xe2\xef\xb6\x04\x1f@\x82\x86\xe7q\xa6\x94\x18@\x0c\xa97Q\xbc\x9f\x1a@\xcf\xe9\xe2\xef\xb6\x04\x1f@\xcf\xe9\xe2\xef\xb6\x04\x1f@\xbfE<\xd3\xab/\x14@.\xcd\xa4\xd8\xeaX\x13@\xfd\x8c\x1b3t\xf5\x16@)N#\x14Em\x15@\x91\xa2\x03\x90\xee>\x1c@\x0c\xa97Q\xbc\x9f\x1a@\x91\xa2\x03\x90\xee>\x1c@\xcf\xe9\xe2\xef\xb6\x04\x1f@.\xcd\xa4\xd8\xeaX\x13@P\xf1\xc4nIu\x16@\xcf\xe9\xe2\xef\xb6\x04\x1f@\x0c\xa97Q\xbc\x9f\x1a@J\xf0\x16\xb1\x84e\x1d@\x87\xafk\x12\x8a\x00\x19@J\xf0\x16\xb1\x84e\x1d@\x0c!\xadR\xf9t\x13@\xb4Y\x8a\x05\xe8\x9c\x15@\xbe\xc4\x97\x84\x89\xb0\x11@\xcf\xe9\xe2\xef\xb6\x04\x1f@\xb2\xb8\xf97\xf2c\x12@\xcf\xe9\xe2\xef\xb6\x04\x1f@\xceaX\xf1\xf3\xd9\x17@\xbfE<\xd3\xab/\x14@J\xf0\x16\xb1\x84e\x1d@\xcf\xe9\xe2\xef\xb6\x04\x1f@\xceaX\xf1\xf3\xd9\x17@\xb4Y\x8a\x05\xe8\x9c\x15@\xd6^k;\xb5\xf1\x06@\x98\x07.\xbc\xec\x17\x11@\xcf\xe9\xe2\xef\xb6\x04\x1f@\xff\xfapI\x82\xd5\r@\xbfE<\xd3\xab/\x14@v\x12\xab\xa5\x1f\xd7\x12@ta\x14\x03\x9bq\x0b@c\xd3\x05\x8a\n3\x0e@\xc0\xcd\xc6\xd1nZ\x1b@\xd8\xccep\x95\xed\x13@\xcf\xe9\xe2\xef\xb6\x04\x1f@\xcf\xe9\xe2\xef\xb6\x04\x1f@\xbfE<\xd3\xab/\x14@w\x9a5\xa4\xe2\x01\x1a@J\xf0\x16\xb1\x84e\x1d@w\x9a5\xa4\xe2\x01\x1a@\xf0\x85\xc5x"\x93\x10@\xc0\xcd\xc6\xd1nZ\x1b@8\x90\xe0\xec\x9b=\x13@\xcf\xe9\xe2\xef\xb6\x04\x1f@\xa6#J\xda4\xc2\x14@w\x9a5\xa4\xe2\x01\x1a@\xcf\xe9\xe2\xef\xb6\x04\x1f@\xb4Y\x8a\x05\xe8\x9c\x15@\xbfE<\xd3\xab/\x14@\x8cL_\xc2\x9a\x1d\x10@\xd5\xfdrks\xf9\x06@J\xf0\x16\xb1\x84e\x1d@J\xf0\x16\xb1\x84e\x1d@\x1a2\x07\xf6\xfc\xc2\x11@v\x12\xab\xa5\x1f\xd7\x12@J\xf0\x16\xb1\x84e\x1d@\x04\xbb\xb7D\x07\xbf\x12@J\xf0\x16\xb1\x84e\x1d@Y\xaf\xd7\xac\xce\xbd\x04@w\x9a5\xa4\xe2\x01\x1a@\xc0\xcd\xc6\xd1nZ\x1b@\xc0\xcd\xc6\xd1nZ\x1b@'
p4495
tp4496
bsbsS'use_idf'
p4497
I01
sS'sublinear_tf'
p4498
I00
sS'norm'
p4499
Vl2
p4500
sbtp4501
a(S'clsfr'
p4502
g3447
(csklearn.linear_model.stochastic_gradient
SGDClassifier
p4503
g3449
Ntp4504
Rp4505
(dp4506
S't_'
p4507
F8576.0
sS'n_jobs'
p4508
I1
sS'shuffle'
p4509
I01
sS'verbose'
p4510
I0
sS'classes_'
p4511
g4462
(g4463
(I0
tp4512
g4465
tp4513
Rp4514
(I1
(I2
tp4515
g3480
(S'S5'
p4516
I0
I1
tp4517
Rp4518
(I3
S'|'
p4519
NNNI5
I1
I0
tp4520
bI00
S'FalseTrue\x00'
p4521
tp4522
bsS'class_weight'
p4523
NsS'fit_intercept'
p4524
I01
sg8
g9
sS'random_state'
p4525
I42
sg3453
g3454
sS'loss_function'
p4526
csklearn.linear_model.sgd_fast
Hinge
p4527
(F1.0
tp4528
Rp4529
sS'C'
p4530
F1.0
sg7
I5
sS'epsilon'
p4531
F0.1
sS'learning_rate'
p4532
S'optimal'
p4533
sS'coef_'
p4534
g4462
(g4463
(I0
tp4535
g4465
tp4536
Rp4537
(I1
(I1
I237
tp4538
g4492
I00
S'\x00\x00\x00\x00\x00\x00\x00\x00h\xfd\xdb\x902M\xf4\xbf\x00\x00\x00\x00\x00\x00\x00\x00(\x13\xaf\xa2\x9eU\x11\xc0\xd61\xea\xf0=*\xf1\xbfu\x9bVST\x82\xfe\xbf\x00\x00\x00\x00\x00\x00\x00\x00\xaa\xefv\xe4\x82f\xe9\xbf\x00\x00\x00\x00\x00\x00\x00\x00\x00\x00\x00\x00\x00\x00\x00\x00\x04F\xa2\xbaW\xda\xe8\xbf\xe6\xc3\xea\xa6\xa5L\xf8\xbf\x00\x00\x00\x00\x00\x00\x00\x00\x00\x00\x00\x00\x00\x00\x00\x00\xff\xef\xe8\xf4iG\xfc\xbf\x00\x00\x00\x00\x00\x00\x00\x00\xbe\nT[P\x95\x04\xc0\x00\x00\x00\x00\x00\x00\x00\x00\x00\x00\x00\x00\x00\x00\x00\x00\x00\x00\x00\x00\x00\x00\x00\x00\x00\x00\x00\x00\x00\x00\x00\x00\x00\x00\x00\x00\x00\x00\x00\x00e<\xb1H\x99\x13\xd1\xbf\x00\x00\x00\x00\x00\x00\x00\x00\xbd\xdf\xea(\xdc\xc0\x06@0\xf8\xc1_\x82\x9d\xfa?z\xdf\xa8\xb0\xb1\x0e\xf5\xbf\x00\x00\x00\x00\x00\x00\x00\x00<\x0f\xb5\xd3\x9f\xbf\x04\xc0\xc2\x9en\x0c\x96\x92\xb6?\x9f1\xb9_rj\xac\xbf\x00\x00\x00\x00\x00\x00\x00\x00\x9f\xb7\xab-Q\xe8\xff\xbf\x9f1\xb9_rj\xac\xbf\xc3\xef2+\xac,\xe7\xbfp*\x9b\x91\x16\x83\x03\xc0\x00\x00\x00\x00\x00\x00\x00\x00\x00\x00\x00\x00\x00\x00\x00\x00e/w\xbb\xda\xb0\x02@\x00\x00\x00\x00\x00\x00\x00\x00\x00\x00\x00\x00\x00\x00\x00\x00\xac\x1a\xf1\xd0\x98o\xf1\xbfA\xcc\xa882\xf1\x0c\xc0\xf7n\x9c\x84\xde\xc8\x04\xc0\x00\x00\x00\x00\x00\x00\x00\x00\x00\x00\x00\x00\x00\x00\x00\x00\x00\x00\x00\x00\x00\x00\x00\x00\x00\x00\x00\x00\x00\x00\x00\x00\x00\x00\x00\x00\x00\x00\x00\x00_\x96~\x83\xc7\x89\xdb?>W\xd1?\xebL\xd4\xbf\x00\x00\x00\x00\x00\x00\x00\x00\x00\x00\x00\x00\x00\x00\x00\x0057M\x9c\xe8Q\x15\xc0\x00\x00\x00\x00\x00\x00\x00\x00\x00\x00\x00\x00\x00\x00\x00\x00k\xc3\xa1\xc1\x15G\x17\xc0DBX\xe7\xfd\xa6\x12@k\x9bH\xee\xb52\xeb\xbf\x940\x8a\x1f\xd9\x87\x02\xc0\x00\x00\x00\x00\x00\x00\x00\x00(_\xb8\x15e\x19\xfb?_\x96~\x83\xc7\x89\xdb?\x00\x00\x00\x00\x00\x00\x00\x00Z<\xe4\\\x00\xc5\x04\xc0g\x98X_#\xb5\x00\xc02\x1d&\x99\xcbd\x0f\xc0\x00\x00\x00\x00\x00\x00\x00\x00\x00\x00\x00\x00\x00\x00\x00\x00\x00\x00\x00\x00\x00\x00\x00\x00\x00\x00\x00\x00\x00\x00\x00\x00\x00\x00\x00\x00\x00\x00\x00\x00\x00\x00\x00\x00\x00\x00\x00\x00\x00\x00\x00\x00\x00\x00\x00\x00\xfc\xe6\xc0o\xf9\xdc\x00\xc0]\xc4d\xcf\xedr\xd0\xbf\xaa\xefv\xe4\x82f\xe9\xbf\x00\x00\x00\x00\x00\x00\x00\x00\x00\x00\x00\x00\x00\x00\x00\x00\x00\x00\x00\x00\x00\x00\x00\x00\x00\x00\x00\x00\x00\x00\x00\x00\x96\x96\xe3\xb7R\x95\x04\xc0\x00\x00\x00\x00\x00\x00\x00\x00\x00\x00\x00\x00\x00\x00\x00\x00C\xd4%G\xa7\x1d\x02\xc0\xfd\xa5a8\xe1\xea\xfb?\x00\x00\x00\x00\x00\x00\x00\x00\xac\x9f\xd2\n\x1d\x19\x06\xc0G$\x96\xe9\x9a\xed\x05\xc0\x00\x00\x00\x00\x00\x00\x00\x00\x00\x00\x00\x00\x00\x00\x00\x00\x00\x00\x00\x00\x00\x00\x00\x00\x00\x00\x00\x00\x00\x00\x00\x00\x8a\x1f\xb5Q$n\xf6\xbf\xd7\x03\x99\xd3\x88\xed\xfc\xbf\xaf\xaa\xe8\'C\xdd\xf1\xbf\x00\x00\x00\x00\x00\x00\x00\x00\x00\x00\x00\x00\x00\x00\x00\x00\x00\x00\x00\x00\x00\x00\x00\x00\x00\x00\x00\x00\x00\x00\x00\x00\x00\x00\x00\x00\x00\x00\x00\x00\xacC;o\x95X\xf8\xbf\xb4pSvo\t\x06\xc0\x00\x00\x00\x00\x00\x00\x00\x00\x00\x00\x00\x00\x00\x00\x00\x00v=\x1a\xd0\xa1"\xf6\xbf\xb1*0\x1f\xf5?\xe5\xbf\x00\x00\x00\x00\x00\x00\x00\x00\x00\x00\x00\x00\x00\x00\x00\x00\x00\x00\x00\x00\x00\x00\x00\x00\x00\x00\x00\x00\x00\x00\x00\x00\x00\x00\x00\x00\x00\x00\x00\x00\x00\x00\x00\x00\x00\x00\x00\x00\x00\x00\x00\x00\x00\x00\x00\x00\xf4A\xe2\x94o2\x01\xc0\xb8\xe8m\xf2\xed\xac\x01\xc0\x00\x00\x00\x00\x00\x00\x00\x00\x00\x00\x00\x00\x00\x00\x00\x00\x13?D\x1e\x97\xaf\x03\xc0\x00\x00\x00\x00\x00\x00\x00\x00\x00\x00\x00\x00\x00\x00\x00\x006\xdf\x08U\xcb\x1f\x00\xc0\x00\x00\x00\x00\x00\x00\x00\x00\x00\x00\x00\x00\x00\x00\x00\x00\x00\x00\x00\x00\x00\x00\x00\x00>\xd7\x17E\x9c\xa9\xf4\xbf\x00\x00\x00\x00\x00\x00\x00\x00\x80\xe1\x16.\xc4,\x01\xc0=!\xf9\xd8\xa5v\xe4?\x82o\xb1\xe4l\xbf\x03\xc0\x14\x13(\\\xc9\x84\xfc\xbf\x82{\xfa\xf8e\xcb\x12\xc0+,!\x03\xfd\xd8\xe2\xbf\xdaP\xf58\x95\xff\x06\xc0\xa4]\x19[\x05\xd6\xe4\xbf\x00\x00\x00\x00\x00\x00\x00\x008\x06)\xb9_\xe9\x0f\xc0\x00\x00\x00\x00\x00\x00\x00\x00\xd8q\xcep\x16\xee\xaa\xbf\x17t{\x13\xd50\x07\xc0\x00\x00\x00\x00\x00\x00\x00\x00\xdf\xf4\xc9N\xc0O\xfe\xbfn\xe8\xbb\xe8\x95\xfb\x01@\x86]\xd6\xd6\xe5G\xe6?\x00\x00\x00\x00\x00\x00\x00\x00\x00\x00\x00\x00\x00\x00\x00\x00\xefH<\x8d\xaf\x8e\xf8\xbfyd\x16\x00Q.\xf4\xbf\x00\x00\x00\x00\x00\x00\x00\x00\x9b\x13\x8b\'\xac\x9a\xbe\xbf\xd8q\xcep\x16\xee\xaa\xbf\xd8q\xcep\x16\xee\xaa\xbf\x00\x00\x00\x00\x00\x00\x00\x00\x00\x00\x00\x00\x00\x00\x00\x00\x00\x00\x00\x00\x00\x00\x00\x00\x00\x00\x00\x00\x00\x00\x00\x00F1s\xa8\xc16\xe2\xbf\x00\x00\x00\x00\x00\x00\x00\x00\x00\x00\x00\x00\x00\x00\x00\x00\xbe\nT[P\x95\x04\xc0\x00\x00\x00\x00\x00\x00\x00\x00\x00\x00\x00\x00\x00\x00\x00\x00\x00\x00\x00\x00\x00\x00\x00\x00\x00\x00\x00\x00\x00\x00\x00\x00\x00\x00\x00\x00\x00\x00\x00\x00\x92g\x85>\'\xd4\xd4\xbf\x00\x00\x00\x00\x00\x00\x00\x00\xb1*0\x1f\xf5?\xe5\xbf\x00\x00\x00\x00\x00\x00\x00\x00\x00\x00\x00\x00\x00\x00\x00\x00\x00\x00\x00\x00\x00\x00\x00\x00\x00\x00\x00\x00\x00\x00\x00\x00\x90\xda\x04\xe7\xe9\xbc\x0b\xc0\x00\x00\x00\x00\x00\x00\x00\x00\xd4\xd8\x1b\xb2\x85\x8c\x03\xc0bu\xd2\xed\x06\xfd\x07\xc0j\x12\x0f\xbb\xcd\xe7\xe3\xbf.@\x10\xcbr\xab\x06\xc0\xf6\xfeHW\x02\n\xf0\xbf\x00\x00\x00\x00\x00\x00\x00\x00\x95\x99\xdc\x96\xe2?\x02\xc0HN\x9e\xdc\xd5+\x06\xc0\x00\x00\x00\x00\x00\x00\x00\x00\xb4n\xd6\xce\xa7\xb1\xff\xbf\x00\x00\x00\x00\x00\x00\x00\x00\x00\x00\x00\x00\x00\x00\x00\x00\x00\x00\x00\x00\x00\x00\x00\x00\xcdny]-\xb8\x05\xc0\x00\x00\x00\x00\x00\x00\x00\x00\x1a\xe1\x8e\x84\xdb\xd8\x01\xc0\x00\x00\x00\x00\x00\x00\x00\x00cu\x0cy\xfaB\x01@\x00\x00\x00\x00\x00\x00\x00\x00\x85\x13]\xe7\xf8\x9f\n\xc0\x00\x00\x00\x00\x00\x00\x00\x00\x940\x8a\x1f\xd9\x87\x02\xc0\x00\x00\x00\x00\x00\x00\x00\x00\x00\x00\x00\x00\x00\x00\x00\x00\xd1=\x9b\xb5\x0c\x13\xec\xbf\xf0??\x96sE\x08\xc0\x00\x00\x00\x00\x00\x00\x00\x00\x00\x00\x00\x00\x00\x00\x00\x00\xeb\xea\x00\x87\xa3\xdd\xd3\xbf\x00\x00\x00\x00\x00\x00\x00\x00k0\xcaG\x1c\xb5\x00\xc0\xe8gp\x11\xf5\xce\xf5?\x8c\xb1\xb8\xd8J\xe5\xf9\xbfo\xa4\xa3\x1d:\xcc\x01\xc0\x00\x00\x00\x00\x00\x00\x00\x00\x9f1\xb9_rj\xac\xbf\x9f1\xb9_rj\xac\xbf\x00\x00\x00\x00\x00\x00\x00\x00\x00\x00\x00\x00\x00\x00\x00\x00\x00\x00\x00\x00\x00\x00\x00\x00\x00\x00\x00\x00\x00\x00\x00\x00\xbc\xfaa\x1a?\xfa\x03\xc0\xd4\xfb\xb2Q>\xea\xe3\xbf\x04\xa6\xa4V &\x02\xc0\x00\x00\x00\x00\x00\x00\x00\x00\xe7\xb3\xdb\xb6;\x93\xe7\xbf?\x9d\xdb\xf7\xdd\xdc\xd7\xbf\x00\x00\x00\x00\x00\x00\x00\x00\x0e\x1d-\xa4\xd36\x13\xc0\x00\x00\x00\x00\x00\x00\x00\x00o\xcb\xa3\'\xf5\xa5\xfc\xbf\xe8u\xaf\xf9\xafl\x04\xc0\x00\x00\x00\x00\x00\x00\x00\x00\x00\x00\x00\x00\x00\x00\x00\x00UF\xc2\x07:C\xf6\xbfaH\x1e9\xe5\xa8\xf0\xbf\x00\x00\x00\x00\x00\x00\x00\x00oe\xc8\x10Ir\xe3\xbf,\x15T\xccg\xb7\xe4\xbf:}\xd1/\x0cM\xfa\xbf?\x9d\xdb\xf7\xdd\xdc\xd7\xbfrk\x19\\\x03|\x10\xc0\x00\x00\x00\x00\x00\x00\x00\x00'
p4539
tp4540
bsg11
F0.001
sS'intercept_'
p4541
g4462
(g4463
(I0
tp4542
g4465
tp4543
Rp4544
(I1
(I1
tp4545
g4492
I00
S'\x02HBH\x8f)\xf0\xbf'
p4546
tp4547
bsS'_expanded_class_weight'
p4548
g4462
(g4463
(I0
tp4549
g4465
tp4550
Rp4551
(I1
(I2
tp4552
g4492
I00
S'\x00\x00\x00\x00\x00\x00\xf0?\x00\x00\x00\x00\x00\x00\xf0?'
p4553
tp4554
bsS'warm_start'
p4555
I00
sg2
g3
sS'eta0'
p4556
F0.0
sS'l1_ratio'
p4557
F0.15
sS'average'
p4558
I00
sS'power_t'
p4559
F0.5
sbtp4560
asbsb.