(ialicized_models
CommandMatchingModel
p0
(dp1
S'loss'
p2
S'squared_hinge'
p3
sS'grammar'
p4
NsS'name'
p5
S'GET_NEWS.model'
p6
sS'n_iter'
p7
I5
sS'penalty'
p8
S'elasticnet'
p9
sS'trained'
p10
I01
sS'alpha'
p11
F0.001
sS'data'
p12
(lp13
(S'spotify go ahead'
p14
S'False'
p15
tp16
a(S"what aren't the current news"
p17
g15
tp18
a(S'lower the volume'
p19
g15
tp20
a(S'get clock please'
p21
g15
tp22
a(S'please google for'
p23
g15
tp24
a(S''
p25
g15
tp26
a(S'set the volume zero'
p27
g15
tp28
a(S'spotify previous song please'
p29
g15
tp30
a(S"what aren't the headlines"
p31
g15
tp32
a(S"what's the temperature this week"
p33
g15
tp34
a(S'will you open gmail'
p35
g15
tp36
a(S'do i have any events on today'
p37
g15
tp38
a(S"don't get live news feed"
p39
g15
tp40
a(S'can you put me on the lock screen please'
p41
g15
tp42
a(S'shut up'
p43
g15
tp44
a(S'am i free on sunday'
p45
g15
tp46
a(S'please can you check mail'
p47
g15
tp48
a(S'is there anything to do on saturday'
p49
g15
tp50
a(S'turn my computer off'
p51
g15
tp52
a(S'hey alex'
p53
g15
tp54
a(S"what're not the the news"
p55
g15
tp56
a(g25
g15
tp57
a(S"what's new in new gmail"
p58
g15
tp59
a(S"what's not the news"
p60
g15
tp61
a(S'check the clock right now'
p62
g15
tp63
a(S'do not find the news'
p64
g15
tp65
a(S'please spotify pause the song'
p66
g15
tp67
a(S'what is in new gmail please'
p68
g15
tp69
a(S'google please'
p70
g15
tp71
a(S"what isn't live news"
p72
g15
tp73
a(S'please get the current events'
p74
S'True'
p75
tp76
a(S'alice next please'
p77
g15
tp78
a(S"don't i have to do anything on wednesday"
p79
g15
tp80
a(S'open default browser please'
p81
g15
tp82
a(S'please shut off'
p83
g15
tp84
a(S'check new gmail please'
p85
g15
tp86
a(g25
g15
tp87
a(S'do i have anything on next'
p88
g15
tp89
a(S'would you check my mail please'
p90
g15
tp91
a(S"don't i have to do anything in a month"
p92
g15
tp93
a(g25
g15
tp94
a(S'what do i have on'
p95
g15
tp96
a(S'what do i have on friday'
p97
g15
tp98
a(S'get the current events'
p99
g75
tp100
a(S"don't i have any events on next"
p101
g15
tp102
a(S"don't i have to do anything on"
p103
g15
tp104
a(S'am i free for a week'
p105
g15
tp106
a(S'go to dot org'
p107
g15
tp108
a(S"what's if it's rainy this week"
p109
g15
tp110
a(S'unmute'
p111
g15
tp112
a(S'please close this window'
p113
g15
tp114
a(S"if it's cloudy this week"
p115
g15
tp116
a(S'we stick to simple problems in this post for the sake of illustration'
p117
g15
tp118
a(S'do i have anything to do tomorrow'
p119
g15
tp120
a(g25
g15
tp121
a(S'issue commands'
p122
g15
tp123
a(S'open dot net'
p124
g15
tp125
a(S'can you please close this window'
p126
g15
tp127
a(S"get if it's cold today"
p128
g15
tp129
a(S'could you check my gmail please'
p130
g15
tp131
a(S'can you open a browser'
p132
g15
tp133
a(S'check calendar for this week'
p134
g15
tp135
a(S"what're not the newsfeed"
p136
g15
tp137
a(S'start a browser please'
p138
g15
tp139
a(S'please check what time it is'
p140
g15
tp141
a(S'do i have any events on monday'
p142
g15
tp143
a(S"don't tell me current events"
p144
g15
tp145
a(S'shutdown my computer please'
p146
g15
tp147
a(S"what's the temperature today"
p148
g15
tp149
a(S'are there any events on this day'
p150
g15
tp151
a(S'do not tell me the current events'
p152
g15
tp153
a(S'get the clock'
p154
g15
tp155
a(S'do i have anything on sunday'
p156
g15
tp157
a(S'will you open gmail please'
p158
g15
tp159
a(S'are there any events on today'
p160
g15
tp161
a(S'what do i have to do on thursday'
p162
g15
tp163
a(S'check calendar for thursday'
p164
g15
tp165
a(S'can you check mail'
p166
g15
tp167
a(S"don't i have to do anything on tuesday"
p168
g15
tp169
a(S"don't i have any events in a month"
p170
g15
tp171
a(S"what's the weather today"
p172
g15
tp173
a(S'open inbox please'
p174
g15
tp175
a(S'open my gmail'
p176
g15
tp177
a(S'can you open browser please'
p178
g15
tp179
a(S'search google please'
p180
g15
tp181
a(S'what do i have to do on saturday'
p182
g15
tp183
a(S'could you check my mail'
p184
g15
tp185
a(S'not intelligence report'
p186
g15
tp187
a(S'check google calendar for friday'
p188
g15
tp189
a(S'do i have anything to do'
p190
g15
tp191
a(S'can you please turn up the beat'
p192
g15
tp193
a(S"what isn't going on in the world today"
p194
g15
tp195
a(S'please would you open inbox'
p196
g15
tp197
a(S"get if it's raining this week"
p198
g15
tp199
a(S'search google'
p200
g15
tp201
a(S'set volume 0'
p202
g15
tp203
a(S'can you please open a browser'
p204
g15
tp205
a(S'get the news'
p206
g75
tp207
a(S'lower the tunes please'
p208
g15
tp209
a(S'shutdown my computer'
p210
g15
tp211
a(S'would you open gmail please'
p212
g15
tp213
a(S'what do i have on today'
p214
g15
tp215
a(S'unmute please'
p216
g15
tp217
a(S'please turn it down'
p218
g15
tp219
a(S'turn the beat down'
p220
g15
tp221
a(S'what events do i have on wednesday'
p222
g15
tp223
a(S'open mail'
p224
g15
tp225
a(S'do i have any events on saturday'
p226
g15
tp227
a(S"what's new in inbox"
p228
g15
tp229
a(S"please don't tell me whats going on in the news please"
p230
g15
tp231
a(S'spotify go please'
p232
g15
tp233
a(S"what's if it's raining this week"
p234
g15
tp235
a(S"what're not the live news"
p236
g15
tp237
a(S'please what is in my inbox'
p238
g15
tp239
a(S'what are the news feed'
p240
g75
tp241
a(S"don't i have to do anything today"
p242
g15
tp243
a(S'what do i have on thursday'
p244
g15
tp245
a(S"what's this week's temperature"
p246
g15
tp247
a(g25
g15
tp248
a(g25
g15
tp249
a(S'do i have anything in a week'
p250
g15
tp251
a(S'what events do i have on monday'
p252
g15
tp253
a(S"if it's foggy today"
p254
g15
tp255
a(S'do i have anything on saturday'
p256
g15
tp257
a(S"don't get live newsfeed"
p258
g15
tp259
a(S"what's in new mail please"
p260
g15
tp261
a(S'will you check my mail'
p262
g15
tp263
a(S'last song please'
p264
g15
tp265
a(S"what's new in new mail please"
p266
g15
tp267
a(S'could you check my mail please'
p268
g15
tp269
a(S'is there anything i have to do on next'
p270
g15
tp271
a(S"what're the newsfeed"
p272
g75
tp273
a(S'any events on monday'
p274
g15
tp275
a(S'will you check inbox please'
p276
g15
tp277
a(S"not today's live newsfeed"
p278
g15
tp279
a(S"what's not the current news"
p280
g15
tp281
a(S'make the volume softer'
p282
g15
tp283
a(S'any events on this day'
p284
g15
tp285
a(S"don't i have anything to do on tuesday"
p286
g15
tp287
a(S"please what's new in inbox"
p288
g15
tp289
a(S'whats going on in the world todays please'
p290
g75
tp291
a(S'what do i have to do on friday'
p292
g15
tp293
a(S'what do i have on monday'
p294
g15
tp295
a(S'am i free for monday'
p296
g15
tp297
a(S"don't tell me headlines"
p298
g15
tp299
a(S'please get the time'
p300
g15
tp301
a(S'can you shut my computer down'
p302
g15
tp303
a(S'a releasing moderate stalls beside the material cell'
p304
g15
tp305
a(S'shut off'
p306
g15
tp307
a(S'do not give me infornation on todays current events'
p308
g15
tp309
a(S"aren't there any events on this day"
p310
g15
tp311
a(S"don't i have anything on tuesday"
p312
g15
tp313
a(S'can you please kill the window'
p314
g15
tp315
a(S'spotify stop the song '
p316
g15
tp317
a(S'not current news'
p318
g15
tp319
a(S'turn the volume to zero'
p320
g15
tp321
a(S'temperature'
p322
g15
tp323
a(S'are there any events on friday'
p324
g15
tp325
a(S"what's new in my gmail please"
p326
g15
tp327
a(S'please close active window'
p328
g15
tp329
a(S'check my calendar on saturday'
p330
g15
tp331
a(S"don't i have to do anything on sunday"
p332
g15
tp333
a(S"don't i have to do anything in a week"
p334
g15
tp335
a(S'could you check inbox'
p336
g15
tp337
a(S'what events are on tomorrow'
p338
g15
tp339
a(S"how's the forecast this week"
p340
g15
tp341
a(S"how's the temperature this week"
p342
g15
tp343
a(S"don't i have to do anything on sunday"
p344
g15
tp345
a(S'will you not get the current events for me'
p346
g15
tp347
a(S'is there anything i have to do tomorrow'
p348
g15
tp349
a(S'what events are going on right now'
p350
g75
tp351
a(S'is there anything to do on friday'
p352
g15
tp353
a(S"what's not in live newsfeed"
p354
g15
tp355
a(S'check events for this month'
p356
g15
tp357
a(S'what events do i have on friday'
p358
g15
tp359
a(S'gather information on todays current events please'
p360
g75
tp361
a(S'please open a browser'
p362
g15
tp363
a(S"what's the news feed"
p364
g75
tp365
a(S'can you check new mail please'
p366
g15
tp367
a(S'can you unmute'
p368
g15
tp369
a(S"what's today's temperature"
p370
g15
tp371
a(S"don't i have anything on wednesday"
p372
g15
tp373
a(S'check calendar on thursday'
p374
g15
tp375
a(S'is there anything i have to do today'
p376
g15
tp377
a(S'bye'
p378
g15
tp379
a(S'check google calendar for wednesday'
p380
g15
tp381
a(S'please what is in gmail'
p382
g15
tp383
a(S"don't i have anything on"
p384
g15
tp385
a(S'please can you check gmail'
p386
g15
tp387
a(S"today's live news"
p388
g75
tp389
a(S'what is in my inbox please'
p390
g15
tp391
a(S'what is in my mail please'
p392
g15
tp393
a(S'find news'
p394
g75
tp395
a(S'get the time'
p396
g15
tp397
a(S'do i have anything to do on wednesday'
p398
g15
tp399
a(S'please pause'
p400
g15
tp401
a(S'turn up'
p402
g15
tp403
a(S'what events are on thursday'
p404
g15
tp405
a(S"get this week's weather"
p406
g15
tp407
a(S'spotify play the last song'
p408
g15
tp409
a(S'please spotify pause'
p410
g15
tp411
a(S'what are the current news'
p412
g75
tp413
a(S'can you please shutdown the computer'
p414
g15
tp415
a(S'do i have to do anything to do'
p416
g15
tp417
a(S'will you open inbox'
p418
g15
tp419
a(S'kill the program'
p420
g15
tp421
a(S"what isn't news feed"
p422
g15
tp423
a(S'turn up the beat please'
p424
g15
tp425
a(S'is it raining this week'
p426
g15
tp427
a(S'would you open my gmail please'
p428
g15
tp429
a(S'could you check gmail please'
p430
g15
tp431
a(S'can you please kill current window'
p432
g15
tp433
a(S'skip'
p434
g15
tp435
a(S'shut down the computer'
p436
g15
tp437
a(S'could you open mail please'
p438
g15
tp439
a(S'please could you check my mail'
p440
g15
tp441
a(S'will you check my inbox'
p442
g15
tp443
a(S'check google calendar on'
p444
g15
tp445
a(S'check events on sunday'
p446
g15
tp447
a(S"don't i have anything to do"
p448
g15
tp449
a(S'any events on tomorrow'
p450
g15
tp451
a(g25
g15
tp452
a(S'can you shut down the computer'
p453
g15
tp454
a(S'what is new in new gmail please'
p455
g15
tp456
a(S'skip spotify please'
p457
g15
tp458
a(S"today's live newsfeed"
p459
g75
tp460
a(S'is there anything i have to do on saturday'
p461
g15
tp462
a(S"what's if it's foggy today"
p463
g15
tp464
a(S'read the time'
p465
g15
tp466
a(S"don't i have to do anything on monday"
p467
g15
tp468
a(S"don't i have any events on friday"
p469
g15
tp470
a(S"don't find news feed"
p471
g15
tp472
a(S'what events are on friday'
p473
g15
tp474
a(S"if it's cold today"
p475
g15
tp476
a(S'turn off the beats'
p477
g15
tp478
a(g25
g15
tp479
a(S'shut down please'
p480
g15
tp481
a(S'check events on tuesday'
p482
g15
tp483
a(S'check new gmail'
p484
g15
tp485
a(S'bye bye'
p486
g15
tp487
a(S'what is on my calendar'
p488
g15
tp489
a(S'open inbox'
p490
g15
tp491
a(S'check the clock'
p492
g15
tp493
a(S'please read the clock'
p494
g15
tp495
a(S'would you check my inbox'
p496
g15
tp497
a(S'pause spotify'
p498
g15
tp499
a(S'what do i have on this day'
p500
g15
tp501
a(S"don't i have to do anything on thursday"
p502
g15
tp503
a(S'put me on the lock screen'
p504
g15
tp505
a(S'turn my computer off please'
p506
g15
tp507
a(S'please when is it'
p508
g15
tp509
a(S"what's the time"
p510
g15
tp511
a(S"what's in new gmail"
p512
g15
tp513
a(S'open a default browser please'
p514
g15
tp515
a(S'would you open mail'
p516
g15
tp517
a(S'please get the current time'
p518
g15
tp519
a(S'turn up the tunes'
p520
g15
tp521
a(S'can you lock computer please'
p522
g15
tp523
a(S'current events today'
p524
g75
tp525
a(S"what isn't the news today"
p526
g15
tp527
a(S'check events on wednesday'
p528
g15
tp529
a(S"please what's new in mail"
p530
g15
tp531
a(S"don't give me the news please"
p532
g15
tp533
a(S"don't tell me live news feed"
p534
g15
tp535
a(S'dont give me infornation on todays current events'
p536
g15
tp537
a(S'am i free for thursday'
p538
g15
tp539
a(S'please check inbox'
p540
g15
tp541
a(S"if it's freezing this week"
p542
g15
tp543
a(S"don't i have anything"
p544
g15
tp545
a(S"what's not the news feed"
p546
g15
tp547
a(S'sound higher please'
p548
g15
tp549
a(S'can you please exit'
p550
g15
tp551
a(S'what is in new gmail'
p552
g15
tp553
a(S'please go spotify '
p554
g15
tp555
a(S'please what is in inbox'
p556
g15
tp557
a(S"what's the headlines"
p558
g75
tp559
a(S"what isn't live newsfeed"
p560
g15
tp561
a(S"what's not in news"
p562
g15
tp563
a(S'check google calendar for this month'
p564
g15
tp565
a(S'is there anything i have to do on wednesday'
p566
g15
tp567
a(S'can you please kill this window'
p568
g15
tp569
a(S'please can you check my gmail'
p570
g15
tp571
a(S'current events please'
p572
g75
tp573
a(S'please sound up'
p574
g15
tp575
a(S'lower the sound'
p576
g15
tp577
a(S'do i have to do anything on monday'
p578
g15
tp579
a(S"aren't there any events on next"
p580
g15
tp581
a(S'can you shutdown my computer'
p582
g15
tp583
a(S'is it freezing this week'
p584
g15
tp585
a(S'please spotify previous'
p586
g15
tp587
a(S'what is on my calendar for wednesday'
p588
g15
tp589
a(S'can you check inbox please'
p590
g15
tp591
a(S'dont find the news'
p592
g15
tp593
a(S'check my calendar on this week'
p594
g15
tp595
a(S'any new gmail'
p596
g15
tp597
a(S"don't gather the latest headlines please"
p598
g15
tp599
a(S"get today's weather"
p600
g15
tp601
a(S'is there anything to do'
p602
g15
tp603
a(S'close the active window'
p604
g15
tp605
a(S'sound up please'
p606
g15
tp607
a(S'please would you open mail'
p608
g15
tp609
a(S"what's in mail"
p610
g15
tp611
a(S'do i have any events on'
p612
g15
tp613
a(S'give me the current events please'
p614
g75
tp615
a(S'check your watch please'
p616
g15
tp617
a(S'what do i have'
p618
g15
tp619
a(S'will you open my inbox please'
p620
g15
tp621
a(S'check google calendar on wednesday'
p622
g15
tp623
a(S'could you open my gmail please'
p624
g15
tp625
a(S'could you open my inbox please'
p626
g15
tp627
a(S'do not gather information on todays current events'
p628
g15
tp629
a(S'read me the clock please'
p630
g15
tp631
a(g25
g15
tp632
a(S'get current news'
p633
g75
tp634
a(S'can you please turn the tune down'
p635
g15
tp636
a(S"please what's new in my mail"
p637
g15
tp638
a(S"if it's cold this week"
p639
g15
tp640
a(S'please shut off my computer'
p641
g15
tp642
a(S'start browsing'
p643
g15
tp644
a(S'can you shutdown the computer'
p645
g15
tp646
a(S'can you check new gmail'
p647
g15
tp648
a(S'what is in my gmail'
p649
g15
tp650
a(S'current news today'
p651
g75
tp652
a(S"what're the current news"
p653
g75
tp654
a(S'what events do i have on this day'
p655
g15
tp656
a(S"what're not the headlines"
p657
g15
tp658
a(S'can you exit'
p659
g15
tp660
a(S'please close current window'
p661
g15
tp662
a(S'okay alice'
p663
g15
tp664
a(S'what do i have on saturday'
p665
g15
tp666
a(S'check my calendar on this month'
p667
g15
tp668
a(S'are there any events on sunday'
p669
g15
tp670
a(S'check gmail'
p671
g15
tp672
a(S'please what is in my gmail'
p673
g15
tp674
a(S'what events do i have on thursday'
p675
g15
tp676
a(S'check google calendar on saturday'
p677
g15
tp678
a(S'go back'
p679
g15
tp680
a(S"get if it's rainy today"
p681
g15
tp682
a(S'turn off my computer please'
p683
g15
tp684
a(S"don't i have to do anything tomorrow"
p685
g15
tp686
a(S'please shut down my computer'
p687
g15
tp688
a(S'check my calendar on this day'
p689
g15
tp690
a(S'check google calendar on sunday'
p691
g15
tp692
a(S'is it snowing this week'
p693
g15
tp694
a(S'please start a browser'
p695
g15
tp696
a(S"don't i have anything in a month"
p697
g15
tp698
a(S'please read the time'
p699
g15
tp700
a(S'will you get the current headlines'
p701
g75
tp702
a(S'send me to the lock screen'
p703
g15
tp704
a(S"what's the newsfeed"
p705
g75
tp706
a(S'do i have to do anything on wednesday'
p707
g15
tp708
a(S'please check my inbox'
p709
g15
tp710
a(S'search'
p711
g15
tp712
a(S'would you check new mail'
p713
g15
tp714
a(S'please will you check my gmail'
p715
g15
tp716
a(S"don't i have anything today"
p717
g15
tp718
a(S'please open'
p719
g15
tp720
a(S"not today's news feed"
p721
g15
tp722
a(S'not current events'
p723
g15
tp724
a(S'can you please shut down the computer'
p725
g15
tp726
a(S'would you check mail'
p727
g15
tp728
a(S'could you check mail'
p729
g15
tp730
a(S'are there any events'
p731
g15
tp732
a(S'am i free on next'
p733
g15
tp734
a(S"what's new in inbox please"
p735
g15
tp736
a(S'am i free'
p737
g15
tp738
a(S"how's the weather"
p739
g15
tp740
a(S'check calendar on next'
p741
g15
tp742
a(S'turn yourself off'
p743
g15
tp744
a(S'close current window'
p745
g15
tp746
a(S'please will you check new gmail'
p747
g15
tp748
a(S'can you please close the active window'
p749
g15
tp750
a(S'anything in my gmail'
p751
g15
tp752
a(S"get if it's hot this week"
p753
g15
tp754
a(S'get current time please'
p755
g15
tp756
a(S'what is in inbox'
p757
g15
tp758
a(S'please open a browser'
p759
g15
tp760
a(S'could you check my inbox please'
p761
g15
tp762
a(S'is it hot this week'
p763
g15
tp764
a(S'good night'
p765
g15
tp766
a(S'kill current window'
p767
g15
tp768
a(S'tell me current news'
p769
g75
tp770
a(S'do i have to do anything on this day'
p771
g15
tp772
a(S"what're the live news"
p773
g75
tp774
a(S'check google calendar for next'
p775
g15
tp776
a(S'is it snowing today'
p777
g15
tp778
a(S"what's not in headlines"
p779
g15
tp780
a(S'what do i have to do on monday'
p781
g15
tp782
a(S'please start browsing'
p783
g15
tp784
a(S'what are the news'
p785
g75
tp786
a(S'please could you open my inbox'
p787
g15
tp788
a(S'check my calendar for this day'
p789
g15
tp790
a(S'do i have any events on sunday'
p791
g15
tp792
a(S'please check new gmail'
p793
g15
tp794
a(S'google search please'
p795
g15
tp796
a(S'would you check my gmail please'
p797
g15
tp798
a(S'turn up the beat'
p799
g15
tp800
a(S"what's not the live newsfeed"
p801
g15
tp802
a(S"don't i have to do anything on next"
p803
g15
tp804
a(S'please tell me whats going on in the news please'
p805
g75
tp806
a(S'please can you make it louder'
p807
g15
tp808
a(S'can you turn my computer off'
p809
g15
tp810
a(S"please don't give me current events"
p811
g15
tp812
a(S'get weather'
p813
g15
tp814
a(S"what's not in live news"
p815
g15
tp816
a(S'please louder'
p817
g15
tp818
a(g25
g15
tp819
a(S'check google calendar for saturday'
p820
g15
tp821
a(S'can you check my mail please'
p822
g15
tp823
a(S'volume higher please'
p824
g15
tp825
a(S'off'
p826
g15
tp827
a(S'am i free'
p828
g15
tp829
a(S'search please'
p830
g15
tp831
a(S'can you turn the beat down'
p832
g15
tp833
a(S"what's in my inbox"
p834
g15
tp835
a(S'what is in my inbox'
p836
g15
tp837
a(S'turn off'
p838
g15
tp839
a(S'dont find out whats going on'
p840
g15
tp841
a(S'do i have any events in a month'
p842
g15
tp843
a(S'read time'
p844
g15
tp845
a(S"this week's temperature"
p846
g15
tp847
a(S'what events do i have on sunday'
p848
g15
tp849
a(S'get live newsfeed'
p850
g75
tp851
a(S'i like dogs'
p852
g15
tp853
a(S'do i have to do anything on saturday'
p854
g15
tp855
a(S"don't i have anything to do on"
p856
g15
tp857
a(S"what're not the current events"
p858
g15
tp859
a(S'current weather'
p860
g15
tp861
a(S"don't i have anything on thursday"
p862
g15
tp863
a(S'do not give me the news'
p864
g15
tp865
a(S'am i free for friday'
p866
g15
tp867
a(S'open gmail please'
p868
g15
tp869
a(S'is it rainy this week'
p870
g15
tp871
a(S'spotify shut up'
p872
g15
tp873
a(S'will you open a browser'
p874
g15
tp875
a(S'go to dot com'
p876
g15
tp877
a(S'am i free on thursday'
p878
g15
tp879
a(S'kill window'
p880
g15
tp881
a(S'news today'
p882
g75
tp883
a(S'is there anything to do on wednesday'
p884
g15
tp885
a(S"don't i have to do anything in a month"
p886
g15
tp887
a(S'what is on my calendar for tuesday'
p888
g15
tp889
a(S'please get the clock'
p890
g15
tp891
a(S'please open dot com'
p892
g15
tp893
a(S'is there anything to do on thursday'
p894
g15
tp895
a(S'tell me newsfeed'
p896
g75
tp897
a(S"what's new in new mail"
p898
g15
tp899
a(S'please give me the current events please'
p900
g75
tp901
a(S'pause song please'
p902
g15
tp903
a(S'kill the active window'
p904
g15
tp905
a(S'do i have anything to do on sunday'
p906
g15
tp907
a(S'please lock computer'
p908
g15
tp909
a(S'what events are on saturday'
p910
g15
tp911
a(S'anything in my inbox'
p912
g15
tp913
a(S'turn up the volume'
p914
g15
tp915
a(S'please turn off'
p916
g15
tp917
a(S'not current events'
p918
g15
tp919
a(S"don't i have to do anything on friday"
p920
g15
tp921
a(S'do i have any events in a week'
p922
g15
tp923
a(S'find live newsfeed'
p924
g75
tp925
a(S'please get current time'
p926
g15
tp927
a(S"don't i have to do anything on saturday"
p928
g15
tp929
a(S'what is on my calendar for today'
p930
g15
tp931
a(S'spotify skip'
p932
g15
tp933
a(S"today's newsfeed"
p934
g75
tp935
a(S'am i free for today'
p936
g15
tp937
a(S'please could you open my mail'
p938
g15
tp939
a(S'kill this window'
p940
g15
tp941
a(S'can you get the latest headlines'
p942
g75
tp943
a(S'go ahead'
p944
g15
tp945
a(S'can you shutdown'
p946
g15
tp947
a(S'check calendar on tomorrow'
p948
g15
tp949
a(S'how is the temperature'
p950
g15
tp951
a(S"don't tell me the news"
p952
g15
tp953
a(S'check calendar on this day'
p954
g15
tp955
a(S'dont whats going on in the world todays'
p956
g15
tp957
a(S'please check the clock'
p958
g15
tp959
a(S'please can you check my inbox'
p960
g15
tp961
a(S'what is new in my inbox please'
p962
g15
tp963
a(S'anything in my mail'
p964
g15
tp965
a(S"what's not in the news"
p966
g15
tp967
a(S"if it's hot today"
p968
g15
tp969
a(S'check events for this week'
p970
g15
tp971
a(S'not intel'
p972
g15
tp973
a(S'can you please turn the beat down'
p974
g15
tp975
a(S'what events are on this day'
p976
g15
tp977
a(S'do not find current events'
p978
g15
tp979
a(S'play spotify please'
p980
g15
tp981
a(S'am i free for next'
p982
g15
tp983
a(S'anything new in inbox'
p984
g15
tp985
a(S'check my calendar for sunday'
p986
g15
tp987
a(S'go to dot gov'
p988
g15
tp989
a(S'please turn off my computer'
p990
g15
tp991
a(S'please kill the active window'
p992
g15
tp993
a(S'will you open mail please'
p994
g15
tp995
a(S'dont tell me the news'
p996
g15
tp997
a(S'do not tell me the news'
p998
g15
tp999
a(S'spotify play the song'
p1000
g15
tp1001
a(S'will you open my inbox'
p1002
g15
tp1003
a(S'get me the news todays'
p1004
g75
tp1005
a(S'any events in a week'
p1006
g15
tp1007
a(S"what isn't news"
p1008
g15
tp1009
a(S'what are the live newsfeed'
p1010
g75
tp1011
a(S'can you unmute please'
p1012
g15
tp1013
a(S'check calendar for tomorrow'
p1014
g15
tp1015
a(S"don't get news feed"
p1016
g15
tp1017
a(S'check calendar for friday'
p1018
g15
tp1019
a(S'check google calendar on this week'
p1020
g15
tp1021
a(S'close window'
p1022
g15
tp1023
a(S'retrieve the time please'
p1024
g15
tp1025
a(S'do i have anything to do on next'
p1026
g15
tp1027
a(S"don't give me the current events please"
p1028
g15
tp1029
a(g25
g15
tp1030
a(S"don't i have anything on next"
p1031
g15
tp1032
a(S"aren't there any events on"
p1033
g15
tp1034
a(S'can you please shut my computer down'
p1035
g15
tp1036
a(S"what's the weather"
p1037
g15
tp1038
a(S'turn down the volume'
p1039
g15
tp1040
a(S'what is new in mail'
p1041
g15
tp1042
a(S'are there any events on thursday'
p1043
g15
tp1044
a(S'check events'
p1045
g15
tp1046
a(S'please can you check new gmail'
p1047
g15
tp1048
a(S'what is live news feed'
p1049
g75
tp1050
a(S'turn up the volume please'
p1051
g15
tp1052
a(S'could you open my mail'
p1053
g15
tp1054
a(S"what's the weather this week"
p1055
g15
tp1056
a(S'please shutdown'
p1057
g15
tp1058
a(S'please what is new in mail'
p1059
g15
tp1060
a(S'bye alice'
p1061
g15
tp1062
a(S'is there anything i have to do on sunday'
p1063
g15
tp1064
a(S'check google calendar for tomorrow'
p1065
g15
tp1066
a(S'dont read the news to me'
p1067
g15
tp1068
a(S'is there anything to do on today'
p1069
g15
tp1070
a(S'get time'
p1071
g15
tp1072
a(S'will you check gmail please'
p1073
g15
tp1074
a(S'do i have to do anything in a week'
p1075
g15
tp1076
a(S'live news feed'
p1077
g75
tp1078
a(S'is there anything i have to do on thursday'
p1079
g15
tp1080
a(S'can you lock the screen please'
p1081
g15
tp1082
a(S"please what's in new mail"
p1083
g15
tp1084
a(S'gather the latest headlines please'
p1085
g75
tp1086
a(S'search google for'
p1087
g15
tp1088
a(S'any events on today'
p1089
g15
tp1090
a(S'please shut my computer down'
p1091
g15
tp1092
a(S'please retrieve what time it is'
p1093
g15
tp1094
a(S'give me the current events'
p1095
g75
tp1096
a(S"how's the forecast today"
p1097
g15
tp1098
a(S'any events on'
p1099
g15
tp1100
a(S'is there anything to do on tomorrow'
p1101
g15
tp1102
a(S'what time is it now'
p1103
g15
tp1104
a(S'will you check mail'
p1105
g15
tp1106
a(S'will you open mail'
p1107
g15
tp1108
a(S'please what is in mail'
p1109
g15
tp1110
a(S"what's not in newsfeed"
p1111
g15
tp1112
a(S'would you check my mail'
p1113
g15
tp1114
a(S'turn the beat down please'
p1115
g15
tp1116
a(S'check google calendar on today'
p1117
g15
tp1118
a(S"don't i have to do anything on"
p1119
g15
tp1120
a(S'play '
p1121
g15
tp1122
a(S"what's if it's raining today"
p1123
g15
tp1124
a(S'check calendar on this week'
p1125
g15
tp1126
a(S'would you check new gmail'
p1127
g15
tp1128
a(S'will you not get the current headlines'
p1129
g15
tp1130
a(S'get temperature'
p1131
g15
tp1132
a(S'what is on my calendar for friday'
p1133
g15
tp1134
a(S'would you check new mail please'
p1135
g15
tp1136
a(S'do i have anything today'
p1137
g15
tp1138
a(S"how's the weather this week"
p1139
g15
tp1140
a(S'check google calendar for monday'
p1141
g15
tp1142
a(S"please what's new in my gmail"
p1143
g15
tp1144
a(S'get me the clock'
p1145
g15
tp1146
a(S'could you check new mail'
p1147
g15
tp1148
a(S'check my gmail please'
p1149
g15
tp1150
a(S'please kill the window'
p1151
g15
tp1152
a(S'check events on thursday'
p1153
g15
tp1154
a(S"get if it's snowing today"
p1155
g15
tp1156
a(S'what do i have to do in a month'
p1157
g15
tp1158
a(S'please send me to the lock screen'
p1159
g15
tp1160
a(S'can you please turn off'
p1161
g15
tp1162
a(S'please could you check mail'
p1163
g15
tp1164
a(S'please would you open my mail'
p1165
g15
tp1166
a(S'please find out the latest headlines'
p1167
g75
tp1168
a(S'please start default browser'
p1169
g15
tp1170
a(S'find news feed'
p1171
g75
tp1172
a(S'what do i have on wednesday'
p1173
g15
tp1174
a(S'what time is it right now'
p1175
g15
tp1176
a(S'check google calendar'
p1177
g15
tp1178
a(S'check events for next'
p1179
g15
tp1180
a(S'put me on the lock screen please'
p1181
g15
tp1182
a(S'do not read the current events to me'
p1183
g15
tp1184
a(S'current events'
p1185
g75
tp1186
a(S'please would you check gmail'
p1187
g15
tp1188
a(S'can you please mute'
p1189
g15
tp1190
a(S"don't get current events"
p1191
g15
tp1192
a(S'can you open this program'
p1193
g15
tp1194
a(S"don't tell me live newsfeed"
p1195
g15
tp1196
a(S'please do not give me the news'
p1197
g15
tp1198
a(S'do i have any events on thursday'
p1199
g15
tp1200
a(S'not briefing'
p1201
g15
tp1202
a(S'do i have anything on friday'
p1203
g15
tp1204
a(S'please will you check inbox'
p1205
g15
tp1206
a(S'do i have anything to do in a month'
p1207
g15
tp1208
a(S'gimme the news'
p1209
g75
tp1210
a(S'please could you check new gmail'
p1211
g15
tp1212
a(S'please check my gmail'
p1213
g15
tp1214
a(S'google please for'
p1215
g15
tp1216
a(S'get live news feed'
p1217
g75
tp1218
a(S'will you check my gmail please'
p1219
g15
tp1220
a(S'please spotify last'
p1221
g15
tp1222
a(S'check google calendar on tuesday'
p1223
g15
tp1224
a(S'read me the clock'
p1225
g15
tp1226
a(S'give me the news'
p1227
g75
tp1228
a(S'can you close this window'
p1229
g15
tp1230
a(S'get the current time please'
p1231
g15
tp1232
a(S'kill the noise'
p1233
g15
tp1234
a(S'is it freezing today'
p1235
g15
tp1236
a(S'could you check inbox please'
p1237
g15
tp1238
a(S'find the current events'
p1239
g75
tp1240
a(S'please turn off the computer'
p1241
g15
tp1242
a(S'close active window'
p1243
g15
tp1244
a(S"what's not the the news"
p1245
g15
tp1246
a(S"what's not in current events"
p1247
g15
tp1248
a(S'could you check my inbox'
p1249
g15
tp1250
a(S'would you open my mail please'
p1251
g15
tp1252
a(S'what is in the news today'
p1253
g75
tp1254
a(S'can you lock computer'
p1255
g15
tp1256
a(S'please would you open my gmail'
p1257
g15
tp1258
a(S'please could you check gmail'
p1259
g15
tp1260
a(S'please would you check new mail'
p1261
g15
tp1262
a(S"what's not the newsfeed"
p1263
g15
tp1264
a(S'am i free on this day'
p1265
g15
tp1266
a(S'google for please'
p1267
g15
tp1268
a(S'lock the screen please'
p1269
g15
tp1270
a(S'please would you open gmail'
p1271
g15
tp1272
a(S'check events on saturday'
p1273
g15
tp1274
a(S'what is current events'
p1275
g75
tp1276
a(S'fake news'
p1277
g75
tp1278
a(S'what events do i have in a week'
p1279
g15
tp1280
a(S"what's if it's freezing this week"
p1281
g15
tp1282
a(S'will it rain this week'
p1283
g15
tp1284
a(S"get if it's snowing this week"
p1285
g15
tp1286
a(S"don't i have anything to do today"
p1287
g15
tp1288
a(S'start browser please'
p1289
g15
tp1290
a(S'open gmail'
p1291
g15
tp1292
a(S'can you please shutdown'
p1293
g15
tp1294
a(S'intel'
p1295
g75
tp1296
a(S'okay alex'
p1297
g15
tp1298
a(S"what aren't the live news"
p1299
g15
tp1300
a(S'please what is in my mail'
p1301
g15
tp1302
a(S'is there anything to do today'
p1303
g15
tp1304
a(S'what are the live news feed'
p1305
g75
tp1306
a(S'can you put me on the lock screen'
p1307
g15
tp1308
a(S'please what is new in my mail'
p1309
g15
tp1310
a(S"what's this week's weather"
p1311
g15
tp1312
a(S'would you check new gmail please'
p1313
g15
tp1314
a(S'check events for this day'
p1315
g15
tp1316
a(S'what events do i have in a month'
p1317
g15
tp1318
a(S'please will you open mail'
p1319
g15
tp1320
a(S"today's headlines"
p1321
g75
tp1322
a(g25
g15
tp1323
a(S'get headlines'
p1324
g75
tp1325
a(S'tell me live news'
p1326
g75
tp1327
a(S"what's new in new gmail please"
p1328
g15
tp1329
a(S'open my mail please'
p1330
g15
tp1331
a(S'read the clock'
p1332
g15
tp1333
a(S'check calendar for next'
p1334
g15
tp1335
a(S'live newsfeed'
p1336
g75
tp1337
a(S'not live newsfeed'
p1338
g15
tp1339
a(S'get current forecast'
p1340
g15
tp1341
a(S'check events for today'
p1342
g15
tp1343
a(S'will you get the headlines'
p1344
g75
tp1345
a(S'do i have to do anything tomorrow'
p1346
g15
tp1347
a(S'can you turn off'
p1348
g15
tp1349
a(S"don't i have to do anything on thursday"
p1350
g15
tp1351
a(S'what do i have to do on today'
p1352
g15
tp1353
a(S"how's the forecast"
p1354
g15
tp1355
a(S'what is new in inbox'
p1356
g15
tp1357
a(S"what's the clock"
p1358
g15
tp1359
a(S'mute please'
p1360
g15
tp1361
a(S"don't i have any events on sunday"
p1362
g15
tp1363
a(S'tell me news'
p1364
g75
tp1365
a(S"what's in my gmail please"
p1366
g15
tp1367
a(S'please can you check inbox'
p1368
g15
tp1369
a(S"what's in new gmail please"
p1370
g15
tp1371
a(S'anything new in my mail'
p1372
g15
tp1373
a(S'can you shut down'
p1374
g15
tp1375
a(S"this week's weather"
p1376
g15
tp1377
a(S"don't gather information on"
p1378
g15
tp1379
a(S'search for'
p1380
g15
tp1381
a(S'can you please shut off my computer'
p1382
g15
tp1383
a(S'please search google for'
p1384
g15
tp1385
a(g25
g15
tp1386
a(S'please open my inbox'
p1387
g15
tp1388
a(S'please start spotify'
p1389
g15
tp1390
a(S'start song'
p1391
g15
tp1392
a(S'what events are in a month'
p1393
g15
tp1394
a(S'what are the current events'
p1395
g75
tp1396
a(S'please read me the clock'
p1397
g15
tp1398
a(S'spotify skip ahead please'
p1399
g15
tp1400
a(S'please what is new in inbox'
p1401
g15
tp1402
a(S'can you please turn off my computer'
p1403
g15
tp1404
a(S'check my calendar'
p1405
g15
tp1406
a(S'do i have to do anything on tuesday'
p1407
g15
tp1408
a(S"please what's in gmail"
p1409
g15
tp1410
a(S'when is it please'
p1411
g15
tp1412
a(S'do i have anything to do on monday'
p1413
g15
tp1414
a(S'turn off my computer'
p1415
g15
tp1416
a(S'what do i have to do on this day'
p1417
g15
tp1418
a(S'not newsfeed'
p1419
g15
tp1420
a(S'what events do i have'
p1421
g15
tp1422
a(S'not get the information'
p1423
g15
tp1424
a(S'spotify play'
p1425
g15
tp1426
a(S'can you get the current events'
p1427
g75
tp1428
a(S'would you check mail please'
p1429
g15
tp1430
a(S'do not tell me hwat is going on in the world todays'
p1431
g15
tp1432
a(S'can you please shut off'
p1433
g15
tp1434
a(S'can you check my gmail'
p1435
g15
tp1436
a(S'what do i have in a month'
p1437
g15
tp1438
a(S'check calendar for tuesday'
p1439
g15
tp1440
a(S'check google calendar for this day'
p1441
g15
tp1442
a(S'what is in my mail'
p1443
g15
tp1444
a(S"don't gather information on todays current events please"
p1445
g15
tp1446
a(S'do i have to do anything'
p1447
g15
tp1448
a(S'would you open inbox please'
p1449
g15
tp1450
a(S'please spotify previous song'
p1451
g15
tp1452
a(S"today's forecast"
p1453
g15
tp1454
a(S'start a browser'
p1455
g15
tp1456
a(S"don't i have anything to do on saturday"
p1457
g15
tp1458
a(S'spotify pause the song please'
p1459
g15
tp1460
a(S'can you not get information on the current events'
p1461
g15
tp1462
a(S"if it's raining this week"
p1463
g15
tp1464
a(S"please what's in inbox"
p1465
g15
tp1466
a(S'spotify stop playing'
p1467
g15
tp1468
a(S'check events on today'
p1469
g15
tp1470
a(S'check calendar for saturday'
p1471
g15
tp1472
a(S'do i have to do anything on next'
p1473
g15
tp1474
a(S'can you lock the screen'
p1475
g15
tp1476
a(S"don't give me intel"
p1477
g15
tp1478
a(S'what is going on in the world today'
p1479
g75
tp1480
a(S'check my calendar for tuesday'
p1481
g15
tp1482
a(S'could you open mail'
p1483
g15
tp1484
a(S'can you please turn up the tune'
p1485
g15
tp1486
a(S'spotify start the song please'
p1487
g15
tp1488
a(S'what events are on monday'
p1489
g15
tp1490
a(S'will you check my gmail'
p1491
g15
tp1492
a(S'can you decrease the sound'
p1493
g15
tp1494
a(S'turn yourself off please'
p1495
g15
tp1496
a(S'what do i have to do on sunday'
p1497
g15
tp1498
a(S"what's if it's rainy today"
p1499
g15
tp1500
a(S'lower the tunez please'
p1501
g15
tp1502
a(S'get news feed'
p1503
g75
tp1504
a(S"what's new in mail please"
p1505
g15
tp1506
a(S"what's if it's snowing today"
p1507
g15
tp1508
a(S'debrief me'
p1509
g75
tp1510
a(S'check my calendar for this week'
p1511
g15
tp1512
a(S'please dont tell me the latest events'
p1513
g15
tp1514
a(S'shut up please'
p1515
g15
tp1516
a(S'not whats going on in the world todays please'
p1517
g15
tp1518
a(S"what're the current events"
p1519
g75
tp1520
a(S'check calendar on month'
p1521
g15
tp1522
a(S'what are the newsfeed'
p1523
g75
tp1524
a(S'please search'
p1525
g15
tp1526
a(S'do not whats going on in the world todays'
p1527
g15
tp1528
a(S'search please for'
p1529
g15
tp1530
a(S'briefing'
p1531
g75
tp1532
a(S'anything in gmail'
p1533
g15
tp1534
a(S"what's the news"
p1535
g75
tp1536
a(S'is there anything i have to do in a week'
p1537
g15
tp1538
a(S'will you not get the current events'
p1539
g15
tp1540
a(S'turn off please'
p1541
g15
tp1542
a(S'can you check gmail'
p1543
g15
tp1544
a(S"if it's raining today"
p1545
g15
tp1546
a(S'check my calendar for today'
p1547
g15
tp1548
a(S'would you check inbox'
p1549
g15
tp1550
a(S'what is on my calendar for sunday'
p1551
g15
tp1552
a(S'can you turn up the beat'
p1553
g15
tp1554
a(S'lock the screen'
p1555
g15
tp1556
a(S"what's not the headlines"
p1557
g15
tp1558
a(S'shut off my computer'
p1559
g15
tp1560
a(S'am i free today'
p1561
g15
tp1562
a(g25
g15
tp1563
a(S'check calendar on tuesday'
p1564
g15
tp1565
a(S'spotify last song please'
p1566
g15
tp1567
a(S'please kill the current window'
p1568
g15
tp1569
a(S'any events on friday'
p1570
g15
tp1571
a(S'find current events'
p1572
g75
tp1573
a(S"what's in inbox"
p1574
g15
tp1575
a(S'see ya alice'
p1576
g15
tp1577
a(S'shut off please'
p1578
g15
tp1579
a(S'check calendar'
p1580
g15
tp1581
a(S"what's forecast"
p1582
g15
tp1583
a(S"today's current news "
p1584
g75
tp1585
a(S'get current events'
p1586
g75
tp1587
a(S'open my inbox please'
p1588
g15
tp1589
a(S'check calendar for this month'
p1590
g15
tp1591
a(S'can you mute'
p1592
g15
tp1593
a(S'todays headlines'
p1594
g75
tp1595
a(S'is it cloudy today'
p1596
g15
tp1597
a(S'am i free for this day'
p1598
g15
tp1599
a(S'hey alice'
p1600
g15
tp1601
a(S'check mail please'
p1602
g15
tp1603
a(S'can you shut up'
p1604
g15
tp1605
a(S'would you open my mail'
p1606
g15
tp1607
a(S'stop spotify'
p1608
g15
tp1609
a(S'please would you check inbox'
p1610
g15
tp1611
a(S'can you turn up the tunez'
p1612
g15
tp1613
a(S'please could you open gmail'
p1614
g15
tp1615
a(S'check google calendar on friday'
p1616
g15
tp1617
a(S"get this week's temperature"
p1618
g15
tp1619
a(S'can you check my inbox'
p1620
g15
tp1621
a(S'is it cold today'
p1622
g15
tp1623
a(S'please spotify start'
p1624
g15
tp1625
a(S"what's today's weather"
p1626
g15
tp1627
a(S'what do i have on next'
p1628
g15
tp1629
a(S'can you turn up the volume please'
p1630
g15
tp1631
a(S'can you turn up the tune'
p1632
g15
tp1633
a(S'shutdown the computer'
p1634
g15
tp1635
a(S"what're not the news"
p1636
g15
tp1637
a(S'please get the news'
p1638
g75
tp1639
a(S'turn up the tunez'
p1640
g15
tp1641
a(S'check my inbox'
p1642
g15
tp1643
a(S"today's news feed"
p1644
g75
tp1645
a(S'any events on saturday'
p1646
g15
tp1647
a(S'what is in inbox please'
p1648
g15
tp1649
a(S'could you open inbox'
p1650
g15
tp1651
a(S'please retrieve the current time'
p1652
g15
tp1653
a(g25
g15
tp1654
a(S"don't i have anything to do on this day"
p1655
g15
tp1656
a(S"don't i have anything on monday"
p1657
g15
tp1658
a(S'will you open my mail please'
p1659
g15
tp1660
a(S'can you turn up the volume'
p1661
g15
tp1662
a(S'what is the news'
p1663
g75
tp1664
a(S"what's if it's foggy this week"
p1665
g15
tp1666
a(S"not today's current news"
p1667
g15
tp1668
a(S'what events do i have on tomorrow'
p1669
g15
tp1670
a(S"get today's forecast"
p1671
g15
tp1672
a(S'give me intel'
p1673
g75
tp1674
a(g25
g15
tp1675
a(S"don't find the current events"
p1676
g15
tp1677
a(g25
g15
tp1678
a(S'exit'
p1679
g15
tp1680
a(S"what's in my inbox please"
p1681
g15
tp1682
a(S"get this week's forecast"
p1683
g15
tp1684
a(S'am i free on monday'
p1685
g15
tp1686
a(S"not today's current events"
p1687
g15
tp1688
a(S'that should not call the function get news'
p1689
g15
tp1690
a(S"don't find newsfeed"
p1691
g15
tp1692
a(S'would you open gmail'
p1693
g15
tp1694
a(S'what do i have to do on tomorrow'
p1695
g15
tp1696
a(S'what do i have to do on next'
p1697
g15
tp1698
a(g25
g15
tp1699
a(S'what time is it'
p1700
g15
tp1701
a(S'can you please close active window'
p1702
g15
tp1703
a(S'will you check new gmail please'
p1704
g15
tp1705
a(S'please turn my computer off'
p1706
g15
tp1707
a(S"what's the forecast today"
p1708
g15
tp1709
a(S'turn up the volume'
p1710
g15
tp1711
a(S'do i have to do anything next'
p1712
g15
tp1713
a(S'can you check gmail please'
p1714
g15
tp1715
a(g25
g15
tp1716
a(S'can you turn yourself off please'
p1717
g15
tp1718
a(S"what's new in my mail"
p1719
g15
tp1720
a(S'louder please'
p1721
g15
tp1722
a(S'what is on my calendar for this month'
p1723
g15
tp1724
a(S'read the clock please'
p1725
g15
tp1726
a(S'check what time it is'
p1727
g15
tp1728
a(S'check the clock right now please'
p1729
g15
tp1730
a(S'what is newsfeed'
p1731
g75
tp1732
a(S'anything new in my gmail'
p1733
g15
tp1734
a(S'what do i have on tuesday'
p1735
g15
tp1736
a(S'do i have anything on thursday'
p1737
g15
tp1738
a(S'get clock'
p1739
g15
tp1740
a(S"what aren't the live news feed"
p1741
g15
tp1742
a(S"how's the temperature"
p1743
g15
tp1744
a(S'do i have any events'
p1745
g15
tp1746
a(S'time please'
p1747
g15
tp1748
a(S"aren't there any events on today"
p1749
g15
tp1750
a(S"what's if it's cloudy this week"
p1751
g15
tp1752
a(S'please pause the song'
p1753
g15
tp1754
a(S'time'
p1755
g15
tp1756
a(S'is there anything to do on tuesday'
p1757
g15
tp1758
a(S'what do i have to do'
p1759
g15
tp1760
a(S'please play spotify '
p1761
g15
tp1762
a(S"don't i have any events on monday"
p1763
g15
tp1764
a(S'exit please'
p1765
g15
tp1766
a(S"what aren't the current events"
p1767
g15
tp1768
a(S"aren't there any events on thursday"
p1769
g15
tp1770
a(S"don't i have anything on friday"
p1771
g15
tp1772
a(S'please what is new in new mail'
p1773
g15
tp1774
a(S'is there anything to do on'
p1775
g15
tp1776
a(S"aren't there any events in a month"
p1777
g15
tp1778
a(S'not news'
p1779
g15
tp1780
a(S'do i have anything to do on tuesday'
p1781
g15
tp1782
a(S'am i free on friday'
p1783
g15
tp1784
a(S'check my mail please'
p1785
g15
tp1786
a(S"what's not the live news"
p1787
g15
tp1788
a(S'tell me news feed'
p1789
g75
tp1790
a(S'spotify pause please'
p1791
g15
tp1792
a(S'can you lock my computer please'
p1793
g15
tp1794
a(S'please turn it up'
p1795
g15
tp1796
a(S"what're not the live news feed"
p1797
g15
tp1798
a(S'current events'
p1799
g75
tp1800
a(S'shutdown please'
p1801
g15
tp1802
a(S'live newsfeed today'
p1803
g75
tp1804
a(S'shut down my computer please'
p1805
g15
tp1806
a(S'see ya'
p1807
g15
tp1808
a(S'what is new in new mail'
p1809
g15
tp1810
a(S'song stop'
p1811
g15
tp1812
a(S'please will you open my gmail'
p1813
g15
tp1814
a(S"what're not the current news"
p1815
g15
tp1816
a(S'go back to the last song '
p1817
g15
tp1818
a(S'spotify pause please'
p1819
g15
tp1820
a(S"don't get live news"
p1821
g15
tp1822
a(S"what aren't the news"
p1823
g15
tp1824
a(S'what do i have to do on wednesday'
p1825
g15
tp1826
a(S'start browsing please'
p1827
g15
tp1828
a(S'dont find the latest headlines'
p1829
g15
tp1830
a(S'can you turn up the sound'
p1831
g15
tp1832
a(S'get current weather'
p1833
g15
tp1834
a(S"what're the news feed"
p1835
g75
tp1836
a(S"get if it's freezing today"
p1837
g15
tp1838
a(S'can you please kill the active window'
p1839
g15
tp1840
a(S'make the sound quieter'
p1841
g15
tp1842
a(g25
g15
tp1843
a(S'what is headlines'
p1844
g75
tp1845
a(S"what's new in gmail"
p1846
g15
tp1847
a(S'tell me headlines'
p1848
g75
tp1849
a(S'give me intel on current events'
p1850
g75
tp1851
a(S'not current events please'
p1852
g15
tp1853
a(S'what is in gmail please'
p1854
g15
tp1855
a(S"please what's in new gmail"
p1856
g15
tp1857
a(S'brief me'
p1858
g75
tp1859
a(S'what is on my calendar for monday'
p1860
g15
tp1861
a(S"what're not the news feed"
p1862
g15
tp1863
a(S'can you please shutdown my computer'
p1864
g15
tp1865
a(g25
g15
tp1866
a(S'are there any events on monday'
p1867
g15
tp1868
a(S'please get me the clock'
p1869
g15
tp1870
a(S'can you kill the current window'
p1871
g15
tp1872
a(S"don't i have to do anything on monday"
p1873
g15
tp1874
a(S'alice go ahead please'
p1875
g15
tp1876
a(S"what's today's forecast"
p1877
g15
tp1878
a(S"today's live news feed"
p1879
g75
tp1880
a(S"what's the live newsfeed"
p1881
g75
tp1882
a(S'can you shut off'
p1883
g15
tp1884
a(S'kill the current window'
p1885
g15
tp1886
a(S'check my calendar for tomorrow'
p1887
g15
tp1888
a(S'what is new in my inbox'
p1889
g15
tp1890
a(S'shutdown'
p1891
g15
tp1892
a(S'open dot org'
p1893
g15
tp1894
a(S'go to dot ee dee you'
p1895
g15
tp1896
a(S'do i have anything to do next'
p1897
g15
tp1898
a(S"what isn't live news feed"
p1899
g15
tp1900
a(S'turn up the sound please'
p1901
g15
tp1902
a(S'check my calendar for monday'
p1903
g15
tp1904
a(S'open a browser please'
p1905
g15
tp1906
a(S'please what is new in my gmail'
p1907
g15
tp1908
a(S'any events on tuesday'
p1909
g15
tp1910
a(S'search google please for'
p1911
g15
tp1912
a(S'news never please'
p1913
g15
tp1914
a(S'anything new in my inbox'
p1915
g15
tp1916
a(S'what is in gmail'
p1917
g15
tp1918
a(S"today's news"
p1919
g75
tp1920
a(S'check calendar on today'
p1921
g15
tp1922
a(S'check my calendar on next'
p1923
g15
tp1924
a(S'are there any events on next'
p1925
g15
tp1926
a(S'am i free on'
p1927
g15
tp1928
a(S'please would you check new gmail'
p1929
g15
tp1930
a(S'am i free for tomorrow'
p1931
g15
tp1932
a(S'current forecast'
p1933
g15
tp1934
a(S'please give me current events'
p1935
g75
tp1936
a(S'check google calendar for thursday'
p1937
g15
tp1938
a(S'do i have anything on'
p1939
g15
tp1940
a(S'what is new in my mail'
p1941
g15
tp1942
a(S'is there anything to do on next'
p1943
g15
tp1944
a(S'search for please'
p1945
g15
tp1946
a(S'check calendar on friday'
p1947
g15
tp1948
a(S'can you shut off my computer'
p1949
g15
tp1950
a(S"don't i have anything to do on next"
p1951
g15
tp1952
a(S"don't get the news"
p1953
g15
tp1954
a(S'go to dot net'
p1955
g15
tp1956
a(S'can you check new mail'
p1957
g15
tp1958
a(S"don't i have to do anything tomorrow"
p1959
g15
tp1960
a(S'is it rainy today'
p1961
g15
tp1962
a(S"what's the live news feed"
p1963
g75
tp1964
a(S"please what's new in my inbox"
p1965
g15
tp1966
a(S'can you not get the latest headlines'
p1967
g15
tp1968
a(S'please spotify pause'
p1969
g15
tp1970
a(S'make the volume 0'
p1971
g15
tp1972
a(S'would you open inbox'
p1973
g15
tp1974
a(S'could you open my inbox'
p1975
g15
tp1976
a(S'volume up'
p1977
g15
tp1978
a(S'open'
p1979
g15
tp1980
a(S'please shut down'
p1981
g15
tp1982
a(S"not today's news"
p1983
g15
tp1984
a(S'not the news'
p1985
g15
tp1986
a(S"don't give me intel on current events"
p1987
g15
tp1988
a(S'check calendar for this day'
p1989
g15
tp1990
a(S'am i free for wednesday'
p1991
g15
tp1992
a(S'open my gmail please'
p1993
g15
tp1994
a(S"don't get news"
p1995
g15
tp1996
a(S"don't i have anything on sunday"
p1997
g15
tp1998
a(S'get the information'
p1999
g75
tp2000
a(S'am i free for a month'
p2001
g15
tp2002
a(S"don't i have to do anything"
p2003
g15
tp2004
a(S'get live news'
p2005
g75
tp2006
a(S'any gmail'
p2007
g15
tp2008
a(S'anything in inbox'
p2009
g15
tp2010
a(S"don't get the current events"
p2011
g15
tp2012
a(S'open dot com'
p2013
g15
tp2014
a(g25
g15
tp2015
a(S'turn up the the beat'
p2016
g15
tp2017
a(S'check events on'
p2018
g15
tp2019
a(S'turn off the computer please'
p2020
g15
tp2021
a(S'will you check new mail please'
p2022
g15
tp2023
a(S'please volume higher'
p2024
g15
tp2025
a(S"don't i have any events in a week"
p2026
g15
tp2027
a(S'get the time please'
p2028
g15
tp2029
a(S'train a classifier to try to predict the category of a post'
p2030
g15
tp2031
a(S"don't find live newsfeed"
p2032
g15
tp2033
a(S'can you check new gmail please'
p2034
g15
tp2035
a(S'can you close the current window'
p2036
g15
tp2037
a(S'make the sound higher'
p2038
g15
tp2039
a(S'do i have to do anything in a month'
p2040
g15
tp2041
a(S"get if it's rainy this week"
p2042
g15
tp2043
a(S"aren't there any events in a week"
p2044
g15
tp2045
a(S'what is in mail'
p2046
g15
tp2047
a(S'can you turn yourself off'
p2048
g15
tp2049
a(S'please google search'
p2050
g15
tp2051
a(S'dont give me information of todays news'
p2052
g15
tp2053
a(S'get forecast'
p2054
g15
tp2055
a(S'check my calendar for this month'
p2056
g15
tp2057
a(S'headlines today'
p2058
g75
tp2059
a(S"not today's newsfeed"
p2060
g15
tp2061
a(S"don't i have any events on tuesday"
p2062
g15
tp2063
a(S'find newsfeed'
p2064
g75
tp2065
a(S'check calendar on saturday'
p2066
g15
tp2067
a(S"please what's new in gmail"
p2068
g15
tp2069
a(S"what's not in live news feed"
p2070
g15
tp2071
a(S'news now please'
p2072
g75
tp2073
a(S'a backbone dictates above my grief'
p2074
g15
tp2075
a(S'can you kill the window'
p2076
g15
tp2077
a(S'what is on my calendar for saturday'
p2078
g15
tp2079
a(S'what events are on tuesday'
p2080
g15
tp2081
a(S"what's not the current events"
p2082
g15
tp2083
a(S"what's in gmail"
p2084
g15
tp2085
a(S'check my calendar on today'
p2086
g15
tp2087
a(S'please will you check mail'
p2088
g15
tp2089
a(S'close current program'
p2090
g15
tp2091
a(S'can you check inbox'
p2092
g15
tp2093
a(S"don't i have anything to do in a month"
p2094
g15
tp2095
a(S'find the news'
p2096
g75
tp2097
a(S"don't i have anything to do on monday"
p2098
g15
tp2099
a(S"what aren't the latest events "
p2100
g15
tp2101
a(S"don't i have anything to do on friday"
p2102
g15
tp2103
a(S"don't i have to do anything on friday"
p2104
g15
tp2105
a(S'please give me the news'
p2106
g75
tp2107
a(S'check events for tomorrow'
p2108
g15
tp2109
a(S'live news today'
p2110
g75
tp2111
a(S'open dot gov'
p2112
g15
tp2113
a(S'do i have anything to do in a week'
p2114
g15
tp2115
a(S'lock'
p2116
g15
tp2117
a(S"don't i have to do anything today"
p2118
g15
tp2119
a(S'tell me live news feed'
p2120
g75
tp2121
a(S"don't find current news"
p2122
g15
tp2123
a(S"don't give me the news"
p2124
g15
tp2125
a(S'set the volume to zero'
p2126
g15
tp2127
a(S'not live news feed'
p2128
g15
tp2129
a(S'what do i have on tomorrow'
p2130
g15
tp2131
a(S'do i have to do anything on friday'
p2132
g15
tp2133
a(S"what's new in my inbox"
p2134
g15
tp2135
a(S"what aren't the news feed"
p2136
g15
tp2137
a(S"don't i have any events on saturday"
p2138
g15
tp2139
a(S'is there anything i have to do in a month'
p2140
g15
tp2141
a(S'can you please shut down my computer'
p2142
g15
tp2143
a(S"what aren't the newsfeed"
p2144
g15
tp2145
a(S'please spotify go '
p2146
g15
tp2147
a(S"don't get me the news todays"
p2148
g15
tp2149
a(S'check the current time'
p2150
g15
tp2151
a(S"please don't get the current events"
p2152
g15
tp2153
a(S'spotify go to the last song'
p2154
g15
tp2155
a(S'lock my computer please'
p2156
g15
tp2157
a(S'check mail'
p2158
g15
tp2159
a(S'spotify play the song before'
p2160
g15
tp2161
a(S'can you turn the sound down'
p2162
g15
tp2163
a(S'am i free on saturday'
p2164
g15
tp2165
a(S"what're the news"
p2166
g75
tp2167
a(S'please open mail'
p2168
g15
tp2169
a(S'could you check new mail please'
p2170
g15
tp2171
a(S'stop'
p2172
g15
tp2173
a(S'news'
p2174
g75
tp2175
a(S'open a browser'
p2176
g15
tp2177
a(S'retrieve the current time'
p2178
g15
tp2179
a(S'check calendar for monday'
p2180
g15
tp2181
a(S'please last song'
p2182
g15
tp2183
a(S'what is live newsfeed'
p2184
g75
tp2185
a(S'please can you check my mail'
p2186
g15
tp2187
a(S'check google calendar for this day'
p2188
g15
tp2189
a(S'what is live news'
p2190
g75
tp2191
a(S"what's in new mail"
p2192
g15
tp2193
a(S'turn up the sound'
p2194
g15
tp2195
a(S'kill the active program'
p2196
g15
tp2197
a(S'dont find current events'
p2198
g15
tp2199
a(S'shut the fuck up'
p2200
g15
tp2201
a(S'check inbox'
p2202
g15
tp2203
a(S'will you open my gmail please'
p2204
g15
tp2205
a(S"get if it's foggy this week"
p2206
g15
tp2207
a(S'would you check my gmail'
p2208
g15
tp2209
a(S'check events on this week'
p2210
g15
tp2211
a(S'please read your watch'
p2212
g15
tp2213
a(S'please spotify play previous song'
p2214
g15
tp2215
a(S'close the current window'
p2216
g15
tp2217
a(S"don't give me the current events"
p2218
g15
tp2219
a(S"what's if it's cold this week"
p2220
g15
tp2221
a(S'please stop song'
p2222
g15
tp2223
a(S"aren't there any events on tomorrow"
p2224
g15
tp2225
a(S'what events are'
p2226
g15
tp2227
a(S'please read time'
p2228
g15
tp2229
a(S"if it's rainy this week"
p2230
g15
tp2231
a(S'do i have any events on this day'
p2232
g15
tp2233
a(S'how long can this data set get'
p2234
g15
tp2235
a(S'intelligence report'
p2236
g75
tp2237
a(S'check my calendar for saturday'
p2238
g15
tp2239
a(S'spotify next song '
p2240
g15
tp2241
a(S"please don'tgive me the current events please"
p2242
g15
tp2243
a(S'what events do i have on tuesday'
p2244
g15
tp2245
a(S'is there anything i have to do on friday'
p2246
g15
tp2247
a(S'what are the headlines'
p2248
g75
tp2249
a(S'will it hail this week'
p2250
g15
tp2251
a(S'what do i have in a week'
p2252
g15
tp2253
a(S'is there anything to do in a week'
p2254
g15
tp2255
a(S'start default browser please'
p2256
g15
tp2257
a(S'would you check inbox please'
p2258
g15
tp2259
a(S'please could you check inbox'
p2260
g15
tp2261
a(S'read your watch please'
p2262
g15
tp2263
a(S'what is in new mail'
p2264
g15
tp2265
a(S'lock my computer'
p2266
g15
tp2267
a(S'please would you open my inbox'
p2268
g15
tp2269
a(S'please what is in new mail'
p2270
g15
tp2271
a(S"please don't find out the latest headlines"
p2272
g15
tp2273
a(S"don't i have to do anything on next"
p2274
g15
tp2275
a(S'please would you check mail'
p2276
g15
tp2277
a(S"what isn't newsfeed"
p2278
g15
tp2279
a(S'please can you turn the volume higher'
p2280
g15
tp2281
a(S"aren't there any events on tuesday"
p2282
g15
tp2283
a(S'please go to dot com'
p2284
g15
tp2285
a(S'will you check new gmail'
p2286
g15
tp2287
a(S"please what's in mail"
p2288
g15
tp2289
a(S'open browser'
p2290
g15
tp2291
a(S'what is new in new mail please'
p2292
g15
tp2293
a(S'can you turn the volume higher please'
p2294
g15
tp2295
a(S'are there any events in a week'
p2296
g15
tp2297
a(S"what's in my mail please"
p2298
g15
tp2299
a(S'lower the volume'
p2300
g15
tp2301
a(S'will you not get the headlines'
p2302
g15
tp2303
a(S'what is on my calendar for this week'
p2304
g15
tp2305
a(S"aren't there any events on monday"
p2306
g15
tp2307
a(S'lock computer'
p2308
g15
tp2309
a(S"today's forecast"
p2310
g15
tp2311
a(S"don't i have any events on today"
p2312
g15
tp2313
a(S'start a default browser please'
p2314
g15
tp2315
a(S'check my calendar on thursday'
p2316
g15
tp2317
a(S'would you open my inbox'
p2318
g15
tp2319
a(S'what is new in my gmail please'
p2320
g15
tp2321
a(S'can you please close current window'
p2322
g15
tp2323
a(S'dont give me the news'
p2324
g15
tp2325
a(S'can you check my inbox please'
p2326
g15
tp2327
a(S'will you not get the news for me'
p2328
g15
tp2329
a(S"what isn't current news"
p2330
g15
tp2331
a(S'turn it up please'
p2332
g15
tp2333
a(S'will it rain today'
p2334
g15
tp2335
a(S'what do i have to do on'
p2336
g15
tp2337
a(S'spotify play previous song please'
p2338
g15
tp2339
a(S'please lock my computer'
p2340
g15
tp2341
a(S'can you check mail please'
p2342
g15
tp2343
a(S'please what is in new gmail'
p2344
g15
tp2345
a(S'can you please turn up the volume'
p2346
g15
tp2347
a(S'am i free for saturday'
p2348
g15
tp2349
a(S"what's in mail please"
p2350
g15
tp2351
a(S'emergency shutdown'
p2352
g15
tp2353
a(S"what's new in my inbox please"
p2354
g15
tp2355
a(S"aren't there any events on saturday"
p2356
g15
tp2357
a(S'would you open my gmail'
p2358
g15
tp2359
a(S'check my calendar for'
p2360
g15
tp2361
a(S'do i have anything'
p2362
g15
tp2363
a(S'do i have to do anything on thursday'
p2364
g15
tp2365
a(S"please don't give me the news"
p2366
g15
tp2367
a(S'get newsfeed'
p2368
g75
tp2369
a(S"please what's new in new mail"
p2370
g15
tp2371
a(S'what events are on wednesday'
p2372
g15
tp2373
a(S'headlines'
p2374
g75
tp2375
a(g25
g15
tp2376
a(S'could you open gmail please'
p2377
g15
tp2378
a(S"what's if it's hot today"
p2379
g15
tp2380
a(S"don't tell me news feed"
p2381
g15
tp2382
a(S'retrieve the time'
p2383
g15
tp2384
a(S"today's temperature"
p2385
g15
tp2386
a(S'find headlines'
p2387
g75
tp2388
a(S"what's the current events"
p2389
g75
tp2390
a(S'what events do i have on saturday'
p2391
g15
tp2392
a(S'open a default browser'
p2393
g15
tp2394
a(S"what's if it's freezing today"
p2395
g15
tp2396
a(S'weather'
p2397
g15
tp2398
a(S'please retrieve the time'
p2399
g15
tp2400
a(S'good night alice'
p2401
g15
tp2402
a(S'please get the news todays'
p2403
g15
tp2404
a(S'please would you check my inbox'
p2405
g15
tp2406
a(S'can you please kill active window'
p2407
g15
tp2408
a(S'turn off the computer'
p2409
g15
tp2410
a(S'is there anything to do in a month'
p2411
g15
tp2412
a(S'please search for'
p2413
g15
tp2414
a(S'google'
p2415
g15
tp2416
a(S'please lock the screen'
p2417
g15
tp2418
a(S"how's the weather today"
p2419
g15
tp2420
a(S'start default browser'
p2421
g15
tp2422
a(S'do i have anything to do on friday'
p2423
g15
tp2424
a(S'get news now'
p2425
g75
tp2426
a(S'get time please'
p2427
g15
tp2428
a(S'do i have any events on wednesday'
p2429
g15
tp2430
a(S"what's in inbox please"
p2431
g15
tp2432
a(S'spotify next'
p2433
g15
tp2434
a(S'is it hot today'
p2435
g15
tp2436
a(S"how's the temperature today"
p2437
g15
tp2438
a(S"today's weather"
p2439
g15
tp2440
a(S'do i have any events on tomorrow'
p2441
g15
tp2442
a(S'please will you check new mail'
p2443
g15
tp2444
a(S'at this point i am writting random stuff '
p2445
g15
tp2446
a(S'stop song please'
p2447
g15
tp2448
a(S'check calendar on sunday'
p2449
g15
tp2450
a(S"don't i have anything to do in a week"
p2451
g15
tp2452
a(S'do i have to do anything today'
p2453
g15
tp2454
a(S'current news'
p2455
g75
tp2456
a(S'byebye'
p2457
g15
tp2458
a(S'increase the volume'
p2459
g15
tp2460
a(S'get the clock please'
p2461
g15
tp2462
a(S'is there anything i have to do on tuesday'
p2463
g15
tp2464
a(S'would you check gmail'
p2465
g15
tp2466
a(S'please spotify start the song'
p2467
g15
tp2468
a(S"don't tell me news"
p2469
g15
tp2470
a(S"what's if it's hot this week"
p2471
g15
tp2472
a(S'check google calendar on thursday'
p2473
g15
tp2474
a(S'please can you turn up the volume'
p2475
g15
tp2476
a(S'check events on this day'
p2477
g15
tp2478
a(S'please will you open inbox'
p2479
g15
tp2480
a(S'open browser please'
p2481
g15
tp2482
a(S'check events for monday'
p2483
g15
tp2484
a(S'please will you check gmail'
p2485
g15
tp2486
a(S'will you open my mail'
p2487
g15
tp2488
a(S'do i have anything on this day'
p2489
g15
tp2490
a(S'please could you open inbox'
p2491
g15
tp2492
a(S'get the current events'
p2493
g75
tp2494
a(S"what's the temperature"
p2495
g15
tp2496
a(S"what's weather"
p2497
g15
tp2498
a(S'pause spotify please'
p2499
g15
tp2500
a(S'not news feed'
p2501
g15
tp2502
a(S'google for'
p2503
g15
tp2504
a(S'are there any events on'
p2505
g15
tp2506
a(S'is it raining today'
p2507
g15
tp2508
a(S'get the the latest headlines'
p2509
g75
tp2510
a(S"get if it's cloudy today"
p2511
g15
tp2512
a(S'can you please turn up the sound'
p2513
g15
tp2514
a(S'can you please turn off the computer'
p2515
g15
tp2516
a(S"if it's snowing today"
p2517
g15
tp2518
a(S'will you check inbox'
p2519
g15
tp2520
a(S'is there anything i have to do on monday'
p2521
g15
tp2522
a(S'would you check my inbox please'
p2523
g15
tp2524
a(S'check google calendar on next'
p2525
g15
tp2526
a(S'check inbox please'
p2527
g15
tp2528
a(S'check events for wednesday'
p2529
g15
tp2530
a(S"aren't there any events"
p2531
g15
tp2532
a(S"don't i have anything on this day"
p2533
g15
tp2534
a(S'is it cloudy this week'
p2535
g15
tp2536
a(S'give me the news please'
p2537
g75
tp2538
a(S"please what's in my inbox"
p2539
g15
tp2540
a(S'would you open my inbox please'
p2541
g15
tp2542
a(S'please pause spotify'
p2543
g15
tp2544
a(S'is there anything i have to do on today'
p2545
g15
tp2546
a(S"what's the the news"
p2547
g75
tp2548
a(S'could you open my gmail'
p2549
g15
tp2550
a(S'is there anything i have to do on'
p2551
g15
tp2552
a(S'please shut down the computer'
p2553
g15
tp2554
a(S'what events are on'
p2555
g15
tp2556
a(S'can you lock my computer please'
p2557
g15
tp2558
a(S'are there any events on tuesday'
p2559
g15
tp2560
a(S'check my calendar on monday'
p2561
g15
tp2562
a(S"don't i have anything to do on thursday"
p2563
g15
tp2564
a(S'check google calendar for this week'
p2565
g15
tp2566
a(S"get today's temperature"
p2567
g15
tp2568
a(S'current time'
p2569
g15
tp2570
a(S'check my calendar for thursday'
p2571
g15
tp2572
a(S"please what's in my mail"
p2573
g15
tp2574
a(S'can you shut down my computer'
p2575
g15
tp2576
a(S'check events on friday'
p2577
g15
tp2578
a(S'check my calendar on tomorrow'
p2579
g15
tp2580
a(S"what's this week's forecast"
p2581
g15
tp2582
a(S'what is new in inbox please'
p2583
g15
tp2584
a(S'will it snow this week'
p2585
g15
tp2586
a(S"don't i have any events on wednesday"
p2587
g15
tp2588
a(S"not today's headlines"
p2589
g15
tp2590
a(S'please open inbox'
p2591
g15
tp2592
a(S"this week's forecast"
p2593
g15
tp2594
a(S'what is new in gmail please'
p2595
g15
tp2596
a(S'pause the song please'
p2597
g15
tp2598
a(S"don't tell me live news"
p2599
g15
tp2600
a(S'how is the weather'
p2601
g15
tp2602
a(S'do i have any events on tuesday'
p2603
g15
tp2604
a(S'check events for tuesday'
p2605
g15
tp2606
a(S'what are the current events today'
p2607
g75
tp2608
a(g25
g15
tp2609
a(S"don't i have anything tomorrow"
p2610
g15
tp2611
a(S'what is the news today'
p2612
g75
tp2613
a(S'please will you open my mail'
p2614
g15
tp2615
a(S'check events for'
p2616
g15
tp2617
a(S'shut my computer down please'
p2618
g15
tp2619
a(S'check google calendar for tuesday'
p2620
g15
tp2621
a(S'what events do i have on today'
p2622
g15
tp2623
a(S'please could you open my gmail'
p2624
g15
tp2625
a(S'please would you check my mail'
p2626
g15
tp2627
a(S'will you check my inbox please'
p2628
g15
tp2629
a(S'current temperature'
p2630
g15
tp2631
a(S'please can you check new mail'
p2632
g15
tp2633
a(S'what is on my calendar for next'
p2634
g15
tp2635
a(S'can you please turn the sound down'
p2636
g15
tp2637
a(S'find live news'
p2638
g75
tp2639
a(S"don't i have any events on thursday"
p2640
g15
tp2641
a(S'what time is it currently'
p2642
g15
tp2643
a(S'check google calendar for'
p2644
g15
tp2645
a(S'any events in a month'
p2646
g15
tp2647
a(S"what're not the live newsfeed"
p2648
g15
tp2649
a(S'please shutdown the computer'
p2650
g15
tp2651
a(S'spotify stop'
p2652
g15
tp2653
a(S'please check your watch'
p2654
g15
tp2655
a(S'is there anything to do on sunday'
p2656
g15
tp2657
a(S'do not give me the current events'
p2658
g15
tp2659
a(S'please google'
p2660
g15
tp2661
a(S'check my calendar on'
p2662
g15
tp2663
a(S'what is in new mail please'
p2664
g15
tp2665
a(S'go to dot edu'
p2666
g15
tp2667
a(S'dont give me the current events'
p2668
g15
tp2669
a(S"don't gimme the news"
p2670
g15
tp2671
a(g25
g15
tp2672
a(S"what's if it's cloudy today"
p2673
g15
tp2674
a(S'check my calendar on tuesday'
p2675
g15
tp2676
a(S"don't get news now"
p2677
g15
tp2678
a(S'please could you check my inbox'
p2679
g15
tp2680
a(S'real not fake news'
p2681
g15
tp2682
a(S"don't i have to do anything on wednesday"
p2683
g15
tp2684
a(S"if it's snowing this week"
p2685
g15
tp2686
a(S'check google calendar on this day'
p2687
g15
tp2688
a(S"get if it's cold this week"
p2689
g15
tp2690
a(S'check events for saturday'
p2691
g15
tp2692
a(S"don't debrief me"
p2693
g15
tp2694
a(S"don't get newsfeed"
p2695
g15
tp2696
a(S'please kill this window'
p2697
g15
tp2698
a(S"not today's live news"
p2699
g15
tp2700
a(S'start spotify please'
p2701
g15
tp2702
a(S"don't brief me"
p2703
g15
tp2704
a(S'are there any events in a month'
p2705
g15
tp2706
a(S"don't i have anything on saturday"
p2707
g15
tp2708
a(S'get me the clock please'
p2709
g15
tp2710
a(S"what's new in gmail please"
p2711
g15
tp2712
a(S'open mail please'
p2713
g15
tp2714
a(S'check my calendar for friday'
p2715
g15
tp2716
a(S'anything new in gmail'
p2717
g15
tp2718
a(S'stop the song'
p2719
g15
tp2720
a(S'please check the current time'
p2721
g15
tp2722
a(S'spotify last please'
p2723
g15
tp2724
a(S'do i have any events on friday'
p2725
g15
tp2726
a(S'stop playing'
p2727
g15
tp2728
a(S'check what time it is please'
p2729
g15
tp2730
a(S'what is current news'
p2731
g75
tp2732
a(S'check events for thursday'
p2733
g15
tp2734
a(S'please sound higher'
p2735
g15
tp2736
a(S'please get time'
p2737
g15
tp2738
a(S"don't i have to do anything in a week"
p2739
g15
tp2740
a(S'what events are on sunday'
p2741
g15
tp2742
a(S'please what is new in my inbox'
p2743
g15
tp2744
a(S'could you check new gmail please'
p2745
g15
tp2746
a(S'please get clock'
p2747
g15
tp2748
a(S'please could you open mail'
p2749
g15
tp2750
a(S"aren't there any events on sunday"
p2751
g15
tp2752
a(S'check my calendar on sunday'
p2753
g15
tp2754
a(S'start the song'
p2755
g15
tp2756
a(S"don't tell me newsfeed"
p2757
g15
tp2758
a(S'spotify go back'
p2759
g15
tp2760
a(S'mute'
p2761
g15
tp2762
a(S'check the clock please'
p2763
g15
tp2764
a(S'what is new in gmail'
p2765
g15
tp2766
a(S'check your watch'
p2767
g15
tp2768
a(S'can you turn the tune down'
p2769
g15
tp2770
a(S'will you check mail please'
p2771
g15
tp2772
a(S'am i free on wednesday'
p2773
g15
tp2774
a(S'do i have anything to do on this day'
p2775
g15
tp2776
a(S'spotify play last song please'
p2777
g15
tp2778
a(S'anything in mail'
p2779
g15
tp2780
a(S'check gmail please'
p2781
g15
tp2782
a(S'google search for please'
p2783
g15
tp2784
a(S'can you get information on the current events'
p2785
g75
tp2786
a(S'check google calendar on monday'
p2787
g15
tp2788
a(S'please spotify play last song'
p2789
g15
tp2790
a(S'check my calendar on friday'
p2791
g15
tp2792
a(S'live news'
p2793
g75
tp2794
a(S'please shutdown my computer'
p2795
g15
tp2796
a(S'forecast'
p2797
g15
tp2798
a(S'am i free on tomorrow'
p2799
g15
tp2800
a(S'any events'
p2801
g15
tp2802
a(S'check google calendar for sunday'
p2803
g15
tp2804
a(S'get current time'
p2805
g15
tp2806
a(S'is it foggy today'
p2807
g15
tp2808
a(S'the news'
p2809
g75
tp2810
a(S'search google for please'
p2811
g15
tp2812
a(S'am i free in a month'
p2813
g15
tp2814
a(S'not todays headlines'
p2815
g15
tp2816
a(S'please check mail'
p2817
g15
tp2818
a(S'not headlines'
p2819
g15
tp2820
a(S"don't find headlines"
p2821
g15
tp2822
a(S'get the current time'
p2823
g15
tp2824
a(S'shut down the computer please'
p2825
g15
tp2826
a(S'open my inbox'
p2827
g15
tp2828
a(S'open my mail'
p2829
g15
tp2830
a(S'be quiet'
p2831
g15
tp2832
a(S'please pause song'
p2833
g15
tp2834
a(S"don't find current events"
p2835
g15
tp2836
a(g25
g15
tp2837
a(S'what are the latest events '
p2838
g75
tp2839
a(S'check my inbox please'
p2840
g15
tp2841
a(S'what do i have to do on tuesday'
p2842
g15
tp2843
a(S'dont read the current events to me'
p2844
g15
tp2845
a(S'check events on monday'
p2846
g15
tp2847
a(S'turn it down'
p2848
g15
tp2849
a(S'newsfeed'
p2850
g75
tp2851
a(S'can you kill this window'
p2852
g15
tp2853
a(S'please start browser'
p2854
g15
tp2855
a(S"what're the the news"
p2856
g75
tp2857
a(S'can you please kill the current window'
p2858
g15
tp2859
a(S'please open browser'
p2860
g15
tp2861
a(S'check new mail'
p2862
g15
tp2863
a(S"if it's foggy this week"
p2864
g15
tp2865
a(S"what's in my gmail"
p2866
g15
tp2867
a(g25
g15
tp2868
a(S'spotify go back to the last song '
p2869
g15
tp2870
a(S"don't get the the latest headlines"
p2871
g15
tp2872
a(S'tell me the news'
p2873
g75
tp2874
a(S'do i have anything to do today'
p2875
g15
tp2876
a(S"what's if it's snowing this week"
p2877
g15
tp2878
a(S'music down'
p2879
g15
tp2880
a(S'sweet dreams'
p2881
g15
tp2882
a(S'turn up the tune'
p2883
g15
tp2884
a(S'check my calendar for wednesday'
p2885
g15
tp2886
a(S'what is new in new gmail'
p2887
g15
tp2888
a(S'could you check my gmail'
p2889
g15
tp2890
a(S'alice'
p2891
g15
tp2892
a(S'will you check new mail'
p2893
g15
tp2894
a(S'open dot edu'
p2895
g15
tp2896
a(S"what's not in current news"
p2897
g15
tp2898
a(S'what events are on next'
p2899
g15
tp2900
a(S'can you turn off the computer'
p2901
g15
tp2902
a(S'what is in my gmail please'
p2903
g15
tp2904
a(S'check my gmail'
p2905
g15
tp2906
a(S"today's weather"
p2907
g15
tp2908
a(S'bye bye alice'
p2909
g15
tp2910
a(S"aren't there any events on wednesday"
p2911
g15
tp2912
a(S'do not give me information of todays news'
p2913
g15
tp2914
a(S'what events are in a week'
p2915
g15
tp2916
a(S"what aren't the live newsfeed"
p2917
g15
tp2918
a(S'can you check my gmail please'
p2919
g15
tp2920
a(S"if it's freezing today"
p2921
g15
tp2922
a(S'check calendar for sunday'
p2923
g15
tp2924
a(S'read time please'
p2925
g15
tp2926
a(S"what isn't in the news today"
p2927
g15
tp2928
a(S'find live news feed'
p2929
g75
tp2930
a(S'lock computer please'
p2931
g15
tp2932
a(S'any events on thursday'
p2933
g15
tp2934
a(S'will you open inbox please'
p2935
g15
tp2936
a(S"don't i have any events on this day"
p2937
g15
tp2938
a(S'please close the current window'
p2939
g15
tp2940
a(S"what's the current news"
p2941
g75
tp2942
a(S'will you get the current events for me'
p2943
g75
tp2944
a(S"don't i have any events on tomorrow"
p2945
g15
tp2946
a(S'check new mail please'
p2947
g15
tp2948
a(S'can you please shut up'
p2949
g15
tp2950
a(S'please kill active window'
p2951
g15
tp2952
a(S'please will you open my inbox'
p2953
g15
tp2954
a(S'please close the active window'
p2955
g15
tp2956
a(S'predict the outcome on a new document'
p2957
g15
tp2958
a(S'dont tell me the current events'
p2959
g15
tp2960
a(S'start browser'
p2961
g15
tp2962
a(S'can you turn off my computer'
p2963
g15
tp2964
a(S'check google calendar on month'
p2965
g15
tp2966
a(S'what do i have to do in a week'
p2967
g15
tp2968
a(S'please go to'
p2969
g15
tp2970
a(S'open default browser'
p2971
g15
tp2972
a(S'could you check mail please'
p2973
g15
tp2974
a(S"what's new in my gmail"
p2975
g15
tp2976
a(S'retrieve the current time please'
p2977
g15
tp2978
a(S'do i have anything tomorrow'
p2979
g15
tp2980
a(S'read the time please'
p2981
g15
tp2982
a(S'shut my computer down'
p2983
g15
tp2984
a(S'make the sound louder'
p2985
g15
tp2986
a(S'please be quiet'
p2987
g15
tp2988
a(S'can you check my mail'
p2989
g15
tp2990
a(S'check events for sunday'
p2991
g15
tp2992
a(S'extract the features using almost the same feature'
p2993
g15
tp2994
a(S"this week's forecast"
p2995
g15
tp2996
a(S"this week's weather"
p2997
g15
tp2998
a(S'check my mail'
p2999
g15
tp3000
a(S"what aren't the current events today"
p3001
g15
tp3002
a(S'get news'
p3003
g75
tp3004
a(S'please do not get teh current events'
p3005
g15
tp3006
a(S'will you get the news for me'
p3007
g75
tp3008
a(S'get current temperature'
p3009
g15
tp3010
a(S'any new mail'
p3011
g15
tp3012
a(S'next'
p3013
g15
tp3014
a(S'will it snow today'
p3015
g15
tp3016
a(S'go spotify please'
p3017
g15
tp3018
a(S'do not find the latest headlines'
p3019
g15
tp3020
a(S'check my calendar for next'
p3021
g15
tp3022
a(S'please kill current window'
p3023
g15
tp3024
a(S'please open my mail'
p3025
g15
tp3026
a(S"if it's rainy today"
p3027
g15
tp3028
a(S'is there anything i have to do on this day'
p3029
g15
tp3030
a(S'will it hail today'
p3031
g15
tp3032
a(S"i think i didn't answer an earlier question"
p3033
g15
tp3034
a(S'gather information on'
p3035
g75
tp3036
a(S'could you open inbox please'
p3037
g15
tp3038
a(S'do not find out whats going on'
p3039
g15
tp3040
a(S"this week's temperature"
p3041
g15
tp3042
a(S'please would you check my gmail'
p3043
g15
tp3044
a(S"get if it's cloudy this week"
p3045
g15
tp3046
a(S'could you open my mail please'
p3047
g15
tp3048
a(S"get if it's foggy today"
p3049
g15
tp3050
a(S"what're the live news feed"
p3051
g75
tp3052
a(S'check google calendar on tomorrow'
p3053
g15
tp3054
a(S'tell me current events'
p3055
g75
tp3056
a(S'check calendar on monday'
p3057
g15
tp3058
a(S'check google calendar for today'
p3059
g15
tp3060
a(S'do not read the news to me'
p3061
g15
tp3062
a(S'is there anything i have to do on tomorrow'
p3063
g15
tp3064
a(S"today's current events"
p3065
g75
tp3066
a(S"what're the headlines"
p3067
g75
tp3068
a(S"what's the forecast"
p3069
g15
tp3070
a(S'are there any events on tomorrow'
p3071
g15
tp3072
a(S'can you please turn my computer off'
p3073
g15
tp3074
a(S'please start'
p3075
g15
tp3076
a(S'open dot ee dee you'
p3077
g15
tp3078
a(S'news feed today'
p3079
g75
tp3080
a(S'spotify skip ahead'
p3081
g15
tp3082
a(S'check calendar'
p3083
g15
tp3084
a(S'please check new mail'
p3085
g15
tp3086
a(S'any mail'
p3087
g15
tp3088
a(S'do i have anything on wednesday'
p3089
g15
tp3090
a(S"aren't there any events on friday"
p3091
g15
tp3092
a(S"don't i have anything in a week"
p3093
g15
tp3094
a(S'sweet dreams alice'
p3095
g15
tp3096
a(S'do i have to do anything on sunday'
p3097
g15
tp3098
a(S"please don't get the news"
p3099
g15
tp3100
a(S"what isn't current events"
p3101
g15
tp3102
a(S'check calendar on'
p3103
g15
tp3104
a(S'what is on my calendar for this day'
p3105
g15
tp3106
a(S'please start a default browser'
p3107
g15
tp3108
a(S"get if it's hot today"
p3109
g15
tp3110
a(S'please will you check my mail'
p3111
g15
tp3112
a(S"what's if it's cold today"
p3113
g15
tp3114
a(S'check events on tomorrow'
p3115
g15
tp3116
a(S"please what's new in new gmail"
p3117
g15
tp3118
a(g25
g15
tp3119
a(S'please could you check new mail'
p3120
g15
tp3121
a(S'next song'
p3122
g15
tp3123
a(S'turn up the tunez please'
p3124
g15
tp3125
a(S'do i have anything to do on saturday'
p3126
g15
tp3127
a(S'will you open my gmail'
p3128
g15
tp3129
a(S"if it's cloudy today"
p3130
g15
tp3131
a(S"don't i have anything to do on sunday"
p3132
g15
tp3133
a(S'is there anything to do on this day'
p3134
g15
tp3135
a(S'play song'
p3136
g15
tp3137
a(g25
g15
tp3138
a(S"don't get headlines"
p3139
g15
tp3140
a(S'what is on my calendar for tomorrow'
p3141
g15
tp3142
a(S'not get the current events'
p3143
g15
tp3144
a(S"what's not the live news feed"
p3145
g15
tp3146
a(S'are there any events on saturday'
p3147
g15
tp3148
a(S'check events for friday'
p3149
g15
tp3150
a(S"don't i have any events on"
p3151
g15
tp3152
a(S'do i have anything to do on thursday'
p3153
g15
tp3154
a(S'can you send me to the lock screen'
p3155
g15
tp3156
a(S'google search for'
p3157
g15
tp3158
a(S'kill the music'
p3159
g15
tp3160
a(S'go ahead spotify please'
p3161
g15
tp3162
a(S'check calendar for wednesday'
p3163
g15
tp3164
a(S'how is the forecast'
p3165
g15
tp3166
a(S'what events are on today'
p3167
g15
tp3168
a(S'check events on month'
p3169
g15
tp3170
a(S'please what is new in gmail'
p3171
g15
tp3172
a(S"don't i have anything to do on wednesday"
p3173
g15
tp3174
a(S'am i free for sunday'
p3175
g15
tp3176
a(S'can you send me to the lock screen please'
p3177
g15
tp3178
a(S'start a default browser'
p3179
g15
tp3180
a(S"get if it's freezing this week"
p3181
g15
tp3182
a(S'spotify pause'
p3183
g15
tp3184
a(S'would you check gmail please'
p3185
g15
tp3186
a(S'any events on sunday'
p3187
g15
tp3188
a(S"what's new in my mail please"
p3189
g15
tp3190
a(S'tell me live newsfeed'
p3191
g75
tp3192
a(S'shut off my computer please'
p3193
g15
tp3194
a(S'could you open gmail'
p3195
g15
tp3196
a(S'dont gather information on todays current events'
p3197
g15
tp3198
a(S'check events on'
p3199
g15
tp3200
a(S'check the current time please'
p3201
g15
tp3202
a(S'please check gmail'
p3203
g15
tp3204
a(S'check my calendar on wednesday'
p3205
g15
tp3206
a(S"what's the live news"
p3207
g75
tp3208
a(S"don't i have any events"
p3209
g15
tp3210
a(S"don't find news"
p3211
g15
tp3212
a(S'what is new in my gmail'
p3213
g15
tp3214
a(S'can you open a browser please'
p3215
g15
tp3216
a(S'please google search for'
p3217
g15
tp3218
a(S"what's new in mail"
p3219
g15
tp3220
a(S'can you close the active window'
p3221
g15
tp3222
a(S'turn off the sound please'
p3223
g15
tp3224
a(S'what is new in mail please'
p3225
g15
tp3226
a(S'retrieve what time it is please'
p3227
g15
tp3228
a(S'please open gmail'
p3229
g15
tp3230
a(S"what's not in news feed"
p3231
g15
tp3232
a(S"don't i have anything to do tomorrow"
p3233
g15
tp3234
a(S'is there anything to do tomorrow'
p3235
g15
tp3236
a(S'is there anything to do on monday'
p3237
g15
tp3238
a(S'make the volume lower'
p3239
g15
tp3240
a(S'can you make it louder please'
p3241
g15
tp3242
a(S"don't find the news"
p3243
g15
tp3244
a(S'start'
p3245
g15
tp3246
a(S'what is on my calendar for'
p3247
g15
tp3248
a(S'check my calendar for this day'
p3249
g15
tp3250
a(S'what events are going on right now'
p3251
g15
tp3252
a(S'read your watch'
p3253
g15
tp3254
a(S'please close the window'
p3255
g15
tp3256
a(S'turn it down'
p3257
g15
tp3258
a(S'the tale pretends'
p3259
g15
tp3260
a(S'will you get the current events'
p3261
g75
tp3262
a(S'news feed'
p3263
g75
tp3264
a(S'what events do i have on next'
p3265
g15
tp3266
a(S'check calendar for today'
p3267
g15
tp3268
a(S"what's temperature"
p3269
g15
tp3270
a(S'can you please close the current window'
p3271
g15
tp3272
a(S'turn the tune down'
p3273
g15
tp3274
a(S"don't tell me current news"
p3275
g15
tp3276
a(S'do i have anything on monday'
p3277
g15
tp3278
a(S'what are the the news'
p3279
g75
tp3280
a(S"what're the live newsfeed"
p3281
g75
tp3282
a(S'is there anything i have to do'
p3283
g15
tp3284
a(S"don't i have to do anything on this day"
p3285
g15
tp3286
a(S'shut down my computer'
p3287
g15
tp3288
a(S'do i have anything on tuesday'
p3289
g15
tp3290
a(S"don't i have to do anything on this day"
p3291
g15
tp3292
a(S'turn up the sound'
p3293
g15
tp3294
a(S'am i free for'
p3295
g15
tp3296
a(S'what is on my calendar for thursday'
p3297
g15
tp3298
a(S"what isn't the news"
p3299
g15
tp3300
a(S'turn down the sound'
p3301
g15
tp3302
a(S'shutdown the computer please'
p3303
g15
tp3304
a(S"what's in my mail"
p3305
g15
tp3306
a(S"what's in gmail please"
p3307
g15
tp3308
a(S'would you open mail please'
p3309
g15
tp3310
a(S'please go back'
p3311
g15
tp3312
a(S'retrieve what time it is'
p3313
g15
tp3314
a(S"what's the forecast this week"
p3315
g15
tp3316
a(S'google search'
p3317
g15
tp3318
a(S'do i have any events on next'
p3319
g15
tp3320
a(S'am i free in a week'
p3321
g15
tp3322
a(S'please what is new in new gmail'
p3323
g15
tp3324
a(S'a decent problem gossips beside the shoulder'
p3325
g15
tp3326
a(S'send me to the lock screen please'
p3327
g15
tp3328
a(S'am i free for tuesday'
p3329
g15
tp3330
a(S"don't get current news"
p3331
g15
tp3332
a(S'are there any events on wednesday'
p3333
g15
tp3334
a(S'will you check my mail please'
p3335
g15
tp3336
a(S'go back please'
p3337
g15
tp3338
a(S'kill active window'
p3339
g15
tp3340
a(S"what aren't the the news"
p3341
g15
tp3342
a(S'pause please'
p3343
g15
tp3344
a(S'check calendar on wednesday'
p3345
g15
tp3346
a(S'not live news'
p3347
g15
tp3348
a(S'alex'
p3349
g15
tp3350
a(S'shut down'
p3351
g15
tp3352
a(S'can you please turn up the tunez'
p3353
g15
tp3354
a(S'stop the tunez'
p3355
g15
tp3356
a(S'spotify previous please'
p3357
g15
tp3358
a(S'is it cold this week'
p3359
g15
tp3360
a(S'please check the clock right now'
p3361
g15
tp3362
a(S'what is news'
p3363
g75
tp3364
a(S'am i free on tuesday'
p3365
g15
tp3366
a(S'please spotify last song'
p3367
g15
tp3368
a(S"get if it's raining today"
p3369
g15
tp3370
a(S"today's temperature"
p3371
g15
tp3372
a(S'spotify start please'
p3373
g15
tp3374
a(S'what is in mail please'
p3375
g15
tp3376
a(S'play the song before'
p3377
g15
tp3378
a(S'google search please for'
p3379
g15
tp3380
a(S'clock'
p3381
g15
tp3382
a(S'the news today'
p3383
g75
tp3384
a(S'what do i have on sunday'
p3385
g15
tp3386
a(S'decrease the volume'
p3387
g15
tp3388
a(S"don't find live news"
p3389
g15
tp3390
a(S'live news feed today'
p3391
g75
tp3392
a(S'good bye'
p3393
g15
tp3394
a(S'any events on wednesday'
p3395
g15
tp3396
a(S'could you check new gmail'
p3397
g15
tp3398
a(S'any events on next'
p3399
g15
tp3400
a(S'please search google'
p3401
g15
tp3402
a(S'check calendar for this day'
p3403
g15
tp3404
a(S"please what's in my gmail"
p3405
g15
tp3406
a(S'turn the sound down please'
p3407
g15
tp3408
a(S'close this window'
p3409
g15
tp3410
a(S'make the sound softer'
p3411
g15
tp3412
a(S'go to'
p3413
g15
tp3414
a(S'is it foggy this week'
p3415
g15
tp3416
a(S'see you'
p3417
g15
tp3418
a(S'find current news'
p3419
g75
tp3420
a(S'check events for this day'
p3421
g15
tp3422
a(S'what is new in my mail please'
p3423
g15
tp3424
a(S'please open my gmail'
p3425
g15
tp3426
a(S'please could you check my gmail'
p3427
g15
tp3428
a(S'turn it off'
p3429
g15
tp3430
a(S'can you please shut down'
p3431
g15
tp3432
a(S'please check my mail'
p3433
g15
tp3434
a(S'do i have anything in a month'
p3435
g15
tp3436
a(S"not today's live news feed"
p3437
g15
tp3438
a(S'what are the live news'
p3439
g75
tp3440
a(S"don't find live news feed"
p3441
g15
tp3442
a(S"don't i have to do anything on tuesday"
p3443
g15
tp3444
a(S'please will you check my inbox'
p3445
g15
tp3446
a(S'will you check gmail'
p3447
g15
tp3448
a(S'what events do i have on'
p3449
g15
tp3450
a(S'please will you open gmail'
p3451
g15
tp3452
a(S'check calendar for'
p3453
g15
tp3454
a(S"what isn't headlines"
p3455
g15
tp3456
a(S"don't i have to do anything"
p3457
g15
tp3458
a(S'what is news feed'
p3459
g75
tp3460
a(S'next spotify please'
p3461
g15
tp3462
a(S'dont give me news'
p3463
g15
tp3464
a(S'anything new in mail'
p3465
g15
tp3466
a(S"if it's hot this week"
p3467
g15
tp3468
a(S'can you not get the current events'
p3469
g15
tp3470
a(S'make the volume zero'
p3471
g15
tp3472
a(S"don't i have to do anything on saturday"
p3473
g15
tp3474
asS'classifier'
p3475
ccopy_reg
_reconstructor
p3476
(csklearn.pipeline
Pipeline
p3477
c__builtin__
object
p3478
Ntp3479
Rp3480
(dp3481
S'_sklearn_version'
p3482
S'0.18.1'
p3483
sS'steps'
p3484
(lp3485
(S'vect'
p3486
g3476
(csklearn.feature_extraction.text
CountVectorizer
p3487
g3478
Ntp3488
Rp3489
(dp3490
S'decode_error'
p3491
Vstrict
p3492
sS'lowercase'
p3493
I01
sS'stop_words'
p3494
NsS'vocabulary'
p3495
NsS'tokenizer'
p3496
NsS'encoding'
p3497
Vutf-8
p3498
sS'token_pattern'
p3499
V(?u)\u005cb\u005cw\u005cw+\u005cb
p3500
sS'input'
p3501
Vcontent
p3502
sS'analyzer'
p3503
Vword
p3504
sS'vocabulary_'
p3505
(dp3506
Vraining
p3507
cnumpy.core.multiarray
scalar
p3508
(cnumpy
dtype
p3509
(S'i8'
p3510
I0
I1
tp3511
Rp3512
(I3
S'<'
p3513
NNNI-1
I-1
I0
tp3514
bS'\xa8\x00\x00\x00\x00\x00\x00\x00'
p3515
tp3516
Rp3517
sVtodays
p3518
g3508
(g3512
S'\xdb\x00\x00\x00\x00\x00\x00\x00'
p3519
tp3520
Rp3521
sVmute
p3522
g3508
(g3512
S'\x83\x00\x00\x00\x00\x00\x00\x00'
p3523
tp3524
Rp3525
sVskip
p3526
g3508
(g3512
S'\xbf\x00\x00\x00\x00\x00\x00\x00'
p3527
tp3528
Rp3529
sVrandom
p3530
g3508
(g3512
S'\xaa\x00\x00\x00\x00\x00\x00\x00'
p3531
tp3532
Rp3533
sVmonth
p3534
g3508
(g3512
S'\x81\x00\x00\x00\x00\x00\x00\x00'
p3535
tp3536
Rp3537
sVnot
p3538
g3508
(g3512
S'\x8d\x00\x00\x00\x00\x00\x00\x00'
p3539
tp3540
Rp3541
sVsofter
p3542
g3508
(g3512
S'\xc2\x00\x00\x00\x00\x00\x00\x00'
p3543
tp3544
Rp3545
sVkill
p3546
g3508
(g3512
S'r\x00\x00\x00\x00\x00\x00\x00'
p3547
tp3548
Rp3549
sVedu
p3550
g3508
(g3512
S'>\x00\x00\x00\x00\x00\x00\x00'
p3551
tp3552
Rp3553
sVgo
p3554
g3508
(g3512
S'V\x00\x00\x00\x00\x00\x00\x00'
p3555
tp3556
Rp3557
sVheadlines
p3558
g3508
(g3512
S'_\x00\x00\x00\x00\x00\x00\x00'
p3559
tp3560
Rp3561
sVfind
p3562
g3508
(g3512
S'H\x00\x00\x00\x00\x00\x00\x00'
p3563
tp3564
Rp3565
sVprevious
p3566
g3508
(g3512
S'\x9f\x00\x00\x00\x00\x00\x00\x00'
p3567
tp3568
Rp3569
sVspotify
p3570
g3508
(g3512
S'\xc5\x00\x00\x00\x00\x00\x00\x00'
p3571
tp3572
Rp3573
sVpause
p3574
g3508
(g3512
S'\x97\x00\x00\x00\x00\x00\x00\x00'
p3575
tp3576
Rp3577
sVhow
p3578
g3508
(g3512
S'c\x00\x00\x00\x00\x00\x00\x00'
p3579
tp3580
Rp3581
sVsnowing
p3582
g3508
(g3512
S'\xc1\x00\x00\x00\x00\x00\x00\x00'
p3583
tp3584
Rp3585
sVsunday
p3586
g3508
(g3512
S'\xcb\x00\x00\x00\x00\x00\x00\x00'
p3587
tp3588
Rp3589
sVsend
p3590
g3508
(g3512
S'\xb8\x00\x00\x00\x00\x00\x00\x00'
p3591
tp3592
Rp3593
sVshould
p3594
g3508
(g3512
S'\xba\x00\x00\x00\x00\x00\x00\x00'
p3595
tp3596
Rp3597
sVto
p3598
g3508
(g3512
S'\xd9\x00\x00\x00\x00\x00\x00\x00'
p3599
tp3600
Rp3601
sVwindow
p3602
g3508
(g3512
S'\xf1\x00\x00\x00\x00\x00\x00\x00'
p3603
tp3604
Rp3605
sVgoing
p3606
g3508
(g3512
S'W\x00\x00\x00\x00\x00\x00\x00'
p3607
tp3608
Rp3609
sVmail
p3610
g3508
(g3512
S'{\x00\x00\x00\x00\x00\x00\x00'
p3611
tp3612
Rp3613
sVset
p3614
g3508
(g3512
S'\xb9\x00\x00\x00\x00\x00\x00\x00'
p3615
tp3616
Rp3617
sVbye
p3618
g3508
(g3512
S'\x19\x00\x00\x00\x00\x00\x00\x00'
p3619
tp3620
Rp3621
sVreal
p3622
g3508
(g3512
S'\xad\x00\x00\x00\x00\x00\x00\x00'
p3623
tp3624
Rp3625
sVdo
p3626
g3508
(g3512
S'5\x00\x00\x00\x00\x00\x00\x00'
p3627
tp3628
Rp3629
sVpredict
p3630
g3508
(g3512
S'\x9d\x00\x00\x00\x00\x00\x00\x00'
p3631
tp3632
Rp3633
sVgood
p3634
g3508
(g3512
S'X\x00\x00\x00\x00\x00\x00\x00'
p3635
tp3636
Rp3637
sVemergency
p3638
g3508
(g3512
S'@\x00\x00\x00\x00\x00\x00\x00'
p3639
tp3640
Rp3641
sVsong
p3642
g3508
(g3512
S'\xc3\x00\x00\x00\x00\x00\x00\x00'
p3643
tp3644
Rp3645
sVya
p3646
g3508
(g3512
S'\xf5\x00\x00\x00\x00\x00\x00\x00'
p3647
tp3648
Rp3649
sVmaterial
p3650
g3508
(g3512
S'}\x00\x00\x00\x00\x00\x00\x00'
p3651
tp3652
Rp3653
sVwatch
p3654
g3508
(g3512
S'\xe8\x00\x00\x00\x00\x00\x00\x00'
p3655
tp3656
Rp3657
sVme
p3658
g3508
(g3512
S'~\x00\x00\x00\x00\x00\x00\x00'
p3659
tp3660
Rp3661
sVaren
p3662
g3508
(g3512
S'\x0c\x00\x00\x00\x00\x00\x00\x00'
p3663
tp3664
Rp3665
sVreport
p3666
g3508
(g3512
S'\xaf\x00\x00\x00\x00\x00\x00\x00'
p3667
tp3668
Rp3669
sVworld
p3670
g3508
(g3512
S'\xf2\x00\x00\x00\x00\x00\x00\x00'
p3671
tp3672
Rp3673
sVnow
p3674
g3508
(g3512
S'\x8e\x00\x00\x00\x00\x00\x00\x00'
p3675
tp3676
Rp3677
sVday
p3678
g3508
(g3512
S'-\x00\x00\x00\x00\x00\x00\x00'
p3679
tp3680
Rp3681
sVdreams
p3682
g3508
(g3512
S'<\x00\x00\x00\x00\x00\x00\x00'
p3683
tp3684
Rp3685
sVlike
p3686
g3508
(g3512
S'u\x00\x00\x00\x00\x00\x00\x00'
p3687
tp3688
Rp3689
sVshoulder
p3690
g3508
(g3512
S'\xbb\x00\x00\x00\x00\x00\x00\x00'
p3691
tp3692
Rp3693
sVmoderate
p3694
g3508
(g3512
S'\x7f\x00\x00\x00\x00\x00\x00\x00'
p3695
tp3696
Rp3697
sValex
p3698
g3508
(g3512
S'\x03\x00\x00\x00\x00\x00\x00\x00'
p3699
tp3700
Rp3701
sVintel
p3702
g3508
(g3512
S'l\x00\x00\x00\x00\x00\x00\x00'
p3703
tp3704
Rp3705
sVgossips
p3706
g3508
(g3512
S'Z\x00\x00\x00\x00\x00\x00\x00'
p3707
tp3708
Rp3709
sVdidn
p3710
g3508
(g3512
S'4\x00\x00\x00\x00\x00\x00\x00'
p3711
tp3712
Rp3713
sVwednesday
p3714
g3508
(g3512
S'\xeb\x00\x00\x00\x00\x00\x00\x00'
p3715
tp3716
Rp3717
sVcloudy
p3718
g3508
(g3512
S'$\x00\x00\x00\x00\x00\x00\x00'
p3719
tp3720
Rp3721
sVtry
p3722
g3508
(g3512
S'\xde\x00\x00\x00\x00\x00\x00\x00'
p3723
tp3724
Rp3725
sVthis
p3726
g3508
(g3512
S'\xd6\x00\x00\x00\x00\x00\x00\x00'
p3727
tp3728
Rp3729
sVgimme
p3730
g3508
(g3512
S'S\x00\x00\x00\x00\x00\x00\x00'
p3731
tp3732
Rp3733
sVstuff
p3734
g3508
(g3512
S'\xca\x00\x00\x00\x00\x00\x00\x00'
p3735
tp3736
Rp3737
sVnight
p3738
g3508
(g3512
S'\x8b\x00\x00\x00\x00\x00\x00\x00'
p3739
tp3740
Rp3741
sVtunes
p3742
g3508
(g3512
S'\xe1\x00\x00\x00\x00\x00\x00\x00'
p3743
tp3744
Rp3745
sVhwat
p3746
g3508
(g3512
S'd\x00\x00\x00\x00\x00\x00\x00'
p3747
tp3748
Rp3749
sVout
p3750
g3508
(g3512
S'\x95\x00\x00\x00\x00\x00\x00\x00'
p3751
tp3752
Rp3753
sVclassifier
p3754
g3508
(g3512
S'!\x00\x00\x00\x00\x00\x00\x00'
p3755
tp3756
Rp3757
sVinbox
p3758
g3508
(g3512
S'h\x00\x00\x00\x00\x00\x00\x00'
p3759
tp3760
Rp3761
sVteh
p3762
g3508
(g3512
S'\xce\x00\x00\x00\x00\x00\x00\x00'
p3763
tp3764
Rp3765
sVgoogle
p3766
g3508
(g3512
S'Y\x00\x00\x00\x00\x00\x00\x00'
p3767
tp3768
Rp3769
sVretrieve
p3770
g3508
(g3512
S'\xb0\x00\x00\x00\x00\x00\x00\x00'
p3771
tp3772
Rp3773
sVee
p3774
g3508
(g3512
S'?\x00\x00\x00\x00\x00\x00\x00'
p3775
tp3776
Rp3777
sVintelligence
p3778
g3508
(g3512
S'm\x00\x00\x00\x00\x00\x00\x00'
p3779
tp3780
Rp3781
sVshut
p3782
g3508
(g3512
S'\xbc\x00\x00\x00\x00\x00\x00\x00'
p3783
tp3784
Rp3785
sVhail
p3786
g3508
(g3512
S']\x00\x00\x00\x00\x00\x00\x00'
p3787
tp3788
Rp3789
sValice
p3790
g3508
(g3512
S'\x04\x00\x00\x00\x00\x00\x00\x00'
p3791
tp3792
Rp3793
sVzero
p3794
g3508
(g3512
S'\xf9\x00\x00\x00\x00\x00\x00\x00'
p3795
tp3796
Rp3797
sVcomputer
p3798
g3508
(g3512
S'(\x00\x00\x00\x00\x00\x00\x00'
p3799
tp3800
Rp3801
sVare
p3802
g3508
(g3512
S'\x0b\x00\x00\x00\x00\x00\x00\x00'
p3803
tp3804
Rp3805
sVclose
p3806
g3508
(g3512
S'#\x00\x00\x00\x00\x00\x00\x00'
p3807
tp3808
Rp3809
sVcalendar
p3810
g3508
(g3512
S'\x1b\x00\x00\x00\x00\x00\x00\x00'
p3811
tp3812
Rp3813
sVextract
p3814
g3508
(g3512
S'C\x00\x00\x00\x00\x00\x00\x00'
p3815
tp3816
Rp3817
sVcold
p3818
g3508
(g3512
S'%\x00\x00\x00\x00\x00\x00\x00'
p3819
tp3820
Rp3821
sVgmail
p3822
g3508
(g3512
S'U\x00\x00\x00\x00\x00\x00\x00'
p3823
tp3824
Rp3825
sVcategory
p3826
g3508
(g3512
S'\x1e\x00\x00\x00\x00\x00\x00\x00'
p3827
tp3828
Rp3829
sVwhat
p3830
g3508
(g3512
S'\xed\x00\x00\x00\x00\x00\x00\x00'
p3831
tp3832
Rp3833
sVmonday
p3834
g3508
(g3512
S'\x80\x00\x00\x00\x00\x00\x00\x00'
p3835
tp3836
Rp3837
sVfor
p3838
g3508
(g3512
S'J\x00\x00\x00\x00\x00\x00\x00'
p3839
tp3840
Rp3841
sVclock
p3842
g3508
(g3512
S'"\x00\x00\x00\x00\x00\x00\x00'
p3843
tp3844
Rp3845
sVdebrief
p3846
g3508
(g3512
S'.\x00\x00\x00\x00\x00\x00\x00'
p3847
tp3848
Rp3849
sVcurrently
p3850
g3508
(g3512
S'+\x00\x00\x00\x00\x00\x00\x00'
p3851
tp3852
Rp3853
sVplease
p3854
g3508
(g3512
S'\x9a\x00\x00\x00\x00\x00\x00\x00'
p3855
tp3856
Rp3857
sVbrief
p3858
g3508
(g3512
S'\x15\x00\x00\x00\x00\x00\x00\x00'
p3859
tp3860
Rp3861
sVforecast
p3862
g3508
(g3512
S'K\x00\x00\x00\x00\x00\x00\x00'
p3863
tp3864
Rp3865
sVcell
p3866
g3508
(g3512
S'\x1f\x00\x00\x00\x00\x00\x00\x00'
p3867
tp3868
Rp3869
sVre
p3870
g3508
(g3512
S'\xab\x00\x00\x00\x00\x00\x00\x00'
p3871
tp3872
Rp3873
sVexit
p3874
g3508
(g3512
S'B\x00\x00\x00\x00\x00\x00\x00'
p3875
tp3876
Rp3877
sVabove
p3878
g3508
(g3512
S'\x00\x00\x00\x00\x00\x00\x00\x00'
p3879
tp3880
Rp3881
sVit
p3882
g3508
(g3512
S'q\x00\x00\x00\x00\x00\x00\x00'
p3883
tp3884
Rp3885
sVnew
p3886
g3508
(g3512
S'\x87\x00\x00\x00\x00\x00\x00\x00'
p3887
tp3888
Rp3889
sVnet
p3890
g3508
(g3512
S'\x85\x00\x00\x00\x00\x00\x00\x00'
p3891
tp3892
Rp3893
sVgov
p3894
g3508
(g3512
S'[\x00\x00\x00\x00\x00\x00\x00'
p3895
tp3896
Rp3897
sVissue
p3898
g3508
(g3512
S'p\x00\x00\x00\x00\x00\x00\x00'
p3899
tp3900
Rp3901
sVbe
p3902
g3508
(g3512
S'\x10\x00\x00\x00\x00\x00\x00\x00'
p3903
tp3904
Rp3905
sVwe
p3906
g3508
(g3512
S'\xe9\x00\x00\x00\x00\x00\x00\x00'
p3907
tp3908
Rp3909
sVnoise
p3910
g3508
(g3512
S'\x8c\x00\x00\x00\x00\x00\x00\x00'
p3911
tp3912
Rp3913
sVscreen
p3914
g3508
(g3512
S'\xb5\x00\x00\x00\x00\x00\x00\x00'
p3915
tp3916
Rp3917
sVdictates
p3918
g3508
(g3512
S'3\x00\x00\x00\x00\x00\x00\x00'
p3919
tp3920
Rp3921
sVfree
p3922
g3508
(g3512
S'L\x00\x00\x00\x00\x00\x00\x00'
p3923
tp3924
Rp3925
sVillustration
p3926
g3508
(g3512
S'f\x00\x00\x00\x00\x00\x00\x00'
p3927
tp3928
Rp3929
sVput
p3930
g3508
(g3512
S'\xa3\x00\x00\x00\x00\x00\x00\x00'
p3931
tp3932
Rp3933
sVorg
p3934
g3508
(g3512
S'\x94\x00\x00\x00\x00\x00\x00\x00'
p3935
tp3936
Rp3937
sVpost
p3938
g3508
(g3512
S'\x9c\x00\x00\x00\x00\x00\x00\x00'
p3939
tp3940
Rp3941
sVdon
p3942
g3508
(g3512
S'8\x00\x00\x00\x00\x00\x00\x00'
p3943
tp3944
Rp3945
sVon
p3946
g3508
(g3512
S'\x92\x00\x00\x00\x00\x00\x00\x00'
p3947
tp3948
Rp3949
sVcommands
p3950
g3508
(g3512
S"'\x00\x00\x00\x00\x00\x00\x00"
p3951
tp3952
Rp3953
sVlast
p3954
g3508
(g3512
S's\x00\x00\x00\x00\x00\x00\x00'
p3955
tp3956
Rp3957
sVanything
p3958
g3508
(g3512
S'\n\x00\x00\x00\x00\x00\x00\x00'
p3959
tp3960
Rp3961
sVof
p3962
g3508
(g3512
S'\x8f\x00\x00\x00\x00\x00\x00\x00'
p3963
tp3964
Rp3965
sVcould
p3966
g3508
(g3512
S')\x00\x00\x00\x00\x00\x00\x00'
p3967
tp3968
Rp3969
sVcurrent
p3970
g3508
(g3512
S'*\x00\x00\x00\x00\x00\x00\x00'
p3971
tp3972
Rp3973
sVquiet
p3974
g3508
(g3512
S'\xa5\x00\x00\x00\x00\x00\x00\x00'
p3975
tp3976
Rp3977
sVturn
p3978
g3508
(g3512
S'\xe3\x00\x00\x00\x00\x00\x00\x00'
p3979
tp3980
Rp3981
sVisn
p3982
g3508
(g3512
S'o\x00\x00\x00\x00\x00\x00\x00'
p3983
tp3984
Rp3985
sVbrowsing
p3986
g3508
(g3512
S'\x18\x00\x00\x00\x00\x00\x00\x00'
p3987
tp3988
Rp3989
sVcom
p3990
g3508
(g3512
S'&\x00\x00\x00\x00\x00\x00\x00'
p3991
tp3992
Rp3993
sVthink
p3994
g3508
(g3512
S'\xd5\x00\x00\x00\x00\x00\x00\x00'
p3995
tp3996
Rp3997
sVfeed
p3998
g3508
(g3512
S'G\x00\x00\x00\x00\x00\x00\x00'
p3999
tp4000
Rp4001
sVwhats
p4002
g3508
(g3512
S'\xee\x00\x00\x00\x00\x00\x00\x00'
p4003
tp4004
Rp4005
sVdont
p4006
g3508
(g3512
S'9\x00\x00\x00\x00\x00\x00\x00'
p4007
tp4008
Rp4009
sVpoint
p4010
g3508
(g3512
S'\x9b\x00\x00\x00\x00\x00\x00\x00'
p4011
tp4012
Rp4013
sVinfornation
p4014
g3508
(g3512
S'k\x00\x00\x00\x00\x00\x00\x00'
p4015
tp4016
Rp4017
sVsweet
p4018
g3508
(g3512
S'\xcc\x00\x00\x00\x00\x00\x00\x00'
p4019
tp4020
Rp4021
sVtuesday
p4022
g3508
(g3512
S'\xdf\x00\x00\x00\x00\x00\x00\x00'
p4023
tp4024
Rp4025
sVyourself
p4026
g3508
(g3512
S'\xf8\x00\x00\x00\x00\x00\x00\x00'
p4027
tp4028
Rp4029
sVdown
p4030
g3508
(g3512
S';\x00\x00\x00\x00\x00\x00\x00'
p4031
tp4032
Rp4033
sVactive
p4034
g3508
(g3512
S'\x01\x00\x00\x00\x00\x00\x00\x00'
p4035
tp4036
Rp4037
sVweather
p4038
g3508
(g3512
S'\xea\x00\x00\x00\x00\x00\x00\x00'
p4039
tp4040
Rp4041
sVdecrease
p4042
g3508
(g3512
S'0\x00\x00\x00\x00\x00\x00\x00'
p4043
tp4044
Rp4045
sVthursday
p4046
g3508
(g3512
S'\xd7\x00\x00\x00\x00\x00\x00\x00'
p4047
tp4048
Rp4049
sVshutdown
p4050
g3508
(g3512
S'\xbd\x00\x00\x00\x00\x00\x00\x00'
p4051
tp4052
Rp4053
sVfake
p4054
g3508
(g3512
S'D\x00\x00\x00\x00\x00\x00\x00'
p4055
tp4056
Rp4057
sVnews
p4058
g3508
(g3512
S'\x88\x00\x00\x00\x00\x00\x00\x00'
p4059
tp4060
Rp4061
sVopen
p4062
g3508
(g3512
S'\x93\x00\x00\x00\x00\x00\x00\x00'
p4063
tp4064
Rp4065
sVtomorrow
p4066
g3508
(g3512
S'\xdc\x00\x00\x00\x00\x00\x00\x00'
p4067
tp4068
Rp4069
sVbeats
p4070
g3508
(g3512
S'\x12\x00\x00\x00\x00\x00\x00\x00'
p4071
tp4072
Rp4073
sVtemperature
p4074
g3508
(g3512
S'\xd0\x00\x00\x00\x00\x00\x00\x00'
p4075
tp4076
Rp4077
sVwould
p4078
g3508
(g3512
S'\xf3\x00\x00\x00\x00\x00\x00\x00'
p4079
tp4080
Rp4081
sVtunez
p4082
g3508
(g3512
S'\xe2\x00\x00\x00\x00\x00\x00\x00'
p4083
tp4084
Rp4085
sVsake
p4086
g3508
(g3512
S'\xb2\x00\x00\x00\x00\x00\x00\x00'
p4087
tp4088
Rp4089
sVdecent
p4090
g3508
(g3512
S'/\x00\x00\x00\x00\x00\x00\x00'
p4091
tp4092
Rp4093
sVthere
p4094
g3508
(g3512
S'\xd4\x00\x00\x00\x00\x00\x00\x00'
p4095
tp4096
Rp4097
sVquestion
p4098
g3508
(g3512
S'\xa4\x00\x00\x00\x00\x00\x00\x00'
p4099
tp4100
Rp4101
sVhey
p4102
g3508
(g3512
S'`\x00\x00\x00\x00\x00\x00\x00'
p4103
tp4104
Rp4105
sVlong
p4106
g3508
(g3512
S'x\x00\x00\x00\x00\x00\x00\x00'
p4107
tp4108
Rp4109
sVnext
p4110
g3508
(g3512
S'\x8a\x00\x00\x00\x00\x00\x00\x00'
p4111
tp4112
Rp4113
sVstart
p4114
g3508
(g3512
S'\xc7\x00\x00\x00\x00\x00\x00\x00'
p4115
tp4116
Rp4117
sVlive
p4118
g3508
(g3512
S'v\x00\x00\x00\x00\x00\x00\x00'
p4119
tp4120
Rp4121
sVprogram
p4122
g3508
(g3512
S'\xa2\x00\x00\x00\x00\x00\x00\x00'
p4123
tp4124
Rp4125
sVcall
p4126
g3508
(g3512
S'\x1c\x00\x00\x00\x00\x00\x00\x00'
p4127
tp4128
Rp4129
sVmusic
p4130
g3508
(g3512
S'\x82\x00\x00\x00\x00\x00\x00\x00'
p4131
tp4132
Rp4133
sVtell
p4134
g3508
(g3512
S'\xcf\x00\x00\x00\x00\x00\x00\x00'
p4135
tp4136
Rp4137
sVtoday
p4138
g3508
(g3512
S'\xda\x00\x00\x00\x00\x00\x00\x00'
p4139
tp4140
Rp4141
sVpretends
p4142
g3508
(g3512
S'\x9e\x00\x00\x00\x00\x00\x00\x00'
p4143
tp4144
Rp4145
sVfunction
p4146
g3508
(g3512
S'P\x00\x00\x00\x00\x00\x00\x00'
p4147
tp4148
Rp4149
sVthat
p4150
g3508
(g3512
S'\xd2\x00\x00\x00\x00\x00\x00\x00'
p4151
tp4152
Rp4153
sVreleasing
p4154
g3508
(g3512
S'\xae\x00\x00\x00\x00\x00\x00\x00'
p4155
tp4156
Rp4157
sVwritting
p4158
g3508
(g3512
S'\xf4\x00\x00\x00\x00\x00\x00\x00'
p4159
tp4160
Rp4161
sVsearch
p4162
g3508
(g3512
S'\xb6\x00\x00\x00\x00\x00\x00\x00'
p4163
tp4164
Rp4165
sVback
p4166
g3508
(g3512
S'\x0e\x00\x00\x00\x00\x00\x00\x00'
p4167
tp4168
Rp4169
sVvolume
p4170
g3508
(g3512
S'\xe7\x00\x00\x00\x00\x00\x00\x00'
p4171
tp4172
Rp4173
sVtrain
p4174
g3508
(g3512
S'\xdd\x00\x00\x00\x00\x00\x00\x00'
p4175
tp4176
Rp4177
sVstick
p4178
g3508
(g3512
S'\xc8\x00\x00\x00\x00\x00\x00\x00'
p4179
tp4180
Rp4181
sVfoggy
p4182
g3508
(g3512
S'I\x00\x00\x00\x00\x00\x00\x00'
p4183
tp4184
Rp4185
sVtgive
p4186
g3508
(g3512
S'\xd1\x00\x00\x00\x00\x00\x00\x00'
p4187
tp4188
Rp4189
sVnever
p4190
g3508
(g3512
S'\x86\x00\x00\x00\x00\x00\x00\x00'
p4191
tp4192
Rp4193
sVsound
p4194
g3508
(g3512
S'\xc4\x00\x00\x00\x00\x00\x00\x00'
p4195
tp4196
Rp4197
sVahead
p4198
g3508
(g3512
S'\x02\x00\x00\x00\x00\x00\x00\x00'
p4199
tp4200
Rp4201
sVfriday
p4202
g3508
(g3512
S'N\x00\x00\x00\x00\x00\x00\x00'
p4203
tp4204
Rp4205
sVunmute
p4206
g3508
(g3512
S'\xe4\x00\x00\x00\x00\x00\x00\x00'
p4207
tp4208
Rp4209
sVsnow
p4210
g3508
(g3512
S'\xc0\x00\x00\x00\x00\x00\x00\x00'
p4211
tp4212
Rp4213
sVup
p4214
g3508
(g3512
S'\xe5\x00\x00\x00\x00\x00\x00\x00'
p4215
tp4216
Rp4217
sVdogs
p4218
g3508
(g3512
S'7\x00\x00\x00\x00\x00\x00\x00'
p4219
tp4220
Rp4221
sVwill
p4222
g3508
(g3512
S'\xf0\x00\x00\x00\x00\x00\x00\x00'
p4223
tp4224
Rp4225
sVlouder
p4226
g3508
(g3512
S'y\x00\x00\x00\x00\x00\x00\x00'
p4227
tp4228
Rp4229
sVcan
p4230
g3508
(g3512
S'\x1d\x00\x00\x00\x00\x00\x00\x00'
p4231
tp4232
Rp4233
sVbriefing
p4234
g3508
(g3512
S'\x16\x00\x00\x00\x00\x00\x00\x00'
p4235
tp4236
Rp4237
sVproblem
p4238
g3508
(g3512
S'\xa0\x00\x00\x00\x00\x00\x00\x00'
p4239
tp4240
Rp4241
sVoutcome
p4242
g3508
(g3512
S'\x96\x00\x00\x00\x00\x00\x00\x00'
p4243
tp4244
Rp4245
sVmy
p4246
g3508
(g3512
S'\x84\x00\x00\x00\x00\x00\x00\x00'
p4247
tp4248
Rp4249
sVdee
p4250
g3508
(g3512
S'1\x00\x00\x00\x00\x00\x00\x00'
p4251
tp4252
Rp4253
sVbrowser
p4254
g3508
(g3512
S'\x17\x00\x00\x00\x00\x00\x00\x00'
p4255
tp4256
Rp4257
sVbefore
p4258
g3508
(g3512
S'\x13\x00\x00\x00\x00\x00\x00\x00'
p4259
tp4260
Rp4261
sVgive
p4262
g3508
(g3512
S'T\x00\x00\x00\x00\x00\x00\x00'
p4263
tp4264
Rp4265
sValmost
p4266
g3508
(g3512
S'\x05\x00\x00\x00\x00\x00\x00\x00'
p4267
tp4268
Rp4269
sVlock
p4270
g3508
(g3512
S'w\x00\x00\x00\x00\x00\x00\x00'
p4271
tp4272
Rp4273
sVis
p4274
g3508
(g3512
S'n\x00\x00\x00\x00\x00\x00\x00'
p4275
tp4276
Rp4277
sVin
p4278
g3508
(g3512
S'g\x00\x00\x00\x00\x00\x00\x00'
p4279
tp4280
Rp4281
sVam
p4282
g3508
(g3512
S'\x06\x00\x00\x00\x00\x00\x00\x00'
p4283
tp4284
Rp4285
sVfuck
p4286
g3508
(g3512
S'O\x00\x00\x00\x00\x00\x00\x00'
p4287
tp4288
Rp4289
sVbackbone
p4290
g3508
(g3512
S'\x0f\x00\x00\x00\x00\x00\x00\x00'
p4291
tp4292
Rp4293
sVan
p4294
g3508
(g3512
S'\x07\x00\x00\x00\x00\x00\x00\x00'
p4295
tp4296
Rp4297
sVdefault
p4298
g3508
(g3512
S'2\x00\x00\x00\x00\x00\x00\x00'
p4299
tp4300
Rp4301
sVright
p4302
g3508
(g3512
S'\xb1\x00\x00\x00\x00\x00\x00\x00'
p4303
tp4304
Rp4305
sVat
p4306
g3508
(g3512
S'\r\x00\x00\x00\x00\x00\x00\x00'
p4307
tp4308
Rp4309
sVhave
p4310
g3508
(g3512
S'^\x00\x00\x00\x00\x00\x00\x00'
p4311
tp4312
Rp4313
sVstalls
p4314
g3508
(g3512
S'\xc6\x00\x00\x00\x00\x00\x00\x00'
p4315
tp4316
Rp4317
sVany
p4318
g3508
(g3512
S'\t\x00\x00\x00\x00\x00\x00\x00'
p4319
tp4320
Rp4321
sVsimple
p4322
g3508
(g3512
S'\xbe\x00\x00\x00\x00\x00\x00\x00'
p4323
tp4324
Rp4325
sVif
p4326
g3508
(g3512
S'e\x00\x00\x00\x00\x00\x00\x00'
p4327
tp4328
Rp4329
sVinformation
p4330
g3508
(g3512
S'j\x00\x00\x00\x00\x00\x00\x00'
p4331
tp4332
Rp4333
sVrainy
p4334
g3508
(g3512
S'\xa9\x00\x00\x00\x00\x00\x00\x00'
p4335
tp4336
Rp4337
sVcheck
p4338
g3508
(g3512
S' \x00\x00\x00\x00\x00\x00\x00'
p4339
tp4340
Rp4341
sVmake
p4342
g3508
(g3512
S'|\x00\x00\x00\x00\x00\x00\x00'
p4343
tp4344
Rp4345
sVget
p4346
g3508
(g3512
S'R\x00\x00\x00\x00\x00\x00\x00'
p4347
tp4348
Rp4349
sVwhen
p4350
g3508
(g3512
S'\xef\x00\x00\x00\x00\x00\x00\x00'
p4351
tp4352
Rp4353
sVfeature
p4354
g3508
(g3512
S'E\x00\x00\x00\x00\x00\x00\x00'
p4355
tp4356
Rp4357
sVsame
p4358
g3508
(g3512
S'\xb3\x00\x00\x00\x00\x00\x00\x00'
p4359
tp4360
Rp4361
sVsaturday
p4362
g3508
(g3512
S'\xb4\x00\x00\x00\x00\x00\x00\x00'
p4363
tp4364
Rp4365
sVbeside
p4366
g3508
(g3512
S'\x14\x00\x00\x00\x00\x00\x00\x00'
p4367
tp4368
Rp4369
sVbeat
p4370
g3508
(g3512
S'\x11\x00\x00\x00\x00\x00\x00\x00'
p4371
tp4372
Rp4373
sVhot
p4374
g3508
(g3512
S'b\x00\x00\x00\x00\x00\x00\x00'
p4375
tp4376
Rp4377
sVanswer
p4378
g3508
(g3512
S'\x08\x00\x00\x00\x00\x00\x00\x00'
p4379
tp4380
Rp4381
sVyou
p4382
g3508
(g3512
S'\xf6\x00\x00\x00\x00\x00\x00\x00'
p4383
tp4384
Rp4385
sVdocument
p4386
g3508
(g3512
S'6\x00\x00\x00\x00\x00\x00\x00'
p4387
tp4388
Rp4389
sVevents
p4390
g3508
(g3512
S'A\x00\x00\x00\x00\x00\x00\x00'
p4391
tp4392
Rp4393
sVhigher
p4394
g3508
(g3512
S'a\x00\x00\x00\x00\x00\x00\x00'
p4395
tp4396
Rp4397
sVweek
p4398
g3508
(g3512
S'\xec\x00\x00\x00\x00\x00\x00\x00'
p4399
tp4400
Rp4401
sVplay
p4402
g3508
(g3512
S'\x98\x00\x00\x00\x00\x00\x00\x00'
p4403
tp4404
Rp4405
sVokay
p4406
g3508
(g3512
S'\x91\x00\x00\x00\x00\x00\x00\x00'
p4407
tp4408
Rp4409
sVsee
p4410
g3508
(g3512
S'\xb7\x00\x00\x00\x00\x00\x00\x00'
p4411
tp4412
Rp4413
sVstop
p4414
g3508
(g3512
S'\xc9\x00\x00\x00\x00\x00\x00\x00'
p4415
tp4416
Rp4417
sVearlier
p4418
g3508
(g3512
S'=\x00\x00\x00\x00\x00\x00\x00'
p4419
tp4420
Rp4421
sVproblems
p4422
g3508
(g3512
S'\xa1\x00\x00\x00\x00\x00\x00\x00'
p4423
tp4424
Rp4425
sVquieter
p4426
g3508
(g3512
S'\xa6\x00\x00\x00\x00\x00\x00\x00'
p4427
tp4428
Rp4429
sVrain
p4430
g3508
(g3512
S'\xa7\x00\x00\x00\x00\x00\x00\x00'
p4431
tp4432
Rp4433
sVfreezing
p4434
g3508
(g3512
S'M\x00\x00\x00\x00\x00\x00\x00'
p4435
tp4436
Rp4437
sVfeatures
p4438
g3508
(g3512
S'F\x00\x00\x00\x00\x00\x00\x00'
p4439
tp4440
Rp4441
sVbyebye
p4442
g3508
(g3512
S'\x1a\x00\x00\x00\x00\x00\x00\x00'
p4443
tp4444
Rp4445
sVdata
p4446
g3508
(g3512
S',\x00\x00\x00\x00\x00\x00\x00'
p4447
tp4448
Rp4449
sVtune
p4450
g3508
(g3512
S'\xe0\x00\x00\x00\x00\x00\x00\x00'
p4451
tp4452
Rp4453
sVyour
p4454
g3508
(g3512
S'\xf7\x00\x00\x00\x00\x00\x00\x00'
p4455
tp4456
Rp4457
sVgrief
p4458
g3508
(g3512
S'\\\x00\x00\x00\x00\x00\x00\x00'
p4459
tp4460
Rp4461
sVlower
p4462
g3508
(g3512
S'z\x00\x00\x00\x00\x00\x00\x00'
p4463
tp4464
Rp4465
sVoff
p4466
g3508
(g3512
S'\x90\x00\x00\x00\x00\x00\x00\x00'
p4467
tp4468
Rp4469
sVusing
p4470
g3508
(g3512
S'\xe6\x00\x00\x00\x00\x00\x00\x00'
p4471
tp4472
Rp4473
sVread
p4474
g3508
(g3512
S'\xac\x00\x00\x00\x00\x00\x00\x00'
p4475
tp4476
Rp4477
sVgather
p4478
g3508
(g3512
S'Q\x00\x00\x00\x00\x00\x00\x00'
p4479
tp4480
Rp4481
sVtale
p4482
g3508
(g3512
S'\xcd\x00\x00\x00\x00\x00\x00\x00'
p4483
tp4484
Rp4485
sVtime
p4486
g3508
(g3512
S'\xd8\x00\x00\x00\x00\x00\x00\x00'
p4487
tp4488
Rp4489
sVnewsfeed
p4490
g3508
(g3512
S'\x89\x00\x00\x00\x00\x00\x00\x00'
p4491
tp4492
Rp4493
sVthe
p4494
g3508
(g3512
S'\xd3\x00\x00\x00\x00\x00\x00\x00'
p4495
tp4496
Rp4497
sVincrease
p4498
g3508
(g3512
S'i\x00\x00\x00\x00\x00\x00\x00'
p4499
tp4500
Rp4501
sVplaying
p4502
g3508
(g3512
S'\x99\x00\x00\x00\x00\x00\x00\x00'
p4503
tp4504
Rp4505
sVdot
p4506
g3508
(g3512
S':\x00\x00\x00\x00\x00\x00\x00'
p4507
tp4508
Rp4509
sVlatest
p4510
g3508
(g3512
S't\x00\x00\x00\x00\x00\x00\x00'
p4511
tp4512
Rp4513
ssS'binary'
p4514
I00
sS'ngram_range'
p4515
(I1
I1
tp4516
sg3482
g3483
sS'max_df'
p4517
F1.0
sS'min_df'
p4518
I1
sS'max_features'
p4519
NsS'fixed_vocabulary_'
p4520
I00
sS'strip_accents'
p4521
NsS'dtype'
p4522
cnumpy
int64
p4523
sS'stop_words_'
p4524
c__builtin__
set
p4525
((lp4526
tp4527
Rp4528
sS'preprocessor'
p4529
Nsbtp4530
a(S'tfidf'
p4531
g3476
(csklearn.feature_extraction.text
TfidfTransformer
p4532
g3478
Ntp4533
Rp4534
(dp4535
S'smooth_idf'
p4536
I01
sg3482
g3483
sS'_idf_diag'
p4537
g3476
(cscipy.sparse.csr
csr_matrix
p4538
g3478
Ntp4539
Rp4540
(dp4541
S'indices'
p4542
cnumpy.core.multiarray
_reconstruct
p4543
(cnumpy
ndarray
p4544
(I0
tp4545
S'b'
p4546
tp4547
Rp4548
(I1
(I250
tp4549
g3509
(S'i4'
p4550
I0
I1
tp4551
Rp4552
(I3
S'<'
p4553
NNNI-1
I-1
I0
tp4554
bI00
S'\x00\x00\x00\x00\x01\x00\x00\x00\x02\x00\x00\x00\x03\x00\x00\x00\x04\x00\x00\x00\x05\x00\x00\x00\x06\x00\x00\x00\x07\x00\x00\x00\x08\x00\x00\x00\t\x00\x00\x00\n\x00\x00\x00\x0b\x00\x00\x00\x0c\x00\x00\x00\r\x00\x00\x00\x0e\x00\x00\x00\x0f\x00\x00\x00\x10\x00\x00\x00\x11\x00\x00\x00\x12\x00\x00\x00\x13\x00\x00\x00\x14\x00\x00\x00\x15\x00\x00\x00\x16\x00\x00\x00\x17\x00\x00\x00\x18\x00\x00\x00\x19\x00\x00\x00\x1a\x00\x00\x00\x1b\x00\x00\x00\x1c\x00\x00\x00\x1d\x00\x00\x00\x1e\x00\x00\x00\x1f\x00\x00\x00 \x00\x00\x00!\x00\x00\x00"\x00\x00\x00#\x00\x00\x00$\x00\x00\x00%\x00\x00\x00&\x00\x00\x00\'\x00\x00\x00(\x00\x00\x00)\x00\x00\x00*\x00\x00\x00+\x00\x00\x00,\x00\x00\x00-\x00\x00\x00.\x00\x00\x00/\x00\x00\x000\x00\x00\x001\x00\x00\x002\x00\x00\x003\x00\x00\x004\x00\x00\x005\x00\x00\x006\x00\x00\x007\x00\x00\x008\x00\x00\x009\x00\x00\x00:\x00\x00\x00;\x00\x00\x00<\x00\x00\x00=\x00\x00\x00>\x00\x00\x00?\x00\x00\x00@\x00\x00\x00A\x00\x00\x00B\x00\x00\x00C\x00\x00\x00D\x00\x00\x00E\x00\x00\x00F\x00\x00\x00G\x00\x00\x00H\x00\x00\x00I\x00\x00\x00J\x00\x00\x00K\x00\x00\x00L\x00\x00\x00M\x00\x00\x00N\x00\x00\x00O\x00\x00\x00P\x00\x00\x00Q\x00\x00\x00R\x00\x00\x00S\x00\x00\x00T\x00\x00\x00U\x00\x00\x00V\x00\x00\x00W\x00\x00\x00X\x00\x00\x00Y\x00\x00\x00Z\x00\x00\x00[\x00\x00\x00\\\x00\x00\x00]\x00\x00\x00^\x00\x00\x00_\x00\x00\x00`\x00\x00\x00a\x00\x00\x00b\x00\x00\x00c\x00\x00\x00d\x00\x00\x00e\x00\x00\x00f\x00\x00\x00g\x00\x00\x00h\x00\x00\x00i\x00\x00\x00j\x00\x00\x00k\x00\x00\x00l\x00\x00\x00m\x00\x00\x00n\x00\x00\x00o\x00\x00\x00p\x00\x00\x00q\x00\x00\x00r\x00\x00\x00s\x00\x00\x00t\x00\x00\x00u\x00\x00\x00v\x00\x00\x00w\x00\x00\x00x\x00\x00\x00y\x00\x00\x00z\x00\x00\x00{\x00\x00\x00|\x00\x00\x00}\x00\x00\x00~\x00\x00\x00\x7f\x00\x00\x00\x80\x00\x00\x00\x81\x00\x00\x00\x82\x00\x00\x00\x83\x00\x00\x00\x84\x00\x00\x00\x85\x00\x00\x00\x86\x00\x00\x00\x87\x00\x00\x00\x88\x00\x00\x00\x89\x00\x00\x00\x8a\x00\x00\x00\x8b\x00\x00\x00\x8c\x00\x00\x00\x8d\x00\x00\x00\x8e\x00\x00\x00\x8f\x00\x00\x00\x90\x00\x00\x00\x91\x00\x00\x00\x92\x00\x00\x00\x93\x00\x00\x00\x94\x00\x00\x00\x95\x00\x00\x00\x96\x00\x00\x00\x97\x00\x00\x00\x98\x00\x00\x00\x99\x00\x00\x00\x9a\x00\x00\x00\x9b\x00\x00\x00\x9c\x00\x00\x00\x9d\x00\x00\x00\x9e\x00\x00\x00\x9f\x00\x00\x00\xa0\x00\x00\x00\xa1\x00\x00\x00\xa2\x00\x00\x00\xa3\x00\x00\x00\xa4\x00\x00\x00\xa5\x00\x00\x00\xa6\x00\x00\x00\xa7\x00\x00\x00\xa8\x00\x00\x00\xa9\x00\x00\x00\xaa\x00\x00\x00\xab\x00\x00\x00\xac\x00\x00\x00\xad\x00\x00\x00\xae\x00\x00\x00\xaf\x00\x00\x00\xb0\x00\x00\x00\xb1\x00\x00\x00\xb2\x00\x00\x00\xb3\x00\x00\x00\xb4\x00\x00\x00\xb5\x00\x00\x00\xb6\x00\x00\x00\xb7\x00\x00\x00\xb8\x00\x00\x00\xb9\x00\x00\x00\xba\x00\x00\x00\xbb\x00\x00\x00\xbc\x00\x00\x00\xbd\x00\x00\x00\xbe\x00\x00\x00\xbf\x00\x00\x00\xc0\x00\x00\x00\xc1\x00\x00\x00\xc2\x00\x00\x00\xc3\x00\x00\x00\xc4\x00\x00\x00\xc5\x00\x00\x00\xc6\x00\x00\x00\xc7\x00\x00\x00\xc8\x00\x00\x00\xc9\x00\x00\x00\xca\x00\x00\x00\xcb\x00\x00\x00\xcc\x00\x00\x00\xcd\x00\x00\x00\xce\x00\x00\x00\xcf\x00\x00\x00\xd0\x00\x00\x00\xd1\x00\x00\x00\xd2\x00\x00\x00\xd3\x00\x00\x00\xd4\x00\x00\x00\xd5\x00\x00\x00\xd6\x00\x00\x00\xd7\x00\x00\x00\xd8\x00\x00\x00\xd9\x00\x00\x00\xda\x00\x00\x00\xdb\x00\x00\x00\xdc\x00\x00\x00\xdd\x00\x00\x00\xde\x00\x00\x00\xdf\x00\x00\x00\xe0\x00\x00\x00\xe1\x00\x00\x00\xe2\x00\x00\x00\xe3\x00\x00\x00\xe4\x00\x00\x00\xe5\x00\x00\x00\xe6\x00\x00\x00\xe7\x00\x00\x00\xe8\x00\x00\x00\xe9\x00\x00\x00\xea\x00\x00\x00\xeb\x00\x00\x00\xec\x00\x00\x00\xed\x00\x00\x00\xee\x00\x00\x00\xef\x00\x00\x00\xf0\x00\x00\x00\xf1\x00\x00\x00\xf2\x00\x00\x00\xf3\x00\x00\x00\xf4\x00\x00\x00\xf5\x00\x00\x00\xf6\x00\x00\x00\xf7\x00\x00\x00\xf8\x00\x00\x00\xf9\x00\x00\x00'
p4555
tp4556
bsS'indptr'
p4557
g4543
(g4544
(I0
tp4558
g4546
tp4559
Rp4560
(I1
(I251
tp4561
g4552
I00
S'\x00\x00\x00\x00\x01\x00\x00\x00\x02\x00\x00\x00\x03\x00\x00\x00\x04\x00\x00\x00\x05\x00\x00\x00\x06\x00\x00\x00\x07\x00\x00\x00\x08\x00\x00\x00\t\x00\x00\x00\n\x00\x00\x00\x0b\x00\x00\x00\x0c\x00\x00\x00\r\x00\x00\x00\x0e\x00\x00\x00\x0f\x00\x00\x00\x10\x00\x00\x00\x11\x00\x00\x00\x12\x00\x00\x00\x13\x00\x00\x00\x14\x00\x00\x00\x15\x00\x00\x00\x16\x00\x00\x00\x17\x00\x00\x00\x18\x00\x00\x00\x19\x00\x00\x00\x1a\x00\x00\x00\x1b\x00\x00\x00\x1c\x00\x00\x00\x1d\x00\x00\x00\x1e\x00\x00\x00\x1f\x00\x00\x00 \x00\x00\x00!\x00\x00\x00"\x00\x00\x00#\x00\x00\x00$\x00\x00\x00%\x00\x00\x00&\x00\x00\x00\'\x00\x00\x00(\x00\x00\x00)\x00\x00\x00*\x00\x00\x00+\x00\x00\x00,\x00\x00\x00-\x00\x00\x00.\x00\x00\x00/\x00\x00\x000\x00\x00\x001\x00\x00\x002\x00\x00\x003\x00\x00\x004\x00\x00\x005\x00\x00\x006\x00\x00\x007\x00\x00\x008\x00\x00\x009\x00\x00\x00:\x00\x00\x00;\x00\x00\x00<\x00\x00\x00=\x00\x00\x00>\x00\x00\x00?\x00\x00\x00@\x00\x00\x00A\x00\x00\x00B\x00\x00\x00C\x00\x00\x00D\x00\x00\x00E\x00\x00\x00F\x00\x00\x00G\x00\x00\x00H\x00\x00\x00I\x00\x00\x00J\x00\x00\x00K\x00\x00\x00L\x00\x00\x00M\x00\x00\x00N\x00\x00\x00O\x00\x00\x00P\x00\x00\x00Q\x00\x00\x00R\x00\x00\x00S\x00\x00\x00T\x00\x00\x00U\x00\x00\x00V\x00\x00\x00W\x00\x00\x00X\x00\x00\x00Y\x00\x00\x00Z\x00\x00\x00[\x00\x00\x00\\\x00\x00\x00]\x00\x00\x00^\x00\x00\x00_\x00\x00\x00`\x00\x00\x00a\x00\x00\x00b\x00\x00\x00c\x00\x00\x00d\x00\x00\x00e\x00\x00\x00f\x00\x00\x00g\x00\x00\x00h\x00\x00\x00i\x00\x00\x00j\x00\x00\x00k\x00\x00\x00l\x00\x00\x00m\x00\x00\x00n\x00\x00\x00o\x00\x00\x00p\x00\x00\x00q\x00\x00\x00r\x00\x00\x00s\x00\x00\x00t\x00\x00\x00u\x00\x00\x00v\x00\x00\x00w\x00\x00\x00x\x00\x00\x00y\x00\x00\x00z\x00\x00\x00{\x00\x00\x00|\x00\x00\x00}\x00\x00\x00~\x00\x00\x00\x7f\x00\x00\x00\x80\x00\x00\x00\x81\x00\x00\x00\x82\x00\x00\x00\x83\x00\x00\x00\x84\x00\x00\x00\x85\x00\x00\x00\x86\x00\x00\x00\x87\x00\x00\x00\x88\x00\x00\x00\x89\x00\x00\x00\x8a\x00\x00\x00\x8b\x00\x00\x00\x8c\x00\x00\x00\x8d\x00\x00\x00\x8e\x00\x00\x00\x8f\x00\x00\x00\x90\x00\x00\x00\x91\x00\x00\x00\x92\x00\x00\x00\x93\x00\x00\x00\x94\x00\x00\x00\x95\x00\x00\x00\x96\x00\x00\x00\x97\x00\x00\x00\x98\x00\x00\x00\x99\x00\x00\x00\x9a\x00\x00\x00\x9b\x00\x00\x00\x9c\x00\x00\x00\x9d\x00\x00\x00\x9e\x00\x00\x00\x9f\x00\x00\x00\xa0\x00\x00\x00\xa1\x00\x00\x00\xa2\x00\x00\x00\xa3\x00\x00\x00\xa4\x00\x00\x00\xa5\x00\x00\x00\xa6\x00\x00\x00\xa7\x00\x00\x00\xa8\x00\x00\x00\xa9\x00\x00\x00\xaa\x00\x00\x00\xab\x00\x00\x00\xac\x00\x00\x00\xad\x00\x00\x00\xae\x00\x00\x00\xaf\x00\x00\x00\xb0\x00\x00\x00\xb1\x00\x00\x00\xb2\x00\x00\x00\xb3\x00\x00\x00\xb4\x00\x00\x00\xb5\x00\x00\x00\xb6\x00\x00\x00\xb7\x00\x00\x00\xb8\x00\x00\x00\xb9\x00\x00\x00\xba\x00\x00\x00\xbb\x00\x00\x00\xbc\x00\x00\x00\xbd\x00\x00\x00\xbe\x00\x00\x00\xbf\x00\x00\x00\xc0\x00\x00\x00\xc1\x00\x00\x00\xc2\x00\x00\x00\xc3\x00\x00\x00\xc4\x00\x00\x00\xc5\x00\x00\x00\xc6\x00\x00\x00\xc7\x00\x00\x00\xc8\x00\x00\x00\xc9\x00\x00\x00\xca\x00\x00\x00\xcb\x00\x00\x00\xcc\x00\x00\x00\xcd\x00\x00\x00\xce\x00\x00\x00\xcf\x00\x00\x00\xd0\x00\x00\x00\xd1\x00\x00\x00\xd2\x00\x00\x00\xd3\x00\x00\x00\xd4\x00\x00\x00\xd5\x00\x00\x00\xd6\x00\x00\x00\xd7\x00\x00\x00\xd8\x00\x00\x00\xd9\x00\x00\x00\xda\x00\x00\x00\xdb\x00\x00\x00\xdc\x00\x00\x00\xdd\x00\x00\x00\xde\x00\x00\x00\xdf\x00\x00\x00\xe0\x00\x00\x00\xe1\x00\x00\x00\xe2\x00\x00\x00\xe3\x00\x00\x00\xe4\x00\x00\x00\xe5\x00\x00\x00\xe6\x00\x00\x00\xe7\x00\x00\x00\xe8\x00\x00\x00\xe9\x00\x00\x00\xea\x00\x00\x00\xeb\x00\x00\x00\xec\x00\x00\x00\xed\x00\x00\x00\xee\x00\x00\x00\xef\x00\x00\x00\xf0\x00\x00\x00\xf1\x00\x00\x00\xf2\x00\x00\x00\xf3\x00\x00\x00\xf4\x00\x00\x00\xf5\x00\x00\x00\xf6\x00\x00\x00\xf7\x00\x00\x00\xf8\x00\x00\x00\xf9\x00\x00\x00\xfa\x00\x00\x00'
p4562
tp4563
bsS'maxprint'
p4564
I50
sS'_shape'
p4565
(I250
I250
tp4566
sg12
g4543
(g4544
(I0
tp4567
g4546
tp4568
Rp4569
(I1
(I250
tp4570
g3509
(S'f8'
p4571
I0
I1
tp4572
Rp4573
(I3
S'<'
p4574
NNNI-1
I-1
I0
tp4575
bI00
S'our\x17\xe0\x15\x1f@\x9d\x18\xabZ\x9d\x06\x17@\x17&\xc5\xcb\x0b\x13\x1a@1.\x93\xb7\x17P\x1c@\x07!\x92\x9b6D\x18@our\x17\xe0\x15\x1f@xX\xf5\x97\xbe\xfe\x13@our\x17\xe0\x15\x1f@our\x17\xe0\x15\x1f@h<\xd9yvT\x10@\xd6\xf6\xfb\xb1\xfax\x0b@\xdb\xd7\xff\xbb\xa2\xa1\x12@\x9b\x97\x06\x0c{\x87\x14@our\x17\xe0\x15\x1f@\x17&\xc5\xcb\x0b\x13\x1a@our\x17\xe0\x15\x1f@\xea{\xa6\xd8\xadv\x1d@"\x12w\x99\xcf\xa5\x18@our\x17\xe0\x15\x1f@\xea{\xa6\xd8\xadv\x1d@\xea{\xa6\xd8\xadv\x1d@\xea{\xa6\xd8\xadv\x1d@\xea{\xa6\xd8\xadv\x1d@\x9e\xbdj\x11\x8cc\x14@1.\x93\xb7\x17P\x1c@\xac4\xc7x\xe5\xb0\x1a@our\x17\xe0\x15\x1f@\xa3\xea$\xd9\\U\x0e@our\x17\xe0\x15\x1f@\x87K\xbek\xf67\r@our\x17\xe0\x15\x1f@our\x17\xe0\x15\x1f@|\x05\xaf\xf0\xcaZ\x07@our\x17\xe0\x15\x1f@1\xa6\x08\xb9T%\x15@\xc9\xd9\xb2;n~\x15@(;\xfb9\xb3\x11\x19@(;\xfb9\xb3\x11\x19@`YV\xf9\x97k\x1b@our\x17\xe0\x15\x1f@^P\'\xac\xb2\xc1\x11@\x16\x9e:\xcdH\xe8\x12@\x081\x95&a\'\r@our\x17\xe0\x15\x1f@our\x17\xe0\x15\x1f@\xb25u6\xaa\xc0\x13@\xea{\xa6\xd8\xadv\x1d@our\x17\xe0\x15\x1f@\xea{\xa6\xd8\xadv\x1d@\xea{\xa6\xd8\xadv\x1d@\x07!\x92\x9b6D\x18@our\x17\xe0\x15\x1f@our\x17\xe0\x15\x1f@\x10N\xbc\xcb\xde5\t@our\x17\xe0\x15\x1f@our\x17\xe0\x15\x1f@\xf4\x97\xbc\x07\x9b\xc6\x0c@\xf0|T\x96r\x86\x16@\x9d\x18\xabZ\x9d\x06\x17@\xceX4\x00\x14j\x13@\xea{\xa6\xd8\xadv\x1d@our\x17\xe0\x15\x1f@\xea{\xa6\xd8\xadv\x1d@\xea{\xa6\xd8\xadv\x1d@our\x17\xe0\x15\x1f@\x1a\xb3w\xc4\t\x04\t@`YV\xf9\x97k\x1b@our\x17\xe0\x15\x1f@\xea{\xa6\xd8\xadv\x1d@our\x17\xe0\x15\x1f@our\x17\xe0\x15\x1f@\x86f\x8a\xd4\xf5\x00\x13@D\xe0\xe6\xfc;\xdf\x13@(;\xfb9\xb3\x11\x19@\xf9\xecn{\xbb\x1c\x0e@U\xe5\x19-\x11\xae\x15@\x00\'\tSA\x1f\x14@(;\xfb9\xb3\x11\x19@`\xd1\xcb\xfa\xd4@\x14@our\x17\xe0\x15\x1f@our\x17\xe0\x15\x1f@(;\xfb9\xb3\x11\x19@4\xae\xc2\xc6\x97h\x0e@\xea{\xa6\xd8\xadv\x1d@\x9b\x97\x06\x0c{\x87\x14@\x180\x12\xc32\n\x0e@\x13\xf6Z{\x87\xfb\x14@\xd9\xde\xe5kCM\x17@1.\x93\xb7\x17P\x1c@\x08h\xfa\xa1\x95\r\x12@our\x17\xe0\x15\x1f@\xea{\xa6\xd8\xadv\x1d@our\x17\xe0\x15\x1f@\xea{\xa6\xd8\xadv\x1d@N\xdes\xbb\xa0^\t@\xceX4\x00\x14j\x13@\xea{\xa6\xd8\xadv\x1d@\xf3\xe6\xb3WO\x8a\x19@(;\xfb9\xb3\x11\x19@\xd9\xde\xe5kCM\x17@our\x17\xe0\x15\x1f@\x82\x8f8 oJ\x12@our\x17\xe0\x15\x1f@\xb8`@\x98H\xad\n@,\xd8\xee\xe9\xc3.\x10@our\x17\xe0\x15\x1f@\x84\xf6\xb8a&\x99\x17@\xea{\xa6\xd8\xadv\x1d@\x17&\xc5\xcb\x0b\x13\x1a@\xea{\xa6\xd8\xadv\x1d@\xbd\xb5\xf2\x0bi\x03\x0c@\xd9\xde\xe5kCM\x17@our\x17\xe0\x15\x1f@\xdd\xbfXl\x13\xa1\x0f@G\xaf\xd9\x01^\xd3\x14@\x84\xf6\xb8a&\x99\x17@\xd9\xde\xe5kCM\x17@our\x17\xe0\x15\x1f@\xa0P?\x8c\x1fj\x11@G\xaf\xd9\x01^\xd3\x14@our\x17\xe0\x15\x1f@\xac4\xc7x\xe5\xb0\x1a@\x17&\xc5\xcb\x0b\x13\x1a@?\x12\x90\x98\xd4\xf7\r@\x07!\x92\x9b6D\x18@our\x17\xe0\x15\x1f@f\xffg\x0ch\n\x10@our\x17\xe0\x15\x1f@`\xd1\xcb\xfa\xd4@\x14@`\xd1\xcb\xfa\xd4@\x14@\xea{\xa6\xd8\xadv\x1d@`YV\xf9\x97k\x1b@s\x06\x1e\xad\xca!\t@\xea{\xa6\xd8\xadv\x1d@our\x17\xe0\x15\x1f@/\xcf8w\xed\xdf\x0e@*\xbb*I3*\x0b@\xa6\x83\xb8\xd9>\x1a\x13@\xceX4\x00\x14j\x13@\xea{\xa6\xd8\xadv\x1d@our\x17\xe0\x15\x1f@f\xffg\x0ch\n\x10@\x07!\x92\x9b6D\x18@`YV\xf9\x97k\x1b@\xc2\xb5\r\xc3+4\x13@\xea{\xa6\xd8\xadv\x1d@\xc4%\xc7\x8d\x17\xbf\x05@\x04?w\xbc\x82\xf4\x0e@\xea{\xa6\xd8\xadv\x1d@`YV\xf9\x97k\x1b@our\x17\xe0\x15\x1f@\xf0|T\x96r\x86\x16@\xd9\xde\xe5kCM\x17@\xea{\xa6\xd8\xadv\x1d@\xd0\x1a\xe2\xe0->\x02@our\x17\xe0\x15\x1f@\xea{\xa6\xd8\xadv\x1d@\xea{\xa6\xd8\xadv\x1d@our\x17\xe0\x15\x1f@\x17&\xc5\xcb\x0b\x13\x1a@our\x17\xe0\x15\x1f@our\x17\xe0\x15\x1f@`YV\xf9\x97k\x1b@`YV\xf9\x97k\x1b@our\x17\xe0\x15\x1f@\xea{\xa6\xd8\xadv\x1d@our\x17\xe0\x15\x1f@\xea{\xa6\xd8\xadv\x1d@(;\xfb9\xb3\x11\x19@(;\xfb9\xb3\x11\x19@our\x17\xe0\x15\x1f@U\xe5\x19-\x11\xae\x15@\xe4\xca\x979\x07\xe0\x15@our\x17\xe0\x15\x1f@our\x17\xe0\x15\x1f@\xea{\xa6\xd8\xadv\x1d@"\x12w\x99\xcf\xa5\x18@\x17&\xc5\xcb\x0b\x13\x1a@our\x17\xe0\x15\x1f@our\x17\xe0\x15\x1f@`\xd1\xcb\xfa\xd4@\x14@\x9d\x18\xabZ\x9d\x06\x17@\xc9\xd9\xb2;n~\x15@1.\x93\xb7\x17P\x1c@\xac4\xc7x\xe5\xb0\x1a@`YV\xf9\x97k\x1b@our\x17\xe0\x15\x1f@our\x17\xe0\x15\x1f@\xceX4\x00\x14j\x13@\xf0|T\x96r\x86\x16@our\x17\xe0\x15\x1f@\xac4\xc7x\xe5\xb0\x1a@\xea{\xa6\xd8\xadv\x1d@(;\xfb9\xb3\x11\x19@\xea{\xa6\xd8\xadv\x1d@\xac\xac<z"\x86\x13@U\xe5\x19-\x11\xae\x15@^P\'\xac\xb2\xc1\x11@our\x17\xe0\x15\x1f@G\xaf\xd9\x01^\xd3\x14@our\x17\xe0\x15\x1f@o\xed\xe7\x18\x1d\xeb\x17@our\x17\xe0\x15\x1f@`\xd1\xcb\xfa\xd4@\x14@\xea{\xa6\xd8\xadv\x1d@our\x17\xe0\x15\x1f@our\x17\xe0\x15\x1f@\x9e\xbdj\x11\x8cc\x14@U\xe5\x19-\x11\xae\x15@our\x17\xe0\x15\x1f@our\x17\xe0\x15\x1f@vF\xc9?u\xb7\x04@8\x93\xbd\xe3\x15)\x11@our\x17\xe0\x15\x1f@-\xb6\x89\xeb\x94\xd3\r@`\xd1\xcb\xfa\xd4@\x14@\x16\x9e:\xcdH\xe8\x12@\xb4x3R\xed\x93\x0b@\xc8\x85\x1av\x88j\r@\x17cOt\x8d\x14\x16@xX\xf5\x97\xbe\xfe\x13@our\x17\xe0\x15\x1f@our\x17\xe0\x15\x1f@`\xd1\xcb\xfa\xd4@\x14@\x17&\xc5\xcb\x0b\x13\x1a@\xea{\xa6\xd8\xadv\x1d@\x17&\xc5\xcb\x0b\x13\x1a@\x90\x11U\xa0K\xa4\x10@`YV\xf9\x97k\x1b@\xd9\x1bp\x14\xc5N\x13@our\x17\xe0\x15\x1f@G\xaf\xd9\x01^\xd3\x14@\x17&\xc5\xcb\x0b\x13\x1a@our\x17\xe0\x15\x1f@U\xe5\x19-\x11\xae\x15@`\xd1\xcb\xfa\xd4@\x14@,\xd8\xee\xe9\xc3.\x10@\xda[5t\xcb\x91\x05@(;\xfb9\xb3\x11\x19@\xea{\xa6\xd8\xadv\x1d@"\x8a\xec\x9a\x0c{\x11@\x16\x9e:\xcdH\xe8\x12@\xf3\xe6\xb3WO\x8a\x19@\xa4FGl0\xd0\x12@our\x17\xe0\x15\x1f@\xea{\xa6\xd8\xadv\x1d@0x(\xa8-3\x07@\x17&\xc5\xcb\x0b\x13\x1a@`YV\xf9\x97k\x1b@`YV\xf9\x97k\x1b@'
p4576
tp4577
bsbsS'use_idf'
p4578
I01
sS'sublinear_tf'
p4579
I00
sS'norm'
p4580
Vl2
p4581
sbtp4582
a(S'clsfr'
p4583
g3476
(csklearn.linear_model.stochastic_gradient
SGDClassifier
p4584
g3478
Ntp4585
Rp4586
(dp4587
S't_'
p4588
F8721.0
sS'n_jobs'
p4589
I1
sS'shuffle'
p4590
I01
sS'verbose'
p4591
I0
sS'classes_'
p4592
g4543
(g4544
(I0
tp4593
g4546
tp4594
Rp4595
(I1
(I2
tp4596
g3509
(S'S5'
p4597
I0
I1
tp4598
Rp4599
(I3
S'|'
p4600
NNNI5
I1
I0
tp4601
bI00
S'FalseTrue\x00'
p4602
tp4603
bsS'class_weight'
p4604
NsS'fit_intercept'
p4605
I01
sg8
g9
sS'random_state'
p4606
I42
sg3482
g3483
sS'loss_function'
p4607
csklearn.linear_model.sgd_fast
SquaredHinge
p4608
(F1.0
tp4609
Rp4610
sS'C'
p4611
F1.0
sg7
I5
sS'epsilon'
p4612
F0.1
sS'learning_rate'
p4613
S'optimal'
p4614
sS'coef_'
p4615
g4543
(g4544
(I0
tp4616
g4546
tp4617
Rp4618
(I1
(I1
I250
tp4619
g4573
I00
S'\x00\x00\x00\x00\x00\x00\x00\x00\x00\x00\x00\x00\x00\x00\x00\x00\x00\x00\x00\x00\x00\x00\x00\x00\x00\x00\x00\x00\x00\x00\x00\x00\x00\x00\x00\x00\x00\x00\x00\x00\x00\x00\x00\x00\x00\x00\x00\x00\x00\x00\x00\x00\x00\x00\x00\x00\x00\x00\x00\x00\x00\x00\x00\x00\x00\x00\x00\x00\x00\x00\x00\x00\x13\xffo\x98\x1c\xc8\x07\xc0!\xf6G&\xe3?\x16\xc0l\x1f\xdcE\xca\xbb @QG\xc6mE\xc9-\xc0\x00\x00\x00\x00\x00\x00\x00\x00_\xd5z\xeb\xa1\xeb\xf9\xbf\x00\x00\x00\x00\x00\x00\x00\x00\xa2\x9f+\x85-\x8f\xd0\xbf\x00\x00\x00\x00\x00\x00\x00\x00\x00\x00\x00\x00\x00\x00\x00\x00\x00\x00\x00\x00\x00\x00\x00\x00\x00\x00\x00\x00\x00\x00\x00\x00\xa8+0\xb8W\xe5\x17@\x05)67j\n&@\x00\x00\x00\x00\x00\x00\x00\x00\x00\x00\x00\x00\x00\x00\x00\x00\x00\x00\x00\x00\x00\x00\x00\x00\x00\x00\x00\x00\x00\x00\x00\x00r\x99\xa0\xca\x9e\xe71\xc0\x00\x00\x00\x00\x00\x00\x00\x00\xfb\xb0\xca\x0f!\xed\xd8\xbf\x00\x00\x00\x00\x00\x00\x00\x00\x00\x00\x00\x00\x00\x00\x00\x00\x05`\xcc\r%\xd1#\xc0\x00\x00\x00\x00\x00\x00\x00\x00\xef;\x17&\xaa\xf1\x08\xc0\x11\x1by3\xdd1!\xc0\x00\x00\x00\x00\x00\x00\x00\x00\x00\x00\x00\x00\x00\x00\x00\x00\x00\x00\x00\x00\x00\x00\x00\x00\x00\x00\x00\x00\x00\x00\x00\x00S\x07\xde\xbbT\x1f\x10\xc0\x00\x00\x00\x00\x00\x00\x00\x00T\xb9G\xea\x9am+@\x00\x00\x00\x00\x00\x00\x00\x00\x00\x00\x00\x00\x00\x00\x00\x00\xd8\x82\x0b7\x91c\x0b\xc0\x0f\x18k\xc56\xef!@\x00\x00\x00\x00\x00\x00\x00\x00\x00\x00\x00\x00\x00\x00\x00\x00\x00\x00\x00\x00\x00\x00\x00\x00\x00\x00\x00\x00\x00\x00\x00\x00\x00\x00\x00\x00\x00\x00\x00\x00\x00\x00\x00\x00\x00\x00\x00\x00\x98\x0c\n\r\x1a\xd00\xc0\x00\x00\x00\x00\x00\x00\x00\x00\x00\x00\x00\x00\x00\x00\x00\x00\xe17\xda\x7f+\xd1@\xc0\xbem\xf7\x8a\xc3\xb6.\xc0\x00\x00\x00\x00\x00\x00\x00\x00\x00\x00\x00\x00\x00\x00\x00\x00\x00\x00\x00\x00\x00\x00\x00\x00\x00\x00\x00\x00\x00\x00\x00\x00\x00\x00\x00\x00\x00\x00\x00\x00\x00\x00\x00\x00\x00\x00\x00\x00\x00\x00\x00\x00\x00\x00\x00\x00\xf6\xb7\x90\xc0\x93\xd7\'@\x00\x00\x00\x00\x00\x00\x00\x00\x00\x00\x00\x00\x00\x00\x00\x00FM\x9br\x0c\x07\x11@\x00\x00\x00\x00\x00\x00\x00\x00\x00\x00\x00\x00\x00\x00\x00\x00-\xf8Dj\xca\x03\x1e@\x107}\xf5\x19K+@\x00\x00\x00\x00\x00\x00\x00\x00G\xbfZ\x91\x13o.\xc0\xedg\xd5\xf7\xd8\x82\x1b\xc0\x00\x00\x00\x00\x00\x00\x00\x00\xb4\xfa,t\x14\xcd#\xc0\xc3k"\xacy\xbd\x92\xbf\x00\x00\x00\x00\x00\x00\x00\x00\x00\x00\x00\x00\x00\x00\x00\x00\xeb\xe9V%\x83\x8a+@8\xd5\xc9\x7f\x94\'\x12@e\xdc\xc6\x99\x12!\xfe?\x00\x00\x00\x00\x00\x00\x00\x00\xa5\xae9&\x04\x8a$\xc0\x16D\\\x1cus\xf4\xbfK\x88\xdf9e\xd0.@\x00\x00\x00\x00\x00\x00\x00\x00\xa0\xab}\xbdc\xb9\xfe\xbf\x00\x00\x00\x00\x00\x00\x00\x00\x00\x00\x00\x00\x00\x00\x00\x00\x00\x00\x00\x00\x00\x00\x00\x00\x00\x00\x00\x00\x00\x00\x00\x00\xc4\x0e\xf4ynE\x1c\xc0\x9b\x8c\x84z d5@\x00\x00\x00\x00\x00\x00\x00\x00"\xe6\x84\x180g\x1d\xc0\x00\x00\x00\x00\x00\x00\x00\x00B\xa2\xb46`\xbb!\xc0\x89x\xed`>0\x1a\xc0\xf0f\x91X\xfd\xed\xf8\xbf\x00\x00\x00\x00\x00\x00\x00\x00\x00\x00\x00\x00\x00\x00\x00\x00\xbbZ\x99\x84\xcb|\x05\xc0\x00\x00\x00\x00\x00\x00\x00\x00"W-\xf4\xc5\xf1$@\x00\x00\x00\x00\x00\x00\x00\x00y\x0b\xc7q\xa2\xcf\'@1}\x97H\x9a\x0c\x1f@\xee\x0b\xc0\xf0|\xa5,@K\xdc\'\x1c\x86\x84A\xc0\x00\x00\x00\x00\x00\x00\x00\x00\xfb\x1a\xfb\xb3/\xc3\x1e\xc0r\xa2nx0 \x12\xc00\xc6\xb6Z+K\xf7\xbf\x00\x00\x00\x00\x00\x00\x00\x00\x00\x00\x00\x00\x00\x00\x00\x00\x91\x1c\xbe\x0f\x87}\x19@\xc4\xea\t\x99M\x80\x0f\xc0\x00\x00\x00\x00\x00\x00\x00\x00\x00\x00\x00\x00\x00\x00\x00\x00\x00\x00\x00\x00\x00\x00\x00\x00E?A\xd2\xfd\x1f\xe2\xbf\x00\x00\x00\x00\x00\x00\x00\x00\x00\x00\x00\x00\x00\x00\x00\x00\x90\xf4\x10\x10:M+@\x00\x00\x00\x00\x00\x00\x00\x00~$xD\x0ea&\xc0\x9d\xdd\x878j\x7f\x1d\xc0\x00\x00\x00\x00\x00\x00\x00\x00\x00\x00\x00\x00\x00\x00\x00\x00\xecv|\x8e\x83\x87.\xc0\x00\x00\x00\x00\x00\x00\x00\x00\x00\x00\x00\x00\x00\x00\x00\x00\xf9\x82<9\x0c\x1f%\xc0S\xa0\xa7_8\x8b4@\xe6\x8eK\x94\x99\x060@\x00\x00\x00\x00\x00\x00\x00\x00\x00\x00\x00\x00\x00\x00\x00\x00\x00\x00\x00\x00\x00\x00\x00\x00\xd6\x80}\xca\xe2B9\xc0\x9f\xfc@)\xf7\xd2\x1b@\x00\x00\x00\x00\x00\x00\x00\x00\x00\x00\x00\x00\x00\x00\x00\x00\x00\x00\x00\x00\x00\x00\x00\x00\xe8\x8f@\xe7\x14q\'\xc0\xa5\x12\xbc\xddG\x0b\x01\xc0\x00\x00\x00\x00\x00\x00\x00\x00\xb2\x0f\xf9\xac\xb8V\t\xc0\x00\x00\x00\x00\x00\x00\x00\x00B>\x8a\x1d\xd6k\xbe\xbf\x00\x00\x00\x00\x00\x00\x00\x00\xf5la\xb8\xbe\xb7\xd0\xbf\xd5X\xb0\x1f@\xc1\x11\xc0\x00\x00\x00\x00\x00\x00\x00\x00\x00\x00\x00\x00\x00\x00\x00\x00\x00\x00\x00\x00\x00\x00\x00\x00\x00\x00\x00\x00\x00\x00\x00\x00\x00\x00\x00\x00\x00\x00\x00\x00\x00\x00\x00\x00\x00\x00\x00\x00\x00\x00\x00\x00\x00\x00\x00\x00\x14\x9e+\xfe\xc5\xfd%\xc0\x00\x00\x00\x00\x00\x00\x00\x00\x00\x00\x00\x00\x00\x00\x00\x00\xa2\x9f+\x85-\x8f\xd0\xbf\x00\x00\x00\x00\x00\x00\x00\x00\x00\x00\x00\x00\x00\x00\x00\x00\x00\x00\x00\x00\x00\x00\x00\x00F>\xf2\x8b\xa9\x85\x01\xc0\x00\x00\x00\x00\x00\x00\x00\x00\x0e\xf1Yd\x87\x05\x19@\xc7c8\xa6c\xf8\x00\xc0\x00\x00\x00\x00\x00\x00\x00\x00\x00\x00\x00\x00\x00\x00\x00\x001}\x97H\x9a\x0c\x1f@\xc4\x90`/o\xa0\xf4\xbf\xc5\xa6\xb6\x82\x96@\xf7?\x00\x00\x00\x00\x00\x00\x00\x00\x00\x00\x00\x00\x00\x00\x00\x00\x00\x00\x00\x00\x00\x00\x00\x00!\xb3\x86M\x85{\x11\xc0\x8d\xf9>\xc8\xdb\x88\x02\xc0\x00\x00\x00\x00\x00\x00\x00\x00\x00\x00\x00\x00\x00\x00\x00\x00\x00\x00\x00\x00\x00\x00\x00\x00\x00\x00\x00\x00\x00\x00\x00\x00\x00\x00\x00\x00\x00\x00\x00\x00\x00\x00\x00\x00\x00\x00\x00\x00\xb0\xc7\xbc-\x97\xa1\x14\xc0\x00\x00\x00\x00\x00\x00\x00\x00\x00\x00\x00\x00\x00\x00\x00\x00\x00\x00\x00\x00\x00\x00\x00\x00\x00\x00\x00\x00\x00\x00\x00\x00\x00\x00\x00\x00\x00\x00\x00\x00\x92Li`\xb0\xf1\xf6\xbf\x00\x00\x00\x00\x00\x00\x00\x00\x00\x00\x00\x00\x00\x00\x00\x00\x00\x00\x00\x00\x00\x00\x00\x00\x00\x00\x00\x00\x00\x00\x00\x00\x00\x00\x00\x00\x00\x00\x00\x00?NR\xfa\xa1X\xca\xbf\x00\x00\x00\x00\x00\x00\x00\x00\x00\x00\x00\x00\x00\x00\x00\x00\x00\x00\x00\x00\x00\x00\x00\x00\x00\x00\x00\x00\x00\x00\x00\x00\x00\x00\x00\x00\x00\x00\x00\x00g#\xf9\xfb\x91\x8d\x17@\x05\x1bf\xac\x8d[\x08\xc0\x00\x00\x00\x00\x00\x00\x00\x00\x00\x00\x00\x00\x00\x00\x00\x00\xf9\xcb\\+}p)@\x164\xc8\x12u\xb4"\xc0\x00\x00\x00\x00\x00\x00\x00\x00\x07m\xc3\x95\x9a[\x04\xc0\x00\x00\x00\x00\x00\x00\x00\x00\x15\xf4\x1d\xe4R\xd8\x12\xc0\xe8\x80\x97-\x8a\xb1\x17\xc0~\xc9\xe6:\xcb\xb2\x07@\x00\x00\x00\x00\x00\x00\x00\x00\x00\x00\x00\x00\x00\x00\x00\x00\x00\x00\x00\x00\x00\x00\x00\x00\x00\x00\x00\x00\x00\x00\x00\x00\x00\x00\x00\x00\x00\x00\x00\x00\x00\x00\x00\x00\x00\x00\x00\x00\x00\x00\x00\x00\x00\x00\x00\x00\x00\x00\x00\x00\x00\x00\x00\x00\xd5\xa1\xfcIL\xf2\x12\xc0\x00\x00\x00\x00\x00\x00\x00\x00\x00\x00\x00\x00\x00\x00\x00\x00\x00\x00\x00\x00\x00\x00\x00\x00\xa6\xef\x03m\xb3\xde\x17\xc0\x00\x00\x00\x00\x00\x00\x00\x00\x00\x00\x00\x00\x00\x00\x00\x009D\x03r\x94{ \xc0\x1a\xee\xc1i\xfd\xcd7\xc0\x00\x00\x00\x00\x00\x00\x00\x00\xfb`\xaa\xec\xd2\xbf\xfa\xbf\x92\x97\x89\xd0\x9e\x8a\x08\xc0\x00\x00\x00\x00\x00\x00\x00\x00\xe40\xd3%\xffd\x13@\x8f\x87\xc8\x9dZd\x10\xc0\xf2\x89\xc9\xf7\x87q3@\x00\x00\x00\x00\x00\x00\x00\x00\x00\x00\x00\x00\x00\x00\x00\x00\x00\x00\x00\x00\x00\x00\x00\x00C\xff\xa1\xef\xde\xc5\x04@\x00\x00\x00\x00\x00\x00\x00\x00\x00\x00\x00\x00\x00\x00\x00\x00\x00\x00\x00\x00\x00\x00\x00\x00'
p4620
tp4621
bsg11
F0.001
sS'intercept_'
p4622
g4543
(g4544
(I0
tp4623
g4546
tp4624
Rp4625
(I1
(I1
tp4626
g4573
I00
S'\xfe=\xe4kw&0\xc0'
p4627
tp4628
bsS'_expanded_class_weight'
p4629
g4543
(g4544
(I0
tp4630
g4546
tp4631
Rp4632
(I1
(I2
tp4633
g4573
I00
S'\x00\x00\x00\x00\x00\x00\xf0?\x00\x00\x00\x00\x00\x00\xf0?'
p4634
tp4635
bsS'warm_start'
p4636
I00
sg2
g3
sS'eta0'
p4637
F0.0
sS'l1_ratio'
p4638
F0.15
sS'average'
p4639
I00
sS'power_t'
p4640
F0.5
sbtp4641
asbsb.