(ialicized_models
CommandMatchingModel
p0
(dp1
S'loss'
p2
S'hinge'
p3
sS'grammar'
p4
NsS'name'
p5
S'GET_TIME.model'
p6
sS'n_iter'
p7
I5
sS'penalty'
p8
S'l2'
p9
sS'trained'
p10
I01
sS'alpha'
p11
F0.001
sS'data'
p12
(lp13
(S'get forecast'
p14
S'False'
p15
tp16
a(S'please can you check inbox'
p17
g15
tp18
a(S'what do i have in a month'
p19
g15
tp20
a(S'do i have to do anything on saturday'
p21
g15
tp22
a(S'lock my computer'
p23
g15
tp24
a(S'am i free for sunday'
p25
g15
tp26
a(S'go ahead spotify please'
p27
g15
tp28
a(S'would you open my inbox please'
p29
g15
tp30
a(S'what events do i have on saturday'
p31
g15
tp32
a(S''
p33
g15
tp34
a(S'please kill this window'
p35
g15
tp36
a(S"don't check the clock"
p37
g15
tp38
a(S'see ya'
p39
g15
tp40
a(S'can you please turn the tune down'
p41
g15
tp42
a(S'check my calendar for wednesday'
p43
g15
tp44
a(S'clock'
p45
g15
tp46
a(S'shutdown my computer'
p47
g15
tp48
a(S'please create new event'
p49
g15
tp50
a(S'what is in my mail please'
p51
g15
tp52
a(S'check my calendar on this week'
p53
g15
tp54
a(S'tell me news feed'
p55
g15
tp56
a(S'the news'
p57
g15
tp58
a(g33
g15
tp59
a(S"don't i have anything to do on friday"
p60
g15
tp61
a(S"what's new in new gmail please"
p62
g15
tp63
a(S"please don't get current time"
p64
g15
tp65
a(S"don't i have anything to do in a month"
p66
g15
tp67
a(S"please don't read time"
p68
g15
tp69
a(S'turn up the sound'
p70
g15
tp71
a(S"how's the weather today"
p72
g15
tp73
a(S'check calendar'
p74
g15
tp75
a(S'volume up'
p76
g15
tp77
a(S'are there any events on monday'
p78
g15
tp79
a(S'please could you check inbox'
p80
g15
tp81
a(S'google for'
p82
g15
tp83
a(S'can you make new event please'
p84
g15
tp85
a(S'do i have any events on friday'
p86
g15
tp87
a(S'what events are on thursday'
p88
g15
tp89
a(S'what are the the news'
p90
g15
tp91
a(S'could you schedule a new event'
p92
g15
tp93
a(S'am i free for saturday'
p94
g15
tp95
a(S"get today's temperature"
p96
g15
tp97
a(S'check google calendar on friday'
p98
g15
tp99
a(S'please check mail'
p100
g15
tp101
a(S'can you please close active window'
p102
g15
tp103
a(S"please don't check the current time"
p104
g15
tp105
a(S'please would you open gmail'
p106
g15
tp107
a(S'what is live newsfeed'
p108
g15
tp109
a(S"if it's foggy today"
p110
g15
tp111
a(S'spotify last please'
p112
g15
tp113
a(S"please what's in gmail"
p114
g15
tp115
a(S'can you shut down my computer'
p116
g15
tp117
a(S'create event'
p118
g15
tp119
a(S"today's forecast"
p120
g15
tp121
a(S'do not get time'
p122
g15
tp123
a(S'start'
p124
g15
tp125
a(S'can you please schedule an event'
p126
g15
tp127
a(S"please don't get me the clock"
p128
g15
tp129
a(S"what's new in gmail please"
p130
g15
tp131
a(S"what's in gmail"
p132
g15
tp133
a(S'any events on thursday'
p134
g15
tp135
a(S'start browsing please'
p136
g15
tp137
a(S'please will you check new gmail'
p138
g15
tp139
a(S"what's new in my inbox"
p140
g15
tp141
a(S'spotify shut up'
p142
g15
tp143
a(S"if it's rainy today"
p144
g15
tp145
a(S'check google calendar on sunday'
p146
g15
tp147
a(S'find newsfeed'
p148
g15
tp149
a(S'can you check mail'
p150
g15
tp151
a(S'spotify next'
p152
g15
tp153
a(S'google for please'
p154
g15
tp155
a(S'spotify stop playing'
p156
g15
tp157
a(S'do not read time please'
p158
g15
tp159
a(S"don't read the clock"
p160
g15
tp161
a(S"what's in mail"
p162
g15
tp163
a(S'please what is new in mail'
p164
g15
tp165
a(S'is there anything to do on today'
p166
g15
tp167
a(S'is there anything to do today'
p168
g15
tp169
a(S'get current news'
p170
g15
tp171
a(S"don't when is it please"
p172
g15
tp173
a(S'check events for friday'
p174
g15
tp175
a(S'what do i have to do'
p176
g15
tp177
a(S'do i have anything to do on friday'
p178
g15
tp179
a(S'will you check mail please'
p180
g15
tp181
a(S'can you shut off'
p182
g15
tp183
a(S'get the clock'
p184
S'True'
p185
tp186
a(S"what's forecast"
p187
g15
tp188
a(S'alex'
p189
g15
tp190
a(S'anything in my inbox'
p191
g15
tp192
a(S'make event please'
p193
g15
tp194
a(S'please read your watch'
p195
g185
tp196
a(S'lower the tunez please'
p197
g15
tp198
a(S'please read the clock'
p199
g185
tp200
a(S'music down'
p201
g15
tp202
a(S'anything in mail'
p203
g15
tp204
a(S'please would you check my inbox'
p205
g15
tp206
a(S'check calendar for wednesday'
p207
g15
tp208
a(S'add an event'
p209
g15
tp210
a(S'check events on monday'
p211
g15
tp212
a(S"today's weather"
p213
g15
tp214
a(S'check google calendar for'
p215
g15
tp216
a(S'turn yourself off'
p217
g15
tp218
a(S'turn off'
p219
g15
tp220
a(S'create a new event please'
p221
g15
tp222
a(S'headlines today'
p223
g15
tp224
a(S'schedule event'
p225
g15
tp226
a(S'can you check my mail please'
p227
g15
tp228
a(S'what events are on tuesday'
p229
g15
tp230
a(S'next spotify please'
p231
g15
tp232
a(S'make new event'
p233
g15
tp234
a(S'can you please close this window'
p235
g15
tp236
a(S'check events on'
p237
g15
tp238
a(S'could you check new mail'
p239
g15
tp240
a(S'please tell me whats going on in the news please'
p241
g15
tp242
a(S'check my calendar for tomorrow'
p243
g15
tp244
a(S'please make an event'
p245
g15
tp246
a(S'what is headlines'
p247
g15
tp248
a(S'could you check my inbox please'
p249
g15
tp250
a(S'can you please turn the beat down'
p251
g15
tp252
a(S'please check my mail'
p253
g15
tp254
a(S'lock the screen please'
p255
g15
tp256
a(S'tell me live newsfeed'
p257
g15
tp258
a(S"don't i have anything on next"
p259
g15
tp260
a(S'current news today'
p261
g15
tp262
a(S'do i have any events on monday'
p263
g15
tp264
a(S"what's the weather today"
p265
g15
tp266
a(S'could you please schedule new event'
p267
g15
tp268
a(S"don't get clock please"
p269
g15
tp270
a(S'what do i have to do on saturday'
p271
g15
tp272
a(S'check events for'
p273
g15
tp274
a(S'please spotify previous'
p275
g15
tp276
a(S'please shutdown'
p277
g15
tp278
a(S'please do not read time'
p279
g15
tp280
a(S'do i have to do anything tomorrow'
p281
g15
tp282
a(S'would you open my mail please'
p283
g15
tp284
a(S"don't i have any events on thursday"
p285
g15
tp286
a(S'do not retrieve what time it is'
p287
g15
tp288
a(S'do not check the current time'
p289
g15
tp290
a(S'create event please'
p291
g15
tp292
a(S'please open my gmail'
p293
g15
tp294
a(S'could you check my gmail'
p295
g15
tp296
a(S'what is on my calendar for tuesday'
p297
g15
tp298
a(S'go back to the last song '
p299
g15
tp300
a(S'what is on my calendar for saturday'
p301
g15
tp302
a(S'please make new event'
p303
g15
tp304
a(S'please do not when is it'
p305
g15
tp306
a(S'turn up the the beat'
p307
g15
tp308
a(S'am i free for tuesday'
p309
g15
tp310
a(S'spotify previous please'
p311
g15
tp312
a(S'please start browser'
p313
g15
tp314
a(S'check calendar for this day'
p315
g15
tp316
a(S"what's new in mail"
p317
g15
tp318
a(S"what's the the news"
p319
g15
tp320
a(S'check gmail please'
p321
g15
tp322
a(S'please can you check my inbox'
p323
g15
tp324
a(S"what's in my mail"
p325
g15
tp326
a(S'will you check my gmail please'
p327
g15
tp328
a(S'the news today'
p329
g15
tp330
a(S"this week's temperature"
p331
g15
tp332
a(S'check events on saturday'
p333
g15
tp334
a(S'will you open my gmail please'
p335
g15
tp336
a(S'can you check new mail please'
p337
g15
tp338
a(S'get the time please'
p339
g185
tp340
a(S"don't i have anything on friday"
p341
g15
tp342
a(S'is there anything i have to do in a month'
p343
g15
tp344
a(S"please what's new in my inbox"
p345
g15
tp346
a(S'spotify go to the last song'
p347
g15
tp348
a(S"get if it's rainy today"
p349
g15
tp350
a(S"what's in my gmail please"
p351
g15
tp352
a(S'is there anything to do in a week'
p353
g15
tp354
a(S"this week's forecast"
p355
g15
tp356
a(S'check google calendar for tomorrow'
p357
g15
tp358
a(S"today's current events"
p359
g15
tp360
a(S'get the time'
p361
g185
tp362
a(S"don't check the current time"
p363
g15
tp364
a(S"what's if it's cloudy today"
p365
g15
tp366
a(S'what do i have on tomorrow'
p367
g15
tp368
a(S"get if it's hot today"
p369
g15
tp370
a(S'please do not check your watch'
p371
g15
tp372
a(S'spotify stop the song '
p373
g15
tp374
a(S'search google'
p375
g15
tp376
a(S'turn off the computer please'
p377
g15
tp378
a(S"don't i have anything to do on next"
p379
g15
tp380
a(S'please kill active window'
p381
g15
tp382
a(S'can you please kill the active window'
p383
g15
tp384
a(S"don't check what time it is"
p385
g15
tp386
a(S'pause spotify please'
p387
g15
tp388
a(g33
g15
tp389
a(S'create an event'
p390
g15
tp391
a(S'lock computer'
p392
g15
tp393
a(S'could you make an event'
p394
g15
tp395
a(S"please don't read the time"
p396
g15
tp397
a(S'please kill the window'
p398
g15
tp399
a(S'what is in the news today'
p400
g15
tp401
a(g33
g15
tp402
a(S'what events do i have on'
p403
g15
tp404
a(S'is it rainy this week'
p405
g15
tp406
a(S'anything new in my gmail'
p407
g15
tp408
a(S'would you check new gmail please'
p409
g15
tp410
a(S'search for'
p411
g15
tp412
a(S'create a new event'
p413
g15
tp414
a(S'get the the latest headlines'
p415
g15
tp416
a(S'do i have anything to do in a month'
p417
g15
tp418
a(S"today's weather"
p419
g15
tp420
a(S"don't get me the clock please"
p421
g15
tp422
a(S'current temperature'
p423
g15
tp424
a(S'could you add an event'
p425
g15
tp426
a(S'do not read your watch'
p427
g15
tp428
a(S'am i free for friday'
p429
g15
tp430
a(S'what is new in gmail'
p431
g15
tp432
a(S'please close active window'
p433
g15
tp434
a(S'would you check gmail please'
p435
g15
tp436
a(g33
g15
tp437
a(S'what do i have to do in a week'
p438
g15
tp439
a(S'check events on thursday'
p440
g15
tp441
a(S"aren't there any events in a month"
p442
g15
tp443
a(S'turn up the tunes'
p444
g15
tp445
a(S'shut my computer down'
p446
g15
tp447
a(S'please spotify play last song'
p448
g15
tp449
a(S"don't get the time please"
p450
g15
tp451
a(S'check events on sunday'
p452
g15
tp453
a(S'how is the weather'
p454
g15
tp455
a(S'find the current events'
p456
g15
tp457
a(S'please get the current events'
p458
g15
tp459
a(S'could you schedule an event'
p460
g15
tp461
a(S'open dot net'
p462
g15
tp463
a(S'weather'
p464
g15
tp465
a(S"what're the news feed"
p466
g15
tp467
a(S'find current events'
p468
g15
tp469
a(S"don't get current time"
p470
g15
tp471
a(S'spotify play the song'
p472
g15
tp473
a(S'please check my inbox'
p474
g15
tp475
a(S'what events are on next'
p476
g15
tp477
a(S"don't check your watch please"
p478
g15
tp479
a(S'open dot org'
p480
g15
tp481
a(S'next song'
p482
g15
tp483
a(S"aren't there any events in a week"
p484
g15
tp485
a(S"get this week's forecast"
p486
g15
tp487
a(S"please what's new in inbox"
p488
g15
tp489
a(S'are there any events on wednesday'
p490
g15
tp491
a(S"what's the clock not"
p492
g15
tp493
a(S'open gmail'
p494
g15
tp495
a(S'check the current time please'
p496
g185
tp497
a(S'do i have anything in a month'
p498
g15
tp499
a(S'will you open my inbox'
p500
g15
tp501
a(S'kill window'
p502
g15
tp503
a(S"what's the newsfeed"
p504
g15
tp505
a(S'could you open my gmail'
p506
g15
tp507
a(S'please get me the clock'
p508
g185
tp509
a(S'what is in mail please'
p510
g15
tp511
a(S"what's new in my mail please"
p512
g15
tp513
a(S'do i have to do anything to do'
p514
g15
tp515
a(S'make the volume 0'
p516
g15
tp517
a(S'do i have to do anything on this day'
p518
g15
tp519
a(S'get the news'
p520
g15
tp521
a(S"don't i have anything on thursday"
p522
g15
tp523
a(S'turn up the volume'
p524
g15
tp525
a(S"please don't read your watch"
p526
g15
tp527
a(S"don't read time"
p528
g15
tp529
a(S'can you mute'
p530
g15
tp531
a(S"don't i have anything to do on wednesday"
p532
g15
tp533
a(S'lower the volume'
p534
g15
tp535
a(S'please shutdown my computer'
p536
g15
tp537
a(S'will you get the current events'
p538
g15
tp539
a(S"don't get the current time"
p540
g15
tp541
a(S'please do not read the time'
p542
g15
tp543
a(S'add new event please'
p544
g15
tp545
a(S'make a new event'
p546
g15
tp547
a(S'can you lock the screen'
p548
g15
tp549
a(S'do not get the time please'
p550
g15
tp551
a(S'please what is in mail'
p552
g15
tp553
a(S'please what is in inbox'
p554
g15
tp555
a(S'can you shut down the computer'
p556
g15
tp557
a(S'live news feed'
p558
g15
tp559
a(S'can you create new event'
p560
g15
tp561
a(S'todays headlines'
p562
g15
tp563
a(S'can you shutdown the computer'
p564
g15
tp565
a(S'check my inbox'
p566
g15
tp567
a(S'find live newsfeed'
p568
g15
tp569
a(S'do i have anything to do'
p570
g15
tp571
a(S'could you check inbox please'
p572
g15
tp573
a(S'could you open my inbox please'
p574
g15
tp575
a(S'read the clock'
p576
g185
tp577
a(S"don't i have to do anything on next"
p578
g15
tp579
a(S"please what's in my mail"
p580
g15
tp581
a(S'any events on monday'
p582
g15
tp583
a(S'please google for'
p584
g15
tp585
a(S'am i free for a month'
p586
g15
tp587
a(S'would you check gmail'
p588
g15
tp589
a(S'please could you check my mail'
p590
g15
tp591
a(S'what do i have to do on today'
p592
g15
tp593
a(S'please spotify pause the song'
p594
g15
tp595
a(S'what is in gmail'
p596
g15
tp597
a(S'please can you check new gmail'
p598
g15
tp599
a(S'do not get the clock please'
p600
g15
tp601
a(S'spotify pause the song please'
p602
g15
tp603
a(S'will you check mail'
p604
g15
tp605
a(S'please close this window'
p606
g15
tp607
a(S'turn up the beat'
p608
g15
tp609
a(S'do not check your watch please'
p610
g15
tp611
a(S'could you create a new event'
p612
g15
tp613
a(S'do i have any events on thursday'
p614
g15
tp615
a(S"please don't check the clock"
p616
g15
tp617
a(S'check calendar for this week'
p618
g15
tp619
a(S'please start browsing'
p620
g15
tp621
a(S'read me the clock please'
p622
g185
tp623
a(S'am i free for thursday'
p624
g15
tp625
a(S'is there anything to do on'
p626
g15
tp627
a(S'what time is it now'
p628
g185
tp629
a(S"get if it's freezing today"
p630
g15
tp631
a(S'check my calendar for this day'
p632
g15
tp633
a(S'search for please'
p634
g15
tp635
a(S'please pause spotify'
p636
g15
tp637
a(S'turn off the computer'
p638
g15
tp639
a(S'could you schedule an event please'
p640
g15
tp641
a(S"aren't there any events on sunday"
p642
g15
tp643
a(S'could you please create new event'
p644
g15
tp645
a(S'check calendar on tuesday'
p646
g15
tp647
a(S'could you add event please'
p648
g15
tp649
a(S'turn my computer off please'
p650
g15
tp651
a(S'please what is new in my mail'
p652
g15
tp653
a(S"what's if it's cold today"
p654
g15
tp655
a(S'please close the current window'
p656
g15
tp657
a(S'check your watch please'
p658
g185
tp659
a(S'what do i have to do on wednesday'
p660
g15
tp661
a(S"what's new in my gmail please"
p662
g15
tp663
a(S'shutdown my computer please'
p664
g15
tp665
a(S'please can you check gmail'
p666
g15
tp667
a(S'could you make new event please'
p668
g15
tp669
a(S'gather the latest headlines please'
p670
g15
tp671
a(S'search please'
p672
g15
tp673
a(S'am i free on monday'
p674
g15
tp675
a(S'make the sound louder'
p676
g15
tp677
a(S'is it cloudy this week'
p678
g15
tp679
a(S'can you open this program'
p680
g15
tp681
a(S'is there anything to do on this day'
p682
g15
tp683
a(S'check your watch'
p684
g185
tp685
a(S'check what time it is'
p686
g185
tp687
a(S'please turn it up'
p688
g15
tp689
a(S'can you please close the current window'
p690
g15
tp691
a(S'will you check new gmail please'
p692
g15
tp693
a(S'check calendar for this month'
p694
g15
tp695
a(S"get if it's raining this week"
p696
g15
tp697
a(S'will you check inbox'
p698
g15
tp699
a(S'check my calendar for saturday'
p700
g15
tp701
a(S"what's today's weather"
p702
g15
tp703
a(S'check my calendar for sunday'
p704
g15
tp705
a(S'be quiet'
p706
g15
tp707
a(S'retrieve what time it is please'
p708
g185
tp709
a(S'please check what time it is'
p710
g185
tp711
a(S"please what's new in mail"
p712
g15
tp713
a(S'is there anything i have to do on today'
p714
g15
tp715
a(S'what is on my calendar for this week'
p716
g15
tp717
a(S'are there any events on friday'
p718
g15
tp719
a(S"don't check what time it is please"
p720
g15
tp721
a(S'do i have to do anything next'
p722
g15
tp723
a(S"what's new in inbox"
p724
g15
tp725
a(S'will you check gmail'
p726
g15
tp727
a(S'check calendar on sunday'
p728
g15
tp729
a(g33
g15
tp730
a(S'do i have any events in a month'
p731
g15
tp732
a(S'what events are on tomorrow'
p733
g15
tp734
a(S'please lock the screen'
p735
g15
tp736
a(S'good bye'
p737
g15
tp738
a(S"please what's in my gmail"
p739
g15
tp740
a(S'can you please schedule a new event'
p741
g15
tp742
a(S'please do not get time'
p743
g15
tp744
a(S'are there any events in a month'
p745
g15
tp746
a(S'check my calendar on friday'
p747
g15
tp748
a(S"how's the forecast today"
p749
g15
tp750
a(S"what's if it's rainy today"
p751
g15
tp752
a(S'what events do i have on this day'
p753
g15
tp754
a(S'what events do i have on monday'
p755
g15
tp756
a(S'what events do i have on friday'
p757
g15
tp758
a(S'can you please add new event'
p759
g15
tp760
a(S'can you turn the beat down'
p761
g15
tp762
a(S'check my calendar for today'
p763
g15
tp764
a(S'do i have anything tomorrow'
p765
g15
tp766
a(S'can you please shut off'
p767
g15
tp768
a(S"don't get time"
p769
g15
tp770
a(S'check new mail'
p771
g15
tp772
a(S"don't i have to do anything on thursday"
p773
g15
tp774
a(S'turn my computer off'
p775
g15
tp776
a(S'read the time please'
p777
g185
tp778
a(S'shut down the computer please'
p779
g15
tp780
a(S'lock my computer please'
p781
g15
tp782
a(S'could you create event please'
p783
g15
tp784
a(S'search please for'
p785
g15
tp786
a(S'please shut off my computer'
p787
g15
tp788
a(S'retrieve what time it is'
p789
g185
tp790
a(S'can you please turn up the sound'
p791
g15
tp792
a(S'can you please shutdown the computer'
p793
g15
tp794
a(S'can you schedule a new event'
p795
g15
tp796
a(g33
g15
tp797
a(S'can you make new event'
p798
g15
tp799
a(S'please stop song'
p800
g15
tp801
a(S"what's the weather"
p802
g15
tp803
a(S'can you check my gmail'
p804
g15
tp805
a(S'what are the newsfeed'
p806
g15
tp807
a(S'what is in my inbox please'
p808
g15
tp809
a(S'turn up the tunez please'
p810
g15
tp811
a(S'check calendar for sunday'
p812
g15
tp813
a(S'can you check inbox'
p814
g15
tp815
a(S'please what is in new mail'
p816
g15
tp817
a(g33
g15
tp818
a(S'check events on this week'
p819
g15
tp820
a(S'anything in my mail'
p821
g15
tp822
a(S'what are the current events'
p823
g15
tp824
a(g33
g15
tp825
a(S'will you open my mail please'
p826
g15
tp827
a(S'sweet dreams alice'
p828
g15
tp829
a(S"aren't there any events on"
p830
g15
tp831
a(S'please can you check mail'
p832
g15
tp833
a(S'can you please schedule event'
p834
g15
tp835
a(S"don't read the clock please"
p836
g15
tp837
a(S'check calendar on friday'
p838
g15
tp839
a(S'can you please turn off'
p840
g15
tp841
a(S'will it rain this week'
p842
g15
tp843
a(S'am i free'
p844
g15
tp845
a(S'would you check mail'
p846
g15
tp847
a(S'check calendar for next'
p848
g15
tp849
a(S'what events are'
p850
g15
tp851
a(S'please volume higher'
p852
g15
tp853
a(S'tell me the news'
p854
g15
tp855
a(S'what do i have on wednesday'
p856
g15
tp857
a(S'please will you check mail'
p858
g15
tp859
a(S'would you check my mail please'
p860
g15
tp861
a(S'please lock computer'
p862
g15
tp863
a(S'will you open my mail'
p864
g15
tp865
a(S'make a new event please'
p866
g15
tp867
a(S'pause spotify'
p868
g15
tp869
a(S'put me on the lock screen'
p870
g15
tp871
a(S'tell me live news feed'
p872
g15
tp873
a(S'can you shutdown'
p874
g15
tp875
a(S'do not read the clock please'
p876
g15
tp877
a(S'what is in my mail'
p878
g15
tp879
a(S'is there anything i have to do on wednesday'
p880
g15
tp881
a(S'spotify stop'
p882
g15
tp883
a(S'turn up'
p884
g15
tp885
a(S'would you check my mail'
p886
g15
tp887
a(S"don't get current time please"
p888
g15
tp889
a(S'extract the features using almost the same feature'
p890
g15
tp891
a(S"don't i have any events on tuesday"
p892
g15
tp893
a(S'news now please'
p894
g15
tp895
a(S'are there any events on sunday'
p896
g15
tp897
a(S'please turn off my computer'
p898
g15
tp899
a(S'retrieve the current time'
p900
g185
tp901
a(S'check calendar on'
p902
g15
tp903
a(S'check google calendar for this day'
p904
g15
tp905
a(S'get the clock please'
p906
g185
tp907
a(S"what's new in inbox please"
p908
g15
tp909
a(S'please create an event'
p910
g15
tp911
a(S'search google please'
p912
g15
tp913
a(S'do not get current time please'
p914
g15
tp915
a(S'what is on my calendar for this day'
p916
g15
tp917
a(S"don't i have to do anything"
p918
g15
tp919
a(S'can you please turn up the tune'
p920
g15
tp921
a(S'can you please shutdown'
p922
g15
tp923
a(S"don't i have to do anything on this day"
p924
g15
tp925
a(S'am i free for this day'
p926
g15
tp927
a(S'please shut my computer down'
p928
g15
tp929
a(S'please make a new event'
p930
g15
tp931
a(S"please what's new in my gmail"
p932
g15
tp933
a(S'check events for tuesday'
p934
g15
tp935
a(S'check inbox please'
p936
g15
tp937
a(S'am i free for'
p938
g15
tp939
a(S'spotify play'
p940
g15
tp941
a(S'can you check my inbox please'
p942
g15
tp943
a(S'google search please'
p944
g15
tp945
a(S'check calendar on monday'
p946
g15
tp947
a(S'can you turn up the tune'
p948
g15
tp949
a(S'get time'
p950
g185
tp951
a(S"don't i have to do anything on wednesday"
p952
g15
tp953
a(S"please don't check the clock right now"
p954
g15
tp955
a(S'go to dot org'
p956
g15
tp957
a(S'please open my inbox'
p958
g15
tp959
a(S"don't get the current time please"
p960
g15
tp961
a(S'can you get the latest headlines'
p962
g15
tp963
a(S'check google calendar on thursday'
p964
g15
tp965
a(S'will you open a browser'
p966
g15
tp967
a(S'please schedule a new event'
p968
g15
tp969
a(S'make event'
p970
g15
tp971
a(S"what's new in mail please"
p972
g15
tp973
a(S'do i have to do anything on monday'
p974
g15
tp975
a(S'please start a browser'
p976
g15
tp977
a(g33
g15
tp978
a(S'make the sound quieter'
p979
g15
tp980
a(S'what events do i have on thursday'
p981
g15
tp982
a(S'what is in my gmail'
p983
g15
tp984
a(S'sound higher please'
p985
g15
tp986
a(S'please can you turn the volume higher'
p987
g15
tp988
a(S'google please'
p989
g15
tp990
a(S"don't i have to do anything"
p991
g15
tp992
a(S'could you check my inbox'
p993
g15
tp994
a(S'what do i have in a week'
p995
g15
tp996
a(S"don't i have to do anything on"
p997
g15
tp998
a(S'please close the active window'
p999
g15
tp1000
a(S'tell me live news'
p1001
g15
tp1002
a(S'please do not get clock'
p1003
g15
tp1004
a(S"what's the live news feed"
p1005
g15
tp1006
a(S'do i have to do anything on friday'
p1007
g15
tp1008
a(S'is there anything i have to do'
p1009
g15
tp1010
a(S'get newsfeed'
p1011
g15
tp1012
a(S'exit please'
p1013
g15
tp1014
a(S'do not read the time'
p1015
g15
tp1016
a(S'can you make an event'
p1017
g15
tp1018
a(S'can you put me on the lock screen please'
p1019
g15
tp1020
a(S"what's new in gmail"
p1021
g15
tp1022
a(S'what do i have to do on sunday'
p1023
g15
tp1024
a(S'unmute please'
p1025
g15
tp1026
a(S'can you put me on the lock screen'
p1027
g15
tp1028
a(S"please don't check your watch"
p1029
g15
tp1030
a(S'please turn my computer off'
p1031
g15
tp1032
a(S'gimme the news'
p1033
g15
tp1034
a(S'do not read the time please'
p1035
g15
tp1036
a(S"don't i have any events on tomorrow"
p1037
g15
tp1038
a(S'do not retrieve what time it is please'
p1039
g15
tp1040
a(S'close active window'
p1041
g15
tp1042
a(S'kill current window'
p1043
g15
tp1044
a(S'check google calendar on today'
p1045
g15
tp1046
a(S'please check my gmail'
p1047
g15
tp1048
a(S'please search google'
p1049
g15
tp1050
a(g33
g15
tp1051
a(S"don't check the clock right now"
p1052
g15
tp1053
a(S'please do not retrieve the time'
p1054
g15
tp1055
a(S'please could you check my inbox'
p1056
g15
tp1057
a(S'do i have anything on'
p1058
g15
tp1059
a(S'check google calendar for today'
p1060
g15
tp1061
a(g33
g15
tp1062
a(S'can you turn off'
p1063
g15
tp1064
a(S'please make event'
p1065
g15
tp1066
a(S"don't i have anything to do"
p1067
g15
tp1068
a(S'please turn off'
p1069
g15
tp1070
a(S'do i have anything on next'
p1071
g15
tp1072
a(S'what events are on sunday'
p1073
g15
tp1074
a(S'kill the active program'
p1075
g15
tp1076
a(S"what's if it's snowing this week"
p1077
g15
tp1078
a(g33
g185
tp1079
a(S'please open mail'
p1080
g15
tp1081
a(S'do i have anything to do on next'
p1082
g15
tp1083
a(S'check my calendar for this week'
p1084
g15
tp1085
a(S"what's if it's foggy this week"
p1086
g15
tp1087
a(S'what do i have to do on thursday'
p1088
g15
tp1089
a(S'am i free on'
p1090
g15
tp1091
a(S"don't i have anything in a month"
p1092
g15
tp1093
a(S'any events on'
p1094
g15
tp1095
a(S'please could you open my gmail'
p1096
g15
tp1097
a(S"what's the live newsfeed"
p1098
g15
tp1099
a(S"what's if it's raining today"
p1100
g15
tp1101
a(S'shutdown the computer please'
p1102
g15
tp1103
a(S"today's news"
p1104
g15
tp1105
a(S'can you open a browser'
p1106
g15
tp1107
a(S'please will you open mail'
p1108
g15
tp1109
a(S"what's in my gmail"
p1110
g15
tp1111
a(S'spotify pause'
p1112
g15
tp1113
a(S'what events do i have on sunday'
p1114
g15
tp1115
a(S"don't i have any events in a week"
p1116
g15
tp1117
a(S'check new gmail please'
p1118
g15
tp1119
a(S'give me intel on current events'
p1120
g15
tp1121
a(S'get clock please'
p1122
g185
tp1123
a(S'please do not get the time'
p1124
g15
tp1125
a(S"what's the forecast this week"
p1126
g15
tp1127
a(S'check the clock right now please'
p1128
g185
tp1129
a(S'am i free for monday'
p1130
g15
tp1131
a(S'check the clock right now'
p1132
g185
tp1133
a(S'please spotify pause'
p1134
g15
tp1135
a(S"don't i have any events in a month"
p1136
g15
tp1137
a(S"today's forecast"
p1138
g15
tp1139
a(S"what're the headlines"
p1140
g15
tp1141
a(S'please search for'
p1142
g15
tp1143
a(S'can you add a new event'
p1144
g15
tp1145
a(S'a backbone dictates above my grief'
p1146
g15
tp1147
a(S'please will you check my gmail'
p1148
g15
tp1149
a(S'check google calendar on saturday'
p1150
g15
tp1151
a(S'start a browser'
p1152
g15
tp1153
a(S'check my gmail'
p1154
g15
tp1155
a(S'will you check gmail please'
p1156
g15
tp1157
a(S'do not check the current time please'
p1158
g15
tp1159
a(S'good night alice'
p1160
g15
tp1161
a(S'is there anything i have to do on saturday'
p1162
g15
tp1163
a(S'check events for this day'
p1164
g15
tp1165
a(S"don't i have anything on tuesday"
p1166
g15
tp1167
a(S'do i have any events on this day'
p1168
g15
tp1169
a(S"if it's foggy this week"
p1170
g15
tp1171
a(S'do i have anything on wednesday'
p1172
g15
tp1173
a(S'what is new in new gmail please'
p1174
g15
tp1175
a(S'please google'
p1176
g15
tp1177
a(S'please open a browser'
p1178
g15
tp1179
a(S'please what is in my gmail'
p1180
g15
tp1181
a(S'am i free'
p1182
g15
tp1183
a(S'get news'
p1184
g15
tp1185
a(S'what do i have to do in a month'
p1186
g15
tp1187
a(S'stop playing'
p1188
g15
tp1189
a(S'please do not retrieve what time it is'
p1190
g15
tp1191
a(S'is there anything i have to do on thursday'
p1192
g15
tp1193
a(S'can you make event please'
p1194
g15
tp1195
a(S'can you create a new event please'
p1196
g15
tp1197
a(S'what do i have to do on next'
p1198
g15
tp1199
a(S"what's if it's rainy this week"
p1200
g15
tp1201
a(S'turn off my computer please'
p1202
g15
tp1203
a(S'check mail'
p1204
g15
tp1205
a(S"get if it's cloudy this week"
p1206
g15
tp1207
a(S'news feed today'
p1208
g15
tp1209
a(S'turn down the sound'
p1210
g15
tp1211
a(S'do i have anything on saturday'
p1212
g15
tp1213
a(S'find the news'
p1214
g15
tp1215
a(S'can you please create a new event'
p1216
g15
tp1217
a(S"what're the live news"
p1218
g15
tp1219
a(S"don't i have to do anything on monday"
p1220
g15
tp1221
a(S'can you please make event'
p1222
g15
tp1223
a(S'spotify play last song please'
p1224
g15
tp1225
a(S"please don't retrieve what time it is"
p1226
g15
tp1227
a(S'is it freezing today'
p1228
g15
tp1229
a(S'start a browser please'
p1230
g15
tp1231
a(S'check events for this month'
p1232
g15
tp1233
a(g33
g15
tp1234
a(S"get if it's cloudy today"
p1235
g15
tp1236
a(S"today's current news "
p1237
g15
tp1238
a(S'check events for thursday'
p1239
g15
tp1240
a(S'check new gmail'
p1241
g15
tp1242
a(S'set volume 0'
p1243
g15
tp1244
a(S'what do i have to do on'
p1245
g15
tp1246
a(S'please google search'
p1247
g15
tp1248
a(S'google search'
p1249
g15
tp1250
a(S'will it hail this week'
p1251
g15
tp1252
a(S"don't i have anything on this day"
p1253
g15
tp1254
a(S'check calendar for'
p1255
g15
tp1256
a(S'is there anything to do on sunday'
p1257
g15
tp1258
a(S'lower the tunes please'
p1259
g15
tp1260
a(S'please what is new in new mail'
p1261
g15
tp1262
a(S'make an event please'
p1263
g15
tp1264
a(S"don't i have anything in a week"
p1265
g15
tp1266
a(S'check calendar on saturday'
p1267
g15
tp1268
a(S"don't i have any events on saturday"
p1269
g15
tp1270
a(S'spotify previous song please'
p1271
g15
tp1272
a(S'what do i have on monday'
p1273
g15
tp1274
a(S'can you please close current window'
p1275
g15
tp1276
a(S'go to dot gov'
p1277
g15
tp1278
a(S'play '
p1279
g15
tp1280
a(S'give me the news please'
p1281
g15
tp1282
a(S"don't i have anything to do on"
p1283
g15
tp1284
a(S'are there any events in a week'
p1285
g15
tp1286
a(S'could you check new gmail please'
p1287
g15
tp1288
a(S"get if it's rainy this week"
p1289
g15
tp1290
a(S"what's the time"
p1291
g185
tp1292
a(S'turn up the volume'
p1293
g15
tp1294
a(S'is there anything i have to do tomorrow'
p1295
g15
tp1296
a(S'please schedule new event'
p1297
g15
tp1298
a(S'can you check my inbox'
p1299
g15
tp1300
a(S'check google calendar on next'
p1301
g15
tp1302
a(S"how's the temperature today"
p1303
g15
tp1304
a(S'check events for monday'
p1305
g15
tp1306
a(S'what is new in gmail please'
p1307
g15
tp1308
a(S'okay alice'
p1309
g15
tp1310
a(S'kill the music'
p1311
g15
tp1312
a(S'can you create new event please'
p1313
g15
tp1314
a(S'live news feed today'
p1315
g15
tp1316
a(S'please will you check my mail'
p1317
g15
tp1318
a(S'schedule event please'
p1319
g15
tp1320
a(S'schedule an event please'
p1321
g15
tp1322
a(S'retrieve the time'
p1323
g185
tp1324
a(S'spotify play the last song'
p1325
g15
tp1326
a(S'can you kill the current window'
p1327
g15
tp1328
a(g33
g15
tp1329
a(S'could you open my mail'
p1330
g15
tp1331
a(S'could you add new event please'
p1332
g15
tp1333
a(S'please open my mail'
p1334
g15
tp1335
a(S'check google calendar for monday'
p1336
g15
tp1337
a(S'anything new in my mail'
p1338
g15
tp1339
a(S"please what's in new gmail"
p1340
g15
tp1341
a(S'shut off my computer please'
p1342
g15
tp1343
a(S'do i have any events on wednesday'
p1344
g15
tp1345
a(S'check google calendar on this week'
p1346
g15
tp1347
a(S'tell me news'
p1348
g15
tp1349
a(S'please do not get me the clock'
p1350
g15
tp1351
a(S'will you open gmail'
p1352
g15
tp1353
a(S'check my calendar for next'
p1354
g15
tp1355
a(S"don't i have to do anything on sunday"
p1356
g15
tp1357
a(S'please check your watch'
p1358
g185
tp1359
a(S'can you make it louder please'
p1360
g15
tp1361
a(S'is there anything to do on wednesday'
p1362
g15
tp1363
a(S'current events please'
p1364
g15
tp1365
a(S"don't retrieve what time it is please"
p1366
g15
tp1367
a(S'google search for please'
p1368
g15
tp1369
a(S"what's the temperature"
p1370
g15
tp1371
a(S"what's in new gmail"
p1372
g15
tp1373
a(S'is there anything i have to do on'
p1374
g15
tp1375
a(S'what do i have to do on tomorrow'
p1376
g15
tp1377
a(S'time'
p1378
g15
tp1379
a(S'read your watch please'
p1380
g185
tp1381
a(S'unmute'
p1382
g15
tp1383
a(S'am i free today'
p1384
g15
tp1385
a(S"don't i have any events on this day"
p1386
g15
tp1387
a(S'are there any events on saturday'
p1388
g15
tp1389
a(S'get headlines'
p1390
g15
tp1391
a(S'hey alex'
p1392
g15
tp1393
a(S"don't i have to do anything on thursday"
p1394
g15
tp1395
a(S'what is in new mail'
p1396
g15
tp1397
a(S"don't i have anything to do on thursday"
p1398
g15
tp1399
a(S'can you create event please'
p1400
g15
tp1401
a(S"please don't read the clock"
p1402
g15
tp1403
a(S'is there anything i have to do on tuesday'
p1404
g15
tp1405
a(S"don't i have to do anything on tuesday"
p1406
g15
tp1407
a(S'check google calendar for this day'
p1408
g15
tp1409
a(S"please what's new in gmail"
p1410
g15
tp1411
a(S'can you add new event'
p1412
g15
tp1413
a(S'can you turn the tune down'
p1414
g15
tp1415
a(S"if it's freezing today"
p1416
g15
tp1417
a(S'can you add an event'
p1418
g15
tp1419
a(S'could you please add a new event'
p1420
g15
tp1421
a(S'are there any events on tuesday'
p1422
g15
tp1423
a(S'please do not check the clock right now'
p1424
g15
tp1425
a(S'could you please make an event'
p1426
g15
tp1427
a(S'could you create an event please'
p1428
g15
tp1429
a(S'can you schedule a new event please'
p1430
g15
tp1431
a(S"don't i have anything today"
p1432
g15
tp1433
a(S'check my calendar on next'
p1434
g15
tp1435
a(S'is there anything i have to do today'
p1436
g15
tp1437
a(S'would you open gmail please'
p1438
g15
tp1439
a(g33
g15
tp1440
a(S'would you open my mail'
p1441
g15
tp1442
a(S'could you schedule new event please'
p1443
g15
tp1444
a(S'do i have any events'
p1445
g15
tp1446
a(S'get live news feed'
p1447
g15
tp1448
a(S'play the song before'
p1449
g15
tp1450
a(S"what're the news"
p1451
g15
tp1452
a(S'could you open mail'
p1453
g15
tp1454
a(S'any events in a week'
p1455
g15
tp1456
a(S'please would you check mail'
p1457
g15
tp1458
a(S'would you check new mail'
p1459
g15
tp1460
a(S'please do not retrieve the current time'
p1461
g15
tp1462
a(S'please open gmail'
p1463
g15
tp1464
a(S'do not get the current time'
p1465
g15
tp1466
a(S'do i have any events on tuesday'
p1467
g15
tp1468
a(S'can you make an event please'
p1469
g15
tp1470
a(S'please will you open inbox'
p1471
g15
tp1472
a(S'stop the song'
p1473
g15
tp1474
a(S'what are the latest events '
p1475
g15
tp1476
a(S'check events for tomorrow'
p1477
g15
tp1478
a(S'please open'
p1479
g15
tp1480
a(S'lock computer please'
p1481
g15
tp1482
a(S"don't i have any events on sunday"
p1483
g15
tp1484
a(S'check my calendar on wednesday'
p1485
g15
tp1486
a(S'please could you check new mail'
p1487
g15
tp1488
a(S'do i have anything in a week'
p1489
g15
tp1490
a(S'am i free for wednesday'
p1491
g15
tp1492
a(S'send me to the lock screen'
p1493
g15
tp1494
a(S'get current time please'
p1495
g185
tp1496
a(S'please louder'
p1497
g15
tp1498
a(S'please shut down the computer'
p1499
g15
tp1500
a(S'check my calendar on tomorrow'
p1501
g15
tp1502
a(S"get this week's temperature"
p1503
g15
tp1504
a(S'what events are on friday'
p1505
g15
tp1506
a(S'please check gmail'
p1507
g15
tp1508
a(S'please when is it'
p1509
g185
tp1510
a(S'do i have any events on tomorrow'
p1511
g15
tp1512
a(S'intel'
p1513
g15
tp1514
a(S'please get the current time'
p1515
g185
tp1516
a(S'could you please schedule event'
p1517
g15
tp1518
a(S'will you check my gmail'
p1519
g15
tp1520
a(S'start the song'
p1521
g15
tp1522
a(S'can you please open a browser'
p1523
g15
tp1524
a(S'live news today'
p1525
g15
tp1526
a(S'can you please shutdown my computer'
p1527
g15
tp1528
a(S'please check the current time'
p1529
g185
tp1530
a(S'check events for today'
p1531
g15
tp1532
a(S'what is in new mail please'
p1533
g15
tp1534
a(S'is it foggy today'
p1535
g15
tp1536
a(S'can you decrease the sound'
p1537
g15
tp1538
a(S'can you add a new event please'
p1539
g15
tp1540
a(S'what is the news today'
p1541
g15
tp1542
a(S'get temperature'
p1543
g15
tp1544
a(S'is there anything to do tomorrow'
p1545
g15
tp1546
a(S'can you make event'
p1547
g15
tp1548
a(S"what's the temperature this week"
p1549
g15
tp1550
a(S'what are the live news'
p1551
g15
tp1552
a(S'would you open inbox'
p1553
g15
tp1554
a(S'what events are on this day'
p1555
g15
tp1556
a(S"what's if it's freezing this week"
p1557
g15
tp1558
a(S'the tale pretends'
p1559
g15
tp1560
a(g33
g15
tp1561
a(S"aren't there any events on thursday"
p1562
g15
tp1563
a(S"don't i have any events on next"
p1564
g15
tp1565
a(S'can you unmute'
p1566
g15
tp1567
a(S'close the current window'
p1568
g15
tp1569
a(S'could you check my mail please'
p1570
g15
tp1571
a(S'do i have anything on thursday'
p1572
g15
tp1573
a(S"what's the weather this week"
p1574
g15
tp1575
a(S'could you check mail'
p1576
g15
tp1577
a(S'can you open browser please'
p1578
g15
tp1579
a(S'please can you make it louder'
p1580
g15
tp1581
a(S'current events'
p1582
g15
tp1583
a(S"don't i have anything to do on monday"
p1584
g15
tp1585
a(S'read your watch'
p1586
g185
tp1587
a(S'can you please kill active window'
p1588
g15
tp1589
a(S'check google calendar on wednesday'
p1590
g15
tp1591
a(S'open dot gov'
p1592
g15
tp1593
a(S'get the current time'
p1594
g185
tp1595
a(S'tell me current events'
p1596
g15
tp1597
a(S'could you open gmail'
p1598
g15
tp1599
a(S'can you add an event please'
p1600
g15
tp1601
a(S'what events do i have on tomorrow'
p1602
g15
tp1603
a(S"get if it's snowing today"
p1604
g15
tp1605
a(S'what events do i have'
p1606
g15
tp1607
a(S'could you make an event please'
p1608
g15
tp1609
a(S'could you please make new event'
p1610
g15
tp1611
a(S'anything in inbox'
p1612
g15
tp1613
a(S'google'
p1614
g15
tp1615
a(S'open a browser please'
p1616
g15
tp1617
a(S'bye'
p1618
g15
tp1619
a(S'is there anything i have to do on sunday'
p1620
g15
tp1621
a(S'can you please make new event'
p1622
g15
tp1623
a(S'please what is in new gmail'
p1624
g15
tp1625
a(S'can you please exit'
p1626
g15
tp1627
a(S'good night'
p1628
g15
tp1629
a(S'can you please mute'
p1630
g15
tp1631
a(S'stop'
p1632
g15
tp1633
a(S'make an event'
p1634
g15
tp1635
a(S'what do i have'
p1636
g15
tp1637
a(S'do i have any events on'
p1638
g15
tp1639
a(S'read time please'
p1640
g185
tp1641
a(S'can you lock computer please'
p1642
g15
tp1643
a(S'anything new in my inbox'
p1644
g15
tp1645
a(S'please create event'
p1646
g15
tp1647
a(S"get if it's hot this week"
p1648
g15
tp1649
a(S'are there any events on tomorrow'
p1650
g15
tp1651
a(S"what's if it's foggy today"
p1652
g15
tp1653
a(S'please could you open gmail'
p1654
g15
tp1655
a(S'do i have anything to do tomorrow'
p1656
g15
tp1657
a(S"what's the headlines"
p1658
g15
tp1659
a(S'get the information'
p1660
g15
tp1661
a(S'get me the news todays'
p1662
g15
tp1663
a(g33
g15
tp1664
a(S"what's if it's cold this week"
p1665
g15
tp1666
a(S'do i have anything to do on saturday'
p1667
g15
tp1668
a(S'what events do i have on today'
p1669
g15
tp1670
a(S"please don't get the clock"
p1671
g15
tp1672
a(S'check google calendar on monday'
p1673
g15
tp1674
a(S'can you please close the active window'
p1675
g15
tp1676
a(S'can you check inbox please'
p1677
g15
tp1678
a(S'could you create event'
p1679
g15
tp1680
a(S"don't i have to do anything on friday"
p1681
g15
tp1682
a(S'check events on tomorrow'
p1683
g15
tp1684
a(S'check events on wednesday'
p1685
g15
tp1686
a(S"don't read your watch please"
p1687
g15
tp1688
a(S'will you check my mail please'
p1689
g15
tp1690
a(S'am i free in a month'
p1691
g15
tp1692
a(S'clock'
p1693
g185
tp1694
a(S'check my mail'
p1695
g15
tp1696
a(S'what is new in new mail'
p1697
g15
tp1698
a(S'please retrieve the time'
p1699
g185
tp1700
a(S"what's not the time"
p1701
g15
tp1702
a(S'give me the news'
p1703
g15
tp1704
a(S'can you lock computer'
p1705
g15
tp1706
a(S'what is current events'
p1707
g15
tp1708
a(S'do not get clock'
p1709
g15
tp1710
a(S'could you make new event'
p1711
g15
tp1712
a(S'what is new in mail please'
p1713
g15
tp1714
a(S'can you please shut my computer down'
p1715
g15
tp1716
a(S'please do not check the current time'
p1717
g15
tp1718
a(S"this week's temperature"
p1719
g15
tp1720
a(S'any events on next'
p1721
g15
tp1722
a(S'do i have to do anything on next'
p1723
g15
tp1724
a(S'what is news feed'
p1725
g15
tp1726
a(S'please go to'
p1727
g15
tp1728
a(S"aren't there any events on friday"
p1729
g15
tp1730
a(S'do i have to do anything in a week'
p1731
g15
tp1732
a(S"don't i have to do anything tomorrow"
p1733
g15
tp1734
a(S'are there any events on'
p1735
g15
tp1736
a(S'what is in mail'
p1737
g15
tp1738
a(S"don't read me the clock please"
p1739
g15
tp1740
a(S"what's in new gmail please"
p1741
g15
tp1742
a(S'what is on my calendar for tomorrow'
p1743
g15
tp1744
a(S"don't i have any events on friday"
p1745
g15
tp1746
a(S'shut down the computer'
p1747
g15
tp1748
a(S'please shut down my computer'
p1749
g15
tp1750
a(S'get the current time please'
p1751
g185
tp1752
a(S'please spotify start the song'
p1753
g15
tp1754
a(S"don't retrieve the current time"
p1755
g15
tp1756
a(S'check what time it is please'
p1757
g185
tp1758
a(S"please don't get the time"
p1759
g15
tp1760
a(S'please sound higher'
p1761
g15
tp1762
a(S"today's live news feed"
p1763
g15
tp1764
a(S'please add new event'
p1765
g15
tp1766
a(S"please don't get the current time"
p1767
g15
tp1768
a(S'could you please schedule an event'
p1769
g15
tp1770
a(S"don't i have anything to do tomorrow"
p1771
g15
tp1772
a(S"get if it's raining today"
p1773
g15
tp1774
a(S'lower the volume'
p1775
g15
tp1776
a(S'shut off my computer'
p1777
g15
tp1778
a(S'schedule new event please'
p1779
g15
tp1780
a(S"don't i have to do anything tomorrow"
p1781
g15
tp1782
a(S'could you open my mail please'
p1783
g15
tp1784
a(S'please start a default browser'
p1785
g15
tp1786
a(S'current weather'
p1787
g15
tp1788
a(S'would you check my gmail'
p1789
g15
tp1790
a(S'make the volume lower'
p1791
g15
tp1792
a(S'do not get the current time please'
p1793
g15
tp1794
a(S'google please for'
p1795
g15
tp1796
a(S"what're the live news feed"
p1797
g15
tp1798
a(S'shut down my computer please'
p1799
g15
tp1800
a(S'kill active window'
p1801
g15
tp1802
a(S'please would you open my inbox'
p1803
g15
tp1804
a(S'am i free on friday'
p1805
g15
tp1806
a(S'tell me current news'
p1807
g15
tp1808
a(S'would you open my gmail'
p1809
g15
tp1810
a(S'check calendar on next'
p1811
g15
tp1812
a(S'make the volume softer'
p1813
g15
tp1814
a(S'what is new in my inbox please'
p1815
g15
tp1816
a(S'can you lock my computer please'
p1817
g15
tp1818
a(S'could you open inbox'
p1819
g15
tp1820
a(S'can you turn yourself off please'
p1821
g15
tp1822
a(S'could you schedule event please'
p1823
g15
tp1824
a(S'check calendar on month'
p1825
g15
tp1826
a(S'is there anything to do on tuesday'
p1827
g15
tp1828
a(S'do not check your watch'
p1829
g15
tp1830
a(S"today's headlines"
p1831
g15
tp1832
a(S"don't i have to do anything on next"
p1833
g15
tp1834
a(S'turn up the tunez'
p1835
g15
tp1836
a(S'could you open my inbox'
p1837
g15
tp1838
a(S'what is on my calendar for thursday'
p1839
g15
tp1840
a(S"please what's in mail"
p1841
g15
tp1842
a(S"don't i have anything on sunday"
p1843
g15
tp1844
a(S'please close current window'
p1845
g15
tp1846
a(S'is there anything to do on next'
p1847
g15
tp1848
a(S'am i free for tomorrow'
p1849
g15
tp1850
a(S"please don't when is it"
p1851
g15
tp1852
a(S'what events do i have in a week'
p1853
g15
tp1854
a(S'what do i have to do on monday'
p1855
g15
tp1856
a(S"what're the current news"
p1857
g15
tp1858
a(S'current events today'
p1859
g15
tp1860
a(S'search'
p1861
g15
tp1862
a(S'please search google for'
p1863
g15
tp1864
a(S'kill the current window'
p1865
g15
tp1866
a(S'any events on friday'
p1867
g15
tp1868
a(S'what do i have on sunday'
p1869
g15
tp1870
a(S'go to'
p1871
g15
tp1872
a(S'search google please for'
p1873
g15
tp1874
a(S'do not retrieve the current time please'
p1875
g15
tp1876
a(S'any events in a month'
p1877
g15
tp1878
a(S'can you turn up the beat'
p1879
g15
tp1880
a(S'please go back'
p1881
g15
tp1882
a(S'get current forecast'
p1883
g15
tp1884
a(S"don't read the time"
p1885
g15
tp1886
a(S'give me intel'
p1887
g15
tp1888
a(S'please do not read the clock'
p1889
g15
tp1890
a(S'could you make event please'
p1891
g15
tp1892
a(S'can you turn up the volume'
p1893
g15
tp1894
a(S'check my calendar for tuesday'
p1895
g15
tp1896
a(S'check the current time'
p1897
g185
tp1898
a(S'make the sound softer'
p1899
g15
tp1900
a(S'please open browser'
p1901
g15
tp1902
a(S'what is new in new gmail'
p1903
g15
tp1904
a(S'do not check the clock right now'
p1905
g15
tp1906
a(S'set the volume zero'
p1907
g15
tp1908
a(S'do not check the clock please'
p1909
g15
tp1910
a(S'check calendar for today'
p1911
g15
tp1912
a(S'read the time'
p1913
g185
tp1914
a(S'spotify go back'
p1915
g15
tp1916
a(S'stop the tunez'
p1917
g15
tp1918
a(S'any new gmail'
p1919
g15
tp1920
a(S'add event please'
p1921
g15
tp1922
a(S'would you check inbox please'
p1923
g15
tp1924
a(S"get if it's snowing this week"
p1925
g15
tp1926
a(S"what's new in my inbox please"
p1927
g15
tp1928
a(S'live news'
p1929
g15
tp1930
a(S'what are the live newsfeed'
p1931
g15
tp1932
a(S'please could you check new gmail'
p1933
g15
tp1934
a(S'check google calendar for sunday'
p1935
g15
tp1936
a(S'can you please shut off my computer'
p1937
g15
tp1938
a(S"don't i have anything to do on tuesday"
p1939
g15
tp1940
a(S'could you check my mail'
p1941
g15
tp1942
a(S'do i have anything to do in a week'
p1943
g15
tp1944
a(S'will it hail today'
p1945
g15
tp1946
a(S'could you please add new event'
p1947
g15
tp1948
a(S"what's the current news"
p1949
g15
tp1950
a(S'schedule an event'
p1951
g15
tp1952
a(S'do i have any events on today'
p1953
g15
tp1954
a(S'find headlines'
p1955
g15
tp1956
a(S'am i free on sunday'
p1957
g15
tp1958
a(S'can you get information on the current events'
p1959
g15
tp1960
a(S'check my inbox please'
p1961
g15
tp1962
a(S"what's in my inbox please"
p1963
g15
tp1964
a(S'spotify play the song before'
p1965
g15
tp1966
a(S"what's weather"
p1967
g15
tp1968
a(S'please open a browser'
p1969
g15
tp1970
a(S"today's temperature"
p1971
g15
tp1972
a(S"aren't there any events"
p1973
g15
tp1974
a(S'do i have anything on tuesday'
p1975
g15
tp1976
a(S'will you get the news for me'
p1977
g15
tp1978
a(S'decrease the volume'
p1979
g15
tp1980
a(S'please will you check gmail'
p1981
g15
tp1982
a(S"today's live newsfeed"
p1983
g15
tp1984
a(S"this week's weather"
p1985
g15
tp1986
a(S'check google calendar for friday'
p1987
g15
tp1988
a(S"don't i have to do anything in a week"
p1989
g15
tp1990
a(S'please do not check the clock'
p1991
g15
tp1992
a(S'do not get the time'
p1993
g15
tp1994
a(S'check google calendar on this day'
p1995
g15
tp1996
a(S'will you check inbox please'
p1997
g15
tp1998
a(S'open dot edu'
p1999
g15
tp2000
a(S'can you check my mail'
p2001
g15
tp2002
a(S'would you open mail'
p2003
g15
tp2004
a(S'please would you open inbox'
p2005
g15
tp2006
a(S'lock'
p2007
g15
tp2008
a(S'what do i have on saturday'
p2009
g15
tp2010
a(S'will you check new gmail'
p2011
g15
tp2012
a(S'please send me to the lock screen'
p2013
g15
tp2014
a(S'check calendar on thursday'
p2015
g15
tp2016
a(S'what events are going on right now'
p2017
g15
tp2018
a(S'check inbox'
p2019
g15
tp2020
a(S'turn the volume to zero'
p2021
g15
tp2022
a(S'could you please make event'
p2023
g15
tp2024
a(S'check calendar for tomorrow'
p2025
g15
tp2026
a(S'please could you check my gmail'
p2027
g15
tp2028
a(S'can you unmute please'
p2029
g15
tp2030
a(S"don't i have to do anything today"
p2031
g15
tp2032
a(S'can you turn the volume higher please'
p2033
g15
tp2034
a(S'check my calendar on saturday'
p2035
g15
tp2036
a(S'am i free on wednesday'
p2037
g15
tp2038
a(S'do not check the clock'
p2039
g15
tp2040
a(S'please do not get current time'
p2041
g15
tp2042
a(g33
g15
tp2043
a(S'will it snow today'
p2044
g15
tp2045
a(S'will you open mail'
p2046
g15
tp2047
a(S'check mail please'
p2048
g15
tp2049
a(S'debrief me'
p2050
g15
tp2051
a(g33
g15
tp2052
a(S'please can you turn up the volume'
p2053
g15
tp2054
a(S'will you open gmail please'
p2055
g15
tp2056
a(S"what's the news feed"
p2057
g15
tp2058
a(S'what is new in my gmail please'
p2059
g15
tp2060
a(S'please check the clock'
p2061
g185
tp2062
a(S'could you check new gmail'
p2063
g15
tp2064
a(S'could you create new event please'
p2065
g15
tp2066
a(S'check google calendar for wednesday'
p2067
g15
tp2068
a(S'please google search for'
p2069
g15
tp2070
a(S"aren't there any events on tomorrow"
p2071
g15
tp2072
a(S'time'
p2073
g15
tp2074
a(S'kill the noise'
p2075
g15
tp2076
a(S'how is the forecast'
p2077
g15
tp2078
a(S'could you check my gmail please'
p2079
g15
tp2080
a(S'what is in new gmail please'
p2081
g15
tp2082
a(S'can you schedule event'
p2083
g15
tp2084
a(S'close window'
p2085
g15
tp2086
a(S'please pause'
p2087
g15
tp2088
a(S'get live news'
p2089
g15
tp2090
a(S"what're the live newsfeed"
p2091
g15
tp2092
a(S'shut off'
p2093
g15
tp2094
a(S'any events on wednesday'
p2095
g15
tp2096
a(S'do not read me the clock'
p2097
g15
tp2098
a(S'can you turn the sound down'
p2099
g15
tp2100
a(S'please kill the active window'
p2101
g15
tp2102
a(S'can you please make an event'
p2103
g15
tp2104
a(S'could you open mail please'
p2105
g15
tp2106
a(S'please turn it down'
p2107
g15
tp2108
a(S'please read time'
p2109
g185
tp2110
a(g33
g15
tp2111
a(S'turn off my computer'
p2112
g15
tp2113
a(S'can you turn up the sound'
p2114
g15
tp2115
a(S'what is on my calendar for friday'
p2116
g15
tp2117
a(S'can you please turn off the computer'
p2118
g15
tp2119
a(S'turn the sound down please'
p2120
g15
tp2121
a(S'tell me newsfeed'
p2122
g15
tp2123
a(S'check my calendar on thursday'
p2124
g15
tp2125
a(S'can you make a new event please'
p2126
g15
tp2127
a(S'news today'
p2128
g15
tp2129
a(S'create new event'
p2130
g15
tp2131
a(S'how is the temperature'
p2132
g15
tp2133
a(S'what is new in my mail'
p2134
g15
tp2135
a(S'please open dot com'
p2136
g15
tp2137
a(S"if it's cold today"
p2138
g15
tp2139
a(S'find news'
p2140
g15
tp2141
a(S"what's new in new mail"
p2142
g15
tp2143
a(S'check google calendar on tuesday'
p2144
g15
tp2145
a(S"what's today's forecast"
p2146
g15
tp2147
a(S'please go to dot com'
p2148
g15
tp2149
a(S"don't i have anything tomorrow"
p2150
g15
tp2151
a(S"what's new in new mail please"
p2152
g15
tp2153
a(S'check my calendar on today'
p2154
g15
tp2155
a(S'spotify play previous song please'
p2156
g15
tp2157
a(S'open inbox please'
p2158
g15
tp2159
a(S'please read the time'
p2160
g185
tp2161
a(S'check calendar on this week'
p2162
g15
tp2163
a(S'will you open inbox'
p2164
g15
tp2165
a(S'add an event please'
p2166
g15
tp2167
a(S'okay alex'
p2168
g15
tp2169
a(S'increase the volume'
p2170
g15
tp2171
a(S'please start spotify'
p2172
g15
tp2173
a(S'check my calendar on'
p2174
g15
tp2175
a(S'check google calendar for tuesday'
p2176
g15
tp2177
a(S'turn it up please'
p2178
g15
tp2179
a(S'check google calendar on'
p2180
g15
tp2181
a(S'is there anything to do on friday'
p2182
g15
tp2183
a(S'could you please create event'
p2184
g15
tp2185
a(S'what is new in new mail please'
p2186
g15
tp2187
a(S'get current weather'
p2188
g15
tp2189
a(g33
g15
tp2190
a(S'what are the current news'
p2191
g15
tp2192
a(S'pause song please'
p2193
g15
tp2194
a(S"what time isn't it"
p2195
g15
tp2196
a(S'start default browser'
p2197
g15
tp2198
a(S"don't i have any events on today"
p2199
g15
tp2200
a(S'open my gmail please'
p2201
g15
tp2202
a(S'check calendar on wednesday'
p2203
g15
tp2204
a(S'turn off the beats'
p2205
g15
tp2206
a(S'google search for'
p2207
g15
tp2208
a(S'do i have any events in a week'
p2209
g15
tp2210
a(S'please what is new in new gmail'
p2211
g15
tp2212
a(S'open a default browser'
p2213
g15
tp2214
a(S'find live news feed'
p2215
g15
tp2216
a(S'time please'
p2217
g185
tp2218
a(S'please check new gmail'
p2219
g15
tp2220
a(S"don't i have anything to do on this day"
p2221
g15
tp2222
a(S'please will you open my gmail'
p2223
g15
tp2224
a(S'please do not get the current time'
p2225
g15
tp2226
a(S'can you please shut down the computer'
p2227
g15
tp2228
a(S'open my mail please'
p2229
g15
tp2230
a(S'what do i have to do on this day'
p2231
g15
tp2232
a(S'do not read the clock'
p2233
g15
tp2234
a(S'shut off please'
p2235
g15
tp2236
a(S"what's this week's temperature"
p2237
g15
tp2238
a(S'spotify skip ahead'
p2239
g15
tp2240
a(S'turn it off'
p2241
g15
tp2242
a(S'please go spotify '
p2243
g15
tp2244
a(S'kill the active window'
p2245
g15
tp2246
a(S"don't i have anything to do in a week"
p2247
g15
tp2248
a(S'what is on my calendar for next'
p2249
g15
tp2250
a(S'are there any events on next'
p2251
g15
tp2252
a(S'can you please make a new event'
p2253
g15
tp2254
a(S'shut my computer down please'
p2255
g15
tp2256
a(S'what is on my calendar for sunday'
p2257
g15
tp2258
a(S"aren't there any events on monday"
p2259
g15
tp2260
a(S'please check inbox'
p2261
g15
tp2262
a(S'check calendar for friday'
p2263
g15
tp2264
a(S'start default browser please'
p2265
g15
tp2266
a(S"what's in my inbox"
p2267
g15
tp2268
a(S"what's the current events"
p2269
g15
tp2270
a(S'please check the clock right now'
p2271
g185
tp2272
a(S'please spotify start'
p2273
g15
tp2274
a(S'could you add an event please'
p2275
g15
tp2276
a(S'search google for'
p2277
g15
tp2278
a(S"don't retrieve what time it is"
p2279
g15
tp2280
a(S"don't i have anything"
p2281
g15
tp2282
a(S'bye alice'
p2283
g15
tp2284
a(S'can you schedule new event please'
p2285
g15
tp2286
a(S'would you open gmail'
p2287
g15
tp2288
a(S'open'
p2289
g15
tp2290
a(S'check calendar for thursday'
p2291
g15
tp2292
a(S"if it's cloudy today"
p2293
g15
tp2294
a(S'please could you open mail'
p2295
g15
tp2296
a(S'spotify start please'
p2297
g15
tp2298
a(S"what's if it's hot today"
p2299
g15
tp2300
a(S'please kill current window'
p2301
g15
tp2302
a(S'go to dot net'
p2303
g15
tp2304
a(S"don't i have anything on monday"
p2305
g15
tp2306
a(S'can you send me to the lock screen'
p2307
g15
tp2308
a(S'can you please kill the window'
p2309
g15
tp2310
a(S'get the current events'
p2311
g15
tp2312
a(S'please will you check inbox'
p2313
g15
tp2314
a(S'can you shut off my computer'
p2315
g15
tp2316
a(S'open mail please'
p2317
g15
tp2318
a(S'schedule a new event'
p2319
g15
tp2320
a(S'please create a new event'
p2321
g15
tp2322
a(S'what events do i have in a month'
p2323
g15
tp2324
a(S"how's the temperature this week"
p2325
g15
tp2326
a(S'check google calendar for this week'
p2327
g15
tp2328
a(S'am i free on next'
p2329
g15
tp2330
a(S'is there anything i have to do on this day'
p2331
g15
tp2332
a(S'news feed'
p2333
g15
tp2334
a(S'can you please kill the current window'
p2335
g15
tp2336
a(S'will you get the current headlines'
p2337
g15
tp2338
a(S'go ahead'
p2339
g15
tp2340
a(S'do not retrieve the current time'
p2341
g15
tp2342
a(S'will it rain today'
p2343
g15
tp2344
a(S'could you add new event'
p2345
g15
tp2346
a(S'what events are on monday'
p2347
g15
tp2348
a(S'will you open inbox please'
p2349
g15
tp2350
a(S'am i free for today'
p2351
g15
tp2352
a(S'i like dogs'
p2353
g15
tp2354
a(S'can you exit'
p2355
g15
tp2356
a(S"if it's rainy this week"
p2357
g15
tp2358
a(S'kill the program'
p2359
g15
tp2360
a(S'check my calendar for'
p2361
g15
tp2362
a(S'spotify pause please'
p2363
g15
tp2364
a(S"how's the weather"
p2365
g15
tp2366
a(S'please would you check new mail'
p2367
g15
tp2368
a(S'please last song'
p2369
g15
tp2370
a(S'check events'
p2371
g15
tp2372
a(S'do not time please'
p2373
g15
tp2374
a(S'do i have anything'
p2375
g15
tp2376
a(S"what time isn't it currently"
p2377
g15
tp2378
a(S'could you please make a new event'
p2379
g15
tp2380
a(S'add a new event'
p2381
g15
tp2382
a(S'byebye'
p2383
g15
tp2384
a(S"don't i have to do anything in a month"
p2385
g15
tp2386
a(S'read the clock please'
p2387
g185
tp2388
a(S'current forecast'
p2389
g15
tp2390
a(S'turn up the sound'
p2391
g15
tp2392
a(S'what are the news'
p2393
g15
tp2394
a(S"please don't read me the clock"
p2395
g15
tp2396
a(S"this week's forecast"
p2397
g15
tp2398
a(S"don't i have anything to do today"
p2399
g15
tp2400
a(S'can you schedule an event'
p2401
g15
tp2402
a(S"today's temperature"
p2403
g15
tp2404
a(S'please would you open my mail'
p2405
g15
tp2406
a(S'is there anything to do on thursday'
p2407
g15
tp2408
a(S'what is live news'
p2409
g15
tp2410
a(S'is it cloudy today'
p2411
g15
tp2412
a(S'can you please turn off my computer'
p2413
g15
tp2414
a(S"don't get the clock please"
p2415
g15
tp2416
a(S'do not read time'
p2417
g15
tp2418
a(S'would you open my gmail please'
p2419
g15
tp2420
a(S'please find out the latest headlines'
p2421
g15
tp2422
a(S"what's temperature"
p2423
g15
tp2424
a(S'can you please shut down'
p2425
g15
tp2426
a(S'are there any events on thursday'
p2427
g15
tp2428
a(S"what's the live news"
p2429
g15
tp2430
a(S'please get clock'
p2431
g185
tp2432
a(S'alice'
p2433
g15
tp2434
a(S'do i have to do anything on tuesday'
p2435
g15
tp2436
a(S'kill this window'
p2437
g15
tp2438
a(S'turn the beat down'
p2439
g15
tp2440
a(S'get news now'
p2441
g15
tp2442
a(S'do not get current time'
p2443
g15
tp2444
a(S'can you create event'
p2445
g15
tp2446
a(S"what're the newsfeed"
p2447
g15
tp2448
a(S'please do not check what time it is'
p2449
g15
tp2450
a(S'google search please for'
p2451
g15
tp2452
a(S'check calendar'
p2453
g15
tp2454
a(S"don't i have anything to do on saturday"
p2455
g15
tp2456
a(S'is there anything i have to do on monday'
p2457
g15
tp2458
a(S"don't read the time please"
p2459
g15
tp2460
a(S'will you open my gmail'
p2461
g15
tp2462
a(S'gather information on'
p2463
g15
tp2464
a(S'could you check mail please'
p2465
g15
tp2466
a(S'please could you check gmail'
p2467
g15
tp2468
a(S"what's in gmail please"
p2469
g15
tp2470
a(S'can you check new gmail please'
p2471
g15
tp2472
a(S'could you make a new event'
p2473
g15
tp2474
a(S'any events on sunday'
p2475
g15
tp2476
a(S"if it's raining this week"
p2477
g15
tp2478
a(S'set the volume to zero'
p2479
g15
tp2480
a(S"please don't retrieve the time"
p2481
g15
tp2482
a(S'do i have to do anything on thursday'
p2483
g15
tp2484
a(S'is there anything to do on saturday'
p2485
g15
tp2486
a(S'start a default browser please'
p2487
g15
tp2488
a(S'shut up'
p2489
g15
tp2490
a(S'put me on the lock screen please'
p2491
g15
tp2492
a(S"get if it's foggy today"
p2493
g15
tp2494
a(S'open my inbox please'
p2495
g15
tp2496
a(S"what's today's temperature"
p2497
g15
tp2498
a(S'would you open inbox please'
p2499
g15
tp2500
a(S'what events are in a week'
p2501
g15
tp2502
a(g33
g15
tp2503
a(S'check calendar on today'
p2504
g15
tp2505
a(S'a decent problem gossips beside the shoulder'
p2506
g15
tp2507
a(S"get if it's foggy this week"
p2508
g15
tp2509
a(S"get this week's weather"
p2510
g15
tp2511
a(S'please would you check new gmail'
p2512
g15
tp2513
a(S"don't retrieve the current time please"
p2514
g15
tp2515
a(S'what is new in inbox please'
p2516
g15
tp2517
a(S'do i have any events on saturday'
p2518
g15
tp2519
a(S"please don't retrieve the current time"
p2520
g15
tp2521
a(S'what are the live news feed'
p2522
g15
tp2523
a(S'when is it please'
p2524
g185
tp2525
a(S'is there anything to do on monday'
p2526
g15
tp2527
a(S'check my calendar on tuesday'
p2528
g15
tp2529
a(S'what events do i have on next'
p2530
g15
tp2531
a(S'get clock'
p2532
g185
tp2533
a(S'do not get the clock'
p2534
g15
tp2535
a(S'do i have anything to do on thursday'
p2536
g15
tp2537
a(S'can you kill this window'
p2538
g15
tp2539
a(S'bye bye'
p2540
g15
tp2541
a(S"what's in mail please"
p2542
g15
tp2543
a(S'would you open mail please'
p2544
g15
tp2545
a(S'could you check inbox'
p2546
g15
tp2547
a(S'is it foggy this week'
p2548
g15
tp2549
a(S'louder please'
p2550
g15
tp2551
a(S'could you please create an event'
p2552
g15
tp2553
a(S"what's new in my gmail"
p2554
g15
tp2555
a(S'retrieve the time please'
p2556
g185
tp2557
a(S'see you'
p2558
g15
tp2559
a(S"what's if it's snowing today"
p2560
g15
tp2561
a(S'what events are in a month'
p2562
g15
tp2563
a(S'pause please'
p2564
g15
tp2565
a(S'hey alice'
p2566
g15
tp2567
a(S'do i have any events on next'
p2568
g15
tp2569
a(S'do not check the clock right now please'
p2570
g15
tp2571
a(S'can you create an event please'
p2572
g15
tp2573
a(g33
g185
tp2574
a(S'start browsing'
p2575
g15
tp2576
a(S'please what is new in my gmail'
p2577
g15
tp2578
a(S'spotify last song please'
p2579
g15
tp2580
a(S'would you check new gmail'
p2581
g15
tp2582
a(S'any events on saturday'
p2583
g15
tp2584
a(S'please spotify play previous song'
p2585
g15
tp2586
a(S'is there anything to do in a month'
p2587
g15
tp2588
a(g33
g15
tp2589
a(S'are there any events'
p2590
g15
tp2591
a(S'what is on my calendar for wednesday'
p2592
g15
tp2593
a(g33
g15
tp2594
a(S'what do i have to do on friday'
p2595
g15
tp2596
a(S'could you add a new event please'
p2597
g15
tp2598
a(S'can you schedule new event'
p2599
g15
tp2600
a(S'please open inbox'
p2601
g15
tp2602
a(S'spotify pause please'
p2603
g15
tp2604
a(S'would you check my gmail please'
p2605
g15
tp2606
a(S'send me to the lock screen please'
p2607
g15
tp2608
a(S'am i free in a week'
p2609
g15
tp2610
a(S"what's the temperature today"
p2611
g15
tp2612
a(S'what are the news feed'
p2613
g15
tp2614
a(S"please what's new in my mail"
p2615
g15
tp2616
a(S'emergency shutdown'
p2617
g15
tp2618
a(S'anything in gmail'
p2619
g15
tp2620
a(S'what is new in inbox'
p2621
g15
tp2622
a(S'please kill the current window'
p2623
g15
tp2624
a(S'do not check what time it is please'
p2625
g15
tp2626
a(S'please get the time'
p2627
g185
tp2628
a(S'check my calendar for monday'
p2629
g15
tp2630
a(S'last song please'
p2631
g15
tp2632
a(S'do i have to do anything on wednesday'
p2633
g15
tp2634
a(S'whats going on in the world todays please'
p2635
g15
tp2636
a(S'go spotify please'
p2637
g15
tp2638
a(S'please what is in my inbox'
p2639
g15
tp2640
a(S"what's new in new gmail"
p2641
g15
tp2642
a(S'time'
p2643
g185
tp2644
a(S"if it's cold this week"
p2645
g15
tp2646
a(S"how's the forecast this week"
p2647
g15
tp2648
a(S'what is in inbox please'
p2649
g15
tp2650
a(S'spotify go back to the last song '
p2651
g15
tp2652
a(S'we stick to simple problems in this post for the sake of illustration'
p2653
g15
tp2654
a(S'what do i have on this day'
p2655
g15
tp2656
a(S'start spotify please'
p2657
g15
tp2658
a(S'will you open mail please'
p2659
g15
tp2660
a(S'find live news'
p2661
g15
tp2662
a(S'check events on month'
p2663
g15
tp2664
a(S'open dot ee dee you'
p2665
g15
tp2666
a(S"what's this week's forecast"
p2667
g15
tp2668
a(S'please will you check my inbox'
p2669
g15
tp2670
a(S'do not retrieve the time'
p2671
g15
tp2672
a(S'spotify go ahead'
p2673
g15
tp2674
a(S"don't i have to do anything today"
p2675
g15
tp2676
a(S'please give me current events'
p2677
g15
tp2678
a(S'please get time'
p2679
g185
tp2680
a(S'check the clock'
p2681
g185
tp2682
a(S'what do i have on friday'
p2683
g15
tp2684
a(S'is it rainy today'
p2685
g15
tp2686
a(S'stop spotify'
p2687
g15
tp2688
a(S'see ya alice'
p2689
g15
tp2690
a(S"don't get me the clock"
p2691
g15
tp2692
a(S'would you open my inbox'
p2693
g15
tp2694
a(S'check new mail please'
p2695
g15
tp2696
a(S'go back please'
p2697
g15
tp2698
a(S"don't i have anything on saturday"
p2699
g15
tp2700
a(S'temperature'
p2701
g15
tp2702
a(S'can you check mail please'
p2703
g15
tp2704
a(S'can you please create new event'
p2705
g15
tp2706
a(S"get today's forecast"
p2707
g15
tp2708
a(S'find current news'
p2709
g15
tp2710
a(S'please shut down'
p2711
g15
tp2712
a(S'please what is new in inbox'
p2713
g15
tp2714
a(S'am i free on saturday'
p2715
g15
tp2716
a(S'check google calendar on tomorrow'
p2717
g15
tp2718
a(S'stop song please'
p2719
g15
tp2720
a(S'please retrieve the current time'
p2721
g185
tp2722
a(S'schedule a new event please'
p2723
g15
tp2724
a(S'start browser please'
p2725
g15
tp2726
a(S'could you check gmail please'
p2727
g15
tp2728
a(S'can you add event'
p2729
g15
tp2730
a(S'check google calendar for thursday'
p2731
g15
tp2732
a(S'what is newsfeed'
p2733
g15
tp2734
a(S"what's in inbox please"
p2735
g15
tp2736
a(S'check events on'
p2737
g15
tp2738
a(S'do i have to do anything in a month'
p2739
g15
tp2740
a(S'is there anything i have to do on tomorrow'
p2741
g15
tp2742
a(S"what's in new mail please"
p2743
g15
tp2744
a(S'can you turn up the volume please'
p2745
g15
tp2746
a(S'could you create new event'
p2747
g15
tp2748
a(S'do i have anything on monday'
p2749
g15
tp2750
a(S"please what's in inbox"
p2751
g15
tp2752
a(S'alice go ahead please'
p2753
g15
tp2754
a(S'can you shut down'
p2755
g15
tp2756
a(S'please what is in gmail'
p2757
g15
tp2758
a(S'check my mail please'
p2759
g15
tp2760
a(S'do i have anything to do next'
p2761
g15
tp2762
a(S'what are the current events today'
p2763
g15
tp2764
a(S"if it's hot today"
p2765
g15
tp2766
a(S'can you make a new event'
p2767
g15
tp2768
a(S'any events on today'
p2769
g15
tp2770
a(S"don't i have any events on monday"
p2771
g15
tp2772
a(g33
g15
tp2773
a(S'could you open my gmail please'
p2774
g15
tp2775
a(S'get news feed'
p2776
g15
tp2777
a(S'what do i have on tuesday'
p2778
g15
tp2779
a(S'add event'
p2780
g15
tp2781
a(S'can you please create event'
p2782
g15
tp2783
a(S'can you shut up'
p2784
g15
tp2785
a(S"don't get clock"
p2786
g15
tp2787
a(S'is it raining today'
p2788
g15
tp2789
a(S'can you please turn up the beat'
p2790
g15
tp2791
a(S'please get the news'
p2792
g15
tp2793
a(S'can you shutdown my computer'
p2794
g15
tp2795
a(S'is there anything i have to do on friday'
p2796
g15
tp2797
a(S'please would you check inbox'
p2798
g15
tp2799
a(S'check events for sunday'
p2800
g15
tp2801
a(S'alice next please'
p2802
g15
tp2803
a(S'volume higher please'
p2804
g15
tp2805
a(S'please add event'
p2806
g15
tp2807
a(S"what's if it's freezing today"
p2808
g15
tp2809
a(S'check my calendar on this day'
p2810
g15
tp2811
a(S'can you please schedule new event'
p2812
g15
tp2813
a(S'bye bye alice'
p2814
g15
tp2815
a(S"what's the news"
p2816
g15
tp2817
a(S'please what is new in gmail'
p2818
g15
tp2819
a(S'please will you open my mail'
p2820
g15
tp2821
a(S'tell me headlines'
p2822
g15
tp2823
a(S'create an event please'
p2824
g15
tp2825
a(S'make new event please'
p2826
g15
tp2827
a(S'is it hot today'
p2828
g15
tp2829
a(S'check events on today'
p2830
g15
tp2831
a(S"please what's in new mail"
p2832
g15
tp2833
a(S'open my gmail'
p2834
g15
tp2835
a(S"don't i have to do anything on saturday"
p2836
g15
tp2837
a(S'newsfeed'
p2838
g15
tp2839
a(S'please spotify last song'
p2840
g15
tp2841
a(S'open a default browser please'
p2842
g15
tp2843
a(S"what're the the news"
p2844
g15
tp2845
a(S'close this window'
p2846
g15
tp2847
a(S'turn the tune down'
p2848
g15
tp2849
a(S'check my calendar on monday'
p2850
g15
tp2851
a(S'what is the news'
p2852
g15
tp2853
a(S'please what is new in my inbox'
p2854
g15
tp2855
a(S"don't i have to do anything on this day"
p2856
g15
tp2857
a(S'what is new in my mail please'
p2858
g15
tp2859
a(S'what do i have on'
p2860
g15
tp2861
a(S'are there any events on this day'
p2862
g15
tp2863
a(S'can you check new gmail'
p2864
g15
tp2865
a(S"what's if it's raining this week"
p2866
g15
tp2867
a(S'check google calendar for saturday'
p2868
g15
tp2869
a(S'do i have anything on sunday'
p2870
g15
tp2871
a(S'can you check gmail'
p2872
g15
tp2873
a(S'could you please create a new event'
p2874
g15
tp2875
a(S'any new mail'
p2876
g15
tp2877
a(S'check events for wednesday'
p2878
g15
tp2879
a(S'could you make event'
p2880
g15
tp2881
a(S'start a default browser'
p2882
g15
tp2883
a(S"don't i have any events on wednesday"
p2884
g15
tp2885
a(S"don't i have to do anything in a week"
p2886
g15
tp2887
a(S'play song'
p2888
g15
tp2889
a(S'can you turn up the tunez'
p2890
g15
tp2891
a(S'add a new event please'
p2892
g15
tp2893
a(S'exit'
p2894
g15
tp2895
a(S"don't get the clock"
p2896
g15
tp2897
a(S'please start'
p2898
g15
tp2899
a(S'what is current news'
p2900
g15
tp2901
a(S'please would you open my gmail'
p2902
g15
tp2903
a(S'spotify skip'
p2904
g15
tp2905
a(S'please start default browser'
p2906
g15
tp2907
a(S'check google calendar for next'
p2908
g15
tp2909
a(S'check my calendar on sunday'
p2910
g15
tp2911
a(S'check events on this day'
p2912
g15
tp2913
a(S'do not get clock please'
p2914
g15
tp2915
a(S'anything new in gmail'
p2916
g15
tp2917
a(S'please get current time'
p2918
g185
tp2919
a(S'do not get me the clock'
p2920
g15
tp2921
a(S"aren't there any events on today"
p2922
g15
tp2923
a(S'can you create an event'
p2924
g15
tp2925
a(S'do not get time please'
p2926
g15
tp2927
a(S"don't retrieve the time please"
p2928
g15
tp2929
a(S'is there anything to do'
p2930
g15
tp2931
a(S'current news'
p2932
g15
tp2933
a(S'open my inbox'
p2934
g15
tp2935
a(S'predict the outcome on a new document'
p2936
g15
tp2937
a(S'could you create an event'
p2938
g15
tp2939
a(S'do i have any events on sunday'
p2940
g15
tp2941
a(S'could you please add event'
p2942
g15
tp2943
a(S'is it cold today'
p2944
g15
tp2945
a(S'check calendar for tuesday'
p2946
g15
tp2947
a(S'please sound up'
p2948
g15
tp2949
a(S'sweet dreams'
p2950
g15
tp2951
a(S'shut down'
p2952
g15
tp2953
a(S"don't check the clock right now please"
p2954
g15
tp2955
a(S'am i free on thursday'
p2956
g15
tp2957
a(S"don't read me the clock"
p2958
g15
tp2959
a(S'current time'
p2960
g185
tp2961
a(S'current time'
p2962
g15
tp2963
a(S'please would you check my gmail'
p2964
g15
tp2965
a(S'check calendar on this day'
p2966
g15
tp2967
a(S'go back'
p2968
g15
tp2969
a(S"what's the forecast today"
p2970
g15
tp2971
a(S'is it raining this week'
p2972
g15
tp2973
a(S"don't i have to do anything on wednesday"
p2974
g15
tp2975
a(S"what's if it's hot this week"
p2976
g15
tp2977
a(S'get me the clock please'
p2978
g185
tp2979
a(S"get if it's cold this week"
p2980
g15
tp2981
a(S"don't check the clock please"
p2982
g15
tp2983
a(S"if it's freezing this week"
p2984
g15
tp2985
a(S'do i have anything to do on sunday'
p2986
g15
tp2987
a(S'can you please turn up the volume'
p2988
g15
tp2989
a(S'a releasing moderate stalls beside the material cell'
p2990
g15
tp2991
a(S'please be quiet'
p2992
g15
tp2993
a(S'what is on my calendar'
p2994
g15
tp2995
a(S"get if it's freezing this week"
p2996
g15
tp2997
a(g33
g15
tp2998
a(S'please do not get the clock'
p2999
g15
tp3000
a(S'check events for this week'
p3001
g15
tp3002
a(S'go to dot ee dee you'
p3003
g15
tp3004
a(S'could you open gmail please'
p3005
g15
tp3006
a(S'will it snow this week'
p3007
g15
tp3008
a(S'headlines'
p3009
g15
tp3010
a(S"please what's new in new mail"
p3011
g15
tp3012
a(S'check events for this day'
p3013
g15
tp3014
a(S'check calendar for monday'
p3015
g15
tp3016
a(S'what events do i have on tuesday'
p3017
g15
tp3018
a(S"don't i have anything to do on sunday"
p3019
g15
tp3020
a(S'please lock my computer'
p3021
g15
tp3022
a(S'give me the current events'
p3023
g15
tp3024
a(S'can you lock the screen please'
p3025
g15
tp3026
a(S"don't i have to do anything on saturday"
p3027
g15
tp3028
a(S'can you please add an event'
p3029
g15
tp3030
a(S'skip'
p3031
g15
tp3032
a(S'can you check new mail'
p3033
g15
tp3034
a(S"don't i have anything on"
p3035
g15
tp3036
a(S"don't check the current time please"
p3037
g15
tp3038
a(S"aren't there any events on tuesday"
p3039
g15
tp3040
a(S"don't i have to do anything on friday"
p3041
g15
tp3042
a(S"what're the current events"
p3043
g15
tp3044
a(S'shut up please'
p3045
g15
tp3046
a(S"don't i have to do anything on sunday"
p3047
g15
tp3048
a(S'do i have anything on friday'
p3049
g15
tp3050
a(S'do i have to do anything on sunday'
p3051
g15
tp3052
a(S'current events'
p3053
g15
tp3054
a(S'check my calendar on this month'
p3055
g15
tp3056
a(S'check events on tuesday'
p3057
g15
tp3058
a(S'please check new mail'
p3059
g15
tp3060
a(S'check events for next'
p3061
g15
tp3062
a(S'find news feed'
p3063
g15
tp3064
a(S'please play spotify '
p3065
g15
tp3066
a(S'can you please turn my computer off'
p3067
g15
tp3068
a(S"don't i have any events"
p3069
g15
tp3070
a(S'schedule new event'
p3071
g15
tp3072
a(S'any gmail'
p3073
g15
tp3074
a(S'could you add event'
p3075
g15
tp3076
a(S'open inbox'
p3077
g15
tp3078
a(S'what do i have on next'
p3079
g15
tp3080
a(S'can you create a new event'
p3081
g15
tp3082
a(S'search google for please'
p3083
g15
tp3084
a(S'please will you open gmail'
p3085
g15
tp3086
a(S"what's in new mail"
p3087
g15
tp3088
a(S'what do i have to do on tuesday'
p3089
g15
tp3090
a(S'get current events'
p3091
g15
tp3092
a(S"please what's in my inbox"
p3093
g15
tp3094
a(S"what's new in my mail"
p3095
g15
tp3096
a(S'is there anything i have to do in a week'
p3097
g15
tp3098
a(S'please will you check new mail'
p3099
g15
tp3100
a(S'can you schedule event please'
p3101
g15
tp3102
a(S'would you check new mail please'
p3103
g15
tp3104
a(S'do i have anything to do on wednesday'
p3105
g15
tp3106
a(S'get live newsfeed'
p3107
g15
tp3108
a(S'get weather'
p3109
g15
tp3110
a(S'open default browser'
p3111
g15
tp3112
a(S'turn off the sound please'
p3113
g15
tp3114
a(S"if it's raining today"
p3115
g15
tp3116
a(S'turn up the sound please'
p3117
g15
tp3118
a(S'will you check my mail'
p3119
g15
tp3120
a(S'do i have anything to do on monday'
p3121
g15
tp3122
a(S'could you create a new event please'
p3123
g15
tp3124
a(S'turn yourself off please'
p3125
g15
tp3126
a(g33
g15
tp3127
a(S'will you get the current events for me'
p3128
g15
tp3129
a(S'what is in my gmail please'
p3130
g15
tp3131
a(S'would you check my inbox please'
p3132
g15
tp3133
a(S'open default browser please'
p3134
g15
tp3135
a(S"if it's hot this week"
p3136
g15
tp3137
a(S'any events on this day'
p3138
g15
tp3139
a(S"today's newsfeed"
p3140
g15
tp3141
a(S'gather information on todays current events please'
p3142
g15
tp3143
a(S'anything in my gmail'
p3144
g15
tp3145
a(S'can you add event please'
p3146
g15
tp3147
a(S'play spotify please'
p3148
g15
tp3149
a(g33
g15
tp3150
a(S'please shut off'
p3151
g15
tp3152
a(S'can you shut my computer down'
p3153
g15
tp3154
a(S'open gmail please'
p3155
g15
tp3156
a(S'what events are on today'
p3157
g15
tp3158
a(S"don't i have to do anything on monday"
p3159
g15
tp3160
a(S'what is live news feed'
p3161
g15
tp3162
a(g33
g15
tp3163
a(S'can you check gmail please'
p3164
g15
tp3165
a(S'can you lock my computer please'
p3166
g15
tp3167
a(S'please would you check my mail'
p3168
g15
tp3169
a(S'will you check new mail'
p3170
g15
tp3171
a(S'please spotify previous song'
p3172
g15
tp3173
a(S'do not retrieve the time please'
p3174
g15
tp3175
a(S'what events are on wednesday'
p3176
g15
tp3177
a(S'check gmail'
p3178
g15
tp3179
a(S'do not read me the clock please'
p3180
g15
tp3181
a(S'please shutdown the computer'
p3182
g15
tp3183
a(S'check my calendar for friday'
p3184
g15
tp3185
a(S'please could you open my inbox'
p3186
g15
tp3187
a(S'lock the screen'
p3188
g15
tp3189
a(S'are there any events on today'
p3190
g15
tp3191
a(S"get today's weather"
p3192
g15
tp3193
a(S'please would you open mail'
p3194
g15
tp3195
a(S'please pause song'
p3196
g15
tp3197
a(S'could you please add an event'
p3198
g15
tp3199
a(S'sound up please'
p3200
g15
tp3201
a(S'please read me the clock'
p3202
g185
tp3203
a(S"don't i have anything on wednesday"
p3204
g15
tp3205
a(S'check the clock please'
p3206
g185
tp3207
a(S'turn off please'
p3208
g15
tp3209
a(S'mute please'
p3210
g15
tp3211
a(S'what is on my calendar for this month'
p3212
g15
tp3213
a(S'lower the sound'
p3214
g15
tp3215
a(S'what is new in my inbox'
p3216
g15
tp3217
a(S'what events are on saturday'
p3218
g15
tp3219
a(S"what time isn't it right now"
p3220
g15
tp3221
a(S"what's this week's weather"
p3222
g15
tp3223
a(S"please what's new in new gmail"
p3224
g15
tp3225
a(S"don't read time please"
p3226
g15
tp3227
a(S'am i free on tuesday'
p3228
g15
tp3229
a(S'is it freezing this week'
p3230
g15
tp3231
a(S'open browser'
p3232
g15
tp3233
a(S'am i free on this day'
p3234
g15
tp3235
a(S'do not get me the clock please'
p3236
g15
tp3237
a(S"if it's cloudy this week"
p3238
g15
tp3239
a(S'please add an event'
p3240
g15
tp3241
a(S'please spotify pause'
p3242
g15
tp3243
a(S'could you make a new event please'
p3244
g15
tp3245
a(S'check my calendar for thursday'
p3246
g15
tp3247
a(S'can you please shut up'
p3248
g15
tp3249
a(S'can you please add a new event'
p3250
g15
tp3251
a(S'briefing'
p3252
g15
tp3253
a(S'will you check my inbox'
p3254
g15
tp3255
a(S'anything new in inbox'
p3256
g15
tp3257
a(S'what is in my inbox'
p3258
g15
tp3259
a(S"what's in inbox"
p3260
g15
tp3261
a(S'can you open a browser please'
p3262
g15
tp3263
a(S'shut down my computer'
p3264
g15
tp3265
a(S'would you check mail please'
p3266
g15
tp3267
a(S'open browser please'
p3268
g15
tp3269
a(S'can you add new event please'
p3270
g15
tp3271
a(S"don't time please"
p3272
g15
tp3273
a(S'can you turn off my computer'
p3274
g15
tp3275
a(S"don't get time please"
p3276
g15
tp3277
a(S'could you schedule a new event please'
p3278
g15
tp3279
a(S'intelligence report'
p3280
g15
tp3281
a(S"today's news feed"
p3282
g15
tp3283
a(S'can you kill the window'
p3284
g15
tp3285
a(S"don't i have to do anything on"
p3286
g15
tp3287
a(S'please what is in my mail'
p3288
g15
tp3289
a(S"what's the clock"
p3290
g185
tp3291
a(S'do i have anything to do on tuesday'
p3292
g15
tp3293
a(S"aren't there any events on this day"
p3294
g15
tp3295
a(S'spotify skip ahead please'
p3296
g15
tp3297
a(S'start browser'
p3298
g15
tp3299
a(S'please could you open inbox'
p3300
g15
tp3301
a(S'what events do i have on wednesday'
p3302
g15
tp3303
a(S'read me the clock'
p3304
g185
tp3305
a(S'please give me the current events please'
p3306
g15
tp3307
a(S'turn it down'
p3308
g15
tp3309
a(S'close current window'
p3310
g15
tp3311
a(S"what time isn't it now"
p3312
g15
tp3313
a(S'any mail'
p3314
g15
tp3315
a(S"don't get the time"
p3316
g15
tp3317
a(S"what's in my mail please"
p3318
g15
tp3319
a(S"aren't there any events on wednesday"
p3320
g15
tp3321
a(S'check my calendar for this day'
p3322
g15
tp3323
a(S'read time'
p3324
g185
tp3325
a(S'could you schedule new event'
p3326
g15
tp3327
a(S"don't i have to do anything on tuesday"
p3328
g15
tp3329
a(S'can you please create an event'
p3330
g15
tp3331
a(S'will you get the headlines'
p3332
g15
tp3333
a(S'please schedule event'
p3334
g15
tp3335
a(S'what do i have on today'
p3336
g15
tp3337
a(g33
g15
tp3338
a(S'what are the headlines'
p3339
g15
tp3340
a(S'do not when is it please'
p3341
g15
tp3342
a(S'get the current events'
p3343
g15
tp3344
a(S'open mail'
p3345
g15
tp3346
a(S'pause the song please'
p3347
g15
tp3348
a(S"don't check your watch"
p3349
g15
tp3350
a(S"aren't there any events on next"
p3351
g15
tp3352
a(S"how's the weather this week"
p3353
g15
tp3354
a(g33
g15
tp3355
a(g33
g15
tp3356
a(S'what is going on in the world today'
p3357
g15
tp3358
a(S'can you close the active window'
p3359
g15
tp3360
a(S'please spotify last'
p3361
g15
tp3362
a(S"aren't there any events on saturday"
p3363
g15
tp3364
a(S'check google calendar'
p3365
g15
tp3366
a(S'make the sound higher'
p3367
g15
tp3368
a(S"this week's weather"
p3369
g15
tp3370
a(S"if it's snowing today"
p3371
g15
tp3372
a(S"how's the forecast"
p3373
g15
tp3374
a(S'could you add a new event'
p3375
g15
tp3376
a(S'get current temperature'
p3377
g15
tp3378
a(S'is there anything to do on tomorrow'
p3379
g15
tp3380
a(S'retrieve the current time please'
p3381
g185
tp3382
a(S'what is new in my gmail'
p3383
g15
tp3384
a(S'shutdown'
p3385
g15
tp3386
a(S'add new event'
p3387
g15
tp3388
a(S'please can you check my gmail'
p3389
g15
tp3390
a(S"how's the temperature"
p3391
g15
tp3392
a(S'do i have anything on this day'
p3393
g15
tp3394
a(S'please can you check new mail'
p3395
g15
tp3396
a(S'check calendar for saturday'
p3397
g15
tp3398
a(S'check calendar for this day'
p3399
g15
tp3400
a(S'open my mail'
p3401
g15
tp3402
a(S'please would you check gmail'
p3403
g15
tp3404
a(S'go to dot com'
p3405
g15
tp3406
a(S'turn down the volume'
p3407
g15
tp3408
a(S'could you open inbox please'
p3409
g15
tp3410
a(S'check google calendar on month'
p3411
g15
tp3412
a(S'please will you open my inbox'
p3413
g15
tp3414
a(S'open dot com'
p3415
g15
tp3416
a(S'mute'
p3417
g15
tp3418
a(S'can you please kill current window'
p3419
g15
tp3420
a(S'any events on tomorrow'
p3421
g15
tp3422
a(S'check calendar on tomorrow'
p3423
g15
tp3424
a(S'shutdown the computer'
p3425
g15
tp3426
a(S'brief me'
p3427
g15
tp3428
a(S'can you send me to the lock screen please'
p3429
g15
tp3430
a(S"don't i have any events on"
p3431
g15
tp3432
a(S'please search'
p3433
g15
tp3434
a(S"don't retrieve the time"
p3435
g15
tp3436
a(S"get if it's cold today"
p3437
g15
tp3438
a(S'do not check what time it is'
p3439
g15
tp3440
a(S'get time please'
p3441
g185
tp3442
a(S'is it cold this week'
p3443
g15
tp3444
a(S'can you close the current window'
p3445
g15
tp3446
a(S'turn up the tune'
p3447
g15
tp3448
a(S"please don't check what time it is"
p3449
g15
tp3450
a(S'can you turn my computer off'
p3451
g15
tp3452
a(S'could you schedule event'
p3453
g15
tp3454
a(S'what is in gmail please'
p3455
g15
tp3456
a(S'can you schedule an event please'
p3457
g15
tp3458
a(S'spotify next song '
p3459
g15
tp3460
a(S'train a classifier to try to predict the category of a post'
p3461
g15
tp3462
a(S'check my calendar'
p3463
g15
tp3464
a(S'spotify start the song please'
p3465
g15
tp3466
a(S"what's the forecast"
p3467
g15
tp3468
a(S'is it hot this week'
p3469
g15
tp3470
a(S'check events for saturday'
p3471
g15
tp3472
a(S'please could you open my mail'
p3473
g15
tp3474
a(S'would you check my inbox'
p3475
g15
tp3476
a(S'will you check new mail please'
p3477
g15
tp3478
a(S'what is in new gmail'
p3479
g15
tp3480
a(S'turn the beat down please'
p3481
g15
tp3482
a(S'turn it down'
p3483
g15
tp3484
a(S'could you check new mail please'
p3485
g15
tp3486
a(S'can you check my gmail please'
p3487
g15
tp3488
a(S'can you please turn the sound down'
p3489
g15
tp3490
a(S'can you please turn up the tunez'
p3491
g15
tp3492
a(S'would you check inbox'
p3493
g15
tp3494
a(S'do i have to do anything today'
p3495
g15
tp3496
a(S'can you please shut down my computer'
p3497
g15
tp3498
a(S'do i have to do anything'
p3499
g15
tp3500
a(S'please spotify go '
p3501
g15
tp3502
a(S"don't i have to do anything in a month"
p3503
g15
tp3504
a(S'can you please add event'
p3505
g15
tp3506
a(S'please pause the song'
p3507
g15
tp3508
a(S'song stop'
p3509
g15
tp3510
a(S'what is news'
p3511
g15
tp3512
a(S"please don't get time"
p3513
g15
tp3514
a(S'please get the clock'
p3515
g185
tp3516
a(S'get me the clock'
p3517
g185
tp3518
a(S'can you please kill this window'
p3519
g15
tp3520
a(S'do i have anything to do today'
p3521
g15
tp3522
a(S'can you turn off the computer'
p3523
g15
tp3524
a(S'shutdown please'
p3525
g15
tp3526
a(S'please turn off the computer'
p3527
g15
tp3528
a(S'can you get the current events'
p3529
g15
tp3530
a(S'am i free for next'
p3531
g15
tp3532
a(S'any events'
p3533
g15
tp3534
a(S'what time is it currently'
p3535
g185
tp3536
a(S'create new event please'
p3537
g15
tp3538
a(S'please close the window'
p3539
g15
tp3540
a(S'what is on my calendar for monday'
p3541
g15
tp3542
a(S'turn up the volume please'
p3543
g15
tp3544
a(S'live newsfeed'
p3545
g15
tp3546
a(S'do i have anything today'
p3547
g15
tp3548
a(S'shut down please'
p3549
g15
tp3550
a(S'open a browser'
p3551
g15
tp3552
a(S'forecast'
p3553
g15
tp3554
a(S'is there anything i have to do on next'
p3555
g15
tp3556
a(S'please schedule an event'
p3557
g15
tp3558
a(S'clock'
p3559
g15
tp3560
a(S'give me the current events please'
p3561
g15
tp3562
a(S'what time is it'
p3563
g185
tp3564
a(S"don't read your watch"
p3565
g15
tp3566
a(S"today's live news"
p3567
g15
tp3568
a(S'check my calendar for this month'
p3569
g15
tp3570
a(S'fake news'
p3571
g15
tp3572
a(S'make the volume zero'
p3573
g15
tp3574
a(S'will you open my inbox please'
p3575
g15
tp3576
a(S'close current program'
p3577
g15
tp3578
a(S'what is on my calendar for today'
p3579
g15
tp3580
a(S'please give me the news'
p3581
g15
tp3582
a(S'spotify go please'
p3583
g15
tp3584
a(S'can you close this window'
p3585
g15
tp3586
a(S"if it's snowing this week"
p3587
g15
tp3588
a(S'what is new in mail'
p3589
g15
tp3590
a(S'live newsfeed today'
p3591
g15
tp3592
a(S'news'
p3593
g15
tp3594
a(S'anything new in mail'
p3595
g15
tp3596
a(S'next'
p3597
g15
tp3598
a(S'turn up the beat please'
p3599
g15
tp3600
a(S'skip spotify please'
p3601
g15
tp3602
a(S'can you turn yourself off'
p3603
g15
tp3604
a(S'off'
p3605
g15
tp3606
a(S"please don't get clock"
p3607
g15
tp3608
a(S'could you please schedule a new event'
p3609
g15
tp3610
a(S'close the active window'
p3611
g15
tp3612
a(S'start song'
p3613
g15
tp3614
a(S'what is in inbox'
p3615
g15
tp3616
a(S'is it snowing this week'
p3617
g15
tp3618
a(S'please do not read me the clock'
p3619
g15
tp3620
a(S'what time is it right now'
p3621
g185
tp3622
a(S'check my gmail please'
p3623
g15
tp3624
a(S'am i free for a week'
p3625
g15
tp3626
a(S"what's if it's cloudy this week"
p3627
g15
tp3628
a(S'please add a new event'
p3629
g15
tp3630
a(S'go to dot edu'
p3631
g15
tp3632
a(S'please could you check mail'
p3633
g15
tp3634
a(S'please retrieve what time it is'
p3635
g185
tp3636
a(S'please can you check my mail'
p3637
g15
tp3638
a(S'please do not read your watch'
p3639
g15
tp3640
a(S'check events on friday'
p3641
g15
tp3642
a(g33
g15
tp3643
a(S'get current time'
p3644
g185
tp3645
a(S'do not read your watch please'
p3646
g15
tp3647
a(S'am i free on tomorrow'
p3648
g15
tp3649
a(S'is it snowing today'
p3650
g15
tp3651
a(S'check google calendar for this month'
p3652
g15
tp3653
a(S'shut the fuck up'
p3654
g15
tp3655
a(S'what do i have on thursday'
p3656
g15
tp3657
a(S'will you check my inbox please'
p3658
g15
tp3659
a(S'issue commands'
p3660
g15
tp3661
a(S"i think i didn't answer an earlier question"
p3662
g15
tp3663
a(S'what is on my calendar for'
p3664
g15
tp3665
a(S'what events are on'
p3666
g15
tp3667
a(S'any events on tuesday'
p3668
g15
tp3669
a(S'do i have anything to do on this day'
p3670
g15
tp3671
asS'classifier'
p3672
ccopy_reg
_reconstructor
p3673
(csklearn.pipeline
Pipeline
p3674
c__builtin__
object
p3675
Ntp3676
Rp3677
(dp3678
S'_sklearn_version'
p3679
S'0.18.1'
p3680
sS'steps'
p3681
(lp3682
(S'vect'
p3683
g3673
(csklearn.feature_extraction.text
CountVectorizer
p3684
g3675
Ntp3685
Rp3686
(dp3687
S'decode_error'
p3688
Vstrict
p3689
sS'lowercase'
p3690
I01
sS'stop_words'
p3691
NsS'vocabulary'
p3692
NsS'tokenizer'
p3693
NsS'encoding'
p3694
Vutf-8
p3695
sS'token_pattern'
p3696
V(?u)\u005cb\u005cw\u005cw+\u005cb
p3697
sS'input'
p3698
Vcontent
p3699
sS'analyzer'
p3700
Vword
p3701
sS'vocabulary_'
p3702
(dp3703
Vraining
p3704
cnumpy.core.multiarray
scalar
p3705
(cnumpy
dtype
p3706
(S'i8'
p3707
I0
I1
tp3708
Rp3709
(I3
S'<'
p3710
NNNI-1
I-1
I0
tp3711
bS'\xa1\x00\x00\x00\x00\x00\x00\x00'
p3712
tp3713
Rp3714
sVtodays
p3715
g3705
(g3709
S'\xce\x00\x00\x00\x00\x00\x00\x00'
p3716
tp3717
Rp3718
sVmute
p3719
g3705
(g3709
S'~\x00\x00\x00\x00\x00\x00\x00'
p3720
tp3721
Rp3722
sVya
p3723
g3705
(g3709
S'\xe7\x00\x00\x00\x00\x00\x00\x00'
p3724
tp3725
Rp3726
sVskip
p3727
g3705
(g3709
S'\xb6\x00\x00\x00\x00\x00\x00\x00'
p3728
tp3729
Rp3730
sVmonth
p3731
g3705
(g3709
S'|\x00\x00\x00\x00\x00\x00\x00'
p3732
tp3733
Rp3734
sVnot
p3735
g3705
(g3709
S'\x87\x00\x00\x00\x00\x00\x00\x00'
p3736
tp3737
Rp3738
sVsofter
p3739
g3705
(g3709
S'\xb9\x00\x00\x00\x00\x00\x00\x00'
p3740
tp3741
Rp3742
sVkill
p3743
g3705
(g3709
S'n\x00\x00\x00\x00\x00\x00\x00'
p3744
tp3745
Rp3746
sVedu
p3747
g3705
(g3709
S'<\x00\x00\x00\x00\x00\x00\x00'
p3748
tp3749
Rp3750
sVgo
p3751
g3705
(g3709
S'T\x00\x00\x00\x00\x00\x00\x00'
p3752
tp3753
Rp3754
sVheadlines
p3755
g3705
(g3709
S']\x00\x00\x00\x00\x00\x00\x00'
p3756
tp3757
Rp3758
sVfind
p3759
g3705
(g3709
S'G\x00\x00\x00\x00\x00\x00\x00'
p3760
tp3761
Rp3762
sVprevious
p3763
g3705
(g3709
S'\x98\x00\x00\x00\x00\x00\x00\x00'
p3764
tp3765
Rp3766
sVspotify
p3767
g3705
(g3709
S'\xbc\x00\x00\x00\x00\x00\x00\x00'
p3768
tp3769
Rp3770
sVpause
p3771
g3705
(g3709
S'\x91\x00\x00\x00\x00\x00\x00\x00'
p3772
tp3773
Rp3774
sVsnowing
p3775
g3705
(g3709
S'\xb8\x00\x00\x00\x00\x00\x00\x00'
p3776
tp3777
Rp3778
sVsunday
p3779
g3705
(g3709
S'\xc1\x00\x00\x00\x00\x00\x00\x00'
p3780
tp3781
Rp3782
sVsend
p3783
g3705
(g3709
S'\xb0\x00\x00\x00\x00\x00\x00\x00'
p3784
tp3785
Rp3786
sVaren
p3787
g3705
(g3709
S'\r\x00\x00\x00\x00\x00\x00\x00'
p3788
tp3789
Rp3790
sVto
p3791
g3705
(g3709
S'\xcc\x00\x00\x00\x00\x00\x00\x00'
p3792
tp3793
Rp3794
sVwindow
p3795
g3705
(g3709
S'\xe4\x00\x00\x00\x00\x00\x00\x00'
p3796
tp3797
Rp3798
sVgoing
p3799
g3705
(g3709
S'U\x00\x00\x00\x00\x00\x00\x00'
p3800
tp3801
Rp3802
sVmail
p3803
g3705
(g3709
S'v\x00\x00\x00\x00\x00\x00\x00'
p3804
tp3805
Rp3806
sVbye
p3807
g3705
(g3709
S'\x19\x00\x00\x00\x00\x00\x00\x00'
p3808
tp3809
Rp3810
sVdo
p3811
g3705
(g3709
S'4\x00\x00\x00\x00\x00\x00\x00'
p3812
tp3813
Rp3814
sVgood
p3815
g3705
(g3709
S'V\x00\x00\x00\x00\x00\x00\x00'
p3816
tp3817
Rp3818
sVemergency
p3819
g3705
(g3709
S'>\x00\x00\x00\x00\x00\x00\x00'
p3820
tp3821
Rp3822
sVget
p3823
g3705
(g3709
S'P\x00\x00\x00\x00\x00\x00\x00'
p3824
tp3825
Rp3826
sVread
p3827
g3705
(g3709
S'\xa4\x00\x00\x00\x00\x00\x00\x00'
p3828
tp3829
Rp3830
sVmaterial
p3831
g3705
(g3709
S'x\x00\x00\x00\x00\x00\x00\x00'
p3832
tp3833
Rp3834
sVstop
p3835
g3705
(g3709
S'\xc0\x00\x00\x00\x00\x00\x00\x00'
p3836
tp3837
Rp3838
sVreport
p3839
g3705
(g3709
S'\xa6\x00\x00\x00\x00\x00\x00\x00'
p3840
tp3841
Rp3842
sVworld
p3843
g3705
(g3709
S'\xe5\x00\x00\x00\x00\x00\x00\x00'
p3844
tp3845
Rp3846
sVnow
p3847
g3705
(g3709
S'\x88\x00\x00\x00\x00\x00\x00\x00'
p3848
tp3849
Rp3850
sVday
p3851
g3705
(g3709
S',\x00\x00\x00\x00\x00\x00\x00'
p3852
tp3853
Rp3854
sVdreams
p3855
g3705
(g3709
S':\x00\x00\x00\x00\x00\x00\x00'
p3856
tp3857
Rp3858
sVintel
p3859
g3705
(g3709
S'h\x00\x00\x00\x00\x00\x00\x00'
p3860
tp3861
Rp3862
sVshoulder
p3863
g3705
(g3709
S'\xb2\x00\x00\x00\x00\x00\x00\x00'
p3864
tp3865
Rp3866
sVmoderate
p3867
g3705
(g3709
S'z\x00\x00\x00\x00\x00\x00\x00'
p3868
tp3869
Rp3870
sValex
p3871
g3705
(g3709
S'\x04\x00\x00\x00\x00\x00\x00\x00'
p3872
tp3873
Rp3874
sVlike
p3875
g3705
(g3709
S'q\x00\x00\x00\x00\x00\x00\x00'
p3876
tp3877
Rp3878
sVgossips
p3879
g3705
(g3709
S'X\x00\x00\x00\x00\x00\x00\x00'
p3880
tp3881
Rp3882
sVdidn
p3883
g3705
(g3709
S'3\x00\x00\x00\x00\x00\x00\x00'
p3884
tp3885
Rp3886
sVwednesday
p3887
g3705
(g3709
S'\xde\x00\x00\x00\x00\x00\x00\x00'
p3888
tp3889
Rp3890
sVcloudy
p3891
g3705
(g3709
S'#\x00\x00\x00\x00\x00\x00\x00'
p3892
tp3893
Rp3894
sVtry
p3895
g3705
(g3709
S'\xd1\x00\x00\x00\x00\x00\x00\x00'
p3896
tp3897
Rp3898
sVtunez
p3899
g3705
(g3709
S'\xd5\x00\x00\x00\x00\x00\x00\x00'
p3900
tp3901
Rp3902
sVgimme
p3903
g3705
(g3709
S'Q\x00\x00\x00\x00\x00\x00\x00'
p3904
tp3905
Rp3906
sVweather
p3907
g3705
(g3709
S'\xdd\x00\x00\x00\x00\x00\x00\x00'
p3908
tp3909
Rp3910
sVnight
p3911
g3705
(g3709
S'\x85\x00\x00\x00\x00\x00\x00\x00'
p3912
tp3913
Rp3914
sVtunes
p3915
g3705
(g3709
S'\xd4\x00\x00\x00\x00\x00\x00\x00'
p3916
tp3917
Rp3918
sVout
p3919
g3705
(g3709
S'\x8f\x00\x00\x00\x00\x00\x00\x00'
p3920
tp3921
Rp3922
sVclassifier
p3923
g3705
(g3709
S' \x00\x00\x00\x00\x00\x00\x00'
p3924
tp3925
Rp3926
sVinbox
p3927
g3705
(g3709
S'e\x00\x00\x00\x00\x00\x00\x00'
p3928
tp3929
Rp3930
sVset
p3931
g3705
(g3709
S'\xb1\x00\x00\x00\x00\x00\x00\x00'
p3932
tp3933
Rp3934
sVretrieve
p3935
g3705
(g3709
S'\xa7\x00\x00\x00\x00\x00\x00\x00'
p3936
tp3937
Rp3938
sVee
p3939
g3705
(g3709
S'=\x00\x00\x00\x00\x00\x00\x00'
p3940
tp3941
Rp3942
sVintelligence
p3943
g3705
(g3709
S'i\x00\x00\x00\x00\x00\x00\x00'
p3944
tp3945
Rp3946
sVback
p3947
g3705
(g3709
S'\x0e\x00\x00\x00\x00\x00\x00\x00'
p3948
tp3949
Rp3950
sVhail
p3951
g3705
(g3709
S'[\x00\x00\x00\x00\x00\x00\x00'
p3952
tp3953
Rp3954
sValice
p3955
g3705
(g3709
S'\x05\x00\x00\x00\x00\x00\x00\x00'
p3956
tp3957
Rp3958
sVsee
p3959
g3705
(g3709
S'\xaf\x00\x00\x00\x00\x00\x00\x00'
p3960
tp3961
Rp3962
sVcomputer
p3963
g3705
(g3709
S"'\x00\x00\x00\x00\x00\x00\x00"
p3964
tp3965
Rp3966
sVare
p3967
g3705
(g3709
S'\x0c\x00\x00\x00\x00\x00\x00\x00'
p3968
tp3969
Rp3970
sVclose
p3971
g3705
(g3709
S'"\x00\x00\x00\x00\x00\x00\x00'
p3972
tp3973
Rp3974
sVcalendar
p3975
g3705
(g3709
S'\x1b\x00\x00\x00\x00\x00\x00\x00'
p3976
tp3977
Rp3978
sVextract
p3979
g3705
(g3709
S'B\x00\x00\x00\x00\x00\x00\x00'
p3980
tp3981
Rp3982
sVcold
p3983
g3705
(g3709
S'$\x00\x00\x00\x00\x00\x00\x00'
p3984
tp3985
Rp3986
sVgmail
p3987
g3705
(g3709
S'S\x00\x00\x00\x00\x00\x00\x00'
p3988
tp3989
Rp3990
sVcategory
p3991
g3705
(g3709
S'\x1d\x00\x00\x00\x00\x00\x00\x00'
p3992
tp3993
Rp3994
sVwhat
p3995
g3705
(g3709
S'\xe0\x00\x00\x00\x00\x00\x00\x00'
p3996
tp3997
Rp3998
sVfor
p3999
g3705
(g3709
S'I\x00\x00\x00\x00\x00\x00\x00'
p4000
tp4001
Rp4002
sVclock
p4003
g3705
(g3709
S'!\x00\x00\x00\x00\x00\x00\x00'
p4004
tp4005
Rp4006
sVdebrief
p4007
g3705
(g3709
S'-\x00\x00\x00\x00\x00\x00\x00'
p4008
tp4009
Rp4010
sVcurrently
p4011
g3705
(g3709
S'+\x00\x00\x00\x00\x00\x00\x00'
p4012
tp4013
Rp4014
sVplease
p4015
g3705
(g3709
S'\x94\x00\x00\x00\x00\x00\x00\x00'
p4016
tp4017
Rp4018
sVbrief
p4019
g3705
(g3709
S'\x15\x00\x00\x00\x00\x00\x00\x00'
p4020
tp4021
Rp4022
sVforecast
p4023
g3705
(g3709
S'J\x00\x00\x00\x00\x00\x00\x00'
p4024
tp4025
Rp4026
sVcell
p4027
g3705
(g3709
S'\x1e\x00\x00\x00\x00\x00\x00\x00'
p4028
tp4029
Rp4030
sVre
p4031
g3705
(g3709
S'\xa3\x00\x00\x00\x00\x00\x00\x00'
p4032
tp4033
Rp4034
sVexit
p4035
g3705
(g3709
S'A\x00\x00\x00\x00\x00\x00\x00'
p4036
tp4037
Rp4038
sVabove
p4039
g3705
(g3709
S'\x00\x00\x00\x00\x00\x00\x00\x00'
p4040
tp4041
Rp4042
sVnew
p4043
g3705
(g3709
S'\x81\x00\x00\x00\x00\x00\x00\x00'
p4044
tp4045
Rp4046
sVnet
p4047
g3705
(g3709
S'\x80\x00\x00\x00\x00\x00\x00\x00'
p4048
tp4049
Rp4050
sVgov
p4051
g3705
(g3709
S'Y\x00\x00\x00\x00\x00\x00\x00'
p4052
tp4053
Rp4054
sVissue
p4055
g3705
(g3709
S'l\x00\x00\x00\x00\x00\x00\x00'
p4056
tp4057
Rp4058
sVbe
p4059
g3705
(g3709
S'\x10\x00\x00\x00\x00\x00\x00\x00'
p4060
tp4061
Rp4062
sVshut
p4063
g3705
(g3709
S'\xb3\x00\x00\x00\x00\x00\x00\x00'
p4064
tp4065
Rp4066
sVfriday
p4067
g3705
(g3709
S'M\x00\x00\x00\x00\x00\x00\x00'
p4068
tp4069
Rp4070
sVschedule
p4071
g3705
(g3709
S'\xac\x00\x00\x00\x00\x00\x00\x00'
p4072
tp4073
Rp4074
sVscreen
p4075
g3705
(g3709
S'\xad\x00\x00\x00\x00\x00\x00\x00'
p4076
tp4077
Rp4078
sVdictates
p4079
g3705
(g3709
S'2\x00\x00\x00\x00\x00\x00\x00'
p4080
tp4081
Rp4082
sVfree
p4083
g3705
(g3709
S'K\x00\x00\x00\x00\x00\x00\x00'
p4084
tp4085
Rp4086
sVillustration
p4087
g3705
(g3709
S'c\x00\x00\x00\x00\x00\x00\x00'
p4088
tp4089
Rp4090
sVactive
p4091
g3705
(g3709
S'\x01\x00\x00\x00\x00\x00\x00\x00'
p4092
tp4093
Rp4094
sVnews
p4095
g3705
(g3709
S'\x82\x00\x00\x00\x00\x00\x00\x00'
p4096
tp4097
Rp4098
sVpost
p4099
g3705
(g3709
S'\x95\x00\x00\x00\x00\x00\x00\x00'
p4100
tp4101
Rp4102
sVdon
p4103
g3705
(g3709
S'7\x00\x00\x00\x00\x00\x00\x00'
p4104
tp4105
Rp4106
sVon
p4107
g3705
(g3709
S'\x8c\x00\x00\x00\x00\x00\x00\x00'
p4108
tp4109
Rp4110
sVsearch
p4111
g3705
(g3709
S'\xae\x00\x00\x00\x00\x00\x00\x00'
p4112
tp4113
Rp4114
sVlast
p4115
g3705
(g3709
S'o\x00\x00\x00\x00\x00\x00\x00'
p4116
tp4117
Rp4118
sVahead
p4119
g3705
(g3709
S'\x03\x00\x00\x00\x00\x00\x00\x00'
p4120
tp4121
Rp4122
sVof
p4123
g3705
(g3709
S'\x89\x00\x00\x00\x00\x00\x00\x00'
p4124
tp4125
Rp4126
sVcould
p4127
g3705
(g3709
S'(\x00\x00\x00\x00\x00\x00\x00'
p4128
tp4129
Rp4130
sVcurrent
p4131
g3705
(g3709
S'*\x00\x00\x00\x00\x00\x00\x00'
p4132
tp4133
Rp4134
sVquiet
p4135
g3705
(g3709
S'\x9e\x00\x00\x00\x00\x00\x00\x00'
p4136
tp4137
Rp4138
sVturn
p4139
g3705
(g3709
S'\xd6\x00\x00\x00\x00\x00\x00\x00'
p4140
tp4141
Rp4142
sVisn
p4143
g3705
(g3709
S'k\x00\x00\x00\x00\x00\x00\x00'
p4144
tp4145
Rp4146
sVbrowsing
p4147
g3705
(g3709
S'\x18\x00\x00\x00\x00\x00\x00\x00'
p4148
tp4149
Rp4150
sVnoise
p4151
g3705
(g3709
S'\x86\x00\x00\x00\x00\x00\x00\x00'
p4152
tp4153
Rp4154
sVcom
p4155
g3705
(g3709
S'%\x00\x00\x00\x00\x00\x00\x00'
p4156
tp4157
Rp4158
sVthink
p4159
g3705
(g3709
S'\xc8\x00\x00\x00\x00\x00\x00\x00'
p4160
tp4161
Rp4162
sVfeed
p4163
g3705
(g3709
S'F\x00\x00\x00\x00\x00\x00\x00'
p4164
tp4165
Rp4166
sVthis
p4167
g3705
(g3709
S'\xc9\x00\x00\x00\x00\x00\x00\x00'
p4168
tp4169
Rp4170
sVwhats
p4171
g3705
(g3709
S'\xe1\x00\x00\x00\x00\x00\x00\x00'
p4172
tp4173
Rp4174
sVfeatures
p4175
g3705
(g3709
S'E\x00\x00\x00\x00\x00\x00\x00'
p4176
tp4177
Rp4178
sVsimple
p4179
g3705
(g3709
S'\xb5\x00\x00\x00\x00\x00\x00\x00'
p4180
tp4181
Rp4182
sVsweet
p4183
g3705
(g3709
S'\xc2\x00\x00\x00\x00\x00\x00\x00'
p4184
tp4185
Rp4186
sVtuesday
p4187
g3705
(g3709
S'\xd2\x00\x00\x00\x00\x00\x00\x00'
p4188
tp4189
Rp4190
sVyourself
p4191
g3705
(g3709
S'\xea\x00\x00\x00\x00\x00\x00\x00'
p4192
tp4193
Rp4194
sVdown
p4195
g3705
(g3709
S'9\x00\x00\x00\x00\x00\x00\x00'
p4196
tp4197
Rp4198
sVput
p4199
g3705
(g3709
S'\x9c\x00\x00\x00\x00\x00\x00\x00'
p4200
tp4201
Rp4202
sVgoogle
p4203
g3705
(g3709
S'W\x00\x00\x00\x00\x00\x00\x00'
p4204
tp4205
Rp4206
sVdecrease
p4207
g3705
(g3709
S'/\x00\x00\x00\x00\x00\x00\x00'
p4208
tp4209
Rp4210
sVthursday
p4211
g3705
(g3709
S'\xca\x00\x00\x00\x00\x00\x00\x00'
p4212
tp4213
Rp4214
sVshutdown
p4215
g3705
(g3709
S'\xb4\x00\x00\x00\x00\x00\x00\x00'
p4216
tp4217
Rp4218
sVfake
p4219
g3705
(g3709
S'C\x00\x00\x00\x00\x00\x00\x00'
p4220
tp4221
Rp4222
sVopen
p4223
g3705
(g3709
S'\x8d\x00\x00\x00\x00\x00\x00\x00'
p4224
tp4225
Rp4226
sVtomorrow
p4227
g3705
(g3709
S'\xcf\x00\x00\x00\x00\x00\x00\x00'
p4228
tp4229
Rp4230
sVtemperature
p4231
g3705
(g3709
S'\xc5\x00\x00\x00\x00\x00\x00\x00'
p4232
tp4233
Rp4234
sVwould
p4235
g3705
(g3709
S'\xe6\x00\x00\x00\x00\x00\x00\x00'
p4236
tp4237
Rp4238
sVsake
p4239
g3705
(g3709
S'\xa9\x00\x00\x00\x00\x00\x00\x00'
p4240
tp4241
Rp4242
sVdecent
p4243
g3705
(g3709
S'.\x00\x00\x00\x00\x00\x00\x00'
p4244
tp4245
Rp4246
sVcreate
p4247
g3705
(g3709
S')\x00\x00\x00\x00\x00\x00\x00'
p4248
tp4249
Rp4250
sVthere
p4251
g3705
(g3709
S'\xc7\x00\x00\x00\x00\x00\x00\x00'
p4252
tp4253
Rp4254
sVquestion
p4255
g3705
(g3709
S'\x9d\x00\x00\x00\x00\x00\x00\x00'
p4256
tp4257
Rp4258
sVadd
p4259
g3705
(g3709
S'\x02\x00\x00\x00\x00\x00\x00\x00'
p4260
tp4261
Rp4262
sVnext
p4263
g3705
(g3709
S'\x84\x00\x00\x00\x00\x00\x00\x00'
p4264
tp4265
Rp4266
sVstart
p4267
g3705
(g3709
S'\xbe\x00\x00\x00\x00\x00\x00\x00'
p4268
tp4269
Rp4270
sVlive
p4271
g3705
(g3709
S'r\x00\x00\x00\x00\x00\x00\x00'
p4272
tp4273
Rp4274
sVprogram
p4275
g3705
(g3709
S'\x9b\x00\x00\x00\x00\x00\x00\x00'
p4276
tp4277
Rp4278
sVmusic
p4279
g3705
(g3709
S'}\x00\x00\x00\x00\x00\x00\x00'
p4280
tp4281
Rp4282
sVtell
p4283
g3705
(g3709
S'\xc4\x00\x00\x00\x00\x00\x00\x00'
p4284
tp4285
Rp4286
sVtoday
p4287
g3705
(g3709
S'\xcd\x00\x00\x00\x00\x00\x00\x00'
p4288
tp4289
Rp4290
sVpretends
p4291
g3705
(g3709
S'\x97\x00\x00\x00\x00\x00\x00\x00'
p4292
tp4293
Rp4294
sValmost
p4295
g3705
(g3709
S'\x06\x00\x00\x00\x00\x00\x00\x00'
p4296
tp4297
Rp4298
sVsound
p4299
g3705
(g3709
S'\xbb\x00\x00\x00\x00\x00\x00\x00'
p4300
tp4301
Rp4302
sVreleasing
p4303
g3705
(g3709
S'\xa5\x00\x00\x00\x00\x00\x00\x00'
p4304
tp4305
Rp4306
sVcommands
p4307
g3705
(g3709
S'&\x00\x00\x00\x00\x00\x00\x00'
p4308
tp4309
Rp4310
sVit
p4311
g3705
(g3709
S'm\x00\x00\x00\x00\x00\x00\x00'
p4312
tp4313
Rp4314
sVvolume
p4315
g3705
(g3709
S'\xda\x00\x00\x00\x00\x00\x00\x00'
p4316
tp4317
Rp4318
sVtrain
p4319
g3705
(g3709
S'\xd0\x00\x00\x00\x00\x00\x00\x00'
p4320
tp4321
Rp4322
sVstick
p4323
g3705
(g3709
S'\xbf\x00\x00\x00\x00\x00\x00\x00'
p4324
tp4325
Rp4326
sVbeat
p4327
g3705
(g3709
S'\x11\x00\x00\x00\x00\x00\x00\x00'
p4328
tp4329
Rp4330
sVfoggy
p4331
g3705
(g3709
S'H\x00\x00\x00\x00\x00\x00\x00'
p4332
tp4333
Rp4334
sVme
p4335
g3705
(g3709
S'y\x00\x00\x00\x00\x00\x00\x00'
p4336
tp4337
Rp4338
sVanything
p4339
g3705
(g3709
S'\x0b\x00\x00\x00\x00\x00\x00\x00'
p4340
tp4341
Rp4342
sVunmute
p4343
g3705
(g3709
S'\xd7\x00\x00\x00\x00\x00\x00\x00'
p4344
tp4345
Rp4346
sVup
p4347
g3705
(g3709
S'\xd8\x00\x00\x00\x00\x00\x00\x00'
p4348
tp4349
Rp4350
sVdogs
p4351
g3705
(g3709
S'6\x00\x00\x00\x00\x00\x00\x00'
p4352
tp4353
Rp4354
sVwill
p4355
g3705
(g3709
S'\xe3\x00\x00\x00\x00\x00\x00\x00'
p4356
tp4357
Rp4358
sVlouder
p4359
g3705
(g3709
S't\x00\x00\x00\x00\x00\x00\x00'
p4360
tp4361
Rp4362
sVcan
p4363
g3705
(g3709
S'\x1c\x00\x00\x00\x00\x00\x00\x00'
p4364
tp4365
Rp4366
sVbriefing
p4367
g3705
(g3709
S'\x16\x00\x00\x00\x00\x00\x00\x00'
p4368
tp4369
Rp4370
sVproblem
p4371
g3705
(g3709
S'\x99\x00\x00\x00\x00\x00\x00\x00'
p4372
tp4373
Rp4374
sVoutcome
p4375
g3705
(g3709
S'\x90\x00\x00\x00\x00\x00\x00\x00'
p4376
tp4377
Rp4378
sVmy
p4379
g3705
(g3709
S'\x7f\x00\x00\x00\x00\x00\x00\x00'
p4380
tp4381
Rp4382
sVdee
p4383
g3705
(g3709
S'0\x00\x00\x00\x00\x00\x00\x00'
p4384
tp4385
Rp4386
sVfeature
p4387
g3705
(g3709
S'D\x00\x00\x00\x00\x00\x00\x00'
p4388
tp4389
Rp4390
sVbrowser
p4391
g3705
(g3709
S'\x17\x00\x00\x00\x00\x00\x00\x00'
p4392
tp4393
Rp4394
sVsaturday
p4395
g3705
(g3709
S'\xab\x00\x00\x00\x00\x00\x00\x00'
p4396
tp4397
Rp4398
sVbefore
p4399
g3705
(g3709
S'\x13\x00\x00\x00\x00\x00\x00\x00'
p4400
tp4401
Rp4402
sVgive
p4403
g3705
(g3709
S'R\x00\x00\x00\x00\x00\x00\x00'
p4404
tp4405
Rp4406
sVpredict
p4407
g3705
(g3709
S'\x96\x00\x00\x00\x00\x00\x00\x00'
p4408
tp4409
Rp4410
sVlock
p4411
g3705
(g3709
S's\x00\x00\x00\x00\x00\x00\x00'
p4412
tp4413
Rp4414
sVis
p4415
g3705
(g3709
S'j\x00\x00\x00\x00\x00\x00\x00'
p4416
tp4417
Rp4418
sVin
p4419
g3705
(g3709
S'd\x00\x00\x00\x00\x00\x00\x00'
p4420
tp4421
Rp4422
sVam
p4423
g3705
(g3709
S'\x07\x00\x00\x00\x00\x00\x00\x00'
p4424
tp4425
Rp4426
sVfuck
p4427
g3705
(g3709
S'N\x00\x00\x00\x00\x00\x00\x00'
p4428
tp4429
Rp4430
sVbackbone
p4431
g3705
(g3709
S'\x0f\x00\x00\x00\x00\x00\x00\x00'
p4432
tp4433
Rp4434
sVan
p4435
g3705
(g3709
S'\x08\x00\x00\x00\x00\x00\x00\x00'
p4436
tp4437
Rp4438
sVbeats
p4439
g3705
(g3709
S'\x12\x00\x00\x00\x00\x00\x00\x00'
p4440
tp4441
Rp4442
sVright
p4443
g3705
(g3709
S'\xa8\x00\x00\x00\x00\x00\x00\x00'
p4444
tp4445
Rp4446
sVhave
p4447
g3705
(g3709
S'\\\x00\x00\x00\x00\x00\x00\x00'
p4448
tp4449
Rp4450
sVstalls
p4451
g3705
(g3709
S'\xbd\x00\x00\x00\x00\x00\x00\x00'
p4452
tp4453
Rp4454
sVany
p4455
g3705
(g3709
S'\n\x00\x00\x00\x00\x00\x00\x00'
p4456
tp4457
Rp4458
sVif
p4459
g3705
(g3709
S'b\x00\x00\x00\x00\x00\x00\x00'
p4460
tp4461
Rp4462
sVinformation
p4463
g3705
(g3709
S'g\x00\x00\x00\x00\x00\x00\x00'
p4464
tp4465
Rp4466
sVrainy
p4467
g3705
(g3709
S'\xa2\x00\x00\x00\x00\x00\x00\x00'
p4468
tp4469
Rp4470
sVzero
p4471
g3705
(g3709
S'\xeb\x00\x00\x00\x00\x00\x00\x00'
p4472
tp4473
Rp4474
sVcheck
p4475
g3705
(g3709
S'\x1f\x00\x00\x00\x00\x00\x00\x00'
p4476
tp4477
Rp4478
sVmake
p4479
g3705
(g3709
S'w\x00\x00\x00\x00\x00\x00\x00'
p4480
tp4481
Rp4482
sVsong
p4483
g3705
(g3709
S'\xba\x00\x00\x00\x00\x00\x00\x00'
p4484
tp4485
Rp4486
sVwhen
p4487
g3705
(g3709
S'\xe2\x00\x00\x00\x00\x00\x00\x00'
p4488
tp4489
Rp4490
sVsnow
p4491
g3705
(g3709
S'\xb7\x00\x00\x00\x00\x00\x00\x00'
p4492
tp4493
Rp4494
sVsame
p4495
g3705
(g3709
S'\xaa\x00\x00\x00\x00\x00\x00\x00'
p4496
tp4497
Rp4498
sVevent
p4499
g3705
(g3709
S'?\x00\x00\x00\x00\x00\x00\x00'
p4500
tp4501
Rp4502
sVbeside
p4503
g3705
(g3709
S'\x14\x00\x00\x00\x00\x00\x00\x00'
p4504
tp4505
Rp4506
sVhow
p4507
g3705
(g3709
S'a\x00\x00\x00\x00\x00\x00\x00'
p4508
tp4509
Rp4510
sVhot
p4511
g3705
(g3709
S'`\x00\x00\x00\x00\x00\x00\x00'
p4512
tp4513
Rp4514
sVanswer
p4515
g3705
(g3709
S'\t\x00\x00\x00\x00\x00\x00\x00'
p4516
tp4517
Rp4518
sVyou
p4519
g3705
(g3709
S'\xe8\x00\x00\x00\x00\x00\x00\x00'
p4520
tp4521
Rp4522
sVdocument
p4523
g3705
(g3709
S'5\x00\x00\x00\x00\x00\x00\x00'
p4524
tp4525
Rp4526
sVevents
p4527
g3705
(g3709
S'@\x00\x00\x00\x00\x00\x00\x00'
p4528
tp4529
Rp4530
sVhigher
p4531
g3705
(g3709
S'_\x00\x00\x00\x00\x00\x00\x00'
p4532
tp4533
Rp4534
sVweek
p4535
g3705
(g3709
S'\xdf\x00\x00\x00\x00\x00\x00\x00'
p4536
tp4537
Rp4538
sVplay
p4539
g3705
(g3709
S'\x92\x00\x00\x00\x00\x00\x00\x00'
p4540
tp4541
Rp4542
sVokay
p4543
g3705
(g3709
S'\x8b\x00\x00\x00\x00\x00\x00\x00'
p4544
tp4545
Rp4546
sVhey
p4547
g3705
(g3709
S'^\x00\x00\x00\x00\x00\x00\x00'
p4548
tp4549
Rp4550
sVmonday
p4551
g3705
(g3709
S'{\x00\x00\x00\x00\x00\x00\x00'
p4552
tp4553
Rp4554
sVdefault
p4555
g3705
(g3709
S'1\x00\x00\x00\x00\x00\x00\x00'
p4556
tp4557
Rp4558
sVwatch
p4559
g3705
(g3709
S'\xdb\x00\x00\x00\x00\x00\x00\x00'
p4560
tp4561
Rp4562
sVorg
p4563
g3705
(g3709
S'\x8e\x00\x00\x00\x00\x00\x00\x00'
p4564
tp4565
Rp4566
sVearlier
p4567
g3705
(g3709
S';\x00\x00\x00\x00\x00\x00\x00'
p4568
tp4569
Rp4570
sVproblems
p4571
g3705
(g3709
S'\x9a\x00\x00\x00\x00\x00\x00\x00'
p4572
tp4573
Rp4574
sVquieter
p4575
g3705
(g3709
S'\x9f\x00\x00\x00\x00\x00\x00\x00'
p4576
tp4577
Rp4578
sVrain
p4579
g3705
(g3709
S'\xa0\x00\x00\x00\x00\x00\x00\x00'
p4580
tp4581
Rp4582
sVfreezing
p4583
g3705
(g3709
S'L\x00\x00\x00\x00\x00\x00\x00'
p4584
tp4585
Rp4586
sVbyebye
p4587
g3705
(g3709
S'\x1a\x00\x00\x00\x00\x00\x00\x00'
p4588
tp4589
Rp4590
sVtune
p4591
g3705
(g3709
S'\xd3\x00\x00\x00\x00\x00\x00\x00'
p4592
tp4593
Rp4594
sVyour
p4595
g3705
(g3709
S'\xe9\x00\x00\x00\x00\x00\x00\x00'
p4596
tp4597
Rp4598
sVgrief
p4599
g3705
(g3709
S'Z\x00\x00\x00\x00\x00\x00\x00'
p4600
tp4601
Rp4602
sVlower
p4603
g3705
(g3709
S'u\x00\x00\x00\x00\x00\x00\x00'
p4604
tp4605
Rp4606
sVoff
p4607
g3705
(g3709
S'\x8a\x00\x00\x00\x00\x00\x00\x00'
p4608
tp4609
Rp4610
sVusing
p4611
g3705
(g3709
S'\xd9\x00\x00\x00\x00\x00\x00\x00'
p4612
tp4613
Rp4614
sVwe
p4615
g3705
(g3709
S'\xdc\x00\x00\x00\x00\x00\x00\x00'
p4616
tp4617
Rp4618
sVgather
p4619
g3705
(g3709
S'O\x00\x00\x00\x00\x00\x00\x00'
p4620
tp4621
Rp4622
sVtale
p4623
g3705
(g3709
S'\xc3\x00\x00\x00\x00\x00\x00\x00'
p4624
tp4625
Rp4626
sVtime
p4627
g3705
(g3709
S'\xcb\x00\x00\x00\x00\x00\x00\x00'
p4628
tp4629
Rp4630
sVnewsfeed
p4631
g3705
(g3709
S'\x83\x00\x00\x00\x00\x00\x00\x00'
p4632
tp4633
Rp4634
sVthe
p4635
g3705
(g3709
S'\xc6\x00\x00\x00\x00\x00\x00\x00'
p4636
tp4637
Rp4638
sVincrease
p4639
g3705
(g3709
S'f\x00\x00\x00\x00\x00\x00\x00'
p4640
tp4641
Rp4642
sVplaying
p4643
g3705
(g3709
S'\x93\x00\x00\x00\x00\x00\x00\x00'
p4644
tp4645
Rp4646
sVdot
p4647
g3705
(g3709
S'8\x00\x00\x00\x00\x00\x00\x00'
p4648
tp4649
Rp4650
sVlatest
p4651
g3705
(g3709
S'p\x00\x00\x00\x00\x00\x00\x00'
p4652
tp4653
Rp4654
ssS'binary'
p4655
I00
sS'ngram_range'
p4656
(I1
I1
tp4657
sg3679
g3680
sS'max_df'
p4658
F1.0
sS'min_df'
p4659
I1
sS'max_features'
p4660
NsS'fixed_vocabulary_'
p4661
I00
sS'strip_accents'
p4662
NsS'dtype'
p4663
cnumpy
int64
p4664
sS'stop_words_'
p4665
c__builtin__
set
p4666
((lp4667
tp4668
Rp4669
sS'preprocessor'
p4670
Nsbtp4671
a(S'tfidf'
p4672
g3673
(csklearn.feature_extraction.text
TfidfTransformer
p4673
g3675
Ntp4674
Rp4675
(dp4676
S'smooth_idf'
p4677
I01
sg3679
g3680
sS'_idf_diag'
p4678
g3673
(cscipy.sparse.csr
csr_matrix
p4679
g3675
Ntp4680
Rp4681
(dp4682
S'indices'
p4683
cnumpy.core.multiarray
_reconstruct
p4684
(cnumpy
ndarray
p4685
(I0
tp4686
S'b'
p4687
tp4688
Rp4689
(I1
(I236
tp4690
g3706
(S'i4'
p4691
I0
I1
tp4692
Rp4693
(I3
S'<'
p4694
NNNI-1
I-1
I0
tp4695
bI00
S'\x00\x00\x00\x00\x01\x00\x00\x00\x02\x00\x00\x00\x03\x00\x00\x00\x04\x00\x00\x00\x05\x00\x00\x00\x06\x00\x00\x00\x07\x00\x00\x00\x08\x00\x00\x00\t\x00\x00\x00\n\x00\x00\x00\x0b\x00\x00\x00\x0c\x00\x00\x00\r\x00\x00\x00\x0e\x00\x00\x00\x0f\x00\x00\x00\x10\x00\x00\x00\x11\x00\x00\x00\x12\x00\x00\x00\x13\x00\x00\x00\x14\x00\x00\x00\x15\x00\x00\x00\x16\x00\x00\x00\x17\x00\x00\x00\x18\x00\x00\x00\x19\x00\x00\x00\x1a\x00\x00\x00\x1b\x00\x00\x00\x1c\x00\x00\x00\x1d\x00\x00\x00\x1e\x00\x00\x00\x1f\x00\x00\x00 \x00\x00\x00!\x00\x00\x00"\x00\x00\x00#\x00\x00\x00$\x00\x00\x00%\x00\x00\x00&\x00\x00\x00\'\x00\x00\x00(\x00\x00\x00)\x00\x00\x00*\x00\x00\x00+\x00\x00\x00,\x00\x00\x00-\x00\x00\x00.\x00\x00\x00/\x00\x00\x000\x00\x00\x001\x00\x00\x002\x00\x00\x003\x00\x00\x004\x00\x00\x005\x00\x00\x006\x00\x00\x007\x00\x00\x008\x00\x00\x009\x00\x00\x00:\x00\x00\x00;\x00\x00\x00<\x00\x00\x00=\x00\x00\x00>\x00\x00\x00?\x00\x00\x00@\x00\x00\x00A\x00\x00\x00B\x00\x00\x00C\x00\x00\x00D\x00\x00\x00E\x00\x00\x00F\x00\x00\x00G\x00\x00\x00H\x00\x00\x00I\x00\x00\x00J\x00\x00\x00K\x00\x00\x00L\x00\x00\x00M\x00\x00\x00N\x00\x00\x00O\x00\x00\x00P\x00\x00\x00Q\x00\x00\x00R\x00\x00\x00S\x00\x00\x00T\x00\x00\x00U\x00\x00\x00V\x00\x00\x00W\x00\x00\x00X\x00\x00\x00Y\x00\x00\x00Z\x00\x00\x00[\x00\x00\x00\\\x00\x00\x00]\x00\x00\x00^\x00\x00\x00_\x00\x00\x00`\x00\x00\x00a\x00\x00\x00b\x00\x00\x00c\x00\x00\x00d\x00\x00\x00e\x00\x00\x00f\x00\x00\x00g\x00\x00\x00h\x00\x00\x00i\x00\x00\x00j\x00\x00\x00k\x00\x00\x00l\x00\x00\x00m\x00\x00\x00n\x00\x00\x00o\x00\x00\x00p\x00\x00\x00q\x00\x00\x00r\x00\x00\x00s\x00\x00\x00t\x00\x00\x00u\x00\x00\x00v\x00\x00\x00w\x00\x00\x00x\x00\x00\x00y\x00\x00\x00z\x00\x00\x00{\x00\x00\x00|\x00\x00\x00}\x00\x00\x00~\x00\x00\x00\x7f\x00\x00\x00\x80\x00\x00\x00\x81\x00\x00\x00\x82\x00\x00\x00\x83\x00\x00\x00\x84\x00\x00\x00\x85\x00\x00\x00\x86\x00\x00\x00\x87\x00\x00\x00\x88\x00\x00\x00\x89\x00\x00\x00\x8a\x00\x00\x00\x8b\x00\x00\x00\x8c\x00\x00\x00\x8d\x00\x00\x00\x8e\x00\x00\x00\x8f\x00\x00\x00\x90\x00\x00\x00\x91\x00\x00\x00\x92\x00\x00\x00\x93\x00\x00\x00\x94\x00\x00\x00\x95\x00\x00\x00\x96\x00\x00\x00\x97\x00\x00\x00\x98\x00\x00\x00\x99\x00\x00\x00\x9a\x00\x00\x00\x9b\x00\x00\x00\x9c\x00\x00\x00\x9d\x00\x00\x00\x9e\x00\x00\x00\x9f\x00\x00\x00\xa0\x00\x00\x00\xa1\x00\x00\x00\xa2\x00\x00\x00\xa3\x00\x00\x00\xa4\x00\x00\x00\xa5\x00\x00\x00\xa6\x00\x00\x00\xa7\x00\x00\x00\xa8\x00\x00\x00\xa9\x00\x00\x00\xaa\x00\x00\x00\xab\x00\x00\x00\xac\x00\x00\x00\xad\x00\x00\x00\xae\x00\x00\x00\xaf\x00\x00\x00\xb0\x00\x00\x00\xb1\x00\x00\x00\xb2\x00\x00\x00\xb3\x00\x00\x00\xb4\x00\x00\x00\xb5\x00\x00\x00\xb6\x00\x00\x00\xb7\x00\x00\x00\xb8\x00\x00\x00\xb9\x00\x00\x00\xba\x00\x00\x00\xbb\x00\x00\x00\xbc\x00\x00\x00\xbd\x00\x00\x00\xbe\x00\x00\x00\xbf\x00\x00\x00\xc0\x00\x00\x00\xc1\x00\x00\x00\xc2\x00\x00\x00\xc3\x00\x00\x00\xc4\x00\x00\x00\xc5\x00\x00\x00\xc6\x00\x00\x00\xc7\x00\x00\x00\xc8\x00\x00\x00\xc9\x00\x00\x00\xca\x00\x00\x00\xcb\x00\x00\x00\xcc\x00\x00\x00\xcd\x00\x00\x00\xce\x00\x00\x00\xcf\x00\x00\x00\xd0\x00\x00\x00\xd1\x00\x00\x00\xd2\x00\x00\x00\xd3\x00\x00\x00\xd4\x00\x00\x00\xd5\x00\x00\x00\xd6\x00\x00\x00\xd7\x00\x00\x00\xd8\x00\x00\x00\xd9\x00\x00\x00\xda\x00\x00\x00\xdb\x00\x00\x00\xdc\x00\x00\x00\xdd\x00\x00\x00\xde\x00\x00\x00\xdf\x00\x00\x00\xe0\x00\x00\x00\xe1\x00\x00\x00\xe2\x00\x00\x00\xe3\x00\x00\x00\xe4\x00\x00\x00\xe5\x00\x00\x00\xe6\x00\x00\x00\xe7\x00\x00\x00\xe8\x00\x00\x00\xe9\x00\x00\x00\xea\x00\x00\x00\xeb\x00\x00\x00'
p4696
tp4697
bsS'indptr'
p4698
g4684
(g4685
(I0
tp4699
g4687
tp4700
Rp4701
(I1
(I237
tp4702
g4693
I00
S'\x00\x00\x00\x00\x01\x00\x00\x00\x02\x00\x00\x00\x03\x00\x00\x00\x04\x00\x00\x00\x05\x00\x00\x00\x06\x00\x00\x00\x07\x00\x00\x00\x08\x00\x00\x00\t\x00\x00\x00\n\x00\x00\x00\x0b\x00\x00\x00\x0c\x00\x00\x00\r\x00\x00\x00\x0e\x00\x00\x00\x0f\x00\x00\x00\x10\x00\x00\x00\x11\x00\x00\x00\x12\x00\x00\x00\x13\x00\x00\x00\x14\x00\x00\x00\x15\x00\x00\x00\x16\x00\x00\x00\x17\x00\x00\x00\x18\x00\x00\x00\x19\x00\x00\x00\x1a\x00\x00\x00\x1b\x00\x00\x00\x1c\x00\x00\x00\x1d\x00\x00\x00\x1e\x00\x00\x00\x1f\x00\x00\x00 \x00\x00\x00!\x00\x00\x00"\x00\x00\x00#\x00\x00\x00$\x00\x00\x00%\x00\x00\x00&\x00\x00\x00\'\x00\x00\x00(\x00\x00\x00)\x00\x00\x00*\x00\x00\x00+\x00\x00\x00,\x00\x00\x00-\x00\x00\x00.\x00\x00\x00/\x00\x00\x000\x00\x00\x001\x00\x00\x002\x00\x00\x003\x00\x00\x004\x00\x00\x005\x00\x00\x006\x00\x00\x007\x00\x00\x008\x00\x00\x009\x00\x00\x00:\x00\x00\x00;\x00\x00\x00<\x00\x00\x00=\x00\x00\x00>\x00\x00\x00?\x00\x00\x00@\x00\x00\x00A\x00\x00\x00B\x00\x00\x00C\x00\x00\x00D\x00\x00\x00E\x00\x00\x00F\x00\x00\x00G\x00\x00\x00H\x00\x00\x00I\x00\x00\x00J\x00\x00\x00K\x00\x00\x00L\x00\x00\x00M\x00\x00\x00N\x00\x00\x00O\x00\x00\x00P\x00\x00\x00Q\x00\x00\x00R\x00\x00\x00S\x00\x00\x00T\x00\x00\x00U\x00\x00\x00V\x00\x00\x00W\x00\x00\x00X\x00\x00\x00Y\x00\x00\x00Z\x00\x00\x00[\x00\x00\x00\\\x00\x00\x00]\x00\x00\x00^\x00\x00\x00_\x00\x00\x00`\x00\x00\x00a\x00\x00\x00b\x00\x00\x00c\x00\x00\x00d\x00\x00\x00e\x00\x00\x00f\x00\x00\x00g\x00\x00\x00h\x00\x00\x00i\x00\x00\x00j\x00\x00\x00k\x00\x00\x00l\x00\x00\x00m\x00\x00\x00n\x00\x00\x00o\x00\x00\x00p\x00\x00\x00q\x00\x00\x00r\x00\x00\x00s\x00\x00\x00t\x00\x00\x00u\x00\x00\x00v\x00\x00\x00w\x00\x00\x00x\x00\x00\x00y\x00\x00\x00z\x00\x00\x00{\x00\x00\x00|\x00\x00\x00}\x00\x00\x00~\x00\x00\x00\x7f\x00\x00\x00\x80\x00\x00\x00\x81\x00\x00\x00\x82\x00\x00\x00\x83\x00\x00\x00\x84\x00\x00\x00\x85\x00\x00\x00\x86\x00\x00\x00\x87\x00\x00\x00\x88\x00\x00\x00\x89\x00\x00\x00\x8a\x00\x00\x00\x8b\x00\x00\x00\x8c\x00\x00\x00\x8d\x00\x00\x00\x8e\x00\x00\x00\x8f\x00\x00\x00\x90\x00\x00\x00\x91\x00\x00\x00\x92\x00\x00\x00\x93\x00\x00\x00\x94\x00\x00\x00\x95\x00\x00\x00\x96\x00\x00\x00\x97\x00\x00\x00\x98\x00\x00\x00\x99\x00\x00\x00\x9a\x00\x00\x00\x9b\x00\x00\x00\x9c\x00\x00\x00\x9d\x00\x00\x00\x9e\x00\x00\x00\x9f\x00\x00\x00\xa0\x00\x00\x00\xa1\x00\x00\x00\xa2\x00\x00\x00\xa3\x00\x00\x00\xa4\x00\x00\x00\xa5\x00\x00\x00\xa6\x00\x00\x00\xa7\x00\x00\x00\xa8\x00\x00\x00\xa9\x00\x00\x00\xaa\x00\x00\x00\xab\x00\x00\x00\xac\x00\x00\x00\xad\x00\x00\x00\xae\x00\x00\x00\xaf\x00\x00\x00\xb0\x00\x00\x00\xb1\x00\x00\x00\xb2\x00\x00\x00\xb3\x00\x00\x00\xb4\x00\x00\x00\xb5\x00\x00\x00\xb6\x00\x00\x00\xb7\x00\x00\x00\xb8\x00\x00\x00\xb9\x00\x00\x00\xba\x00\x00\x00\xbb\x00\x00\x00\xbc\x00\x00\x00\xbd\x00\x00\x00\xbe\x00\x00\x00\xbf\x00\x00\x00\xc0\x00\x00\x00\xc1\x00\x00\x00\xc2\x00\x00\x00\xc3\x00\x00\x00\xc4\x00\x00\x00\xc5\x00\x00\x00\xc6\x00\x00\x00\xc7\x00\x00\x00\xc8\x00\x00\x00\xc9\x00\x00\x00\xca\x00\x00\x00\xcb\x00\x00\x00\xcc\x00\x00\x00\xcd\x00\x00\x00\xce\x00\x00\x00\xcf\x00\x00\x00\xd0\x00\x00\x00\xd1\x00\x00\x00\xd2\x00\x00\x00\xd3\x00\x00\x00\xd4\x00\x00\x00\xd5\x00\x00\x00\xd6\x00\x00\x00\xd7\x00\x00\x00\xd8\x00\x00\x00\xd9\x00\x00\x00\xda\x00\x00\x00\xdb\x00\x00\x00\xdc\x00\x00\x00\xdd\x00\x00\x00\xde\x00\x00\x00\xdf\x00\x00\x00\xe0\x00\x00\x00\xe1\x00\x00\x00\xe2\x00\x00\x00\xe3\x00\x00\x00\xe4\x00\x00\x00\xe5\x00\x00\x00\xe6\x00\x00\x00\xe7\x00\x00\x00\xe8\x00\x00\x00\xe9\x00\x00\x00\xea\x00\x00\x00\xeb\x00\x00\x00\xec\x00\x00\x00'
p4703
tp4704
bsS'maxprint'
p4705
I50
sS'_shape'
p4706
(I236
I236
tp4707
sg12
g4684
(g4685
(I0
tp4708
g4687
tp4709
Rp4710
(I1
(I236
tp4711
g3706
(S'f8'
p4712
I0
I1
tp4713
Rp4714
(I3
S'<'
p4715
NNNI-1
I-1
I0
tp4716
bI00
S'\xf1\x9c\xbd\t~O\x1f@ @\xf6L;@\x17@Q\x80\x7f\xf2\xb1\xa3\x13@\x9aM\x10\xbe\xa9L\x1a@\xb4U\xde\xa9\xb5\x89\x1c@\x89H\xdd\x8d\xd4}\x18@\xf1\x9c\xbd\t~O\x1f@\x82NTE\xdfX\x14@\\C\xbb\x06c\x88\x13@\xf1\x9c\xbd\t~O\x1f@\xebc$l\x14\x8e\x10@\xdaE\x92\x966\xec\x0b@\x0e\xba\x1e\xceC\xf2\x12@8\xc7\x1f\xea$\xfe\x16@\x9aM\x10\xbe\xa9L\x1a@\xf1\x9c\xbd\t~O\x1f@m\xa3\xf1\xcaK\xb0\x1d@\xa59\xc2\x8bm\xdf\x18@\xf1\x9c\xbd\t~O\x1f@m\xa3\xf1\xcaK\xb0\x1d@m\xa3\xf1\xcaK\xb0\x1d@\xf1\x9c\xbd\t~O\x1f@\xf1\x9c\xbd\t~O\x1f@ \xe5\xb5\x03*\x9d\x14@\xb4U\xde\xa9\xb5\x89\x1c@/\\\x12k\x83\xea\x1a@\xf1\x9c\xbd\t~O\x1f@\xa89\xbb\xbd\x98\xc8\x0e@\xa1\x19\xce\x15\xe68\x0b@\xf1\x9c\xbd\t~O\x1f@\xf1\x9c\xbd\t~O\x1f@Fv\xca0\x14\xeb\x06@\xf1\x9c\xbd\t~O\x1f@t\xc9\x08\xcc\x8c%\x11@L\x01\xfe-\x0c\xb8\x15@\xaabF,QK\x19@\xaabF,QK\x19@\xe2\x80\xa1\xeb5\xa5\x1b@\xf1\x9c\xbd\t~O\x1f@\xe0wr\x9eP\xfb\x11@ \xb8kNx\x15\x10@Q\x80\x7f\xf2\xb1\xa3\x13@\x8c\xdfHe\x89|\x0f@m\xa3\xf1\xcaK\xb0\x1d@4]\xc0(H\xfa\x13@\xf1\x9c\xbd\t~O\x1f@\xf1\x9c\xbd\t~O\x1f@m\xa3\xf1\xcaK\xb0\x1d@m\xa3\xf1\xcaK\xb0\x1d@\x89H\xdd\x8d\xd4}\x18@\xf1\x9c\xbd\t~O\x1f@\xf1\x9c\xbd\t~O\x1f@\xd6}\x1d{\xce\x06\x08@\xf1\x9c\xbd\t~O\x1f@\xf1\x9c\xbd\t~O\x1f@:\xb2\x0b[\xbf\xb0\x0c@ @\xf6L;@\x17@Q\x80\x7f\xf2\xb1\xa3\x13@m\xa3\xf1\xcaK\xb0\x1d@\xf1\x9c\xbd\t~O\x1f@m\xa3\xf1\xcaK\xb0\x1d@m\xa3\xf1\xcaK\xb0\x1d@\xf1\x9c\xbd\t~O\x1f@\xa6\x03u\x0b3Z\x0c@\xf4Hm\xe2\x92Q\x0b@\xe2\x80\xa1\xeb5\xa5\x1b@\xf1\x9c\xbd\t~O\x1f@\xf1\x9c\xbd\t~O\x1f@\xf1\x9c\xbd\t~O\x1f@\xf1\x9c\xbd\t~O\x1f@\xd7\x0ce\x1f\xaf\xe7\x15@\x07\x1e\x04T\xc4\xd2\x17@\xaabF,QK\x19@\xd7&\xb9\x9b\x8b\xb5\x0e@\xd7\x0ce\x1f\xaf\xe7\x15@\x82NTE\xdfX\x14@\xaabF,QK\x19@\xe2\xf8\x16\xedrz\x14@\xf1\x9c\xbd\t~O\x1f@\xb4U\xde\xa9\xb5\x89\x1c@\xf1\xe6\xec\x1f0\x00\x0e@\xf1\x9c\xbd\t~O\x1f@\xa59\xc2\x8bm\xdf\x18@\x1c\x7f\xa8\xa7n}\x0e@\x96\x1d\xa6m%5\x15@\xe2\x80\xa1\xeb5\xa5\x1b@\xb4U\xde\xa9\xb5\x89\x1c@\x8b\x8fE\x943G\x12@\xf1\x9c\xbd\t~O\x1f@m\xa3\xf1\xcaK\xb0\x1d@\xf1\x9c\xbd\t~O\x1f@m\xa3\xf1\xcaK\xb0\x1d@S-\n\xa0\xdc\xd1\t@l\x1bg\xcc\x88\x85\x16@m\xa3\xf1\xcaK\xb0\x1d@v\x0e\xffI\xed\xc3\x19@\xaabF,QK\x19@\x07\x1e\x04T\xc4\xd2\x17@\x04\xb7\x83\x12\r\x84\x12@\xf1\x9c\xbd\t~O\x1f@\xbfi\xf9\x8d\xa4\xf9\x0b@\xae\xff9\xdcah\x10@\xf1\x9c\xbd\t~O\x1f@\xe2\x80\xa1\xeb5\xa5\x1b@\xb4U\xde\xa9\xb5\x89\x1c@\xf1\x9c\xbd\t~O\x1f@\xfd\xd6\x1b\x00[\xaa\x0b@\xe2\x80\xa1\xeb5\xa5\x1b@\xf1\x9c\xbd\t~O\x1f@\x1c\x7f\xa8\xa7n}\x0e@\xc9\xd6$\xf4\xfb\x0c\x15@\x07\x1e\x04T\xc4\xd2\x17@/\\\x12k\x83\xea\x1a@\xf1\x9c\xbd\t~O\x1f@\x82NTE\xdfX\x14@\xc9\xd6$\xf4\xfb\x0c\x15@/\\\x12k\x83\xea\x1a@\x9aM\x10\xbe\xa9L\x1a@Da&}\x10k\x0e@\xd4k\xd4Q\xb9\xae\x12@\xf1\x9c\xbd\t~O\x1f@\xda\xc5\x8b5\xb23\x12@\xf1\x9c\xbd\t~O\x1f@\xe2\xf8\x16\xedrz\x14@\xe2\xf8\x16\xedrz\x14@m\xa3\xf1\xcaK\xb0\x1d@\xe2\x80\xa1\xeb5\xa5\x1b@wU\xb4\x91\x06\x95\t@m\xa3\xf1\xcaK\xb0\x1d@V\xbf\xa7={\xfc\n@I\xb4z6\xd8\xeb\x10@g\xf2\xe2+\xa5\x19\x16@Q\x80\x7f\xf2\xb1\xa3\x13@m\xa3\xf1\xcaK\xb0\x1d@\xf1\x9c\xbd\t~O\x1f@\x89\xc0R\x8f\x11S\x11@s\xa4\x9f\x88\x10\xc0\x16@m\xa3\xf1\xcaK\xb0\x1d@D\xddX\xb5\xc9m\x13@m\xa3\xf1\xcaK\xb0\x1d@.U\xc3\xa5\xb1\xa4\x06@\x08\x8e\r\xa1\xbeg\x0f@m\xa3\xf1\xcaK\xb0\x1d@\xf1\x9c\xbd\t~O\x1f@\xf1\x9c\xbd\t~O\x1f@s\xa4\x9f\x88\x10\xc0\x16@\\\x061^\xe1\x86\x17@m\xa3\xf1\xcaK\xb0\x1d@">,(\xdd\\\x00@m\xa3\xf1\xcaK\xb0\x1d@m\xa3\xf1\xcaK\xb0\x1d@\xf1\x9c\xbd\t~O\x1f@\x9aM\x10\xbe\xa9L\x1a@\xf1\x9c\xbd\t~O\x1f@\xf1\x9c\xbd\t~O\x1f@\xe2\x80\xa1\xeb5\xa5\x1b@\xe2\x80\xa1\xeb5\xa5\x1b@\xf1\x9c\xbd\t~O\x1f@m\xa3\xf1\xcaK\xb0\x1d@\xf1\x9c\xbd\t~O\x1f@m\xa3\xf1\xcaK\xb0\x1d@\xaabF,QK\x19@\xaabF,QK\x19@\x89H\xdd\x8d\xd4}\x18@\xfa\xc2\xd4\n\xbf\xc4\x12@\xf1\x9c\xbd\t~O\x1f@\xf1\x9c\xbd\t~O\x1f@\x1e\xbfQ\xfe\x18\xc1\x14@\x07\x1e\x04T\xc4\xd2\x17@\xf1\x9c\xbd\t~O\x1f@\xf1\x9c\xbd\t~O\x1f@\xe2\xf8\x16\xedrz\x14@Q\x80\x7f\xf2\xb1\xa3\x13@ @\xf6L;@\x17@L\x01\xfe-\x0c\xb8\x15@\xb4U\xde\xa9\xb5\x89\x1c@/\\\x12k\x83\xea\x1a@\xb4U\xde\xa9\xb5\x89\x1c@\xf1\x9c\xbd\t~O\x1f@Q\x80\x7f\xf2\xb1\xa3\x13@s\xa4\x9f\x88\x10\xc0\x16@\xf1\x9c\xbd\t~O\x1f@/\\\x12k\x83\xea\x1a@m\xa3\xf1\xcaK\xb0\x1d@\xaabF,QK\x19@m\xa3\xf1\xcaK\xb0\x1d@.\xd4\x87l\xc0\xbf\x13@\xd7\x0ce\x1f\xaf\xe7\x15@\xe0wr\x9eP\xfb\x11@\xf1\x9c\xbd\t~O\x1f@\xc9\xd6$\xf4\xfb\x0c\x15@\xf1\x9c\xbd\t~O\x1f@\xf1\x143\x0b\xbb$\x18@\xe2\xf8\x16\xedrz\x14@m\xa3\xf1\xcaK\xb0\x1d@\xf1\x9c\xbd\t~O\x1f@\xf1\x143\x0b\xbb$\x18@\xd7\x0ce\x1f\xaf\xe7\x15@"@|\xe1\xe6\x8e\x05@\xba\xba\x08\xd6\xb3b\x11@\xf1\x9c\xbd\t~O\x1f@Da&}\x10k\x0e@\xe2\xf8\x16\xedrz\x14@\xf1\xe6\xec\x1f0\x00\x0e@\x82\xec\xb0\xe7$>\x0c@\xa89\xbb\xbd\x98\xc8\x0e@\xe2\x80\xa1\xeb5\xa5\x1b@\xfa\x7f@\x8a\\8\x14@\xf1\x9c\xbd\t~O\x1f@\xf1\x9c\xbd\t~O\x1f@\xe2\xf8\x16\xedrz\x14@\x9aM\x10\xbe\xa9L\x1a@m\xa3\xf1\xcaK\xb0\x1d@\x9aM\x10\xbe\xa9L\x1a@\x139\xa0\x92\xe9\xdd\x10@\xe2\x80\xa1\xeb5\xa5\x1b@\\C\xbb\x06c\x88\x13@\xf1\x9c\xbd\t~O\x1f@\xc9\xd6$\xf4\xfb\x0c\x15@\x99\x8a\x9af+N\x16@\xf1\x9c\xbd\t~O\x1f@\xd7\x0ce\x1f\xaf\xe7\x15@\xe2\xf8\x16\xedrz\x14@\xae\xff9\xdcah\x10@\xa8\xc7\x93\xa6\xec\x07\x07@m\xa3\xf1\xcaK\xb0\x1d@\x9aM\x10\xbe\xa9L\x1a@<\xe5\xe1\x0f\xc4\r\x12@\x99\xc5\x85\xbf\xe6!\x13@m\xa3\xf1\xcaK\xb0\x1d@\'n\x92^\xce\t\x13@m\xa3\xf1\xcaK\xb0\x1d@\x9e\x15\x8d\xe0\\S\x05@\x99\x8a\x9af+N\x16@\xe2\x80\xa1\xeb5\xa5\x1b@\xe2\x80\xa1\xeb5\xa5\x1b@'
p4717
tp4718
bsbsS'use_idf'
p4719
I01
sS'sublinear_tf'
p4720
I00
sS'norm'
p4721
Vl2
p4722
sbtp4723
a(S'clsfr'
p4724
g3673
(csklearn.linear_model.stochastic_gradient
SGDClassifier
p4725
g3675
Ntp4726
Rp4727
(dp4728
S't_'
p4729
F9226.0
sS'n_jobs'
p4730
I1
sS'shuffle'
p4731
I01
sS'verbose'
p4732
I0
sS'classes_'
p4733
g4684
(g4685
(I0
tp4734
g4687
tp4735
Rp4736
(I1
(I2
tp4737
g3706
(S'S5'
p4738
I0
I1
tp4739
Rp4740
(I3
S'|'
p4741
NNNI5
I1
I0
tp4742
bI00
S'FalseTrue\x00'
p4743
tp4744
bsS'class_weight'
p4745
NsS'fit_intercept'
p4746
I01
sg8
g9
sS'random_state'
p4747
I42
sg3679
g3680
sS'loss_function'
p4748
csklearn.linear_model.sgd_fast
Hinge
p4749
(F1.0
tp4750
Rp4751
sS'C'
p4752
F1.0
sg7
I5
sS'epsilon'
p4753
F0.1
sS'learning_rate'
p4754
S'optimal'
p4755
sS'coef_'
p4756
g4684
(g4685
(I0
tp4757
g4687
tp4758
Rp4759
(I1
(I1
I236
tp4760
g4714
I00
S'\x00\x00\x00\x00\x00\x00\x00\x00\x00\x00\x00\x00\x00\x00\x00\x00e\xff\xf8\xf9\xbd\xea\xb4\xbf\x00\x00\x00\x00\x00\x00\x00\x00\xcbk\xcf\x90\x93\xde\xb2\xbf\x00\x00\x00\x00\x00\x00\x00\x00F\x81\xf6Z\x18g\xa5\xbf\x00\x00\x00\x00\x00\x00\x00\x00\x00\x00\x00\x00\x00\x00\x00\x00\x00\x00\x00\x00\x00\x00\x00\x00\x00\x00\x00\x00\x00\x00\x00\x00\x00\x00\x00\x00\x00\x00\x00\x00\xf5\xc9\xf4\xd1s\x05\xa4\xbf\x00\x00\x00\x00\x00\x00\x00\x00\x00\x00\x00\x00\x00\x00\x00\x00\x00\x00\x00\x00\x00\x00\x00\x00\x00\x00\x00\x00\x00\x00\x00\x00A\xb2\xc7\x1a.1\xc0\xbf\x00\x00\x00\x00\x00\x00\x00\x00l\x93\xf0W\x18Y\xb2\xbf\xfeX\n\x19T\r\xa7\xbf;a\x84\xe3@\x8a\xb7\xbf\x00\x00\x00\x00\x00\x00\x00\x00\xc6\xa8\xbb\xb1\xb5\xaf\xae\xbf?\xca\x05\x15\x8d\xe9\xb5\xbf\x00\x00\x00\x00\x00\x00\x00\x00\xdf>\xec3\x8f:\xbb\xbf\xcbQ\xc2\xb2\xe2?\xd4\xbf\x86\xbdC\xd9p\xe1\xc3\xbf\x00\x00\x00\x00\x00\x00\x00\x00\x00\x00\x00\x00\x00\x00\x00\x00\x81n\xeb\x90\xe9\xfb\xe0?\x00\x00\x00\x00\x00\x00\x00\x00\x8b/\xbd\x18\xed\xe7\xff?:).\xdb8\xee\xc0\xbfH\xb98b\xb6A\xc2\xbf2B\xb7\x17;\x19\xb3\xbf\x00\x00\x00\x00\x00\x00\x00\x00\x00\x00\x00\x00\x00\x00\x00\x00\xed\xb5\xe0\xcc^+\xcd\xbfq"%\x03F9\xae\xbf\x00\x00\x00\x00\x00\x00\x00\x00\xf8\x1e\x13\xbaW\xfd\xd6?\xaa\r\x86\xee\x0eG\xab?\x00\x00\x00\x00\x00\x00\x00\x00\x18a\x84\xe3@\x8a\xb7\xbf\x88\x11%B\xb6O\xa8\xbf\xcci\xc5v\x14.\xb3\xbf\x00\x00\x00\x00\x00\x00\x00\x00\xb8iz8\xb5:\xb2\xbf\x00\x00\x00\x00\x00\x00\x00\x00\x00\x00\x00\x00\x00\x00\x00\x00n}\xfeK;\x8d\xf7\xbf\x00\x00\x00\x00\x00\x00\x00\x00\x00\x00\x00\x00\x00\x00\x00\x00\x8a\x15\xa3K8\xa7\x0e\xc0\x88\x02a_h\xd2\xab\xbf\xa7FD\xc8\xd3\xb6\xc0\xbf\x8f\x04\x10\x08\xee@\xb3\xbf\x00\x00\x00\x00\x00\x00\x00\x00\x00\x00\x00\x00\x00\x00\x00\x00\x00\x00\x00\x00\x00\x00\x00\x00\xeeT\x04\xee$\x07\xb6\xbf\xd5G#\xb2V2\xbe\xbf\x13\xe6\x9e\x97\xee\x1d\xee\xbf\xfb\x94\x11\xc6\x01\x1c\xba\xbfF\x81\xf6Z\x18g\xa5\xbf\x00\x00\x00\x00\x00\x00\x00\x00F\x81\xf6Z\x18g\xa5\xbfF\x81\xf6Z\x18g\xa5\xbf\x00\x00\x00\x00\x00\x00\x00\x00\xbc\x14\xb9\x08\'~\xb4\xbf(B\xb7\x17;\x19\xc3\xbf\xed\xcc~\xbb\x8e\xdb\xb6\xbf\x94\xaaY\x11c\x00\xd8\xbf\x00\x00\x00\x00\x00\x00\x00\x00\xd9\x18H\x88\xdd\x1d\xc1\xbf\x00\x00\x00\x00\x00\x00\x00\x00\x00\x00\x00\x00\x00\x00\x00\x00\x00\x00\x00\x00\x00\x00\x00\x00\xf4\x87\x11\r7\x8e\xe1?\x00\x00\x00\x00\x00\x00\x00\x00\xe8\x7f\xf4/\x06\xc7\xb1\xbfv\x04\xe3\x9f1g\xda\xbf\x1b\xdb\xf6\x8d|`\xa9\xbfl\xd9\xda]\xbf6\xad\xbf\xcbk\xcf\x90\x93\xde\xb2\xbf\x16\x12:@\x9e\xd7\xae\xbf\x88\x11%B\xb6O\xa8\xbf\x00\x00\x00\x00\x00\x00\x00\x00\x00\x00\x00\x00\x00\x00\x00\x00\x00\x00\x00\x00\x00\x00\x00\x00\x00\x00\x00\x00\x00\x00\x00\x00\xc8\x01\xcc,\x96;\xdd\xbf\x00\x00\x00\x00\x00\x00\x00\x00\x00\x00\x00\x00\x00\x00\x00\x00E\xb98b\xb6A\xc2\xbf\xa1x\x162nz\xc1\xbfCi\xd9\xc1v\x9f\xb8\xbf\x00\x00\x00\x00\x00\x00\x00\x00\xe3:\xab4\xc3\xbc\xd0\xbfL\xf4\x87\x00\xeaU\xdc\xbf%\xffs\xa6*\xba\xb5\xbfl)\xf2\x0b\x16\xe2\xda\xbf\x00\x00\x00\x00\x00\x00\x00\x00\x00\x00\x00\x00\x00\x00\x00\x00\x12k\xd2\xa4\xae\xc0\xe2?v\xb0}\x07\xbez\xf4\xbf\x00\x00\x00\x00\x00\x00\x00\x00\xb8\x9f\xee\xde\x85`\xd3?\xbb\xc4$\n\xebY\xca\xbf\x00\x00\x00\x00\x00\x00\x00\x00\x04\xbf\xbbf0\xb8\xd0\xbf\x00\x00\x00\x00\x00\x00\x00\x00{\xdc\x8e\xef\x03\x80\xb0\xbf\x90\xe2\xb4I)m\xbc\xbf\xac]\x00AF\r\xba\xbfaOd7.\x97\xc1\xbf\xf3\x91B\xaf\x85;\xe1\xbf\x07o\xed\xd6\xe6\xe0\xb0\xbf\x00\x00\x00\x00\x00\x00\x00\x00\x9e\x17?B\x8fi\xc6?\x00\x00\x00\x00\x00\x00\x00\x00\x00\x00\x00\x00\x00\x00\x00\x00\x00\x00\x00\x00\x00\x00\x00\x00\x00\x00\x00\x00\x00\x00\x00\x00\xdc>\xec3\x8f:\xbb\xbf\x98\xdb\xc0H\xaeI\xc3\xbf\x00\x00\x00\x00\x00\x00\x00\x00\xd8\x01_\xf6\xc7X\xbc\xbf\x91\xa4\xcc(\xf4\xbe\xe9\xbf*qxdT\x81\xd3\xbf\xfd\x8c\xb0\x8e]!\xb0\xbf{!>\xd0[\xa1\xb3\xbf\x00\x00\x00\x00\x00\x00\x00\x00\x99Y\xf0\x8e\xab\x0e\x03\xc0\xe5l:x\xa1\x83\xc7?\x00\x00\x00\x00\x00\x00\x00\x00~\xbcl\x16\x9a\xb4\xbd\xbf{!>\xd0[\xa1\xb3\xbfT\xe2\x96\xce\x18Q\xb8\xbf[\xedQB\xed\xea\xc1\xbfa\x93Z|<\xc3\xb1\xbf\x00\x00\x00\x00\x00\x00\x00\x00\x00\x00\x00\x00\x00\x00\x00\x00\xdel&\x8b;\x0c\xc5\xbf-\xbc\x043u\x14\xad\xbf\x00\x00\x00\x00\x00\x00\x00\x00\x8a\xdbu]b\xd4\xd8?\x00\x00\x00\x00\x00\x00\x00\x00\x00\x00\x00\x00\x00\x00\x00\x00\xd7J4\xe8\x12\xb5\xb2\xbf\x00\x00\x00\x00\x00\x00\x00\x00\x88\x11%B\xb6O\xa8\xbf\x00\x00\x00\x00\x00\x00\x00\x00r{\x8d~\xa0\x8a\xb3\xbf\x00\x00\x00\x00\x00\x00\x00\x00\x00\x00\x00\x00\x00\x00\x00\x00\x00\x00\x00\x00\x00\x00\x00\x00\x00\x00\x00\x00\x00\x00\x00\x00\x00\x00\x00\x00\x00\x00\x00\x00\xad\xa1\xc6=b\xf5\xc1\xbfT\xb98b\xb6A\xc2\xbf\xbc"\x12\xba\xd9<\xb2\xbf)\xe9\x0c\x16\xd2S\xe4?\x00\x00\x00\x00\x00\x00\x00\x00\x00\x00\x00\x00\x00\x00\x00\x00wg\xe2Z\x15\x04\xe7?\xf1\xb4<F\x13\xd6\xcd?\x00\x00\x00\x00\x00\x00\x00\x00F\x81\xf6Z\x18g\xa5\xbf\x00\x00\x00\x00\x00\x00\x00\x00\x86\xff\xf8\xf9\xbd\xea\xb4\xbf\xcd)\x10\xfe\xc1e\xbf\xbf\x93b\xcc\x01\xf9R\xb2\xbf\x00\x00\x00\x00\x00\x00\x00\x00n\xa2\x90m\x98\xc8\xad\xbf\x00\x00\x00\x00\x00\x00\x00\x00\x88\x11%B\xb6O\xa8\xbf\xa7FD\xc8\xd3\xb6\xc0\xbf\xcd\x18!\x9dK\\\xcb\xbf\x00\x00\x00\x00\x00\x00\x00\x00\x00\x00\x00\x00\x00\x00\x00\x00\x00\x00\x00\x00\x00\x00\x00\x00Z0\xba\xac1j\xb1\xbf\x00\x00\x00\x00\x00\x00\x00\x00J3\xa6\x9e\xe1\\\xc5\xbf\xf7\x0cvi\x9e\x89\xbe\xbf\xc4\xe7q\xf6\x07\xca\xbb\xbf\x00\x00\x00\x00\x00\x00\x00\x00!n\xeaf\xd4)\xb0\xbf\x00\x00\x00\x00\x00\x00\x00\x00To\xa7\xe6\xc0\xa0\xb1\xbf\x00\x00\x00\x00\x00\x00\x00\x00\x8f\x04\x10\x08\xee@\xb3\xbf\xd7J4\xe8\x12\xb5\xb2\xbf\x00\x00\x00\x00\x00\x00\x00\x00-\x13\xa2Ok\x1d\xd4\xbf\x01\xc7\x05\xf5+}\xdd?\x00\x00\x00\x00\x00\x00\x00\x00\x00\x00\x00\x00\x00\x00\x00\x00\x9c\n\xb1B\xa6-\xca\xbf\x00\x00\x00\x00\x00\x00\x00\x00\xd5J\x06\xfa\xdfn\x04@\x10M*k\xfdB\xb0\xbf\xa2\x15\xea\xec\xdc\x0f\xe0\xbf\xcc\x9c\x90\x8dN"\xc2\xbf\x00\x00\x00\x00\x00\x00\x00\x00\x00\x00\x00\x00\x00\x00\x00\x00\x00\x00\x00\x00\x00\x00\x00\x00\x00\x00\x00\x00\x00\x00\x00\x00\x00\x00\x00\x00\x00\x00\x00\x00\x91\xe0|\xbb9J\xb3\xbf\x8c?\xc5\x10\xce\xa5\xc2\xbf\x0c}@\r\xdb\xdf\xc7\xbf\xf6\x94\x11\xc6\x01\x1c\xba\xbfH\xab\xb4\xb5zn\xb9\xbfF\x81\xf6Z\x18g\xa5\xbf\xc1&\xb1h\x17\xd0\xc0\xbf\xd0\x8e\xc7\x03o\xe9\xf0?\x00\x00\x00\x00\x00\x00\x00\x00g\xb9\x06\x1b\xc0\xb3\xdb\xbf\x00\x00\x00\x00\x00\x00\x00\x00\xc9<e\xcc\xce=\xcc\xbf\xa3}\xb7\x1a8 \xb0?\x00\x00\x00\x00\x00\x00\x00\x00\x9c\xbb\xd6\x8a@\x08\xea?\xc6\xb8\xa9\xbf\xe3l\xc4\xbfN\xc4\x0b3\x15\r\xd0\xbf\x00\x00\x00\x00\x00\x00\x00\x00\x00\x00\x00\x00\x00\x00\x00\x00\x00\x00\x00\x00\x00\x00\x00\x00\xf4B\x8f\xc4\xd0R\xd0\xbf\xd0\x8e\xc7\x03o\xe9\xf0?\x00\x00\x00\x00\x00\x00\x00\x00\x00\x00\x00\x00\x00\x00\x00\x00'
p4761
tp4762
bsg11
F0.001
sS'intercept_'
p4763
g4684
(g4685
(I0
tp4764
g4687
tp4765
Rp4766
(I1
(I1
tp4767
g4714
I00
S'\x86P\xd1x\x19\xd5\xf1\xbf'
p4768
tp4769
bsS'_expanded_class_weight'
p4770
g4684
(g4685
(I0
tp4771
g4687
tp4772
Rp4773
(I1
(I2
tp4774
g4714
I00
S'\x00\x00\x00\x00\x00\x00\xf0?\x00\x00\x00\x00\x00\x00\xf0?'
p4775
tp4776
bsS'warm_start'
p4777
I00
sg2
g3
sS'eta0'
p4778
F0.0
sS'l1_ratio'
p4779
F0.15
sS'average'
p4780
I00
sS'power_t'
p4781
F0.5
sbtp4782
asbsb.